; Listing generated by Microsoft (R) Optimizing Compiler Version 17.00.60610.1 

include listing.inc

INCLUDELIB MSVCRTD
INCLUDELIB OLDNAMES

PUBLIC	?_G2@?$_Ratio_multiply2@U?$ratio@$00$0JIJGIA@@std@@U?$ratio@$0JIJGIA@$00@2@@std@@2_JB ; std::_Ratio_multiply2<std::ratio<1,10000000>,std::ratio<10000000,1> >::_G2
PUBLIC	?is_signed@?$numeric_limits@I@std@@2_NB		; std::numeric_limits<unsigned int>::is_signed
PUBLIC	?digits@?$numeric_limits@I@std@@2HB		; std::numeric_limits<unsigned int>::digits
PUBLIC	?digits10@?$numeric_limits@I@std@@2HB		; std::numeric_limits<unsigned int>::digits10
PUBLIC	?is_signed@?$numeric_limits@J@std@@2_NB		; std::numeric_limits<long>::is_signed
PUBLIC	?num@?$ratio@$00$00@std@@2_JB			; std::ratio<1,1>::num
PUBLIC	?digits@?$numeric_limits@J@std@@2HB		; std::numeric_limits<long>::digits
PUBLIC	?den@?$ratio@$00$00@std@@2_JB			; std::ratio<1,1>::den
PUBLIC	?digits10@?$numeric_limits@J@std@@2HB		; std::numeric_limits<long>::digits10
PUBLIC	?current_app_@Application@app@@1PEAV12@EA	; app::Application::current_app_
PUBLIC	?is_signed@?$numeric_limits@K@std@@2_NB		; std::numeric_limits<unsigned long>::is_signed
PUBLIC	?value@?$_Sizeof@HU_Nil@std@@U12@U12@U12@U12@U12@U12@@std@@2_KB ; std::_Sizeof<int,std::_Nil,std::_Nil,std::_Nil,std::_Nil,std::_Nil,std::_Nil,std::_Nil>::value
PUBLIC	?digits@?$numeric_limits@K@std@@2HB		; std::numeric_limits<unsigned long>::digits
PUBLIC	?digits10@?$numeric_limits@K@std@@2HB		; std::numeric_limits<unsigned long>::digits10
PUBLIC	?is_signed@?$numeric_limits@_J@std@@2_NB	; std::numeric_limits<__int64>::is_signed
PUBLIC	?digits@?$numeric_limits@_J@std@@2HB		; std::numeric_limits<__int64>::digits
PUBLIC	?digits10@?$numeric_limits@_J@std@@2HB		; std::numeric_limits<__int64>::digits10
PUBLIC	?is_signed@?$numeric_limits@_K@std@@2_NB	; std::numeric_limits<unsigned __int64>::is_signed
PUBLIC	?digits@?$numeric_limits@_K@std@@2HB		; std::numeric_limits<unsigned __int64>::digits
PUBLIC	?is_monotonic@steady_clock@chrono@std@@2_NB	; std::chrono::steady_clock::is_monotonic
PUBLIC	?is_steady@steady_clock@chrono@std@@2_NB	; std::chrono::steady_clock::is_steady
PUBLIC	?digits10@?$numeric_limits@_K@std@@2HB		; std::numeric_limits<unsigned __int64>::digits10
PUBLIC	?digits@?$numeric_limits@M@std@@2HB		; std::numeric_limits<float>::digits
PUBLIC	?digits10@?$numeric_limits@M@std@@2HB		; std::numeric_limits<float>::digits10
PUBLIC	?max_digits10@?$numeric_limits@M@std@@2HB	; std::numeric_limits<float>::max_digits10
PUBLIC	?max_exponent@?$numeric_limits@M@std@@2HB	; std::numeric_limits<float>::max_exponent
PUBLIC	ConcRT_ProviderGuid
PUBLIC	ConcRTEventGuid
PUBLIC	?max_exponent10@?$numeric_limits@M@std@@2HB	; std::numeric_limits<float>::max_exponent10
PUBLIC	SchedulerEventGuid
PUBLIC	ScheduleGroupEventGuid
PUBLIC	ContextEventGuid
PUBLIC	ChoreEventGuid
PUBLIC	?min_exponent@?$numeric_limits@M@std@@2HB	; std::numeric_limits<float>::min_exponent
PUBLIC	VirtualProcessorEventGuid
PUBLIC	LockEventGuid
PUBLIC	ResourceManagerEventGuid
PUBLIC	PPLParallelInvokeEventGuid
PUBLIC	?min_exponent10@?$numeric_limits@M@std@@2HB	; std::numeric_limits<float>::min_exponent10
PUBLIC	PPLParallelForEventGuid
PUBLIC	PPLParallelForeachEventGuid
PUBLIC	AgentEventGuid
PUBLIC	?digits@?$numeric_limits@N@std@@2HB		; std::numeric_limits<double>::digits
PUBLIC	?digits10@?$numeric_limits@N@std@@2HB		; std::numeric_limits<double>::digits10
PUBLIC	?max_digits10@?$numeric_limits@N@std@@2HB	; std::numeric_limits<double>::max_digits10
PUBLIC	?max_exponent@?$numeric_limits@N@std@@2HB	; std::numeric_limits<double>::max_exponent
PUBLIC	?max_exponent10@?$numeric_limits@N@std@@2HB	; std::numeric_limits<double>::max_exponent10
PUBLIC	?min_exponent@?$numeric_limits@N@std@@2HB	; std::numeric_limits<double>::min_exponent
PUBLIC	?min_exponent10@?$numeric_limits@N@std@@2HB	; std::numeric_limits<double>::min_exponent10
PUBLIC	?value@?$_Is_ratio@U?$ratio@$00$0JIJGIA@@std@@@chrono@std@@2_NB ; std::chrono::_Is_ratio<std::ratio<1,10000000> >::value
PUBLIC	?value@?$_GcdX@$0JIJGIA@$00@std@@2_JB		; std::_GcdX<10000000,1>::value
PUBLIC	?digits@?$numeric_limits@O@std@@2HB		; std::numeric_limits<long double>::digits
PUBLIC	?digits10@?$numeric_limits@O@std@@2HB		; std::numeric_limits<long double>::digits10
PUBLIC	?max_digits10@?$numeric_limits@O@std@@2HB	; std::numeric_limits<long double>::max_digits10
PUBLIC	?value@?$_GcdX@$00$0JIJGIA@@std@@2_JB		; std::_GcdX<1,10000000>::value
PUBLIC	?max_exponent@?$numeric_limits@O@std@@2HB	; std::numeric_limits<long double>::max_exponent
PUBLIC	?max_exponent10@?$numeric_limits@O@std@@2HB	; std::numeric_limits<long double>::max_exponent10
PUBLIC	?value@?$_Gcd@$00$0JIJGIA@@std@@2_JB		; std::_Gcd<1,10000000>::value
PUBLIC	?min_exponent@?$numeric_limits@O@std@@2HB	; std::numeric_limits<long double>::min_exponent
PUBLIC	?min_exponent10@?$numeric_limits@O@std@@2HB	; std::numeric_limits<long double>::min_exponent10
PUBLIC	?num@?$ratio@$00$0JIJGIA@@std@@2_JB		; std::ratio<1,10000000>::num
PUBLIC	?den@?$ratio@$00$0JIJGIA@@std@@2_JB		; std::ratio<1,10000000>::den
PUBLIC	?value@?$integral_constant@_K$0A@@std@@2_KB	; std::integral_constant<unsigned __int64,0>::value
PUBLIC	?value@?$integral_constant@H$0A@@std@@2HB	; std::integral_constant<int,0>::value
PUBLIC	?value@?$_Abs@$0GE@@std@@2_JB			; std::_Abs<100>::value
PUBLIC	?value@?$_Abs@$0DLJKMKAA@@std@@2_JB		; std::_Abs<1000000000>::value
PUBLIC	?has_denorm@_Num_base@std@@2W4float_denorm_style@2@B ; std::_Num_base::has_denorm
PUBLIC	?has_denorm_loss@_Num_base@std@@2_NB		; std::_Num_base::has_denorm_loss
PUBLIC	?has_infinity@_Num_base@std@@2_NB		; std::_Num_base::has_infinity
PUBLIC	?has_quiet_NaN@_Num_base@std@@2_NB		; std::_Num_base::has_quiet_NaN
PUBLIC	?_STATE_CLEAR@_CancellationTokenRegistration@details@Concurrency@@0JB ; Concurrency::details::_CancellationTokenRegistration::_STATE_CLEAR
PUBLIC	?_STATE_DEFER_DELETE@_CancellationTokenRegistration@details@Concurrency@@0JB ; Concurrency::details::_CancellationTokenRegistration::_STATE_DEFER_DELETE
PUBLIC	?value@?$_GcdX@$0GE@$0A@@std@@2_JB		; std::_GcdX<100,0>::value
PUBLIC	?has_signaling_NaN@_Num_base@std@@2_NB		; std::_Num_base::has_signaling_NaN
PUBLIC	?_STATE_SYNCHRONIZE@_CancellationTokenRegistration@details@Concurrency@@0JB ; Concurrency::details::_CancellationTokenRegistration::_STATE_SYNCHRONIZE
PUBLIC	?is_bounded@_Num_base@std@@2_NB			; std::_Num_base::is_bounded
PUBLIC	?_STATE_CALLED@_CancellationTokenRegistration@details@Concurrency@@0JB ; Concurrency::details::_CancellationTokenRegistration::_STATE_CALLED
PUBLIC	?is_exact@_Num_base@std@@2_NB			; std::_Num_base::is_exact
PUBLIC	?value@?$_GcdX@$0DLJKMKAA@$0GE@@std@@2_JB	; std::_GcdX<1000000000,100>::value
PUBLIC	?is_iec559@_Num_base@std@@2_NB			; std::_Num_base::is_iec559
PUBLIC	?is_integer@_Num_base@std@@2_NB			; std::_Num_base::is_integer
PUBLIC	?is_modulo@_Num_base@std@@2_NB			; std::_Num_base::is_modulo
PUBLIC	?value@?$_GcdX@$0GE@$0DLJKMKAA@@std@@2_JB	; std::_GcdX<100,1000000000>::value
PUBLIC	?is_signed@_Num_base@std@@2_NB			; std::_Num_base::is_signed
PUBLIC	?is_specialized@_Num_base@std@@2_NB		; std::_Num_base::is_specialized
PUBLIC	?value@?$_Gcd@$0GE@$0DLJKMKAA@@std@@2_JB	; std::_Gcd<100,1000000000>::value
PUBLIC	?tinyness_before@_Num_base@std@@2_NB		; std::_Num_base::tinyness_before
PUBLIC	?traps@_Num_base@std@@2_NB			; std::_Num_base::traps
PUBLIC	?round_style@_Num_base@std@@2W4float_round_style@2@B ; std::_Num_base::round_style
PUBLIC	?_G1@?$_Ratio_multiply2@U?$ratio@$0GE@$00@std@@U?$ratio@$00$0DLJKMKAA@@2@@std@@2_JB ; std::_Ratio_multiply2<std::ratio<100,1>,std::ratio<1,1000000000> >::_G1
PUBLIC	?digits@_Num_base@std@@2HB			; std::_Num_base::digits
PUBLIC	?digits10@_Num_base@std@@2HB			; std::_Num_base::digits10
PUBLIC	?max_digits10@_Num_base@std@@2HB		; std::_Num_base::max_digits10
PUBLIC	?value@?$_Abs@$00@std@@2_JB			; std::_Abs<1>::value
PUBLIC	?max_exponent@_Num_base@std@@2HB		; std::_Num_base::max_exponent
PUBLIC	?max_exponent10@_Num_base@std@@2HB		; std::_Num_base::max_exponent10
PUBLIC	?min_exponent@_Num_base@std@@2HB		; std::_Num_base::min_exponent
PUBLIC	?min_exponent10@_Num_base@std@@2HB		; std::_Num_base::min_exponent10
PUBLIC	?value@?$_GcdX@$00$0A@@std@@2_JB		; std::_GcdX<1,0>::value
PUBLIC	?radix@_Num_base@std@@2HB			; std::_Num_base::radix
PUBLIC	?value@?$_GcdX@$00$00@std@@2_JB			; std::_GcdX<1,1>::value
PUBLIC	?value@?$_Gcd@$00$00@std@@2_JB			; std::_Gcd<1,1>::value
PUBLIC	?_G2@?$_Ratio_multiply2@U?$ratio@$0GE@$00@std@@U?$ratio@$00$0DLJKMKAA@@2@@std@@2_JB ; std::_Ratio_multiply2<std::ratio<100,1>,std::ratio<1,1000000000> >::_G2
PUBLIC	?is_bounded@_Num_int_base@std@@2_NB		; std::_Num_int_base::is_bounded
PUBLIC	?is_exact@_Num_int_base@std@@2_NB		; std::_Num_int_base::is_exact
PUBLIC	?is_integer@_Num_int_base@std@@2_NB		; std::_Num_int_base::is_integer
PUBLIC	?is_modulo@_Num_int_base@std@@2_NB		; std::_Num_int_base::is_modulo
PUBLIC	?is_specialized@_Num_int_base@std@@2_NB		; std::_Num_int_base::is_specialized
PUBLIC	?radix@_Num_int_base@std@@2HB			; std::_Num_int_base::radix
PUBLIC	?value@?$_Sizeof@U_Nil@std@@U12@U12@U12@U12@U12@U12@U12@@std@@2_KB ; std::_Sizeof<std::_Nil,std::_Nil,std::_Nil,std::_Nil,std::_Nil,std::_Nil,std::_Nil,std::_Nil>::value
PUBLIC	?has_denorm@_Num_float_base@std@@2W4float_denorm_style@2@B ; std::_Num_float_base::has_denorm
PUBLIC	?has_denorm_loss@_Num_float_base@std@@2_NB	; std::_Num_float_base::has_denorm_loss
PUBLIC	?is_monotonic@system_clock@chrono@std@@2_NB	; std::chrono::system_clock::is_monotonic
PUBLIC	?has_infinity@_Num_float_base@std@@2_NB		; std::_Num_float_base::has_infinity
PUBLIC	?is_steady@system_clock@chrono@std@@2_NB	; std::chrono::system_clock::is_steady
PUBLIC	?has_quiet_NaN@_Num_float_base@std@@2_NB	; std::_Num_float_base::has_quiet_NaN
PUBLIC	?has_signaling_NaN@_Num_float_base@std@@2_NB	; std::_Num_float_base::has_signaling_NaN
PUBLIC	?is_bounded@_Num_float_base@std@@2_NB		; std::_Num_float_base::is_bounded
PUBLIC	?is_exact@_Num_float_base@std@@2_NB		; std::_Num_float_base::is_exact
PUBLIC	?is_iec559@_Num_float_base@std@@2_NB		; std::_Num_float_base::is_iec559
PUBLIC	?is_integer@_Num_float_base@std@@2_NB		; std::_Num_float_base::is_integer
PUBLIC	?is_modulo@_Num_float_base@std@@2_NB		; std::_Num_float_base::is_modulo
PUBLIC	?is_signed@_Num_float_base@std@@2_NB		; std::_Num_float_base::is_signed
PUBLIC	?is_specialized@_Num_float_base@std@@2_NB	; std::_Num_float_base::is_specialized
PUBLIC	?tinyness_before@_Num_float_base@std@@2_NB	; std::_Num_float_base::tinyness_before
PUBLIC	?traps@_Num_float_base@std@@2_NB		; std::_Num_float_base::traps
PUBLIC	?round_style@_Num_float_base@std@@2W4float_round_style@2@B ; std::_Num_float_base::round_style
PUBLIC	?radix@_Num_float_base@std@@2HB			; std::_Num_float_base::radix
PUBLIC	?is_signed@?$numeric_limits@D@std@@2_NB		; std::numeric_limits<char>::is_signed
PUBLIC	?digits@?$numeric_limits@D@std@@2HB		; std::numeric_limits<char>::digits
PUBLIC	?digits10@?$numeric_limits@D@std@@2HB		; std::numeric_limits<char>::digits10
PUBLIC	?is_signed@?$numeric_limits@_W@std@@2_NB	; std::numeric_limits<wchar_t>::is_signed
PUBLIC	?digits@?$numeric_limits@_W@std@@2HB		; std::numeric_limits<wchar_t>::digits
PUBLIC	?value@?$integral_constant@_N$0A@@std@@2_NB	; std::integral_constant<bool,0>::value
PUBLIC	?digits10@?$numeric_limits@_W@std@@2HB		; std::numeric_limits<wchar_t>::digits10
PUBLIC	?value@?$integral_constant@_N$00@std@@2_NB	; std::integral_constant<bool,1>::value
PUBLIC	?is_modulo@?$numeric_limits@_N@std@@2_NB	; std::numeric_limits<bool>::is_modulo
PUBLIC	?is_signed@?$numeric_limits@_N@std@@2_NB	; std::numeric_limits<bool>::is_signed
PUBLIC	?digits@?$numeric_limits@_N@std@@2HB		; std::numeric_limits<bool>::digits
PUBLIC	?digits10@?$numeric_limits@_N@std@@2HB		; std::numeric_limits<bool>::digits10
PUBLIC	?_S_cancelBitsMask@_TaskCollectionBase@details@Concurrency@@1_KB ; Concurrency::details::_TaskCollectionBase::_S_cancelBitsMask
PUBLIC	?_S_cancelNone@_TaskCollectionBase@details@Concurrency@@1_KB ; Concurrency::details::_TaskCollectionBase::_S_cancelNone
PUBLIC	?_S_cancelStarted@_TaskCollectionBase@details@Concurrency@@1_KB ; Concurrency::details::_TaskCollectionBase::_S_cancelStarted
PUBLIC	?_S_cancelDeferredShootdownOwner@_TaskCollectionBase@details@Concurrency@@1_KB ; Concurrency::details::_TaskCollectionBase::_S_cancelDeferredShootdownOwner
PUBLIC	?_S_cancelShotdownOwner@_TaskCollectionBase@details@Concurrency@@1_KB ; Concurrency::details::_TaskCollectionBase::_S_cancelShotdownOwner
PUBLIC	?is_signed@?$numeric_limits@C@std@@2_NB		; std::numeric_limits<signed char>::is_signed
PUBLIC	?_S_nonNull@_TaskCollectionBase@details@Concurrency@@1_KB ; Concurrency::details::_TaskCollectionBase::_S_nonNull
PUBLIC	?digits@?$numeric_limits@C@std@@2HB		; std::numeric_limits<signed char>::digits
PUBLIC	?_S_cancelException@_TaskCollectionBase@details@Concurrency@@1_KB ; Concurrency::details::_TaskCollectionBase::_S_cancelException
PUBLIC	?_S_notInlined@_TaskCollectionBase@details@Concurrency@@1HB ; Concurrency::details::_TaskCollectionBase::_S_notInlined
PUBLIC	?digits10@?$numeric_limits@C@std@@2HB		; std::numeric_limits<signed char>::digits10
PUBLIC	?_S_structured@_TaskCollectionBase@details@Concurrency@@1HB ; Concurrency::details::_TaskCollectionBase::_S_structured
PUBLIC	?_S_localCancel@_TaskCollectionBase@details@Concurrency@@1HB ; Concurrency::details::_TaskCollectionBase::_S_localCancel
PUBLIC	?_S_reserved@_TaskCollectionBase@details@Concurrency@@1HB ; Concurrency::details::_TaskCollectionBase::_S_reserved
PUBLIC	?is_signed@?$numeric_limits@E@std@@2_NB		; std::numeric_limits<unsigned char>::is_signed
PUBLIC	?digits@?$numeric_limits@E@std@@2HB		; std::numeric_limits<unsigned char>::digits
PUBLIC	?digits10@?$numeric_limits@E@std@@2HB		; std::numeric_limits<unsigned char>::digits10
PUBLIC	?is_signed@?$numeric_limits@F@std@@2_NB		; std::numeric_limits<short>::is_signed
PUBLIC	?digits@?$numeric_limits@F@std@@2HB		; std::numeric_limits<short>::digits
PUBLIC	?digits10@?$numeric_limits@F@std@@2HB		; std::numeric_limits<short>::digits10
PUBLIC	?is_signed@?$numeric_limits@G@std@@2_NB		; std::numeric_limits<unsigned short>::is_signed
PUBLIC	?digits@?$numeric_limits@G@std@@2HB		; std::numeric_limits<unsigned short>::digits
PUBLIC	?digits10@?$numeric_limits@G@std@@2HB		; std::numeric_limits<unsigned short>::digits10
PUBLIC	?_G1@?$_Ratio_multiply2@U?$ratio@$00$0JIJGIA@@std@@U?$ratio@$0JIJGIA@$00@2@@std@@2_JB ; std::_Ratio_multiply2<std::ratio<1,10000000>,std::ratio<10000000,1> >::_G1
PUBLIC	?value@?$_Abs@$0JIJGIA@@std@@2_JB		; std::_Abs<10000000>::value
PUBLIC	?is_signed@?$numeric_limits@H@std@@2_NB		; std::numeric_limits<int>::is_signed
PUBLIC	?digits@?$numeric_limits@H@std@@2HB		; std::numeric_limits<int>::digits
PUBLIC	?digits10@?$numeric_limits@H@std@@2HB		; std::numeric_limits<int>::digits10
PUBLIC	?value@?$_GcdX@$0JIJGIA@$0A@@std@@2_JB		; std::_GcdX<10000000,0>::value
PUBLIC	?value@?$_GcdX@$0JIJGIA@$0JIJGIA@@std@@2_JB	; std::_GcdX<10000000,10000000>::value
PUBLIC	?value@?$_Gcd@$0JIJGIA@$0JIJGIA@@std@@2_JB	; std::_Gcd<10000000,10000000>::value
_BSS	SEGMENT
?current_app_@Application@app@@1PEAV12@EA DQ 01H DUP (?) ; app::Application::current_app_
_BSS	ENDS
;	COMDAT ?value@?$_Gcd@$0JIJGIA@$0JIJGIA@@std@@2_JB
CONST	SEGMENT
?value@?$_Gcd@$0JIJGIA@$0JIJGIA@@std@@2_JB DQ 0000000000989680H ; std::_Gcd<10000000,10000000>::value
CONST	ENDS
;	COMDAT ?value@?$_GcdX@$0JIJGIA@$0JIJGIA@@std@@2_JB
CONST	SEGMENT
?value@?$_GcdX@$0JIJGIA@$0JIJGIA@@std@@2_JB DQ 0000000000989680H ; std::_GcdX<10000000,10000000>::value
CONST	ENDS
;	COMDAT ?value@?$_GcdX@$0JIJGIA@$0A@@std@@2_JB
CONST	SEGMENT
?value@?$_GcdX@$0JIJGIA@$0A@@std@@2_JB DQ 0000000000989680H ; std::_GcdX<10000000,0>::value
CONST	ENDS
;	COMDAT ?digits10@?$numeric_limits@H@std@@2HB
CONST	SEGMENT
?digits10@?$numeric_limits@H@std@@2HB DD 09H		; std::numeric_limits<int>::digits10
CONST	ENDS
;	COMDAT ?digits@?$numeric_limits@H@std@@2HB
CONST	SEGMENT
?digits@?$numeric_limits@H@std@@2HB DD 01fH		; std::numeric_limits<int>::digits
CONST	ENDS
;	COMDAT ?is_signed@?$numeric_limits@H@std@@2_NB
CONST	SEGMENT
?is_signed@?$numeric_limits@H@std@@2_NB DB 01H		; std::numeric_limits<int>::is_signed
CONST	ENDS
;	COMDAT ?value@?$_Abs@$0JIJGIA@@std@@2_JB
CONST	SEGMENT
?value@?$_Abs@$0JIJGIA@@std@@2_JB DQ 0000000000989680H	; std::_Abs<10000000>::value
CONST	ENDS
;	COMDAT ?_G1@?$_Ratio_multiply2@U?$ratio@$00$0JIJGIA@@std@@U?$ratio@$0JIJGIA@$00@2@@std@@2_JB
CONST	SEGMENT
?_G1@?$_Ratio_multiply2@U?$ratio@$00$0JIJGIA@@std@@U?$ratio@$0JIJGIA@$00@2@@std@@2_JB DQ 0000000000000001H ; std::_Ratio_multiply2<std::ratio<1,10000000>,std::ratio<10000000,1> >::_G1
CONST	ENDS
;	COMDAT ?digits10@?$numeric_limits@G@std@@2HB
CONST	SEGMENT
?digits10@?$numeric_limits@G@std@@2HB DD 04H		; std::numeric_limits<unsigned short>::digits10
CONST	ENDS
;	COMDAT ?digits@?$numeric_limits@G@std@@2HB
CONST	SEGMENT
?digits@?$numeric_limits@G@std@@2HB DD 010H		; std::numeric_limits<unsigned short>::digits
CONST	ENDS
;	COMDAT ?is_signed@?$numeric_limits@G@std@@2_NB
CONST	SEGMENT
?is_signed@?$numeric_limits@G@std@@2_NB DB 00H		; std::numeric_limits<unsigned short>::is_signed
CONST	ENDS
;	COMDAT ?digits10@?$numeric_limits@F@std@@2HB
CONST	SEGMENT
?digits10@?$numeric_limits@F@std@@2HB DD 04H		; std::numeric_limits<short>::digits10
CONST	ENDS
;	COMDAT ?digits@?$numeric_limits@F@std@@2HB
CONST	SEGMENT
?digits@?$numeric_limits@F@std@@2HB DD 0fH		; std::numeric_limits<short>::digits
CONST	ENDS
;	COMDAT ?is_signed@?$numeric_limits@F@std@@2_NB
CONST	SEGMENT
?is_signed@?$numeric_limits@F@std@@2_NB DB 01H		; std::numeric_limits<short>::is_signed
CONST	ENDS
;	COMDAT ?digits10@?$numeric_limits@E@std@@2HB
CONST	SEGMENT
?digits10@?$numeric_limits@E@std@@2HB DD 02H		; std::numeric_limits<unsigned char>::digits10
CONST	ENDS
CONST	SEGMENT
dutycycletable DB 00H
	DB	00H
	DB	00H
	DB	00H
	DB	01H
	DB	00H
	DB	00H
	DB	00H
	DB	00H
	DB	00H
	DB	00H
	DB	00H
	DB	01H
	DB	01H
	DB	00H
	DB	00H
	DB	00H
	DB	00H
	DB	01H
	DB	01H
	DB	01H
	DB	01H
	DB	00H
	DB	00H
	DB	01H
	DB	01H
	DB	01H
	DB	01H
	DB	00H
	DB	00H
	DB	01H
	DB	01H
CONST	ENDS
;	COMDAT ?digits@?$numeric_limits@E@std@@2HB
CONST	SEGMENT
?digits@?$numeric_limits@E@std@@2HB DD 08H		; std::numeric_limits<unsigned char>::digits
CONST	ENDS
;	COMDAT ?is_signed@?$numeric_limits@E@std@@2_NB
CONST	SEGMENT
?is_signed@?$numeric_limits@E@std@@2_NB DB 00H		; std::numeric_limits<unsigned char>::is_signed
CONST	ENDS
;	COMDAT ?_S_reserved@_TaskCollectionBase@details@Concurrency@@1HB
CONST	SEGMENT
?_S_reserved@_TaskCollectionBase@details@Concurrency@@1HB DD 0cH ; Concurrency::details::_TaskCollectionBase::_S_reserved
CONST	ENDS
;	COMDAT ?_S_localCancel@_TaskCollectionBase@details@Concurrency@@1HB
CONST	SEGMENT
?_S_localCancel@_TaskCollectionBase@details@Concurrency@@1HB DD 02H ; Concurrency::details::_TaskCollectionBase::_S_localCancel
CONST	ENDS
;	COMDAT ?_S_structured@_TaskCollectionBase@details@Concurrency@@1HB
CONST	SEGMENT
?_S_structured@_TaskCollectionBase@details@Concurrency@@1HB DD 01H ; Concurrency::details::_TaskCollectionBase::_S_structured
CONST	ENDS
;	COMDAT ?digits10@?$numeric_limits@C@std@@2HB
CONST	SEGMENT
?digits10@?$numeric_limits@C@std@@2HB DD 02H		; std::numeric_limits<signed char>::digits10
CONST	ENDS
;	COMDAT ?_S_notInlined@_TaskCollectionBase@details@Concurrency@@1HB
CONST	SEGMENT
?_S_notInlined@_TaskCollectionBase@details@Concurrency@@1HB DD 0ffffffffH ; Concurrency::details::_TaskCollectionBase::_S_notInlined
CONST	ENDS
;	COMDAT ?_S_cancelException@_TaskCollectionBase@details@Concurrency@@1_KB
CONST	SEGMENT
?_S_cancelException@_TaskCollectionBase@details@Concurrency@@1_KB DQ 000000000000000cH ; Concurrency::details::_TaskCollectionBase::_S_cancelException
CONST	ENDS
;	COMDAT ?digits@?$numeric_limits@C@std@@2HB
CONST	SEGMENT
?digits@?$numeric_limits@C@std@@2HB DD 07H		; std::numeric_limits<signed char>::digits
CONST	ENDS
;	COMDAT ?_S_nonNull@_TaskCollectionBase@details@Concurrency@@1_KB
CONST	SEGMENT
?_S_nonNull@_TaskCollectionBase@details@Concurrency@@1_KB DQ 0000000000000008H ; Concurrency::details::_TaskCollectionBase::_S_nonNull
CONST	ENDS
;	COMDAT ?is_signed@?$numeric_limits@C@std@@2_NB
CONST	SEGMENT
?is_signed@?$numeric_limits@C@std@@2_NB DB 01H		; std::numeric_limits<signed char>::is_signed
CONST	ENDS
;	COMDAT ?_S_cancelShotdownOwner@_TaskCollectionBase@details@Concurrency@@1_KB
CONST	SEGMENT
?_S_cancelShotdownOwner@_TaskCollectionBase@details@Concurrency@@1_KB DQ 0000000000000003H ; Concurrency::details::_TaskCollectionBase::_S_cancelShotdownOwner
CONST	ENDS
;	COMDAT ?_S_cancelDeferredShootdownOwner@_TaskCollectionBase@details@Concurrency@@1_KB
CONST	SEGMENT
?_S_cancelDeferredShootdownOwner@_TaskCollectionBase@details@Concurrency@@1_KB DQ 0000000000000002H ; Concurrency::details::_TaskCollectionBase::_S_cancelDeferredShootdownOwner
CONST	ENDS
;	COMDAT ?_S_cancelStarted@_TaskCollectionBase@details@Concurrency@@1_KB
CONST	SEGMENT
?_S_cancelStarted@_TaskCollectionBase@details@Concurrency@@1_KB DQ 0000000000000001H ; Concurrency::details::_TaskCollectionBase::_S_cancelStarted
CONST	ENDS
;	COMDAT ?_S_cancelNone@_TaskCollectionBase@details@Concurrency@@1_KB
CONST	SEGMENT
?_S_cancelNone@_TaskCollectionBase@details@Concurrency@@1_KB DQ 0000000000000000H ; Concurrency::details::_TaskCollectionBase::_S_cancelNone
CONST	ENDS
;	COMDAT ?_S_cancelBitsMask@_TaskCollectionBase@details@Concurrency@@1_KB
CONST	SEGMENT
?_S_cancelBitsMask@_TaskCollectionBase@details@Concurrency@@1_KB DQ 0000000000000003H ; Concurrency::details::_TaskCollectionBase::_S_cancelBitsMask
CONST	ENDS
;	COMDAT ?digits10@?$numeric_limits@_N@std@@2HB
CONST	SEGMENT
?digits10@?$numeric_limits@_N@std@@2HB DD 00H		; std::numeric_limits<bool>::digits10
CONST	ENDS
;	COMDAT ?digits@?$numeric_limits@_N@std@@2HB
CONST	SEGMENT
?digits@?$numeric_limits@_N@std@@2HB DD 01H		; std::numeric_limits<bool>::digits
CONST	ENDS
;	COMDAT ?is_signed@?$numeric_limits@_N@std@@2_NB
CONST	SEGMENT
?is_signed@?$numeric_limits@_N@std@@2_NB DB 00H		; std::numeric_limits<bool>::is_signed
CONST	ENDS
;	COMDAT ?is_modulo@?$numeric_limits@_N@std@@2_NB
CONST	SEGMENT
?is_modulo@?$numeric_limits@_N@std@@2_NB DB 00H		; std::numeric_limits<bool>::is_modulo
CONST	ENDS
;	COMDAT ?value@?$integral_constant@_N$00@std@@2_NB
CONST	SEGMENT
?value@?$integral_constant@_N$00@std@@2_NB DB 01H	; std::integral_constant<bool,1>::value
CONST	ENDS
;	COMDAT ?digits10@?$numeric_limits@_W@std@@2HB
CONST	SEGMENT
?digits10@?$numeric_limits@_W@std@@2HB DD 04H		; std::numeric_limits<wchar_t>::digits10
CONST	ENDS
;	COMDAT ?value@?$integral_constant@_N$0A@@std@@2_NB
CONST	SEGMENT
?value@?$integral_constant@_N$0A@@std@@2_NB DB 00H	; std::integral_constant<bool,0>::value
CONST	ENDS
;	COMDAT ?digits@?$numeric_limits@_W@std@@2HB
CONST	SEGMENT
?digits@?$numeric_limits@_W@std@@2HB DD 010H		; std::numeric_limits<wchar_t>::digits
CONST	ENDS
;	COMDAT ?is_signed@?$numeric_limits@_W@std@@2_NB
CONST	SEGMENT
?is_signed@?$numeric_limits@_W@std@@2_NB DB 00H		; std::numeric_limits<wchar_t>::is_signed
CONST	ENDS
;	COMDAT ?digits10@?$numeric_limits@D@std@@2HB
CONST	SEGMENT
?digits10@?$numeric_limits@D@std@@2HB DD 02H		; std::numeric_limits<char>::digits10
CONST	ENDS
;	COMDAT ?digits@?$numeric_limits@D@std@@2HB
CONST	SEGMENT
?digits@?$numeric_limits@D@std@@2HB DD 07H		; std::numeric_limits<char>::digits
CONST	ENDS
;	COMDAT ?is_signed@?$numeric_limits@D@std@@2_NB
CONST	SEGMENT
?is_signed@?$numeric_limits@D@std@@2_NB DB 01H		; std::numeric_limits<char>::is_signed
CONST	ENDS
;	COMDAT ?radix@_Num_float_base@std@@2HB
CONST	SEGMENT
?radix@_Num_float_base@std@@2HB DD 02H			; std::_Num_float_base::radix
CONST	ENDS
;	COMDAT ?round_style@_Num_float_base@std@@2W4float_round_style@2@B
CONST	SEGMENT
?round_style@_Num_float_base@std@@2W4float_round_style@2@B DD 01H ; std::_Num_float_base::round_style
CONST	ENDS
;	COMDAT ?traps@_Num_float_base@std@@2_NB
CONST	SEGMENT
?traps@_Num_float_base@std@@2_NB DB 00H			; std::_Num_float_base::traps
CONST	ENDS
;	COMDAT ?tinyness_before@_Num_float_base@std@@2_NB
CONST	SEGMENT
?tinyness_before@_Num_float_base@std@@2_NB DB 01H	; std::_Num_float_base::tinyness_before
CONST	ENDS
;	COMDAT ?is_specialized@_Num_float_base@std@@2_NB
CONST	SEGMENT
?is_specialized@_Num_float_base@std@@2_NB DB 01H	; std::_Num_float_base::is_specialized
CONST	ENDS
;	COMDAT ?is_signed@_Num_float_base@std@@2_NB
CONST	SEGMENT
?is_signed@_Num_float_base@std@@2_NB DB 01H		; std::_Num_float_base::is_signed
CONST	ENDS
;	COMDAT ?is_modulo@_Num_float_base@std@@2_NB
CONST	SEGMENT
?is_modulo@_Num_float_base@std@@2_NB DB 00H		; std::_Num_float_base::is_modulo
CONST	ENDS
;	COMDAT ?is_integer@_Num_float_base@std@@2_NB
CONST	SEGMENT
?is_integer@_Num_float_base@std@@2_NB DB 00H		; std::_Num_float_base::is_integer
CONST	ENDS
;	COMDAT ?is_iec559@_Num_float_base@std@@2_NB
CONST	SEGMENT
?is_iec559@_Num_float_base@std@@2_NB DB 01H		; std::_Num_float_base::is_iec559
CONST	ENDS
;	COMDAT ?is_exact@_Num_float_base@std@@2_NB
CONST	SEGMENT
?is_exact@_Num_float_base@std@@2_NB DB 00H		; std::_Num_float_base::is_exact
CONST	ENDS
;	COMDAT ?is_bounded@_Num_float_base@std@@2_NB
CONST	SEGMENT
?is_bounded@_Num_float_base@std@@2_NB DB 01H		; std::_Num_float_base::is_bounded
CONST	ENDS
;	COMDAT ?has_signaling_NaN@_Num_float_base@std@@2_NB
CONST	SEGMENT
?has_signaling_NaN@_Num_float_base@std@@2_NB DB 01H	; std::_Num_float_base::has_signaling_NaN
CONST	ENDS
;	COMDAT ?has_quiet_NaN@_Num_float_base@std@@2_NB
CONST	SEGMENT
?has_quiet_NaN@_Num_float_base@std@@2_NB DB 01H		; std::_Num_float_base::has_quiet_NaN
CONST	ENDS
;	COMDAT ?is_steady@system_clock@chrono@std@@2_NB
CONST	SEGMENT
?is_steady@system_clock@chrono@std@@2_NB DB 00H		; std::chrono::system_clock::is_steady
CONST	ENDS
;	COMDAT ?has_infinity@_Num_float_base@std@@2_NB
CONST	SEGMENT
?has_infinity@_Num_float_base@std@@2_NB DB 01H		; std::_Num_float_base::has_infinity
CONST	ENDS
;	COMDAT ?is_monotonic@system_clock@chrono@std@@2_NB
CONST	SEGMENT
?is_monotonic@system_clock@chrono@std@@2_NB DB 00H	; std::chrono::system_clock::is_monotonic
CONST	ENDS
;	COMDAT ?has_denorm_loss@_Num_float_base@std@@2_NB
CONST	SEGMENT
?has_denorm_loss@_Num_float_base@std@@2_NB DB 01H	; std::_Num_float_base::has_denorm_loss
CONST	ENDS
;	COMDAT ?has_denorm@_Num_float_base@std@@2W4float_denorm_style@2@B
CONST	SEGMENT
?has_denorm@_Num_float_base@std@@2W4float_denorm_style@2@B DD 01H ; std::_Num_float_base::has_denorm
CONST	ENDS
;	COMDAT ?value@?$_Sizeof@U_Nil@std@@U12@U12@U12@U12@U12@U12@U12@@std@@2_KB
CONST	SEGMENT
?value@?$_Sizeof@U_Nil@std@@U12@U12@U12@U12@U12@U12@U12@@std@@2_KB DQ 0000000000000000H ; std::_Sizeof<std::_Nil,std::_Nil,std::_Nil,std::_Nil,std::_Nil,std::_Nil,std::_Nil,std::_Nil>::value
CONST	ENDS
;	COMDAT ?radix@_Num_int_base@std@@2HB
CONST	SEGMENT
?radix@_Num_int_base@std@@2HB DD 02H			; std::_Num_int_base::radix
CONST	ENDS
;	COMDAT ?is_specialized@_Num_int_base@std@@2_NB
CONST	SEGMENT
?is_specialized@_Num_int_base@std@@2_NB DB 01H		; std::_Num_int_base::is_specialized
CONST	ENDS
;	COMDAT ?is_modulo@_Num_int_base@std@@2_NB
CONST	SEGMENT
?is_modulo@_Num_int_base@std@@2_NB DB 01H		; std::_Num_int_base::is_modulo
CONST	ENDS
;	COMDAT ?is_integer@_Num_int_base@std@@2_NB
CONST	SEGMENT
?is_integer@_Num_int_base@std@@2_NB DB 01H		; std::_Num_int_base::is_integer
CONST	ENDS
;	COMDAT ?is_exact@_Num_int_base@std@@2_NB
CONST	SEGMENT
?is_exact@_Num_int_base@std@@2_NB DB 01H		; std::_Num_int_base::is_exact
CONST	ENDS
;	COMDAT ?is_bounded@_Num_int_base@std@@2_NB
CONST	SEGMENT
?is_bounded@_Num_int_base@std@@2_NB DB 01H		; std::_Num_int_base::is_bounded
CONST	ENDS
;	COMDAT ?_G2@?$_Ratio_multiply2@U?$ratio@$0GE@$00@std@@U?$ratio@$00$0DLJKMKAA@@2@@std@@2_JB
CONST	SEGMENT
?_G2@?$_Ratio_multiply2@U?$ratio@$0GE@$00@std@@U?$ratio@$00$0DLJKMKAA@@2@@std@@2_JB DQ 0000000000000001H ; std::_Ratio_multiply2<std::ratio<100,1>,std::ratio<1,1000000000> >::_G2
CONST	ENDS
;	COMDAT ?value@?$_Gcd@$00$00@std@@2_JB
CONST	SEGMENT
?value@?$_Gcd@$00$00@std@@2_JB DQ 0000000000000001H	; std::_Gcd<1,1>::value
CONST	ENDS
;	COMDAT ?value@?$_GcdX@$00$00@std@@2_JB
CONST	SEGMENT
?value@?$_GcdX@$00$00@std@@2_JB DQ 0000000000000001H	; std::_GcdX<1,1>::value
CONST	ENDS
;	COMDAT ?radix@_Num_base@std@@2HB
CONST	SEGMENT
?radix@_Num_base@std@@2HB DD 00H			; std::_Num_base::radix
CONST	ENDS
;	COMDAT ?value@?$_GcdX@$00$0A@@std@@2_JB
CONST	SEGMENT
?value@?$_GcdX@$00$0A@@std@@2_JB DQ 0000000000000001H	; std::_GcdX<1,0>::value
CONST	ENDS
;	COMDAT ?min_exponent10@_Num_base@std@@2HB
CONST	SEGMENT
?min_exponent10@_Num_base@std@@2HB DD 00H		; std::_Num_base::min_exponent10
CONST	ENDS
;	COMDAT ?min_exponent@_Num_base@std@@2HB
CONST	SEGMENT
?min_exponent@_Num_base@std@@2HB DD 00H			; std::_Num_base::min_exponent
CONST	ENDS
;	COMDAT ?max_exponent10@_Num_base@std@@2HB
CONST	SEGMENT
?max_exponent10@_Num_base@std@@2HB DD 00H		; std::_Num_base::max_exponent10
CONST	ENDS
;	COMDAT ?max_exponent@_Num_base@std@@2HB
CONST	SEGMENT
?max_exponent@_Num_base@std@@2HB DD 00H			; std::_Num_base::max_exponent
CONST	ENDS
;	COMDAT ?value@?$_Abs@$00@std@@2_JB
CONST	SEGMENT
?value@?$_Abs@$00@std@@2_JB DQ 0000000000000001H	; std::_Abs<1>::value
CONST	ENDS
;	COMDAT ?max_digits10@_Num_base@std@@2HB
CONST	SEGMENT
?max_digits10@_Num_base@std@@2HB DD 00H			; std::_Num_base::max_digits10
CONST	ENDS
;	COMDAT ?digits10@_Num_base@std@@2HB
CONST	SEGMENT
?digits10@_Num_base@std@@2HB DD 00H			; std::_Num_base::digits10
CONST	ENDS
;	COMDAT ?digits@_Num_base@std@@2HB
CONST	SEGMENT
?digits@_Num_base@std@@2HB DD 00H			; std::_Num_base::digits
CONST	ENDS
;	COMDAT ?_G1@?$_Ratio_multiply2@U?$ratio@$0GE@$00@std@@U?$ratio@$00$0DLJKMKAA@@2@@std@@2_JB
CONST	SEGMENT
?_G1@?$_Ratio_multiply2@U?$ratio@$0GE@$00@std@@U?$ratio@$00$0DLJKMKAA@@2@@std@@2_JB DQ 0000000000000064H ; std::_Ratio_multiply2<std::ratio<100,1>,std::ratio<1,1000000000> >::_G1
CONST	ENDS
;	COMDAT ?round_style@_Num_base@std@@2W4float_round_style@2@B
CONST	SEGMENT
?round_style@_Num_base@std@@2W4float_round_style@2@B DD 00H ; std::_Num_base::round_style
CONST	ENDS
;	COMDAT ?traps@_Num_base@std@@2_NB
CONST	SEGMENT
?traps@_Num_base@std@@2_NB DB 00H			; std::_Num_base::traps
CONST	ENDS
;	COMDAT ?tinyness_before@_Num_base@std@@2_NB
CONST	SEGMENT
?tinyness_before@_Num_base@std@@2_NB DB 00H		; std::_Num_base::tinyness_before
CONST	ENDS
;	COMDAT ?value@?$_Gcd@$0GE@$0DLJKMKAA@@std@@2_JB
CONST	SEGMENT
?value@?$_Gcd@$0GE@$0DLJKMKAA@@std@@2_JB DQ 0000000000000064H ; std::_Gcd<100,1000000000>::value
CONST	ENDS
;	COMDAT ?is_specialized@_Num_base@std@@2_NB
CONST	SEGMENT
?is_specialized@_Num_base@std@@2_NB DB 00H		; std::_Num_base::is_specialized
CONST	ENDS
;	COMDAT ?is_signed@_Num_base@std@@2_NB
CONST	SEGMENT
?is_signed@_Num_base@std@@2_NB DB 00H			; std::_Num_base::is_signed
CONST	ENDS
;	COMDAT ?value@?$_GcdX@$0GE@$0DLJKMKAA@@std@@2_JB
CONST	SEGMENT
?value@?$_GcdX@$0GE@$0DLJKMKAA@@std@@2_JB DQ 0000000000000064H ; std::_GcdX<100,1000000000>::value
CONST	ENDS
;	COMDAT ?is_modulo@_Num_base@std@@2_NB
CONST	SEGMENT
?is_modulo@_Num_base@std@@2_NB DB 00H			; std::_Num_base::is_modulo
CONST	ENDS
;	COMDAT ?is_integer@_Num_base@std@@2_NB
CONST	SEGMENT
?is_integer@_Num_base@std@@2_NB DB 00H			; std::_Num_base::is_integer
CONST	ENDS
;	COMDAT ?is_iec559@_Num_base@std@@2_NB
CONST	SEGMENT
?is_iec559@_Num_base@std@@2_NB DB 00H			; std::_Num_base::is_iec559
CONST	ENDS
;	COMDAT ?value@?$_GcdX@$0DLJKMKAA@$0GE@@std@@2_JB
CONST	SEGMENT
?value@?$_GcdX@$0DLJKMKAA@$0GE@@std@@2_JB DQ 0000000000000064H ; std::_GcdX<1000000000,100>::value
CONST	ENDS
;	COMDAT ?is_exact@_Num_base@std@@2_NB
CONST	SEGMENT
?is_exact@_Num_base@std@@2_NB DB 00H			; std::_Num_base::is_exact
CONST	ENDS
;	COMDAT ?_STATE_CALLED@_CancellationTokenRegistration@details@Concurrency@@0JB
CONST	SEGMENT
?_STATE_CALLED@_CancellationTokenRegistration@details@Concurrency@@0JB DD 03H ; Concurrency::details::_CancellationTokenRegistration::_STATE_CALLED
CONST	ENDS
;	COMDAT ?is_bounded@_Num_base@std@@2_NB
CONST	SEGMENT
?is_bounded@_Num_base@std@@2_NB DB 00H			; std::_Num_base::is_bounded
CONST	ENDS
;	COMDAT ?_STATE_SYNCHRONIZE@_CancellationTokenRegistration@details@Concurrency@@0JB
CONST	SEGMENT
?_STATE_SYNCHRONIZE@_CancellationTokenRegistration@details@Concurrency@@0JB DD 02H ; Concurrency::details::_CancellationTokenRegistration::_STATE_SYNCHRONIZE
CONST	ENDS
;	COMDAT ?has_signaling_NaN@_Num_base@std@@2_NB
CONST	SEGMENT
?has_signaling_NaN@_Num_base@std@@2_NB DB 00H		; std::_Num_base::has_signaling_NaN
CONST	ENDS
;	COMDAT ?value@?$_GcdX@$0GE@$0A@@std@@2_JB
CONST	SEGMENT
?value@?$_GcdX@$0GE@$0A@@std@@2_JB DQ 0000000000000064H	; std::_GcdX<100,0>::value
CONST	ENDS
;	COMDAT ?_STATE_DEFER_DELETE@_CancellationTokenRegistration@details@Concurrency@@0JB
CONST	SEGMENT
?_STATE_DEFER_DELETE@_CancellationTokenRegistration@details@Concurrency@@0JB DD 01H ; Concurrency::details::_CancellationTokenRegistration::_STATE_DEFER_DELETE
CONST	ENDS
;	COMDAT ?_STATE_CLEAR@_CancellationTokenRegistration@details@Concurrency@@0JB
CONST	SEGMENT
?_STATE_CLEAR@_CancellationTokenRegistration@details@Concurrency@@0JB DD 00H ; Concurrency::details::_CancellationTokenRegistration::_STATE_CLEAR
CONST	ENDS
;	COMDAT ?has_quiet_NaN@_Num_base@std@@2_NB
CONST	SEGMENT
?has_quiet_NaN@_Num_base@std@@2_NB DB 00H		; std::_Num_base::has_quiet_NaN
CONST	ENDS
;	COMDAT ?has_infinity@_Num_base@std@@2_NB
CONST	SEGMENT
?has_infinity@_Num_base@std@@2_NB DB 00H		; std::_Num_base::has_infinity
CONST	ENDS
;	COMDAT ?has_denorm_loss@_Num_base@std@@2_NB
CONST	SEGMENT
?has_denorm_loss@_Num_base@std@@2_NB DB 00H		; std::_Num_base::has_denorm_loss
CONST	ENDS
;	COMDAT ?has_denorm@_Num_base@std@@2W4float_denorm_style@2@B
CONST	SEGMENT
?has_denorm@_Num_base@std@@2W4float_denorm_style@2@B DD 00H ; std::_Num_base::has_denorm
CONST	ENDS
;	COMDAT ?value@?$_Abs@$0DLJKMKAA@@std@@2_JB
CONST	SEGMENT
?value@?$_Abs@$0DLJKMKAA@@std@@2_JB DQ 000000003b9aca00H ; std::_Abs<1000000000>::value
CONST	ENDS
;	COMDAT ?value@?$_Abs@$0GE@@std@@2_JB
CONST	SEGMENT
?value@?$_Abs@$0GE@@std@@2_JB DQ 0000000000000064H	; std::_Abs<100>::value
CONST	ENDS
;	COMDAT ?value@?$integral_constant@H$0A@@std@@2HB
CONST	SEGMENT
?value@?$integral_constant@H$0A@@std@@2HB DD 00H	; std::integral_constant<int,0>::value
CONST	ENDS
;	COMDAT ?value@?$integral_constant@_K$0A@@std@@2_KB
CONST	SEGMENT
?value@?$integral_constant@_K$0A@@std@@2_KB DQ 0000000000000000H ; std::integral_constant<unsigned __int64,0>::value
CONST	ENDS
;	COMDAT ?den@?$ratio@$00$0JIJGIA@@std@@2_JB
CONST	SEGMENT
?den@?$ratio@$00$0JIJGIA@@std@@2_JB DQ 0000000000989680H ; std::ratio<1,10000000>::den
CONST	ENDS
;	COMDAT ?num@?$ratio@$00$0JIJGIA@@std@@2_JB
CONST	SEGMENT
?num@?$ratio@$00$0JIJGIA@@std@@2_JB DQ 0000000000000001H ; std::ratio<1,10000000>::num
CONST	ENDS
;	COMDAT ?min_exponent10@?$numeric_limits@O@std@@2HB
CONST	SEGMENT
?min_exponent10@?$numeric_limits@O@std@@2HB DD 0fffffecdH ; std::numeric_limits<long double>::min_exponent10
CONST	ENDS
;	COMDAT ?min_exponent@?$numeric_limits@O@std@@2HB
CONST	SEGMENT
?min_exponent@?$numeric_limits@O@std@@2HB DD 0fffffc03H	; std::numeric_limits<long double>::min_exponent
CONST	ENDS
;	COMDAT ?value@?$_Gcd@$00$0JIJGIA@@std@@2_JB
CONST	SEGMENT
?value@?$_Gcd@$00$0JIJGIA@@std@@2_JB DQ 0000000000000001H ; std::_Gcd<1,10000000>::value
CONST	ENDS
;	COMDAT ?max_exponent10@?$numeric_limits@O@std@@2HB
CONST	SEGMENT
?max_exponent10@?$numeric_limits@O@std@@2HB DD 0134H	; std::numeric_limits<long double>::max_exponent10
CONST	ENDS
;	COMDAT ?max_exponent@?$numeric_limits@O@std@@2HB
CONST	SEGMENT
?max_exponent@?$numeric_limits@O@std@@2HB DD 0400H	; std::numeric_limits<long double>::max_exponent
CONST	ENDS
;	COMDAT ?value@?$_GcdX@$00$0JIJGIA@@std@@2_JB
CONST	SEGMENT
?value@?$_GcdX@$00$0JIJGIA@@std@@2_JB DQ 0000000000000001H ; std::_GcdX<1,10000000>::value
CONST	ENDS
;	COMDAT ?max_digits10@?$numeric_limits@O@std@@2HB
CONST	SEGMENT
?max_digits10@?$numeric_limits@O@std@@2HB DD 011H	; std::numeric_limits<long double>::max_digits10
CONST	ENDS
;	COMDAT ?digits10@?$numeric_limits@O@std@@2HB
CONST	SEGMENT
?digits10@?$numeric_limits@O@std@@2HB DD 0fH		; std::numeric_limits<long double>::digits10
CONST	ENDS
;	COMDAT ?digits@?$numeric_limits@O@std@@2HB
CONST	SEGMENT
?digits@?$numeric_limits@O@std@@2HB DD 035H		; std::numeric_limits<long double>::digits
CONST	ENDS
;	COMDAT ?value@?$_GcdX@$0JIJGIA@$00@std@@2_JB
CONST	SEGMENT
?value@?$_GcdX@$0JIJGIA@$00@std@@2_JB DQ 0000000000000001H ; std::_GcdX<10000000,1>::value
CONST	ENDS
;	COMDAT ?value@?$_Is_ratio@U?$ratio@$00$0JIJGIA@@std@@@chrono@std@@2_NB
CONST	SEGMENT
?value@?$_Is_ratio@U?$ratio@$00$0JIJGIA@@std@@@chrono@std@@2_NB DB 01H ; std::chrono::_Is_ratio<std::ratio<1,10000000> >::value
CONST	ENDS
;	COMDAT ?min_exponent10@?$numeric_limits@N@std@@2HB
CONST	SEGMENT
?min_exponent10@?$numeric_limits@N@std@@2HB DD 0fffffecdH ; std::numeric_limits<double>::min_exponent10
CONST	ENDS
;	COMDAT ?min_exponent@?$numeric_limits@N@std@@2HB
CONST	SEGMENT
?min_exponent@?$numeric_limits@N@std@@2HB DD 0fffffc03H	; std::numeric_limits<double>::min_exponent
CONST	ENDS
;	COMDAT ?max_exponent10@?$numeric_limits@N@std@@2HB
CONST	SEGMENT
?max_exponent10@?$numeric_limits@N@std@@2HB DD 0134H	; std::numeric_limits<double>::max_exponent10
CONST	ENDS
;	COMDAT ?max_exponent@?$numeric_limits@N@std@@2HB
CONST	SEGMENT
?max_exponent@?$numeric_limits@N@std@@2HB DD 0400H	; std::numeric_limits<double>::max_exponent
CONST	ENDS
;	COMDAT ?max_digits10@?$numeric_limits@N@std@@2HB
CONST	SEGMENT
?max_digits10@?$numeric_limits@N@std@@2HB DD 011H	; std::numeric_limits<double>::max_digits10
CONST	ENDS
;	COMDAT ?digits10@?$numeric_limits@N@std@@2HB
CONST	SEGMENT
?digits10@?$numeric_limits@N@std@@2HB DD 0fH		; std::numeric_limits<double>::digits10
CONST	ENDS
;	COMDAT ?digits@?$numeric_limits@N@std@@2HB
CONST	SEGMENT
?digits@?$numeric_limits@N@std@@2HB DD 035H		; std::numeric_limits<double>::digits
CONST	ENDS
;	COMDAT AgentEventGuid
CONST	SEGMENT
AgentEventGuid DD 0b9b5b78cH
	DW	0713H
	DW	04898H
	DB	0a2H
	DB	01aH
	DB	0c6H
	DB	079H
	DB	049H
	DB	0dcH
	DB	0edH
	DB	07H
CONST	ENDS
;	COMDAT PPLParallelForeachEventGuid
CONST	SEGMENT
PPLParallelForeachEventGuid DD 05cb7d785H
	DW	09d66H
	DW	0465dH
	DB	0baH
	DB	0e1H
	DB	046H
	DB	011H
	DB	06H
	DB	01bH
	DB	054H
	DB	034H
CONST	ENDS
;	COMDAT PPLParallelForEventGuid
CONST	SEGMENT
PPLParallelForEventGuid DD 031c8da6bH
	DW	06165H
	DW	04042H
	DB	08bH
	DB	092H
	DB	094H
	DB	09eH
	DB	031H
	DB	05fH
	DB	04dH
	DB	084H
CONST	ENDS
;	COMDAT ?min_exponent10@?$numeric_limits@M@std@@2HB
CONST	SEGMENT
?min_exponent10@?$numeric_limits@M@std@@2HB DD 0ffffffdbH ; std::numeric_limits<float>::min_exponent10
CONST	ENDS
;	COMDAT PPLParallelInvokeEventGuid
CONST	SEGMENT
PPLParallelInvokeEventGuid DD 0d1b5b133H
	DW	0ec3dH
	DW	049f4H
	DB	098H
	DB	0a3H
	DB	046H
	DB	04dH
	DB	01aH
	DB	09eH
	DB	046H
	DB	082H
CONST	ENDS
;	COMDAT ResourceManagerEventGuid
CONST	SEGMENT
ResourceManagerEventGuid DD 02718d25bH
	DW	05bf5H
	DW	04479H
	DB	08eH
	DB	088H
	DB	0baH
	DB	0bcH
	DB	064H
	DB	0bdH
	DB	0bfH
	DB	0caH
CONST	ENDS
;	COMDAT LockEventGuid
CONST	SEGMENT
LockEventGuid DD 079a60dc6H
	DW	05fc8H
	DW	04952H
	DB	0a4H
	DB	01cH
	DB	011H
	DB	063H
	DB	0aeH
	DB	0ecH
	DB	05eH
	DB	0b8H
CONST	ENDS
;	COMDAT VirtualProcessorEventGuid
CONST	SEGMENT
VirtualProcessorEventGuid DD 02f27805fH
	DW	01676H
	DW	04eccH
	DB	096H
	DB	0faH
	DB	07eH
	DB	0b0H
	DB	09dH
	DB	044H
	DB	030H
	DB	02fH
CONST	ENDS
;	COMDAT ?min_exponent@?$numeric_limits@M@std@@2HB
CONST	SEGMENT
?min_exponent@?$numeric_limits@M@std@@2HB DD 0ffffff83H	; std::numeric_limits<float>::min_exponent
CONST	ENDS
;	COMDAT ChoreEventGuid
CONST	SEGMENT
ChoreEventGuid DD 07e854ec7H
	DW	0cdc4H
	DW	0405aH
	DB	0b5H
	DB	0b2H
	DB	0aaH
	DB	0f7H
	DB	0c9H
	DB	0e7H
	DB	0d4H
	DB	0cH
CONST	ENDS
;	COMDAT ContextEventGuid
CONST	SEGMENT
ContextEventGuid DD 05727a00fH
	DW	050beH
	DW	04519H
	DB	082H
	DB	056H
	DB	0f7H
	DB	069H
	DB	098H
	DB	071H
	DB	0feH
	DB	0cbH
CONST	ENDS
;	COMDAT ScheduleGroupEventGuid
CONST	SEGMENT
ScheduleGroupEventGuid DD 0e8a3bf1fH
	DW	0a86bH
	DW	04390H
	DB	09cH
	DB	060H
	DB	053H
	DB	090H
	DB	0b9H
	DB	069H
	DB	0d2H
	DB	02cH
CONST	ENDS
;	COMDAT SchedulerEventGuid
CONST	SEGMENT
SchedulerEventGuid DD 0e2091f8aH
	DW	01e0aH
	DW	04731H
	DB	084H
	DB	0a2H
	DB	0dH
	DB	0d5H
	DB	07cH
	DB	08aH
	DB	052H
	DB	061H
CONST	ENDS
;	COMDAT ?max_exponent10@?$numeric_limits@M@std@@2HB
CONST	SEGMENT
?max_exponent10@?$numeric_limits@M@std@@2HB DD 026H	; std::numeric_limits<float>::max_exponent10
CONST	ENDS
;	COMDAT ConcRTEventGuid
CONST	SEGMENT
ConcRTEventGuid DD 072b14a7dH
	DW	0704cH
	DW	0423eH
	DB	092H
	DB	0f8H
	DB	07eH
	DB	06dH
	DB	064H
	DB	0bcH
	DB	0b9H
	DB	02aH
CONST	ENDS
;	COMDAT ConcRT_ProviderGuid
CONST	SEGMENT
ConcRT_ProviderGuid DD 0f7b697a3H
	DW	04db5H
	DW	04d3bH
	DB	0beH
	DB	071H
	DB	0c4H
	DB	0d2H
	DB	084H
	DB	0e6H
	DB	059H
	DB	02fH
CONST	ENDS
;	COMDAT ?max_exponent@?$numeric_limits@M@std@@2HB
CONST	SEGMENT
?max_exponent@?$numeric_limits@M@std@@2HB DD 080H	; std::numeric_limits<float>::max_exponent
CONST	ENDS
;	COMDAT ?max_digits10@?$numeric_limits@M@std@@2HB
CONST	SEGMENT
?max_digits10@?$numeric_limits@M@std@@2HB DD 09H	; std::numeric_limits<float>::max_digits10
CONST	ENDS
;	COMDAT ?digits10@?$numeric_limits@M@std@@2HB
CONST	SEGMENT
?digits10@?$numeric_limits@M@std@@2HB DD 06H		; std::numeric_limits<float>::digits10
CONST	ENDS
;	COMDAT ?digits@?$numeric_limits@M@std@@2HB
CONST	SEGMENT
?digits@?$numeric_limits@M@std@@2HB DD 018H		; std::numeric_limits<float>::digits
CONST	ENDS
;	COMDAT ?digits10@?$numeric_limits@_K@std@@2HB
CONST	SEGMENT
?digits10@?$numeric_limits@_K@std@@2HB DD 013H		; std::numeric_limits<unsigned __int64>::digits10
CONST	ENDS
;	COMDAT ?is_steady@steady_clock@chrono@std@@2_NB
CONST	SEGMENT
?is_steady@steady_clock@chrono@std@@2_NB DB 01H		; std::chrono::steady_clock::is_steady
CONST	ENDS
;	COMDAT ?is_monotonic@steady_clock@chrono@std@@2_NB
CONST	SEGMENT
?is_monotonic@steady_clock@chrono@std@@2_NB DB 01H	; std::chrono::steady_clock::is_monotonic
CONST	ENDS
;	COMDAT ?digits@?$numeric_limits@_K@std@@2HB
CONST	SEGMENT
?digits@?$numeric_limits@_K@std@@2HB DD 040H		; std::numeric_limits<unsigned __int64>::digits
CONST	ENDS
;	COMDAT ?is_signed@?$numeric_limits@_K@std@@2_NB
CONST	SEGMENT
?is_signed@?$numeric_limits@_K@std@@2_NB DB 00H		; std::numeric_limits<unsigned __int64>::is_signed
CONST	ENDS
;	COMDAT ?digits10@?$numeric_limits@_J@std@@2HB
CONST	SEGMENT
?digits10@?$numeric_limits@_J@std@@2HB DD 012H		; std::numeric_limits<__int64>::digits10
CONST	ENDS
;	COMDAT ?digits@?$numeric_limits@_J@std@@2HB
CONST	SEGMENT
?digits@?$numeric_limits@_J@std@@2HB DD 03fH		; std::numeric_limits<__int64>::digits
CONST	ENDS
;	COMDAT ?is_signed@?$numeric_limits@_J@std@@2_NB
CONST	SEGMENT
?is_signed@?$numeric_limits@_J@std@@2_NB DB 01H		; std::numeric_limits<__int64>::is_signed
CONST	ENDS
;	COMDAT ?digits10@?$numeric_limits@K@std@@2HB
CONST	SEGMENT
?digits10@?$numeric_limits@K@std@@2HB DD 09H		; std::numeric_limits<unsigned long>::digits10
CONST	ENDS
;	COMDAT ?digits@?$numeric_limits@K@std@@2HB
CONST	SEGMENT
?digits@?$numeric_limits@K@std@@2HB DD 020H		; std::numeric_limits<unsigned long>::digits
CONST	ENDS
;	COMDAT ?value@?$_Sizeof@HU_Nil@std@@U12@U12@U12@U12@U12@U12@@std@@2_KB
CONST	SEGMENT
?value@?$_Sizeof@HU_Nil@std@@U12@U12@U12@U12@U12@U12@@std@@2_KB DQ 0000000000000001H ; std::_Sizeof<int,std::_Nil,std::_Nil,std::_Nil,std::_Nil,std::_Nil,std::_Nil,std::_Nil>::value
CONST	ENDS
;	COMDAT ?is_signed@?$numeric_limits@K@std@@2_NB
CONST	SEGMENT
?is_signed@?$numeric_limits@K@std@@2_NB DB 00H		; std::numeric_limits<unsigned long>::is_signed
CONST	ENDS
;	COMDAT ?digits10@?$numeric_limits@J@std@@2HB
CONST	SEGMENT
?digits10@?$numeric_limits@J@std@@2HB DD 09H		; std::numeric_limits<long>::digits10
CONST	ENDS
;	COMDAT ?den@?$ratio@$00$00@std@@2_JB
CONST	SEGMENT
?den@?$ratio@$00$00@std@@2_JB DQ 0000000000000001H	; std::ratio<1,1>::den
CONST	ENDS
;	COMDAT ?digits@?$numeric_limits@J@std@@2HB
CONST	SEGMENT
?digits@?$numeric_limits@J@std@@2HB DD 01fH		; std::numeric_limits<long>::digits
CONST	ENDS
;	COMDAT ?num@?$ratio@$00$00@std@@2_JB
CONST	SEGMENT
?num@?$ratio@$00$00@std@@2_JB DQ 0000000000000001H	; std::ratio<1,1>::num
CONST	ENDS
;	COMDAT ?is_signed@?$numeric_limits@J@std@@2_NB
CONST	SEGMENT
?is_signed@?$numeric_limits@J@std@@2_NB DB 01H		; std::numeric_limits<long>::is_signed
CONST	ENDS
;	COMDAT ?digits10@?$numeric_limits@I@std@@2HB
CONST	SEGMENT
?digits10@?$numeric_limits@I@std@@2HB DD 09H		; std::numeric_limits<unsigned int>::digits10
CONST	ENDS
;	COMDAT ?digits@?$numeric_limits@I@std@@2HB
CONST	SEGMENT
?digits@?$numeric_limits@I@std@@2HB DD 020H		; std::numeric_limits<unsigned int>::digits
CONST	ENDS
;	COMDAT ?is_signed@?$numeric_limits@I@std@@2_NB
CONST	SEGMENT
?is_signed@?$numeric_limits@I@std@@2_NB DB 00H		; std::numeric_limits<unsigned int>::is_signed
CONST	ENDS
;	COMDAT ?_G2@?$_Ratio_multiply2@U?$ratio@$00$0JIJGIA@@std@@U?$ratio@$0JIJGIA@$00@2@@std@@2_JB
CONST	SEGMENT
?_G2@?$_Ratio_multiply2@U?$ratio@$00$0JIJGIA@@std@@U?$ratio@$0JIJGIA@$00@2@@std@@2_JB DQ 0000000000989680H ; std::_Ratio_multiply2<std::ratio<1,10000000>,std::ratio<10000000,1> >::_G2
CONST	ENDS
PUBLIC	?_Atomic_load_4@std@@YAKPECKW4memory_order@1@@Z	; std::_Atomic_load_4
PUBLIC	??0_Ignore@std@@QEAA@XZ				; std::_Ignore::_Ignore
PUBLIC	?_Load_relaxed_4@std@@YAKPECK@Z			; std::_Load_relaxed_4
PUBLIC	?_Load_acquire_4@std@@YAKPECK@Z			; std::_Load_acquire_4
PUBLIC	?_Load_seq_cst_4@std@@YAKPECK@Z			; std::_Load_seq_cst_4
PUBLIC	??Batomic_bool@std@@QEBA_NXZ			; std::atomic_bool::operator bool
PUBLIC	?atomic_load_explicit@std@@YA_NPEBUatomic_bool@1@W4memory_order@1@@Z ; std::atomic_load_explicit
PUBLIC	?atomic_load@std@@YA_NPEBUatomic_bool@1@@Z	; std::atomic_load
PUBLIC	?exit_signal@DisplayWindow@app@@QEAA_NXZ	; app::DisplayWindow::exit_signal
PUBLIC	??0Application@app@@QEAA@PEAUHINSTANCE__@@PEADH@Z ; app::Application::Application
PUBLIC	??1Application@app@@UEAA@XZ			; app::Application::~Application
PUBLIC	?Run@Application@app@@UEAAHXZ			; app::Application::Run
PUBLIC	??_GApplication@app@@UEAAPEAXI@Z		; app::Application::`scalar deleting destructor'
PUBLIC	??_C@_15GANGMFKL@?$AA?$CF?$AAs?$AA?$AA@		; `string'
PUBLIC	??_C@_1JC@OFINEDFE@?$AAC?$AA?3?$AA?2?$AAP?$AAr?$AAo?$AAg?$AAr?$AAa?$AAm?$AA?5?$AAF?$AAi?$AAl?$AAe?$AAs?$AA?5?$AA?$CI?$AAx?$AA8?$AA6?$AA?$CJ?$AA?2?$AAM?$AAi?$AAc?$AAr?$AAo?$AAs?$AAo?$AAf?$AAt@ ; `string'
PUBLIC	??_C@_1CK@BEGEBJJG@?$AAI?$AAn?$AAv?$AAa?$AAl?$AAi?$AAd?$AA?5?$AAm?$AAe?$AAm?$AAo?$AAr?$AAy?$AA_?$AAo?$AAr?$AAd?$AAe?$AAr?$AA?$AA@ ; `string'
PUBLIC	??_C@_0CI@FNPHFCCM@Standard?5C?$CL?$CL?5Libraries?5Invalid?5A@ ; `string'
PUBLIC	??_C@_1FO@GJIHNDLM@?$AA?$CC?$AAS?$AAt?$AAa?$AAn?$AAd?$AAa?$AAr?$AAd?$AA?5?$AAC?$AA?$CL?$AA?$CL?$AA?5?$AAL?$AAi?$AAb?$AAr?$AAa?$AAr?$AAi?$AAe?$AAs?$AA?5?$AAI?$AAn?$AAv?$AAa?$AAl?$AAi?$AAd?$AA?5@ ; `string'
PUBLIC	??_C@_1CG@JNLFBNGN@?$AA?$CC?$AAi?$AAn?$AAv?$AAa?$AAl?$AAi?$AAd?$AA?5?$AAa?$AAr?$AAg?$AAu?$AAm?$AAe?$AAn?$AAt?$AA?$CC?$AA?$AA@ ; `string'
PUBLIC	??_C@_1CI@NMHCEFB@?$AAs?$AAt?$AAd?$AA?3?$AA?3?$AA_?$AAA?$AAt?$AAo?$AAm?$AAi?$AAc?$AA_?$AAl?$AAo?$AAa?$AAd?$AA_?$AA4?$AA?$AA@ ; `string'
PUBLIC	??_7Application@app@@6B@			; app::Application::`vftable'
PUBLIC	??_R4Application@app@@6B@			; app::Application::`RTTI Complete Object Locator'
PUBLIC	??_R0?AVApplication@app@@@8			; app::Application `RTTI Type Descriptor'
PUBLIC	??_R3Application@app@@8				; app::Application::`RTTI Class Hierarchy Descriptor'
PUBLIC	??_R2Application@app@@8				; app::Application::`RTTI Base Class Array'
PUBLIC	??_R1A@?0A@EA@Application@app@@8		; app::Application::`RTTI Base Class Descriptor at (0,-1,0,64)'
PUBLIC	??_R1A@?0A@EN@Application@windows@core@@8	; core::windows::Application::`RTTI Base Class Descriptor at (0,-1,0,77)'
PUBLIC	??_R0?AVApplication@windows@core@@@8		; core::windows::Application `RTTI Type Descriptor'
PUBLIC	??_R3Application@windows@core@@8		; core::windows::Application::`RTTI Class Hierarchy Descriptor'
PUBLIC	??_R2Application@windows@core@@8		; core::windows::Application::`RTTI Base Class Array'
PUBLIC	??_R1A@?0A@EA@Application@windows@core@@8	; core::windows::Application::`RTTI Base Class Descriptor at (0,-1,0,64)'
EXTRN	??3@YAXPEAX@Z:PROC				; operator delete
EXTRN	__imp__invalid_parameter:PROC
EXTRN	__imp__CrtDbgReportW:PROC
EXTRN	__imp_TranslateMessage:PROC
EXTRN	__imp_DispatchMessageA:PROC
EXTRN	__imp_PeekMessageA:PROC
EXTRN	??0Application@windows@core@@QEAA@XZ:PROC	; core::windows::Application::Application
EXTRN	??1Application@windows@core@@UEAA@XZ:PROC	; core::windows::Application::~Application
EXTRN	__imp_?_Debug_message@std@@YAXPEB_W0I@Z:PROC
EXTRN	??0DisplayWindow@app@@QEAA@XZ:PROC		; app::DisplayWindow::DisplayWindow
EXTRN	??1DisplayWindow@app@@QEAA@XZ:PROC		; app::DisplayWindow::~DisplayWindow
EXTRN	?Init@DisplayWindow@app@@QEAAXXZ:PROC		; app::DisplayWindow::Init
EXTRN	?Step@DisplayWindow@app@@QEAAXXZ:PROC		; app::DisplayWindow::Step
EXTRN	??_EApplication@app@@UEAAPEAXI@Z:PROC		; app::Application::`vector deleting destructor'
EXTRN	_RTC_CheckStackVars:PROC
EXTRN	_RTC_InitBase:PROC
EXTRN	_RTC_Shutdown:PROC
EXTRN	__CxxFrameHandler3:PROC
EXTRN	??_7type_info@@6B@:BYTE				; type_info::`vftable'
_BSS	SEGMENT
piecewise_construct DB 01H DUP (?)
	ALIGN	4

allocator_arg DB 01H DUP (?)
	ALIGN	4

ignore	DB	01H DUP (?)
	ALIGN	4

_Tuple_alloc DB	01H DUP (?)
_BSS	ENDS
;	COMDAT pdata
pdata	SEGMENT
$pdata$??__Epiecewise_construct@std@@YAXXZ DD imagerel ??__Epiecewise_construct@std@@YAXXZ
	DD	imagerel ??__Epiecewise_construct@std@@YAXXZ+43
	DD	imagerel $unwind$??__Epiecewise_construct@std@@YAXXZ
pdata	ENDS
;	COMDAT pdata
pdata	SEGMENT
$pdata$??__Eallocator_arg@std@@YAXXZ DD imagerel ??__Eallocator_arg@std@@YAXXZ
	DD	imagerel ??__Eallocator_arg@std@@YAXXZ+43
	DD	imagerel $unwind$??__Eallocator_arg@std@@YAXXZ
pdata	ENDS
;	COMDAT pdata
pdata	SEGMENT
$pdata$?_Atomic_load_4@std@@YAKPECKW4memory_order@1@@Z DD imagerel $LN11
	DD	imagerel $LN11+270
	DD	imagerel $unwind$?_Atomic_load_4@std@@YAKPECKW4memory_order@1@@Z
pdata	ENDS
;	COMDAT pdata
pdata	SEGMENT
$pdata$??0_Ignore@std@@QEAA@XZ DD imagerel $LN3
	DD	imagerel $LN3+13
	DD	imagerel $unwind$??0_Ignore@std@@QEAA@XZ
pdata	ENDS
;	COMDAT pdata
pdata	SEGMENT
$pdata$??__Eignore@std@@YAXXZ DD imagerel ??__Eignore@std@@YAXXZ
	DD	imagerel ??__Eignore@std@@YAXXZ+39
	DD	imagerel $unwind$??__Eignore@std@@YAXXZ
pdata	ENDS
;	COMDAT pdata
pdata	SEGMENT
$pdata$??__E_Tuple_alloc@std@@YAXXZ DD imagerel ??__E_Tuple_alloc@std@@YAXXZ
	DD	imagerel ??__E_Tuple_alloc@std@@YAXXZ+43
	DD	imagerel $unwind$??__E_Tuple_alloc@std@@YAXXZ
pdata	ENDS
;	COMDAT pdata
pdata	SEGMENT
$pdata$?_Load_relaxed_4@std@@YAKPECK@Z DD imagerel $LN4
	DD	imagerel $LN4+85
	DD	imagerel $unwind$?_Load_relaxed_4@std@@YAKPECK@Z
pdata	ENDS
;	COMDAT pdata
pdata	SEGMENT
$pdata$?_Load_acquire_4@std@@YAKPECK@Z DD imagerel $LN4
	DD	imagerel $LN4+85
	DD	imagerel $unwind$?_Load_acquire_4@std@@YAKPECK@Z
pdata	ENDS
;	COMDAT pdata
pdata	SEGMENT
$pdata$?_Load_seq_cst_4@std@@YAKPECK@Z DD imagerel $LN4
	DD	imagerel $LN4+85
	DD	imagerel $unwind$?_Load_seq_cst_4@std@@YAKPECK@Z
pdata	ENDS
;	COMDAT pdata
pdata	SEGMENT
$pdata$??Batomic_bool@std@@QEBA_NXZ DD imagerel $LN3
	DD	imagerel $LN3+46
	DD	imagerel $unwind$??Batomic_bool@std@@QEBA_NXZ
pdata	ENDS
;	COMDAT pdata
pdata	SEGMENT
$pdata$?atomic_load_explicit@std@@YA_NPEBUatomic_bool@1@W4memory_order@1@@Z DD imagerel $LN5
	DD	imagerel $LN5+78
	DD	imagerel $unwind$?atomic_load_explicit@std@@YA_NPEBUatomic_bool@1@W4memory_order@1@@Z
pdata	ENDS
;	COMDAT pdata
pdata	SEGMENT
$pdata$?atomic_load@std@@YA_NPEBUatomic_bool@1@@Z DD imagerel $LN3
	DD	imagerel $LN3+51
	DD	imagerel $unwind$?atomic_load@std@@YA_NPEBUatomic_bool@1@@Z
pdata	ENDS
;	COMDAT pdata
pdata	SEGMENT
$pdata$?exit_signal@DisplayWindow@app@@QEAA_NXZ DD imagerel $LN3
	DD	imagerel $LN3+55
	DD	imagerel $unwind$?exit_signal@DisplayWindow@app@@QEAA_NXZ
pdata	ENDS
pdata	SEGMENT
$pdata$??0Application@app@@QEAA@PEAUHINSTANCE__@@PEADH@Z DD imagerel $LN5
	DD	imagerel $LN5+120
	DD	imagerel $unwind$??0Application@app@@QEAA@PEAUHINSTANCE__@@PEADH@Z
pdata	ENDS
pdata	SEGMENT
$pdata$?dtor$0@?0???0Application@app@@QEAA@PEAUHINSTANCE__@@PEADH@Z@4HA DD imagerel ?dtor$0@?0???0Application@app@@QEAA@PEAUHINSTANCE__@@PEADH@Z@4HA
	DD	imagerel ?dtor$0@?0???0Application@app@@QEAA@PEAUHINSTANCE__@@PEADH@Z@4HA+35
	DD	imagerel $unwind$?dtor$0@?0???0Application@app@@QEAA@PEAUHINSTANCE__@@PEADH@Z@4HA
pdata	ENDS
pdata	SEGMENT
$pdata$??1Application@app@@UEAA@XZ DD imagerel $LN5
	DD	imagerel $LN5+99
	DD	imagerel $unwind$??1Application@app@@UEAA@XZ
pdata	ENDS
pdata	SEGMENT
$pdata$?dtor$0@?0???1Application@app@@UEAA@XZ@4HA DD imagerel ?dtor$0@?0???1Application@app@@UEAA@XZ@4HA
	DD	imagerel ?dtor$0@?0???1Application@app@@UEAA@XZ@4HA+35
	DD	imagerel $unwind$?dtor$0@?0???1Application@app@@UEAA@XZ@4HA
pdata	ENDS
pdata	SEGMENT
$pdata$?Run@Application@app@@UEAAHXZ DD imagerel $LN9
	DD	imagerel $LN9+197
	DD	imagerel $unwind$?Run@Application@app@@UEAAHXZ
pdata	ENDS
;	COMDAT pdata
pdata	SEGMENT
$pdata$??_GApplication@app@@UEAAPEAXI@Z DD imagerel $LN4
	DD	imagerel $LN4+76
	DD	imagerel $unwind$??_GApplication@app@@UEAAPEAXI@Z
pdata	ENDS
CRT$XCU	SEGMENT
piecewise_construct$initializer$ DQ FLAT:??__Epiecewise_construct@std@@YAXXZ
CRT$XCU	ENDS
;	COMDAT rtc$TMZ
rtc$TMZ	SEGMENT
_RTC_Shutdown.rtc$TMZ DQ FLAT:_RTC_Shutdown
rtc$TMZ	ENDS
;	COMDAT rtc$IMZ
rtc$IMZ	SEGMENT
_RTC_InitBase.rtc$IMZ DQ FLAT:_RTC_InitBase
rtc$IMZ	ENDS
;	COMDAT ??_R1A@?0A@EA@Application@windows@core@@8
rdata$r	SEGMENT
??_R1A@?0A@EA@Application@windows@core@@8 DD imagerel ??_R0?AVApplication@windows@core@@@8 ; core::windows::Application::`RTTI Base Class Descriptor at (0,-1,0,64)'
	DD	00H
	DD	00H
	DD	0ffffffffH
	DD	00H
	DD	040H
	DD	imagerel ??_R3Application@windows@core@@8
rdata$r	ENDS
;	COMDAT ??_R2Application@windows@core@@8
rdata$r	SEGMENT
??_R2Application@windows@core@@8 DD imagerel ??_R1A@?0A@EA@Application@windows@core@@8 ; core::windows::Application::`RTTI Base Class Array'
	ORG $+3
rdata$r	ENDS
;	COMDAT ??_R3Application@windows@core@@8
rdata$r	SEGMENT
??_R3Application@windows@core@@8 DD 00H			; core::windows::Application::`RTTI Class Hierarchy Descriptor'
	DD	00H
	DD	01H
	DD	imagerel ??_R2Application@windows@core@@8
rdata$r	ENDS
;	COMDAT ??_R0?AVApplication@windows@core@@@8
_DATA	SEGMENT
??_R0?AVApplication@windows@core@@@8 DQ FLAT:??_7type_info@@6B@ ; core::windows::Application `RTTI Type Descriptor'
	DQ	0000000000000000H
	DB	'.?AVApplication@windows@core@@', 00H
_DATA	ENDS
;	COMDAT ??_R1A@?0A@EN@Application@windows@core@@8
rdata$r	SEGMENT
??_R1A@?0A@EN@Application@windows@core@@8 DD imagerel ??_R0?AVApplication@windows@core@@@8 ; core::windows::Application::`RTTI Base Class Descriptor at (0,-1,0,77)'
	DD	00H
	DD	00H
	DD	0ffffffffH
	DD	00H
	DD	04dH
	DD	imagerel ??_R3Application@windows@core@@8
rdata$r	ENDS
;	COMDAT ??_R1A@?0A@EA@Application@app@@8
rdata$r	SEGMENT
??_R1A@?0A@EA@Application@app@@8 DD imagerel ??_R0?AVApplication@app@@@8 ; app::Application::`RTTI Base Class Descriptor at (0,-1,0,64)'
	DD	01H
	DD	00H
	DD	0ffffffffH
	DD	00H
	DD	040H
	DD	imagerel ??_R3Application@app@@8
rdata$r	ENDS
;	COMDAT ??_R2Application@app@@8
rdata$r	SEGMENT
??_R2Application@app@@8 DD imagerel ??_R1A@?0A@EA@Application@app@@8 ; app::Application::`RTTI Base Class Array'
	DD	imagerel ??_R1A@?0A@EN@Application@windows@core@@8
	ORG $+3
rdata$r	ENDS
;	COMDAT ??_R3Application@app@@8
rdata$r	SEGMENT
??_R3Application@app@@8 DD 00H				; app::Application::`RTTI Class Hierarchy Descriptor'
	DD	00H
	DD	02H
	DD	imagerel ??_R2Application@app@@8
rdata$r	ENDS
;	COMDAT ??_R0?AVApplication@app@@@8
_DATA	SEGMENT
??_R0?AVApplication@app@@@8 DQ FLAT:??_7type_info@@6B@	; app::Application `RTTI Type Descriptor'
	DQ	0000000000000000H
	DB	'.?AVApplication@app@@', 00H
_DATA	ENDS
;	COMDAT ??_R4Application@app@@6B@
rdata$r	SEGMENT
??_R4Application@app@@6B@ DD 01H			; app::Application::`RTTI Complete Object Locator'
	DD	00H
	DD	00H
	DD	imagerel ??_R0?AVApplication@app@@@8
	DD	imagerel ??_R3Application@app@@8
	DD	imagerel ??_R4Application@app@@6B@
rdata$r	ENDS
;	COMDAT ??_7Application@app@@6B@
CONST	SEGMENT
??_7Application@app@@6B@ DQ FLAT:??_R4Application@app@@6B@ ; app::Application::`vftable'
	DQ	FLAT:??_EApplication@app@@UEAAPEAXI@Z
	DQ	FLAT:?Run@Application@app@@UEAAHXZ
CONST	ENDS
;	COMDAT ??_C@_1CI@NMHCEFB@?$AAs?$AAt?$AAd?$AA?3?$AA?3?$AA_?$AAA?$AAt?$AAo?$AAm?$AAi?$AAc?$AA_?$AAl?$AAo?$AAa?$AAd?$AA_?$AA4?$AA?$AA@
CONST	SEGMENT
??_C@_1CI@NMHCEFB@?$AAs?$AAt?$AAd?$AA?3?$AA?3?$AA_?$AAA?$AAt?$AAo?$AAm?$AAi?$AAc?$AA_?$AAl?$AAo?$AAa?$AAd?$AA_?$AA4?$AA?$AA@ DB 's'
	DB	00H, 't', 00H, 'd', 00H, ':', 00H, ':', 00H, '_', 00H, 'A', 00H
	DB	't', 00H, 'o', 00H, 'm', 00H, 'i', 00H, 'c', 00H, '_', 00H, 'l'
	DB	00H, 'o', 00H, 'a', 00H, 'd', 00H, '_', 00H, '4', 00H, 00H, 00H ; `string'
CONST	ENDS
;	COMDAT ??_C@_1CG@JNLFBNGN@?$AA?$CC?$AAi?$AAn?$AAv?$AAa?$AAl?$AAi?$AAd?$AA?5?$AAa?$AAr?$AAg?$AAu?$AAm?$AAe?$AAn?$AAt?$AA?$CC?$AA?$AA@
CONST	SEGMENT
??_C@_1CG@JNLFBNGN@?$AA?$CC?$AAi?$AAn?$AAv?$AAa?$AAl?$AAi?$AAd?$AA?5?$AAa?$AAr?$AAg?$AAu?$AAm?$AAe?$AAn?$AAt?$AA?$CC?$AA?$AA@ DB '"'
	DB	00H, 'i', 00H, 'n', 00H, 'v', 00H, 'a', 00H, 'l', 00H, 'i', 00H
	DB	'd', 00H, ' ', 00H, 'a', 00H, 'r', 00H, 'g', 00H, 'u', 00H, 'm'
	DB	00H, 'e', 00H, 'n', 00H, 't', 00H, '"', 00H, 00H, 00H ; `string'
CONST	ENDS
;	COMDAT ??_C@_1FO@GJIHNDLM@?$AA?$CC?$AAS?$AAt?$AAa?$AAn?$AAd?$AAa?$AAr?$AAd?$AA?5?$AAC?$AA?$CL?$AA?$CL?$AA?5?$AAL?$AAi?$AAb?$AAr?$AAa?$AAr?$AAi?$AAe?$AAs?$AA?5?$AAI?$AAn?$AAv?$AAa?$AAl?$AAi?$AAd?$AA?5@
CONST	SEGMENT
??_C@_1FO@GJIHNDLM@?$AA?$CC?$AAS?$AAt?$AAa?$AAn?$AAd?$AAa?$AAr?$AAd?$AA?5?$AAC?$AA?$CL?$AA?$CL?$AA?5?$AAL?$AAi?$AAb?$AAr?$AAa?$AAr?$AAi?$AAe?$AAs?$AA?5?$AAI?$AAn?$AAv?$AAa?$AAl?$AAi?$AAd?$AA?5@ DB '"'
	DB	00H, 'S', 00H, 't', 00H, 'a', 00H, 'n', 00H, 'd', 00H, 'a', 00H
	DB	'r', 00H, 'd', 00H, ' ', 00H, 'C', 00H, '+', 00H, '+', 00H, ' '
	DB	00H, 'L', 00H, 'i', 00H, 'b', 00H, 'r', 00H, 'a', 00H, 'r', 00H
	DB	'i', 00H, 'e', 00H, 's', 00H, ' ', 00H, 'I', 00H, 'n', 00H, 'v'
	DB	00H, 'a', 00H, 'l', 00H, 'i', 00H, 'd', 00H, ' ', 00H, 'A', 00H
	DB	'r', 00H, 'g', 00H, 'u', 00H, 'm', 00H, 'e', 00H, 'n', 00H, 't'
	DB	00H, '"', 00H, ' ', 00H, '&', 00H, '&', 00H, ' ', 00H, '0', 00H
	DB	00H, 00H					; `string'
CONST	ENDS
;	COMDAT ??_C@_0CI@FNPHFCCM@Standard?5C?$CL?$CL?5Libraries?5Invalid?5A@
CONST	SEGMENT
??_C@_0CI@FNPHFCCM@Standard?5C?$CL?$CL?5Libraries?5Invalid?5A@ DB 'Standa'
	DB	'rd C++ Libraries Invalid Argument', 00H	; `string'
CONST	ENDS
;	COMDAT ??_C@_1CK@BEGEBJJG@?$AAI?$AAn?$AAv?$AAa?$AAl?$AAi?$AAd?$AA?5?$AAm?$AAe?$AAm?$AAo?$AAr?$AAy?$AA_?$AAo?$AAr?$AAd?$AAe?$AAr?$AA?$AA@
CONST	SEGMENT
??_C@_1CK@BEGEBJJG@?$AAI?$AAn?$AAv?$AAa?$AAl?$AAi?$AAd?$AA?5?$AAm?$AAe?$AAm?$AAo?$AAr?$AAy?$AA_?$AAo?$AAr?$AAd?$AAe?$AAr?$AA?$AA@ DB 'I'
	DB	00H, 'n', 00H, 'v', 00H, 'a', 00H, 'l', 00H, 'i', 00H, 'd', 00H
	DB	' ', 00H, 'm', 00H, 'e', 00H, 'm', 00H, 'o', 00H, 'r', 00H, 'y'
	DB	00H, '_', 00H, 'o', 00H, 'r', 00H, 'd', 00H, 'e', 00H, 'r', 00H
	DB	00H, 00H					; `string'
CONST	ENDS
;	COMDAT ??_C@_1JC@OFINEDFE@?$AAC?$AA?3?$AA?2?$AAP?$AAr?$AAo?$AAg?$AAr?$AAa?$AAm?$AA?5?$AAF?$AAi?$AAl?$AAe?$AAs?$AA?5?$AA?$CI?$AAx?$AA8?$AA6?$AA?$CJ?$AA?2?$AAM?$AAi?$AAc?$AAr?$AAo?$AAs?$AAo?$AAf?$AAt@
CONST	SEGMENT
??_C@_1JC@OFINEDFE@?$AAC?$AA?3?$AA?2?$AAP?$AAr?$AAo?$AAg?$AAr?$AAa?$AAm?$AA?5?$AAF?$AAi?$AAl?$AAe?$AAs?$AA?5?$AA?$CI?$AAx?$AA8?$AA6?$AA?$CJ?$AA?2?$AAM?$AAi?$AAc?$AAr?$AAo?$AAs?$AAo?$AAf?$AAt@ DB 'C'
	DB	00H, ':', 00H, '\', 00H, 'P', 00H, 'r', 00H, 'o', 00H, 'g', 00H
	DB	'r', 00H, 'a', 00H, 'm', 00H, ' ', 00H, 'F', 00H, 'i', 00H, 'l'
	DB	00H, 'e', 00H, 's', 00H, ' ', 00H, '(', 00H, 'x', 00H, '8', 00H
	DB	'6', 00H, ')', 00H, '\', 00H, 'M', 00H, 'i', 00H, 'c', 00H, 'r'
	DB	00H, 'o', 00H, 's', 00H, 'o', 00H, 'f', 00H, 't', 00H, ' ', 00H
	DB	'V', 00H, 'i', 00H, 's', 00H, 'u', 00H, 'a', 00H, 'l', 00H, ' '
	DB	00H, 'S', 00H, 't', 00H, 'u', 00H, 'd', 00H, 'i', 00H, 'o', 00H
	DB	' ', 00H, '1', 00H, '1', 00H, '.', 00H, '0', 00H, '\', 00H, 'V'
	DB	00H, 'C', 00H, '\', 00H, 'i', 00H, 'n', 00H, 'c', 00H, 'l', 00H
	DB	'u', 00H, 'd', 00H, 'e', 00H, '\', 00H, 'x', 00H, 'a', 00H, 't'
	DB	00H, 'o', 00H, 'm', 00H, 'i', 00H, 'c', 00H, '.', 00H, 'h', 00H
	DB	00H, 00H					; `string'
CONST	ENDS
;	COMDAT ??_C@_15GANGMFKL@?$AA?$CF?$AAs?$AA?$AA@
CONST	SEGMENT
??_C@_15GANGMFKL@?$AA?$CF?$AAs?$AA?$AA@ DB '%', 00H, 's', 00H, 00H, 00H ; `string'
CONST	ENDS
;	COMDAT xdata
xdata	SEGMENT
$unwind$??_GApplication@app@@UEAAPEAXI@Z DD 022201H
	DD	0700a320eH
xdata	ENDS
CONST	SEGMENT
$cppxdata$??0Application@app@@QEAA@PEAUHINSTANCE__@@PEADH@Z DD 019930522H
	DD	01H
	DD	imagerel $stateUnwindMap$??0Application@app@@QEAA@PEAUHINSTANCE__@@PEADH@Z
	DD	00H
	DD	00H
	DD	03H
	DD	imagerel $ip2state$??0Application@app@@QEAA@PEAUHINSTANCE__@@PEADH@Z
	DD	020H
	DD	00H
	DD	01H
$cppxdata$??1Application@app@@UEAA@XZ DD 019930522H
	DD	01H
	DD	imagerel $stateUnwindMap$??1Application@app@@UEAA@XZ
	DD	00H
	DD	00H
	DD	03H
	DD	imagerel $ip2state$??1Application@app@@UEAA@XZ
	DD	020H
	DD	00H
	DD	01H
?Run@Application@app@@UEAAHXZ$rtcName$0 DB 06dH		; app::Application::Run
	DB	073H
	DB	067H
	DB	00H
	ORG $+12
?Run@Application@app@@UEAAHXZ$rtcVarDesc DD 038H	; app::Application::Run
	DD	030H
	DQ	FLAT:?Run@Application@app@@UEAAHXZ$rtcName$0
	ORG $+48
?Run@Application@app@@UEAAHXZ$rtcFrameData DD 01H	; app::Application::Run
	DD	00H
	DQ	FLAT:?Run@Application@app@@UEAAHXZ$rtcVarDesc
CONST	ENDS
xdata	SEGMENT
$unwind$??0Application@app@@QEAA@PEAUHINSTANCE__@@PEADH@Z DD 023611H
	DD	070155219H
	DD	imagerel __CxxFrameHandler3
	DD	imagerel $cppxdata$??0Application@app@@QEAA@PEAUHINSTANCE__@@PEADH@Z
$stateUnwindMap$??0Application@app@@QEAA@PEAUHINSTANCE__@@PEADH@Z DD 0ffffffffH
	DD	imagerel ?dtor$0@?0???0Application@app@@QEAA@PEAUHINSTANCE__@@PEADH@Z@4HA
$ip2state$??0Application@app@@QEAA@PEAUHINSTANCE__@@PEADH@Z DD imagerel ??0Application@app@@QEAA@PEAUHINSTANCE__@@PEADH@Z
	DD	0ffffffffH
	DD	imagerel ??0Application@app@@QEAA@PEAUHINSTANCE__@@PEADH@Z+65
	DD	00H
	DD	imagerel ??0Application@app@@QEAA@PEAUHINSTANCE__@@PEADH@Z+109
	DD	0ffffffffH
$unwind$?dtor$0@?0???0Application@app@@QEAA@PEAUHINSTANCE__@@PEADH@Z@4HA DD 031001H
	DD	0700c4210H
	DD	0500bH
$unwind$??1Application@app@@UEAA@XZ DD 022711H
	DD	07006520aH
	DD	imagerel __CxxFrameHandler3
	DD	imagerel $cppxdata$??1Application@app@@UEAA@XZ
$stateUnwindMap$??1Application@app@@UEAA@XZ DD 0ffffffffH
	DD	imagerel ?dtor$0@?0???1Application@app@@UEAA@XZ@4HA
$ip2state$??1Application@app@@UEAA@XZ DD imagerel ??1Application@app@@UEAA@XZ
	DD	0ffffffffH
	DD	imagerel ??1Application@app@@UEAA@XZ+54
	DD	00H
	DD	imagerel ??1Application@app@@UEAA@XZ+83
	DD	0ffffffffH
$unwind$?dtor$0@?0???1Application@app@@UEAA@XZ@4HA DD 031001H
	DD	0700c4210H
	DD	0500bH
$unwind$?Run@Application@app@@UEAAHXZ DD 022401H
	DD	07006f20dH
xdata	ENDS
;	COMDAT xdata
xdata	SEGMENT
$unwind$?exit_signal@DisplayWindow@app@@QEAA_NXZ DD 021e01H
	DD	07006320aH
xdata	ENDS
;	COMDAT xdata
xdata	SEGMENT
$unwind$?atomic_load@std@@YA_NPEBUatomic_bool@1@@Z DD 021e01H
	DD	07006320aH
xdata	ENDS
;	COMDAT xdata
xdata	SEGMENT
$unwind$?atomic_load_explicit@std@@YA_NPEBUatomic_bool@1@W4memory_order@1@@Z DD 022201H
	DD	0700a520eH
xdata	ENDS
;	COMDAT xdata
xdata	SEGMENT
$unwind$??Batomic_bool@std@@QEBA_NXZ DD 021e01H
	DD	07006320aH
xdata	ENDS
;	COMDAT xdata
xdata	SEGMENT
$unwind$?_Load_seq_cst_4@std@@YAKPECK@Z DD 021e01H
	DD	07006120aH
xdata	ENDS
;	COMDAT xdata
xdata	SEGMENT
$unwind$?_Load_acquire_4@std@@YAKPECK@Z DD 021e01H
	DD	07006120aH
xdata	ENDS
;	COMDAT xdata
xdata	SEGMENT
$unwind$?_Load_relaxed_4@std@@YAKPECK@Z DD 021e01H
	DD	07006120aH
xdata	ENDS
;	COMDAT xdata
xdata	SEGMENT
$unwind$??__E_Tuple_alloc@std@@YAXXZ DD 021501H
	DD	070021206H
xdata	ENDS
;	COMDAT xdata
xdata	SEGMENT
$unwind$??__Eignore@std@@YAXXZ DD 021501H
	DD	070023206H
xdata	ENDS
;	COMDAT xdata
xdata	SEGMENT
$unwind$??0_Ignore@std@@QEAA@XZ DD 010601H
	DD	07006H
xdata	ENDS
;	COMDAT xdata
xdata	SEGMENT
$unwind$?_Atomic_load_4@std@@YAKPECKW4memory_order@1@@Z DD 022201H
	DD	0700a720eH
xdata	ENDS
;	COMDAT xdata
xdata	SEGMENT
$unwind$??__Eallocator_arg@std@@YAXXZ DD 021501H
	DD	070021206H
xdata	ENDS
;	COMDAT xdata
xdata	SEGMENT
$unwind$??__Epiecewise_construct@std@@YAXXZ DD 021501H
	DD	070021206H
xdata	ENDS
CRT$XCU	SEGMENT
allocator_arg$initializer$ DQ FLAT:??__Eallocator_arg@std@@YAXXZ
CRT$XCU	ENDS
CRT$XCU	SEGMENT
ignore$initializer$ DQ FLAT:??__Eignore@std@@YAXXZ
CRT$XCU	ENDS
CRT$XCU	SEGMENT
_Tuple_alloc$initializer$ DQ FLAT:??__E_Tuple_alloc@std@@YAXXZ
CRT$XCU	ENDS
; Function compile flags: /Odtp /RTCsu
;	COMDAT ??_GApplication@app@@UEAAPEAXI@Z
_TEXT	SEGMENT
this$ = 48
__flags$ = 56
??_GApplication@app@@UEAAPEAXI@Z PROC			; app::Application::`scalar deleting destructor', COMDAT
$LN4:
	mov	DWORD PTR [rsp+16], edx
	mov	QWORD PTR [rsp+8], rcx
	push	rdi
	sub	rsp, 32					; 00000020H
	mov	rdi, rsp
	mov	ecx, 8
	mov	eax, -858993460				; ccccccccH
	rep stosd
	mov	rcx, QWORD PTR [rsp+48]
	mov	rcx, QWORD PTR this$[rsp]
	call	??1Application@app@@UEAA@XZ		; app::Application::~Application
	mov	eax, DWORD PTR __flags$[rsp]
	and	eax, 1
	test	eax, eax
	je	SHORT $LN1@scalar
	mov	rcx, QWORD PTR this$[rsp]
	call	??3@YAXPEAX@Z				; operator delete
$LN1@scalar:
	mov	rax, QWORD PTR this$[rsp]
	add	rsp, 32					; 00000020H
	pop	rdi
	ret	0
??_GApplication@app@@UEAAPEAXI@Z ENDP			; app::Application::`scalar deleting destructor'
_TEXT	ENDS
; Function compile flags: /Odtp /RTCsu
; File d:\personal\projects\gbemu\solution\code\application.cpp
_TEXT	SEGMENT
msg$ = 56
this$ = 144
?Run@Application@app@@UEAAHXZ PROC			; app::Application::Run

; 16   : int Application::Run() {

$LN9:
	mov	QWORD PTR [rsp+8], rcx
	push	rdi
	sub	rsp, 128				; 00000080H
	mov	rdi, rsp
	mov	ecx, 32					; 00000020H
	mov	eax, -858993460				; ccccccccH
	rep stosd
	mov	rcx, QWORD PTR [rsp+144]

; 17   :   //CoInitializeEx(NULL, COINIT_APARTMENTTHREADED);
; 18   :   //unsigned old_fp_state;
; 19   :   //_controlfp_s(&old_fp_state, _PC_53, _MCW_PC);
; 20   : 
; 21   :   display_window_.Init();

	mov	rax, QWORD PTR this$[rsp]
	add	rax, 16
	mov	rcx, rax
	call	?Init@DisplayWindow@app@@QEAAXXZ	; app::DisplayWindow::Init
$LN6@Run:

; 22   :   
; 23   :   MSG msg;
; 24   :   do {
; 25   :     if (PeekMessage(&msg, NULL, 0, 0, PM_REMOVE)) {

	mov	DWORD PTR [rsp+32], 1
	xor	r9d, r9d
	xor	r8d, r8d
	xor	edx, edx
	lea	rcx, QWORD PTR msg$[rsp]
	call	QWORD PTR __imp_PeekMessageA
	test	eax, eax
	je	SHORT $LN3@Run

; 26   :       TranslateMessage(&msg);

	lea	rcx, QWORD PTR msg$[rsp]
	call	QWORD PTR __imp_TranslateMessage

; 27   :       DispatchMessage(&msg);

	lea	rcx, QWORD PTR msg$[rsp]
	call	QWORD PTR __imp_DispatchMessageA

; 28   :     } else {

	jmp	SHORT $LN2@Run
$LN3@Run:

; 29   :       display_window_.Step(); 

	mov	rax, QWORD PTR this$[rsp]
	add	rax, 16
	mov	rcx, rax
	call	?Step@DisplayWindow@app@@QEAAXXZ	; app::DisplayWindow::Step
$LN2@Run:

; 30   :     }
; 31   :   } while(msg.message!=WM_QUIT && display_window_.exit_signal() == false);

	cmp	DWORD PTR msg$[rsp+8], 18
	je	SHORT $LN1@Run
	mov	rax, QWORD PTR this$[rsp]
	add	rax, 16
	mov	rcx, rax
	call	?exit_signal@DisplayWindow@app@@QEAA_NXZ ; app::DisplayWindow::exit_signal
	movzx	eax, al
	test	eax, eax
	je	SHORT $LN6@Run
$LN1@Run:

; 32   : 
; 33   :  //CoUninitialize();
; 34   :  //Return the exit code to the system. 
; 35   :  return static_cast<int>(msg.wParam);

	mov	eax, DWORD PTR msg$[rsp+16]

; 36   : }

	mov	edi, eax
	mov	rcx, rsp
	lea	rdx, OFFSET FLAT:?Run@Application@app@@UEAAHXZ$rtcFrameData
	call	_RTC_CheckStackVars
	mov	eax, edi
	add	rsp, 128				; 00000080H
	pop	rdi
	ret	0
?Run@Application@app@@UEAAHXZ ENDP			; app::Application::Run
_TEXT	ENDS
; Function compile flags: /Odtp /RTCsu
; File d:\personal\projects\gbemu\solution\code\application.cpp
_TEXT	SEGMENT
$T1 = 32
this$ = 64
??1Application@app@@UEAA@XZ PROC			; app::Application::~Application

; 12   : Application::~Application() {

$LN5:
	mov	QWORD PTR [rsp+8], rcx
	push	rdi
	sub	rsp, 48					; 00000030H
	mov	rdi, rsp
	mov	ecx, 12
	mov	eax, -858993460				; ccccccccH
	rep stosd
	mov	rcx, QWORD PTR [rsp+64]
	mov	QWORD PTR $T1[rsp], -2
	mov	rax, QWORD PTR this$[rsp]
	lea	rcx, OFFSET FLAT:??_7Application@app@@6B@
	mov	QWORD PTR [rax], rcx

; 13   :  current_app_ = nullptr;

	mov	QWORD PTR ?current_app_@Application@app@@1PEAV12@EA, 0 ; app::Application::current_app_

; 14   : }

	mov	rax, QWORD PTR this$[rsp]
	add	rax, 16
	mov	rcx, rax
	call	??1DisplayWindow@app@@QEAA@XZ		; app::DisplayWindow::~DisplayWindow
	npad	1
	mov	rcx, QWORD PTR this$[rsp]
	call	??1Application@windows@core@@UEAA@XZ	; core::windows::Application::~Application
	add	rsp, 48					; 00000030H
	pop	rdi
	ret	0
??1Application@app@@UEAA@XZ ENDP			; app::Application::~Application
_TEXT	ENDS
; Function compile flags: /Odtp /RTCsu
text$x	SEGMENT
$T1 = 32
this$ = 64
?dtor$0@?0???1Application@app@@UEAA@XZ@4HA PROC		; `app::Application::~Application'::`1'::dtor$0
	mov	QWORD PTR [rsp+8], rcx
	mov	QWORD PTR [rsp+16], rdx
	push	rbp
	push	rdi
	sub	rsp, 40					; 00000028H
	mov	rbp, rdx
	mov	rcx, QWORD PTR this$[rbp]
	call	??1Application@windows@core@@UEAA@XZ	; core::windows::Application::~Application
	add	rsp, 40					; 00000028H
	pop	rdi
	pop	rbp
	ret	0
?dtor$0@?0???1Application@app@@UEAA@XZ@4HA ENDP		; `app::Application::~Application'::`1'::dtor$0
text$x	ENDS
; Function compile flags: /Odtp /RTCsu
; File d:\personal\projects\gbemu\solution\code\application.cpp
_TEXT	SEGMENT
$T1 = 32
this$ = 64
instance$ = 72
command_line$ = 80
show_command$ = 88
??0Application@app@@QEAA@PEAUHINSTANCE__@@PEADH@Z PROC	; app::Application::Application

; 7    : Application::Application(HINSTANCE instance , LPSTR command_line, int show_command) {

$LN5:
	mov	DWORD PTR [rsp+32], r9d
	mov	QWORD PTR [rsp+24], r8
	mov	QWORD PTR [rsp+16], rdx
	mov	QWORD PTR [rsp+8], rcx
	push	rdi
	sub	rsp, 48					; 00000030H
	mov	rdi, rsp
	mov	ecx, 12
	mov	eax, -858993460				; ccccccccH
	rep stosd
	mov	rcx, QWORD PTR [rsp+64]
	mov	QWORD PTR $T1[rsp], -2
	mov	rcx, QWORD PTR this$[rsp]
	call	??0Application@windows@core@@QEAA@XZ	; core::windows::Application::Application
	npad	1
	mov	rax, QWORD PTR this$[rsp]
	lea	rcx, OFFSET FLAT:??_7Application@app@@6B@
	mov	QWORD PTR [rax], rcx
	mov	rax, QWORD PTR this$[rsp]
	add	rax, 16
	mov	rcx, rax
	call	??0DisplayWindow@app@@QEAA@XZ		; app::DisplayWindow::DisplayWindow

; 8    :   //OleInitialize(NULL);
; 9    :   current_app_ = this;

	mov	rax, QWORD PTR this$[rsp]
	mov	QWORD PTR ?current_app_@Application@app@@1PEAV12@EA, rax ; app::Application::current_app_

; 10   : }

	mov	rax, QWORD PTR this$[rsp]
	add	rsp, 48					; 00000030H
	pop	rdi
	ret	0
??0Application@app@@QEAA@PEAUHINSTANCE__@@PEADH@Z ENDP	; app::Application::Application
_TEXT	ENDS
; Function compile flags: /Odtp /RTCsu
text$x	SEGMENT
$T1 = 32
this$ = 64
instance$ = 72
command_line$ = 80
show_command$ = 88
?dtor$0@?0???0Application@app@@QEAA@PEAUHINSTANCE__@@PEADH@Z@4HA PROC ; `app::Application::Application'::`1'::dtor$0
	mov	QWORD PTR [rsp+8], rcx
	mov	QWORD PTR [rsp+16], rdx
	push	rbp
	push	rdi
	sub	rsp, 40					; 00000028H
	mov	rbp, rdx
	mov	rcx, QWORD PTR this$[rbp]
	call	??1Application@windows@core@@UEAA@XZ	; core::windows::Application::~Application
	add	rsp, 40					; 00000028H
	pop	rdi
	pop	rbp
	ret	0
?dtor$0@?0???0Application@app@@QEAA@PEAUHINSTANCE__@@PEADH@Z@4HA ENDP ; `app::Application::Application'::`1'::dtor$0
text$x	ENDS
; Function compile flags: /Odtp /RTCsu
; File d:\personal\projects\gbemu\solution\code\display_window.h
;	COMDAT ?exit_signal@DisplayWindow@app@@QEAA_NXZ
_TEXT	SEGMENT
this$ = 48
?exit_signal@DisplayWindow@app@@QEAA_NXZ PROC		; app::DisplayWindow::exit_signal, COMDAT

; 17   :     bool exit_signal() { return exit_signal_; }

$LN3:
	mov	QWORD PTR [rsp+8], rcx
	push	rdi
	sub	rsp, 32					; 00000020H
	mov	rdi, rsp
	mov	ecx, 8
	mov	eax, -858993460				; ccccccccH
	rep stosd
	mov	rcx, QWORD PTR [rsp+48]
	mov	rax, QWORD PTR this$[rsp]
	add	rax, 640				; 00000280H
	mov	rcx, rax
	call	??Batomic_bool@std@@QEBA_NXZ		; std::atomic_bool::operator bool
	add	rsp, 32					; 00000020H
	pop	rdi
	ret	0
?exit_signal@DisplayWindow@app@@QEAA_NXZ ENDP		; app::DisplayWindow::exit_signal
_TEXT	ENDS
; Function compile flags: /Odtp /RTCsu
; File c:\program files (x86)\microsoft visual studio 11.0\vc\include\xxatomic
;	COMDAT ?atomic_load@std@@YA_NPEBUatomic_bool@1@@Z
_TEXT	SEGMENT
_Atom$ = 48
?atomic_load@std@@YA_NPEBUatomic_bool@1@@Z PROC		; std::atomic_load, COMDAT

; 667  : 	{	// return value stored in *_Atom

$LN3:
	mov	QWORD PTR [rsp+8], rcx
	push	rdi
	sub	rsp, 32					; 00000020H
	mov	rdi, rsp
	mov	ecx, 8
	mov	eax, -858993460				; ccccccccH
	rep stosd
	mov	rcx, QWORD PTR [rsp+48]

; 668  : 	return atomic_load_explicit(_Atom, memory_order_seq_cst);

	mov	edx, 5
	mov	rcx, QWORD PTR _Atom$[rsp]
	call	?atomic_load_explicit@std@@YA_NPEBUatomic_bool@1@W4memory_order@1@@Z ; std::atomic_load_explicit

; 669  : 	}

	add	rsp, 32					; 00000020H
	pop	rdi
	ret	0
?atomic_load@std@@YA_NPEBUatomic_bool@1@@Z ENDP		; std::atomic_load
_TEXT	ENDS
; Function compile flags: /Odtp /RTCsu
; File c:\program files (x86)\microsoft visual studio 11.0\vc\include\xxatomic
;	COMDAT ?atomic_load_explicit@std@@YA_NPEBUatomic_bool@1@W4memory_order@1@@Z
_TEXT	SEGMENT
tv69 = 32
_Atom$ = 64
_Order$ = 72
?atomic_load_explicit@std@@YA_NPEBUatomic_bool@1@W4memory_order@1@@Z PROC ; std::atomic_load_explicit, COMDAT

; 655  : 	{	// return value held in *_Atom

$LN5:
	mov	DWORD PTR [rsp+16], edx
	mov	QWORD PTR [rsp+8], rcx
	push	rdi
	sub	rsp, 48					; 00000030H
	mov	rdi, rsp
	mov	ecx, 12
	mov	eax, -858993460				; ccccccccH
	rep stosd
	mov	rcx, QWORD PTR [rsp+64]

; 656  : 	return _ATOMIC_LOAD(_Atom, _Order);

	mov	rax, QWORD PTR _Atom$[rsp]
	mov	edx, DWORD PTR _Order$[rsp]
	mov	rcx, rax
	call	?_Atomic_load_4@std@@YAKPECKW4memory_order@1@@Z ; std::_Atomic_load_4
	test	eax, eax
	je	SHORT $LN3@atomic_loa
	mov	BYTE PTR tv69[rsp], 1
	jmp	SHORT $LN4@atomic_loa
$LN3@atomic_loa:
	mov	BYTE PTR tv69[rsp], 0
$LN4@atomic_loa:
	movzx	eax, BYTE PTR tv69[rsp]

; 657  : 	}

	add	rsp, 48					; 00000030H
	pop	rdi
	ret	0
?atomic_load_explicit@std@@YA_NPEBUatomic_bool@1@W4memory_order@1@@Z ENDP ; std::atomic_load_explicit
_TEXT	ENDS
; Function compile flags: /Odtp /RTCsu
; File c:\program files (x86)\microsoft visual studio 11.0\vc\include\xxatomic
;	COMDAT ??Batomic_bool@std@@QEBA_NXZ
_TEXT	SEGMENT
this$ = 48
??Batomic_bool@std@@QEBA_NXZ PROC			; std::atomic_bool::operator bool, COMDAT

; 886  : 	{	// return value held in *this

$LN3:
	mov	QWORD PTR [rsp+8], rcx
	push	rdi
	sub	rsp, 32					; 00000020H
	mov	rdi, rsp
	mov	ecx, 8
	mov	eax, -858993460				; ccccccccH
	rep stosd
	mov	rcx, QWORD PTR [rsp+48]

; 887  : 	return atomic_load(this);

	mov	rcx, QWORD PTR this$[rsp]
	call	?atomic_load@std@@YA_NPEBUatomic_bool@1@@Z ; std::atomic_load

; 888  : 	}

	add	rsp, 32					; 00000020H
	pop	rdi
	ret	0
??Batomic_bool@std@@QEBA_NXZ ENDP			; std::atomic_bool::operator bool
_TEXT	ENDS
; Function compile flags: /Odtp /RTCsu
; File c:\program files (x86)\microsoft visual studio 11.0\vc\include\xatomic.h
;	COMDAT ?_Load_seq_cst_4@std@@YAKPECK@Z
_TEXT	SEGMENT
_Value$ = 0
tv67 = 8
_Tgt$ = 32
?_Load_seq_cst_4@std@@YAKPECK@Z PROC			; std::_Load_seq_cst_4, COMDAT

; 1520 : 	{	/* load from *_Tgt atomically with

$LN4:
	mov	QWORD PTR [rsp+8], rcx
	push	rdi
	sub	rsp, 16
	mov	rdi, rsp
	mov	ecx, 4
	mov	eax, -858993460				; ccccccccH
	rep stosd
	mov	rcx, QWORD PTR [rsp+32]

; 1521 : 			sequentially consistent memory order */
; 1522 : 	_Uint4_t _Value;
; 1523 : 
; 1524 :  #if defined(_M_ARM)
; 1525 : 	_Memory_barrier();
; 1526 : 	_Value = __iso_volatile_load32((volatile int *)_Tgt);
; 1527 : 	_Memory_barrier();
; 1528 :  #else
; 1529 : 	_Value = _InterlockedOr((volatile long *)_Tgt, 0);

	mov	rax, QWORD PTR _Tgt$[rsp]
	mov	QWORD PTR tv67[rsp], rax
	mov	rax, QWORD PTR tv67[rsp]
	prefetchw BYTE PTR [rax]
	mov	rcx, QWORD PTR tv67[rsp]
	mov	eax, DWORD PTR [rcx]
$LL3@Load_seq_c:
	mov	edx, eax
	mov	rcx, QWORD PTR tv67[rsp]
	mov	rcx, QWORD PTR tv67[rsp]
	lock cmpxchg DWORD PTR [rcx], edx
	jne	SHORT $LL3@Load_seq_c
	mov	DWORD PTR _Value$[rsp], eax

; 1530 :  #endif
; 1531 : 
; 1532 : 	return (_Value);

	mov	eax, DWORD PTR _Value$[rsp]

; 1533 : 	}

	add	rsp, 16
	pop	rdi
	ret	0
?_Load_seq_cst_4@std@@YAKPECK@Z ENDP			; std::_Load_seq_cst_4
_TEXT	ENDS
; Function compile flags: /Odtp /RTCsu
; File c:\program files (x86)\microsoft visual studio 11.0\vc\include\xatomic.h
;	COMDAT ?_Load_acquire_4@std@@YAKPECK@Z
_TEXT	SEGMENT
_Value$ = 0
tv67 = 8
_Tgt$ = 32
?_Load_acquire_4@std@@YAKPECK@Z PROC			; std::_Load_acquire_4, COMDAT

; 1505 : 	{	/* load from *_Tgt atomically with

$LN4:
	mov	QWORD PTR [rsp+8], rcx
	push	rdi
	sub	rsp, 16
	mov	rdi, rsp
	mov	ecx, 4
	mov	eax, -858993460				; ccccccccH
	rep stosd
	mov	rcx, QWORD PTR [rsp+32]

; 1506 : 			acquire memory order */
; 1507 : 	_Uint4_t _Value;
; 1508 : 
; 1509 :  #if defined(_M_ARM)
; 1510 : 	_Value = __iso_volatile_load32((volatile int *)_Tgt);
; 1511 : 	_Memory_barrier();
; 1512 :  #else
; 1513 : 	_Value = _InterlockedOr((volatile long *)_Tgt, 0);

	mov	rax, QWORD PTR _Tgt$[rsp]
	mov	QWORD PTR tv67[rsp], rax
	mov	rax, QWORD PTR tv67[rsp]
	prefetchw BYTE PTR [rax]
	mov	rcx, QWORD PTR tv67[rsp]
	mov	eax, DWORD PTR [rcx]
$LL3@Load_acqui:
	mov	edx, eax
	mov	rcx, QWORD PTR tv67[rsp]
	mov	rcx, QWORD PTR tv67[rsp]
	lock cmpxchg DWORD PTR [rcx], edx
	jne	SHORT $LL3@Load_acqui
	mov	DWORD PTR _Value$[rsp], eax

; 1514 :  #endif
; 1515 : 
; 1516 : 	return (_Value);

	mov	eax, DWORD PTR _Value$[rsp]

; 1517 : 	}

	add	rsp, 16
	pop	rdi
	ret	0
?_Load_acquire_4@std@@YAKPECK@Z ENDP			; std::_Load_acquire_4
_TEXT	ENDS
; Function compile flags: /Odtp /RTCsu
; File c:\program files (x86)\microsoft visual studio 11.0\vc\include\xatomic.h
;	COMDAT ?_Load_relaxed_4@std@@YAKPECK@Z
_TEXT	SEGMENT
_Value$ = 0
tv67 = 8
_Tgt$ = 32
?_Load_relaxed_4@std@@YAKPECK@Z PROC			; std::_Load_relaxed_4, COMDAT

; 1491 : 	{	/* load from *_Tgt atomically with

$LN4:
	mov	QWORD PTR [rsp+8], rcx
	push	rdi
	sub	rsp, 16
	mov	rdi, rsp
	mov	ecx, 4
	mov	eax, -858993460				; ccccccccH
	rep stosd
	mov	rcx, QWORD PTR [rsp+32]

; 1492 : 			relaxed memory order */
; 1493 : 	_Uint4_t _Value;
; 1494 : 
; 1495 :  #if defined(_M_ARM)
; 1496 : 	_Value = __iso_volatile_load32((volatile int *)_Tgt);
; 1497 :  #else
; 1498 : 	_Value = _InterlockedOr((volatile long *)_Tgt, 0);

	mov	rax, QWORD PTR _Tgt$[rsp]
	mov	QWORD PTR tv67[rsp], rax
	mov	rax, QWORD PTR tv67[rsp]
	prefetchw BYTE PTR [rax]
	mov	rcx, QWORD PTR tv67[rsp]
	mov	eax, DWORD PTR [rcx]
$LL3@Load_relax:
	mov	edx, eax
	mov	rcx, QWORD PTR tv67[rsp]
	mov	rcx, QWORD PTR tv67[rsp]
	lock cmpxchg DWORD PTR [rcx], edx
	jne	SHORT $LL3@Load_relax
	mov	DWORD PTR _Value$[rsp], eax

; 1499 :  #endif
; 1500 : 
; 1501 : 	return (_Value);

	mov	eax, DWORD PTR _Value$[rsp]

; 1502 : 	}

	add	rsp, 16
	pop	rdi
	ret	0
?_Load_relaxed_4@std@@YAKPECK@Z ENDP			; std::_Load_relaxed_4
_TEXT	ENDS
; Function compile flags: /Odtp /RTCsu
; File c:\program files (x86)\microsoft visual studio 11.0\vc\include\tuple
;	COMDAT ??__E_Tuple_alloc@std@@YAXXZ
text$yc	SEGMENT
$T1 = 0
??__E_Tuple_alloc@std@@YAXXZ PROC			; std::`dynamic initializer for '_Tuple_alloc'', COMDAT

; 137  : const _Tuple_alloc_t _Tuple_alloc = _Tuple_alloc_t();

	push	rdi
	sub	rsp, 16
	mov	rdi, rsp
	mov	ecx, 4
	mov	eax, -858993460				; ccccccccH
	rep stosd
	lea	rax, QWORD PTR $T1[rsp]
	mov	rdi, rax
	xor	eax, eax
	mov	ecx, 1
	rep stosb
	add	rsp, 16
	pop	rdi
	ret	0
??__E_Tuple_alloc@std@@YAXXZ ENDP			; std::`dynamic initializer for '_Tuple_alloc''
text$yc	ENDS
; Function compile flags: /Odtp /RTCsu
; File c:\program files (x86)\microsoft visual studio 11.0\vc\include\tuple
;	COMDAT ??__Eignore@std@@YAXXZ
text$yc	SEGMENT
??__Eignore@std@@YAXXZ PROC				; std::`dynamic initializer for 'ignore'', COMDAT

; 130  : const _Ignore ignore;

	push	rdi
	sub	rsp, 32					; 00000020H
	mov	rdi, rsp
	mov	ecx, 8
	mov	eax, -858993460				; ccccccccH
	rep stosd
	lea	rcx, OFFSET FLAT:ignore
	call	??0_Ignore@std@@QEAA@XZ			; std::_Ignore::_Ignore
	add	rsp, 32					; 00000020H
	pop	rdi
	ret	0
??__Eignore@std@@YAXXZ ENDP				; std::`dynamic initializer for 'ignore''
text$yc	ENDS
; Function compile flags: /Odtp /RTCsu
; File c:\program files (x86)\microsoft visual studio 11.0\vc\include\tuple
;	COMDAT ??0_Ignore@std@@QEAA@XZ
_TEXT	SEGMENT
this$ = 16
??0_Ignore@std@@QEAA@XZ PROC				; std::_Ignore::_Ignore, COMDAT

; 120  : 	_Ignore()

$LN3:
	mov	QWORD PTR [rsp+8], rcx
	push	rdi

; 121  : 		{	// construct
; 122  : 		}

	mov	rax, QWORD PTR this$[rsp]
	pop	rdi
	ret	0
??0_Ignore@std@@QEAA@XZ ENDP				; std::_Ignore::_Ignore
_TEXT	ENDS
; Function compile flags: /Odtp /RTCsu
; File c:\program files (x86)\microsoft visual studio 11.0\vc\include\xatomic.h
;	COMDAT ?_Atomic_load_4@std@@YAKPECKW4memory_order@1@@Z
_TEXT	SEGMENT
tv64 = 48
_Tgt$ = 80
_Order$ = 88
?_Atomic_load_4@std@@YAKPECKW4memory_order@1@@Z PROC	; std::_Atomic_load_4, COMDAT

; 1537 : 	{	/* load from *_Tgt atomically */

$LN11:
	mov	DWORD PTR [rsp+16], edx
	mov	QWORD PTR [rsp+8], rcx
	push	rdi
	sub	rsp, 64					; 00000040H
	mov	rdi, rsp
	mov	ecx, 16
	mov	eax, -858993460				; ccccccccH
	rep stosd
	mov	rcx, QWORD PTR [rsp+80]

; 1538 : 	switch(_Order)

	mov	eax, DWORD PTR _Order$[rsp]
	mov	DWORD PTR tv64[rsp], eax
	cmp	DWORD PTR tv64[rsp], 0
	je	SHORT $LN4@Atomic_loa
	cmp	DWORD PTR tv64[rsp], 0
	jle	SHORT $LN1@Atomic_loa
	cmp	DWORD PTR tv64[rsp], 2
	jle	SHORT $LN3@Atomic_loa
	cmp	DWORD PTR tv64[rsp], 5
	je	SHORT $LN2@Atomic_loa
	jmp	SHORT $LN1@Atomic_loa
$LN4@Atomic_loa:

; 1539 : 		{
; 1540 : 		case memory_order_relaxed:
; 1541 : 			return (_Load_relaxed_4(_Tgt));

	mov	rcx, QWORD PTR _Tgt$[rsp]
	call	?_Load_relaxed_4@std@@YAKPECK@Z		; std::_Load_relaxed_4
	jmp	$LN7@Atomic_loa
$LN3@Atomic_loa:

; 1542 : 
; 1543 : 		case memory_order_consume:
; 1544 : 		case memory_order_acquire:
; 1545 : 			return (_Load_acquire_4(_Tgt));

	mov	rcx, QWORD PTR _Tgt$[rsp]
	call	?_Load_acquire_4@std@@YAKPECK@Z		; std::_Load_acquire_4
	jmp	$LN7@Atomic_loa
$LN2@Atomic_loa:

; 1546 : 
; 1547 : 		case memory_order_seq_cst:
; 1548 : 			return (_Load_seq_cst_4(_Tgt));

	mov	rcx, QWORD PTR _Tgt$[rsp]
	call	?_Load_seq_cst_4@std@@YAKPECK@Z		; std::_Load_seq_cst_4
	jmp	$LN7@Atomic_loa
$LN1@Atomic_loa:

; 1549 : 
; 1550 : 		default:
; 1551 : 			_INVALID_MEMORY_ORDER;

	mov	r8d, 1551				; 0000060fH
	lea	rdx, OFFSET FLAT:??_C@_1JC@OFINEDFE@?$AAC?$AA?3?$AA?2?$AAP?$AAr?$AAo?$AAg?$AAr?$AAa?$AAm?$AA?5?$AAF?$AAi?$AAl?$AAe?$AAs?$AA?5?$AA?$CI?$AAx?$AA8?$AA6?$AA?$CJ?$AA?2?$AAM?$AAi?$AAc?$AAr?$AAo?$AAs?$AAo?$AAf?$AAt@
	lea	rcx, OFFSET FLAT:??_C@_1CK@BEGEBJJG@?$AAI?$AAn?$AAv?$AAa?$AAl?$AAi?$AAd?$AA?5?$AAm?$AAe?$AAm?$AAo?$AAr?$AAy?$AA_?$AAo?$AAr?$AAd?$AAe?$AAr?$AA?$AA@
	call	QWORD PTR __imp_?_Debug_message@std@@YAXPEB_W0I@Z
	lea	rax, OFFSET FLAT:??_C@_0CI@FNPHFCCM@Standard?5C?$CL?$CL?5Libraries?5Invalid?5A@
	test	rax, rax
	je	SHORT $LN9@Atomic_loa
	xor	eax, eax
	test	eax, eax
	jne	SHORT $LN10@Atomic_loa
$LN9@Atomic_loa:
	lea	rax, OFFSET FLAT:??_C@_1FO@GJIHNDLM@?$AA?$CC?$AAS?$AAt?$AAa?$AAn?$AAd?$AAa?$AAr?$AAd?$AA?5?$AAC?$AA?$CL?$AA?$CL?$AA?5?$AAL?$AAi?$AAb?$AAr?$AAa?$AAr?$AAi?$AAe?$AAs?$AA?5?$AAI?$AAn?$AAv?$AAa?$AAl?$AAi?$AAd?$AA?5@
	mov	QWORD PTR [rsp+40], rax
	lea	rax, OFFSET FLAT:??_C@_15GANGMFKL@?$AA?$CF?$AAs?$AA?$AA@
	mov	QWORD PTR [rsp+32], rax
	xor	r9d, r9d
	mov	r8d, 1551				; 0000060fH
	lea	rdx, OFFSET FLAT:??_C@_1JC@OFINEDFE@?$AAC?$AA?3?$AA?2?$AAP?$AAr?$AAo?$AAg?$AAr?$AAa?$AAm?$AA?5?$AAF?$AAi?$AAl?$AAe?$AAs?$AA?5?$AA?$CI?$AAx?$AA8?$AA6?$AA?$CJ?$AA?2?$AAM?$AAi?$AAc?$AAr?$AAo?$AAs?$AAo?$AAf?$AAt@
	mov	ecx, 2
	call	QWORD PTR __imp__CrtDbgReportW
	cmp	eax, 1
	jne	SHORT $LN10@Atomic_loa
	int	3
	xor	eax, eax
$LN10@Atomic_loa:
	mov	QWORD PTR [rsp+32], 0
	mov	r9d, 1551				; 0000060fH
	lea	r8, OFFSET FLAT:??_C@_1JC@OFINEDFE@?$AAC?$AA?3?$AA?2?$AAP?$AAr?$AAo?$AAg?$AAr?$AAa?$AAm?$AA?5?$AAF?$AAi?$AAl?$AAe?$AAs?$AA?5?$AA?$CI?$AAx?$AA8?$AA6?$AA?$CJ?$AA?2?$AAM?$AAi?$AAc?$AAr?$AAo?$AAs?$AAo?$AAf?$AAt@
	lea	rdx, OFFSET FLAT:??_C@_1CI@NMHCEFB@?$AAs?$AAt?$AAd?$AA?3?$AA?3?$AA_?$AAA?$AAt?$AAo?$AAm?$AAi?$AAc?$AA_?$AAl?$AAo?$AAa?$AAd?$AA_?$AA4?$AA?$AA@
	lea	rcx, OFFSET FLAT:??_C@_1CG@JNLFBNGN@?$AA?$CC?$AAi?$AAn?$AAv?$AAa?$AAl?$AAi?$AAd?$AA?5?$AAa?$AAr?$AAg?$AAu?$AAm?$AAe?$AAn?$AAt?$AA?$CC?$AA?$AA@
	call	QWORD PTR __imp__invalid_parameter

; 1552 : 			return (0);

	xor	eax, eax
$LN7@Atomic_loa:

; 1553 : 		}
; 1554 : 	}

	add	rsp, 64					; 00000040H
	pop	rdi
	ret	0
?_Atomic_load_4@std@@YAKPECKW4memory_order@1@@Z ENDP	; std::_Atomic_load_4
_TEXT	ENDS
; Function compile flags: /Odtp /RTCsu
; File c:\program files (x86)\microsoft visual studio 11.0\vc\include\xutility
;	COMDAT ??__Eallocator_arg@std@@YAXXZ
text$yc	SEGMENT
$T1 = 0
??__Eallocator_arg@std@@YAXXZ PROC			; std::`dynamic initializer for 'allocator_arg'', COMDAT

; 3644 : const allocator_arg_t allocator_arg = allocator_arg_t();

	push	rdi
	sub	rsp, 16
	mov	rdi, rsp
	mov	ecx, 4
	mov	eax, -858993460				; ccccccccH
	rep stosd
	lea	rax, QWORD PTR $T1[rsp]
	mov	rdi, rax
	xor	eax, eax
	mov	ecx, 1
	rep stosb
	add	rsp, 16
	pop	rdi
	ret	0
??__Eallocator_arg@std@@YAXXZ ENDP			; std::`dynamic initializer for 'allocator_arg''
text$yc	ENDS
; Function compile flags: /Odtp /RTCsu
; File c:\program files (x86)\microsoft visual studio 11.0\vc\include\utility
;	COMDAT ??__Epiecewise_construct@std@@YAXXZ
text$yc	SEGMENT
$T1 = 0
??__Epiecewise_construct@std@@YAXXZ PROC		; std::`dynamic initializer for 'piecewise_construct'', COMDAT

; 65   : 	piecewise_construct_t();

	push	rdi
	sub	rsp, 16
	mov	rdi, rsp
	mov	ecx, 4
	mov	eax, -858993460				; ccccccccH
	rep stosd
	lea	rax, QWORD PTR $T1[rsp]
	mov	rdi, rax
	xor	eax, eax
	mov	ecx, 1
	rep stosb
	add	rsp, 16
	pop	rdi
	ret	0
??__Epiecewise_construct@std@@YAXXZ ENDP		; std::`dynamic initializer for 'piecewise_construct''
text$yc	ENDS
END
