; Listing generated by Microsoft (R) Optimizing Compiler Version 17.00.60610.1 

include listing.inc

INCLUDELIB MSVCRTD
INCLUDELIB OLDNAMES

PUBLIC	?num@?$ratio@$00$00@std@@2_JB			; std::ratio<1,1>::num
PUBLIC	?den@?$ratio@$00$00@std@@2_JB			; std::ratio<1,1>::den
PUBLIC	?is_modulo@?$numeric_limits@_N@std@@2_NB	; std::numeric_limits<bool>::is_modulo
PUBLIC	?is_signed@?$numeric_limits@_N@std@@2_NB	; std::numeric_limits<bool>::is_signed
PUBLIC	?digits@?$numeric_limits@_N@std@@2HB		; std::numeric_limits<bool>::digits
PUBLIC	?digits10@?$numeric_limits@_N@std@@2HB		; std::numeric_limits<bool>::digits10
PUBLIC	?value@?$_Sizeof@HU_Nil@std@@U12@U12@U12@U12@U12@U12@@std@@2_KB ; std::_Sizeof<int,std::_Nil,std::_Nil,std::_Nil,std::_Nil,std::_Nil,std::_Nil,std::_Nil>::value
PUBLIC	?is_signed@?$numeric_limits@C@std@@2_NB		; std::numeric_limits<signed char>::is_signed
PUBLIC	?digits@?$numeric_limits@C@std@@2HB		; std::numeric_limits<signed char>::digits
PUBLIC	?digits10@?$numeric_limits@C@std@@2HB		; std::numeric_limits<signed char>::digits10
PUBLIC	?is_signed@?$numeric_limits@E@std@@2_NB		; std::numeric_limits<unsigned char>::is_signed
PUBLIC	?digits@?$numeric_limits@E@std@@2HB		; std::numeric_limits<unsigned char>::digits
PUBLIC	?digits10@?$numeric_limits@E@std@@2HB		; std::numeric_limits<unsigned char>::digits10
PUBLIC	?is_monotonic@steady_clock@chrono@std@@2_NB	; std::chrono::steady_clock::is_monotonic
PUBLIC	?is_signed@?$numeric_limits@F@std@@2_NB		; std::numeric_limits<short>::is_signed
PUBLIC	?is_steady@steady_clock@chrono@std@@2_NB	; std::chrono::steady_clock::is_steady
PUBLIC	?digits@?$numeric_limits@F@std@@2HB		; std::numeric_limits<short>::digits
PUBLIC	?digits10@?$numeric_limits@F@std@@2HB		; std::numeric_limits<short>::digits10
PUBLIC	?is_signed@?$numeric_limits@G@std@@2_NB		; std::numeric_limits<unsigned short>::is_signed
PUBLIC	?digits@?$numeric_limits@G@std@@2HB		; std::numeric_limits<unsigned short>::digits
PUBLIC	ConcRT_ProviderGuid
PUBLIC	ConcRTEventGuid
PUBLIC	?digits10@?$numeric_limits@G@std@@2HB		; std::numeric_limits<unsigned short>::digits10
PUBLIC	SchedulerEventGuid
PUBLIC	ScheduleGroupEventGuid
PUBLIC	ContextEventGuid
PUBLIC	ChoreEventGuid
PUBLIC	VirtualProcessorEventGuid
PUBLIC	LockEventGuid
PUBLIC	ResourceManagerEventGuid
PUBLIC	PPLParallelInvokeEventGuid
PUBLIC	PPLParallelForEventGuid
PUBLIC	PPLParallelForeachEventGuid
PUBLIC	AgentEventGuid
PUBLIC	?is_signed@?$numeric_limits@H@std@@2_NB		; std::numeric_limits<int>::is_signed
PUBLIC	?digits@?$numeric_limits@H@std@@2HB		; std::numeric_limits<int>::digits
PUBLIC	?digits10@?$numeric_limits@H@std@@2HB		; std::numeric_limits<int>::digits10
PUBLIC	?is_signed@?$numeric_limits@I@std@@2_NB		; std::numeric_limits<unsigned int>::is_signed
PUBLIC	?digits@?$numeric_limits@I@std@@2HB		; std::numeric_limits<unsigned int>::digits
PUBLIC	?digits10@?$numeric_limits@I@std@@2HB		; std::numeric_limits<unsigned int>::digits10
PUBLIC	?is_signed@?$numeric_limits@J@std@@2_NB		; std::numeric_limits<long>::is_signed
PUBLIC	?digits@?$numeric_limits@J@std@@2HB		; std::numeric_limits<long>::digits
PUBLIC	?digits10@?$numeric_limits@J@std@@2HB		; std::numeric_limits<long>::digits10
PUBLIC	?is_signed@?$numeric_limits@K@std@@2_NB		; std::numeric_limits<unsigned long>::is_signed
PUBLIC	?digits@?$numeric_limits@K@std@@2HB		; std::numeric_limits<unsigned long>::digits
PUBLIC	?value@?$integral_constant@_K$0A@@std@@2_KB	; std::integral_constant<unsigned __int64,0>::value
PUBLIC	?digits10@?$numeric_limits@K@std@@2HB		; std::numeric_limits<unsigned long>::digits10
PUBLIC	?is_signed@?$numeric_limits@_J@std@@2_NB	; std::numeric_limits<__int64>::is_signed
PUBLIC	?digits@?$numeric_limits@_J@std@@2HB		; std::numeric_limits<__int64>::digits
PUBLIC	?digits10@?$numeric_limits@_J@std@@2HB		; std::numeric_limits<__int64>::digits10
PUBLIC	?is_signed@?$numeric_limits@_K@std@@2_NB	; std::numeric_limits<unsigned __int64>::is_signed
PUBLIC	?value@?$integral_constant@H$0A@@std@@2HB	; std::integral_constant<int,0>::value
PUBLIC	?digits@?$numeric_limits@_K@std@@2HB		; std::numeric_limits<unsigned __int64>::digits
PUBLIC	?digits10@?$numeric_limits@_K@std@@2HB		; std::numeric_limits<unsigned __int64>::digits10
PUBLIC	?digits@?$numeric_limits@M@std@@2HB		; std::numeric_limits<float>::digits
PUBLIC	?digits10@?$numeric_limits@M@std@@2HB		; std::numeric_limits<float>::digits10
PUBLIC	?max_digits10@?$numeric_limits@M@std@@2HB	; std::numeric_limits<float>::max_digits10
PUBLIC	?max_exponent@?$numeric_limits@M@std@@2HB	; std::numeric_limits<float>::max_exponent
PUBLIC	?max_exponent10@?$numeric_limits@M@std@@2HB	; std::numeric_limits<float>::max_exponent10
PUBLIC	?min_exponent@?$numeric_limits@M@std@@2HB	; std::numeric_limits<float>::min_exponent
PUBLIC	?min_exponent10@?$numeric_limits@M@std@@2HB	; std::numeric_limits<float>::min_exponent10
PUBLIC	?digits@?$numeric_limits@N@std@@2HB		; std::numeric_limits<double>::digits
PUBLIC	?digits10@?$numeric_limits@N@std@@2HB		; std::numeric_limits<double>::digits10
PUBLIC	?max_digits10@?$numeric_limits@N@std@@2HB	; std::numeric_limits<double>::max_digits10
PUBLIC	?value@?$_Abs@$0GE@@std@@2_JB			; std::_Abs<100>::value
PUBLIC	?max_exponent@?$numeric_limits@N@std@@2HB	; std::numeric_limits<double>::max_exponent
PUBLIC	?max_exponent10@?$numeric_limits@N@std@@2HB	; std::numeric_limits<double>::max_exponent10
PUBLIC	?min_exponent@?$numeric_limits@N@std@@2HB	; std::numeric_limits<double>::min_exponent
PUBLIC	?value@?$_Abs@$0DLJKMKAA@@std@@2_JB		; std::_Abs<1000000000>::value
PUBLIC	?min_exponent10@?$numeric_limits@N@std@@2HB	; std::numeric_limits<double>::min_exponent10
PUBLIC	?_STATE_CLEAR@_CancellationTokenRegistration@details@Concurrency@@0JB ; Concurrency::details::_CancellationTokenRegistration::_STATE_CLEAR
PUBLIC	?_STATE_DEFER_DELETE@_CancellationTokenRegistration@details@Concurrency@@0JB ; Concurrency::details::_CancellationTokenRegistration::_STATE_DEFER_DELETE
PUBLIC	?value@?$_GcdX@$0GE@$0A@@std@@2_JB		; std::_GcdX<100,0>::value
PUBLIC	?_STATE_SYNCHRONIZE@_CancellationTokenRegistration@details@Concurrency@@0JB ; Concurrency::details::_CancellationTokenRegistration::_STATE_SYNCHRONIZE
PUBLIC	?_STATE_CALLED@_CancellationTokenRegistration@details@Concurrency@@0JB ; Concurrency::details::_CancellationTokenRegistration::_STATE_CALLED
PUBLIC	?value@?$integral_constant@_N$0A@@std@@2_NB	; std::integral_constant<bool,0>::value
PUBLIC	?value@?$_GcdX@$0DLJKMKAA@$0GE@@std@@2_JB	; std::_GcdX<1000000000,100>::value
PUBLIC	?value@?$_GcdX@$0GE@$0DLJKMKAA@@std@@2_JB	; std::_GcdX<100,1000000000>::value
PUBLIC	?digits@?$numeric_limits@O@std@@2HB		; std::numeric_limits<long double>::digits
PUBLIC	?value@?$integral_constant@_N$00@std@@2_NB	; std::integral_constant<bool,1>::value
PUBLIC	?digits10@?$numeric_limits@O@std@@2HB		; std::numeric_limits<long double>::digits10
PUBLIC	?max_digits10@?$numeric_limits@O@std@@2HB	; std::numeric_limits<long double>::max_digits10
PUBLIC	?value@?$_Gcd@$0GE@$0DLJKMKAA@@std@@2_JB	; std::_Gcd<100,1000000000>::value
PUBLIC	?max_exponent@?$numeric_limits@O@std@@2HB	; std::numeric_limits<long double>::max_exponent
PUBLIC	?_G1@?$_Ratio_multiply2@U?$ratio@$0GE@$00@std@@U?$ratio@$00$0DLJKMKAA@@2@@std@@2_JB ; std::_Ratio_multiply2<std::ratio<100,1>,std::ratio<1,1000000000> >::_G1
PUBLIC	?max_exponent10@?$numeric_limits@O@std@@2HB	; std::numeric_limits<long double>::max_exponent10
PUBLIC	?min_exponent@?$numeric_limits@O@std@@2HB	; std::numeric_limits<long double>::min_exponent
PUBLIC	?value@?$_Abs@$00@std@@2_JB			; std::_Abs<1>::value
PUBLIC	?min_exponent10@?$numeric_limits@O@std@@2HB	; std::numeric_limits<long double>::min_exponent10
PUBLIC	?value@?$_GcdX@$00$0A@@std@@2_JB		; std::_GcdX<1,0>::value
PUBLIC	?value@?$_GcdX@$00$00@std@@2_JB			; std::_GcdX<1,1>::value
PUBLIC	?value@?$_Gcd@$00$00@std@@2_JB			; std::_Gcd<1,1>::value
PUBLIC	?_G2@?$_Ratio_multiply2@U?$ratio@$0GE@$00@std@@U?$ratio@$00$0DLJKMKAA@@2@@std@@2_JB ; std::_Ratio_multiply2<std::ratio<100,1>,std::ratio<1,1000000000> >::_G2
PUBLIC	?is_monotonic@system_clock@chrono@std@@2_NB	; std::chrono::system_clock::is_monotonic
PUBLIC	?is_steady@system_clock@chrono@std@@2_NB	; std::chrono::system_clock::is_steady
PUBLIC	?value@?$_Sizeof@U_Nil@std@@U12@U12@U12@U12@U12@U12@U12@@std@@2_KB ; std::_Sizeof<std::_Nil,std::_Nil,std::_Nil,std::_Nil,std::_Nil,std::_Nil,std::_Nil,std::_Nil>::value
PUBLIC	?has_denorm@_Num_base@std@@2W4float_denorm_style@2@B ; std::_Num_base::has_denorm
PUBLIC	?has_denorm_loss@_Num_base@std@@2_NB		; std::_Num_base::has_denorm_loss
PUBLIC	?has_infinity@_Num_base@std@@2_NB		; std::_Num_base::has_infinity
PUBLIC	?has_quiet_NaN@_Num_base@std@@2_NB		; std::_Num_base::has_quiet_NaN
PUBLIC	?has_signaling_NaN@_Num_base@std@@2_NB		; std::_Num_base::has_signaling_NaN
PUBLIC	?is_bounded@_Num_base@std@@2_NB			; std::_Num_base::is_bounded
PUBLIC	?is_exact@_Num_base@std@@2_NB			; std::_Num_base::is_exact
PUBLIC	?is_iec559@_Num_base@std@@2_NB			; std::_Num_base::is_iec559
PUBLIC	?_S_cancelBitsMask@_TaskCollectionBase@details@Concurrency@@1_KB ; Concurrency::details::_TaskCollectionBase::_S_cancelBitsMask
PUBLIC	?_S_cancelNone@_TaskCollectionBase@details@Concurrency@@1_KB ; Concurrency::details::_TaskCollectionBase::_S_cancelNone
PUBLIC	?is_integer@_Num_base@std@@2_NB			; std::_Num_base::is_integer
PUBLIC	?_S_cancelStarted@_TaskCollectionBase@details@Concurrency@@1_KB ; Concurrency::details::_TaskCollectionBase::_S_cancelStarted
PUBLIC	?is_modulo@_Num_base@std@@2_NB			; std::_Num_base::is_modulo
PUBLIC	?_S_cancelDeferredShootdownOwner@_TaskCollectionBase@details@Concurrency@@1_KB ; Concurrency::details::_TaskCollectionBase::_S_cancelDeferredShootdownOwner
PUBLIC	?_S_cancelShotdownOwner@_TaskCollectionBase@details@Concurrency@@1_KB ; Concurrency::details::_TaskCollectionBase::_S_cancelShotdownOwner
PUBLIC	?is_signed@_Num_base@std@@2_NB			; std::_Num_base::is_signed
PUBLIC	?_S_nonNull@_TaskCollectionBase@details@Concurrency@@1_KB ; Concurrency::details::_TaskCollectionBase::_S_nonNull
PUBLIC	?is_specialized@_Num_base@std@@2_NB		; std::_Num_base::is_specialized
PUBLIC	?_S_cancelException@_TaskCollectionBase@details@Concurrency@@1_KB ; Concurrency::details::_TaskCollectionBase::_S_cancelException
PUBLIC	?_S_notInlined@_TaskCollectionBase@details@Concurrency@@1HB ; Concurrency::details::_TaskCollectionBase::_S_notInlined
PUBLIC	?tinyness_before@_Num_base@std@@2_NB		; std::_Num_base::tinyness_before
PUBLIC	?_S_structured@_TaskCollectionBase@details@Concurrency@@1HB ; Concurrency::details::_TaskCollectionBase::_S_structured
PUBLIC	?traps@_Num_base@std@@2_NB			; std::_Num_base::traps
PUBLIC	?_S_localCancel@_TaskCollectionBase@details@Concurrency@@1HB ; Concurrency::details::_TaskCollectionBase::_S_localCancel
PUBLIC	?_S_reserved@_TaskCollectionBase@details@Concurrency@@1HB ; Concurrency::details::_TaskCollectionBase::_S_reserved
PUBLIC	?round_style@_Num_base@std@@2W4float_round_style@2@B ; std::_Num_base::round_style
PUBLIC	?digits@_Num_base@std@@2HB			; std::_Num_base::digits
PUBLIC	?digits10@_Num_base@std@@2HB			; std::_Num_base::digits10
PUBLIC	?max_digits10@_Num_base@std@@2HB		; std::_Num_base::max_digits10
PUBLIC	?max_exponent@_Num_base@std@@2HB		; std::_Num_base::max_exponent
PUBLIC	?max_exponent10@_Num_base@std@@2HB		; std::_Num_base::max_exponent10
PUBLIC	?min_exponent@_Num_base@std@@2HB		; std::_Num_base::min_exponent
PUBLIC	?min_exponent10@_Num_base@std@@2HB		; std::_Num_base::min_exponent10
PUBLIC	?radix@_Num_base@std@@2HB			; std::_Num_base::radix
PUBLIC	?value@?$_Is_ratio@U?$ratio@$00$0JIJGIA@@std@@@chrono@std@@2_NB ; std::chrono::_Is_ratio<std::ratio<1,10000000> >::value
PUBLIC	?is_bounded@_Num_int_base@std@@2_NB		; std::_Num_int_base::is_bounded
PUBLIC	?is_exact@_Num_int_base@std@@2_NB		; std::_Num_int_base::is_exact
PUBLIC	?is_integer@_Num_int_base@std@@2_NB		; std::_Num_int_base::is_integer
PUBLIC	?is_modulo@_Num_int_base@std@@2_NB		; std::_Num_int_base::is_modulo
PUBLIC	?is_specialized@_Num_int_base@std@@2_NB		; std::_Num_int_base::is_specialized
PUBLIC	?radix@_Num_int_base@std@@2HB			; std::_Num_int_base::radix
PUBLIC	?value@?$_GcdX@$0JIJGIA@$00@std@@2_JB		; std::_GcdX<10000000,1>::value
PUBLIC	?has_denorm@_Num_float_base@std@@2W4float_denorm_style@2@B ; std::_Num_float_base::has_denorm
PUBLIC	?value@?$_GcdX@$00$0JIJGIA@@std@@2_JB		; std::_GcdX<1,10000000>::value
PUBLIC	?has_denorm_loss@_Num_float_base@std@@2_NB	; std::_Num_float_base::has_denorm_loss
PUBLIC	?has_infinity@_Num_float_base@std@@2_NB		; std::_Num_float_base::has_infinity
PUBLIC	?has_quiet_NaN@_Num_float_base@std@@2_NB	; std::_Num_float_base::has_quiet_NaN
PUBLIC	?value@?$_Gcd@$00$0JIJGIA@@std@@2_JB		; std::_Gcd<1,10000000>::value
PUBLIC	?has_signaling_NaN@_Num_float_base@std@@2_NB	; std::_Num_float_base::has_signaling_NaN
PUBLIC	?is_bounded@_Num_float_base@std@@2_NB		; std::_Num_float_base::is_bounded
PUBLIC	?is_exact@_Num_float_base@std@@2_NB		; std::_Num_float_base::is_exact
PUBLIC	?num@?$ratio@$00$0JIJGIA@@std@@2_JB		; std::ratio<1,10000000>::num
PUBLIC	?den@?$ratio@$00$0JIJGIA@@std@@2_JB		; std::ratio<1,10000000>::den
PUBLIC	?is_iec559@_Num_float_base@std@@2_NB		; std::_Num_float_base::is_iec559
PUBLIC	?is_integer@_Num_float_base@std@@2_NB		; std::_Num_float_base::is_integer
PUBLIC	?is_modulo@_Num_float_base@std@@2_NB		; std::_Num_float_base::is_modulo
PUBLIC	?is_signed@_Num_float_base@std@@2_NB		; std::_Num_float_base::is_signed
PUBLIC	?is_specialized@_Num_float_base@std@@2_NB	; std::_Num_float_base::is_specialized
PUBLIC	?tinyness_before@_Num_float_base@std@@2_NB	; std::_Num_float_base::tinyness_before
PUBLIC	?traps@_Num_float_base@std@@2_NB		; std::_Num_float_base::traps
PUBLIC	?round_style@_Num_float_base@std@@2W4float_round_style@2@B ; std::_Num_float_base::round_style
PUBLIC	?radix@_Num_float_base@std@@2HB			; std::_Num_float_base::radix
PUBLIC	?_G1@?$_Ratio_multiply2@U?$ratio@$00$0JIJGIA@@std@@U?$ratio@$0JIJGIA@$00@2@@std@@2_JB ; std::_Ratio_multiply2<std::ratio<1,10000000>,std::ratio<10000000,1> >::_G1
PUBLIC	?value@?$_Abs@$0JIJGIA@@std@@2_JB		; std::_Abs<10000000>::value
PUBLIC	?is_signed@?$numeric_limits@D@std@@2_NB		; std::numeric_limits<char>::is_signed
PUBLIC	?value@?$_GcdX@$0JIJGIA@$0A@@std@@2_JB		; std::_GcdX<10000000,0>::value
PUBLIC	?digits@?$numeric_limits@D@std@@2HB		; std::numeric_limits<char>::digits
PUBLIC	?digits10@?$numeric_limits@D@std@@2HB		; std::numeric_limits<char>::digits10
PUBLIC	?value@?$_GcdX@$0JIJGIA@$0JIJGIA@@std@@2_JB	; std::_GcdX<10000000,10000000>::value
PUBLIC	?value@?$_Gcd@$0JIJGIA@$0JIJGIA@@std@@2_JB	; std::_Gcd<10000000,10000000>::value
PUBLIC	?_G2@?$_Ratio_multiply2@U?$ratio@$00$0JIJGIA@@std@@U?$ratio@$0JIJGIA@$00@2@@std@@2_JB ; std::_Ratio_multiply2<std::ratio<1,10000000>,std::ratio<10000000,1> >::_G2
PUBLIC	?is_signed@?$numeric_limits@_W@std@@2_NB	; std::numeric_limits<wchar_t>::is_signed
PUBLIC	?digits@?$numeric_limits@_W@std@@2HB		; std::numeric_limits<wchar_t>::digits
PUBLIC	?digits10@?$numeric_limits@_W@std@@2HB		; std::numeric_limits<wchar_t>::digits10
;	COMDAT ?digits10@?$numeric_limits@_W@std@@2HB
CONST	SEGMENT
?digits10@?$numeric_limits@_W@std@@2HB DD 04H		; std::numeric_limits<wchar_t>::digits10
CONST	ENDS
;	COMDAT ?digits@?$numeric_limits@_W@std@@2HB
CONST	SEGMENT
?digits@?$numeric_limits@_W@std@@2HB DD 010H		; std::numeric_limits<wchar_t>::digits
CONST	ENDS
;	COMDAT ?is_signed@?$numeric_limits@_W@std@@2_NB
CONST	SEGMENT
?is_signed@?$numeric_limits@_W@std@@2_NB DB 00H		; std::numeric_limits<wchar_t>::is_signed
CONST	ENDS
;	COMDAT ?_G2@?$_Ratio_multiply2@U?$ratio@$00$0JIJGIA@@std@@U?$ratio@$0JIJGIA@$00@2@@std@@2_JB
CONST	SEGMENT
?_G2@?$_Ratio_multiply2@U?$ratio@$00$0JIJGIA@@std@@U?$ratio@$0JIJGIA@$00@2@@std@@2_JB DQ 0000000000989680H ; std::_Ratio_multiply2<std::ratio<1,10000000>,std::ratio<10000000,1> >::_G2
CONST	ENDS
;	COMDAT ?value@?$_Gcd@$0JIJGIA@$0JIJGIA@@std@@2_JB
CONST	SEGMENT
?value@?$_Gcd@$0JIJGIA@$0JIJGIA@@std@@2_JB DQ 0000000000989680H ; std::_Gcd<10000000,10000000>::value
CONST	ENDS
;	COMDAT ?value@?$_GcdX@$0JIJGIA@$0JIJGIA@@std@@2_JB
CONST	SEGMENT
?value@?$_GcdX@$0JIJGIA@$0JIJGIA@@std@@2_JB DQ 0000000000989680H ; std::_GcdX<10000000,10000000>::value
CONST	ENDS
;	COMDAT ?digits10@?$numeric_limits@D@std@@2HB
CONST	SEGMENT
?digits10@?$numeric_limits@D@std@@2HB DD 02H		; std::numeric_limits<char>::digits10
CONST	ENDS
;	COMDAT ?digits@?$numeric_limits@D@std@@2HB
CONST	SEGMENT
?digits@?$numeric_limits@D@std@@2HB DD 07H		; std::numeric_limits<char>::digits
CONST	ENDS
;	COMDAT ?value@?$_GcdX@$0JIJGIA@$0A@@std@@2_JB
CONST	SEGMENT
?value@?$_GcdX@$0JIJGIA@$0A@@std@@2_JB DQ 0000000000989680H ; std::_GcdX<10000000,0>::value
CONST	ENDS
;	COMDAT ?is_signed@?$numeric_limits@D@std@@2_NB
CONST	SEGMENT
?is_signed@?$numeric_limits@D@std@@2_NB DB 01H		; std::numeric_limits<char>::is_signed
CONST	ENDS
;	COMDAT ?value@?$_Abs@$0JIJGIA@@std@@2_JB
CONST	SEGMENT
?value@?$_Abs@$0JIJGIA@@std@@2_JB DQ 0000000000989680H	; std::_Abs<10000000>::value
CONST	ENDS
;	COMDAT ?_G1@?$_Ratio_multiply2@U?$ratio@$00$0JIJGIA@@std@@U?$ratio@$0JIJGIA@$00@2@@std@@2_JB
CONST	SEGMENT
?_G1@?$_Ratio_multiply2@U?$ratio@$00$0JIJGIA@@std@@U?$ratio@$0JIJGIA@$00@2@@std@@2_JB DQ 0000000000000001H ; std::_Ratio_multiply2<std::ratio<1,10000000>,std::ratio<10000000,1> >::_G1
CONST	ENDS
;	COMDAT ?radix@_Num_float_base@std@@2HB
CONST	SEGMENT
?radix@_Num_float_base@std@@2HB DD 02H			; std::_Num_float_base::radix
CONST	ENDS
;	COMDAT ?round_style@_Num_float_base@std@@2W4float_round_style@2@B
CONST	SEGMENT
?round_style@_Num_float_base@std@@2W4float_round_style@2@B DD 01H ; std::_Num_float_base::round_style
CONST	ENDS
;	COMDAT ?traps@_Num_float_base@std@@2_NB
CONST	SEGMENT
?traps@_Num_float_base@std@@2_NB DB 00H			; std::_Num_float_base::traps
CONST	ENDS
;	COMDAT ?tinyness_before@_Num_float_base@std@@2_NB
CONST	SEGMENT
?tinyness_before@_Num_float_base@std@@2_NB DB 01H	; std::_Num_float_base::tinyness_before
CONST	ENDS
;	COMDAT ?is_specialized@_Num_float_base@std@@2_NB
CONST	SEGMENT
?is_specialized@_Num_float_base@std@@2_NB DB 01H	; std::_Num_float_base::is_specialized
CONST	ENDS
;	COMDAT ?is_signed@_Num_float_base@std@@2_NB
CONST	SEGMENT
?is_signed@_Num_float_base@std@@2_NB DB 01H		; std::_Num_float_base::is_signed
CONST	ENDS
;	COMDAT ?is_modulo@_Num_float_base@std@@2_NB
CONST	SEGMENT
?is_modulo@_Num_float_base@std@@2_NB DB 00H		; std::_Num_float_base::is_modulo
CONST	ENDS
;	COMDAT ?is_integer@_Num_float_base@std@@2_NB
CONST	SEGMENT
?is_integer@_Num_float_base@std@@2_NB DB 00H		; std::_Num_float_base::is_integer
CONST	ENDS
;	COMDAT ?is_iec559@_Num_float_base@std@@2_NB
CONST	SEGMENT
?is_iec559@_Num_float_base@std@@2_NB DB 01H		; std::_Num_float_base::is_iec559
CONST	ENDS
;	COMDAT ?den@?$ratio@$00$0JIJGIA@@std@@2_JB
CONST	SEGMENT
?den@?$ratio@$00$0JIJGIA@@std@@2_JB DQ 0000000000989680H ; std::ratio<1,10000000>::den
CONST	ENDS
;	COMDAT ?num@?$ratio@$00$0JIJGIA@@std@@2_JB
CONST	SEGMENT
?num@?$ratio@$00$0JIJGIA@@std@@2_JB DQ 0000000000000001H ; std::ratio<1,10000000>::num
CONST	ENDS
;	COMDAT ?is_exact@_Num_float_base@std@@2_NB
CONST	SEGMENT
?is_exact@_Num_float_base@std@@2_NB DB 00H		; std::_Num_float_base::is_exact
CONST	ENDS
;	COMDAT ?is_bounded@_Num_float_base@std@@2_NB
CONST	SEGMENT
?is_bounded@_Num_float_base@std@@2_NB DB 01H		; std::_Num_float_base::is_bounded
CONST	ENDS
;	COMDAT ?has_signaling_NaN@_Num_float_base@std@@2_NB
CONST	SEGMENT
?has_signaling_NaN@_Num_float_base@std@@2_NB DB 01H	; std::_Num_float_base::has_signaling_NaN
CONST	ENDS
;	COMDAT ?value@?$_Gcd@$00$0JIJGIA@@std@@2_JB
CONST	SEGMENT
?value@?$_Gcd@$00$0JIJGIA@@std@@2_JB DQ 0000000000000001H ; std::_Gcd<1,10000000>::value
CONST	ENDS
;	COMDAT ?has_quiet_NaN@_Num_float_base@std@@2_NB
CONST	SEGMENT
?has_quiet_NaN@_Num_float_base@std@@2_NB DB 01H		; std::_Num_float_base::has_quiet_NaN
CONST	ENDS
;	COMDAT ?has_infinity@_Num_float_base@std@@2_NB
CONST	SEGMENT
?has_infinity@_Num_float_base@std@@2_NB DB 01H		; std::_Num_float_base::has_infinity
CONST	ENDS
;	COMDAT ?has_denorm_loss@_Num_float_base@std@@2_NB
CONST	SEGMENT
?has_denorm_loss@_Num_float_base@std@@2_NB DB 01H	; std::_Num_float_base::has_denorm_loss
CONST	ENDS
;	COMDAT ?value@?$_GcdX@$00$0JIJGIA@@std@@2_JB
CONST	SEGMENT
?value@?$_GcdX@$00$0JIJGIA@@std@@2_JB DQ 0000000000000001H ; std::_GcdX<1,10000000>::value
CONST	ENDS
;	COMDAT ?has_denorm@_Num_float_base@std@@2W4float_denorm_style@2@B
CONST	SEGMENT
?has_denorm@_Num_float_base@std@@2W4float_denorm_style@2@B DD 01H ; std::_Num_float_base::has_denorm
CONST	ENDS
;	COMDAT ?value@?$_GcdX@$0JIJGIA@$00@std@@2_JB
CONST	SEGMENT
?value@?$_GcdX@$0JIJGIA@$00@std@@2_JB DQ 0000000000000001H ; std::_GcdX<10000000,1>::value
CONST	ENDS
;	COMDAT ?radix@_Num_int_base@std@@2HB
CONST	SEGMENT
?radix@_Num_int_base@std@@2HB DD 02H			; std::_Num_int_base::radix
CONST	ENDS
;	COMDAT ?is_specialized@_Num_int_base@std@@2_NB
CONST	SEGMENT
?is_specialized@_Num_int_base@std@@2_NB DB 01H		; std::_Num_int_base::is_specialized
CONST	ENDS
;	COMDAT ?is_modulo@_Num_int_base@std@@2_NB
CONST	SEGMENT
?is_modulo@_Num_int_base@std@@2_NB DB 01H		; std::_Num_int_base::is_modulo
CONST	ENDS
;	COMDAT ?is_integer@_Num_int_base@std@@2_NB
CONST	SEGMENT
?is_integer@_Num_int_base@std@@2_NB DB 01H		; std::_Num_int_base::is_integer
CONST	ENDS
;	COMDAT ?is_exact@_Num_int_base@std@@2_NB
CONST	SEGMENT
?is_exact@_Num_int_base@std@@2_NB DB 01H		; std::_Num_int_base::is_exact
CONST	ENDS
;	COMDAT ?is_bounded@_Num_int_base@std@@2_NB
CONST	SEGMENT
?is_bounded@_Num_int_base@std@@2_NB DB 01H		; std::_Num_int_base::is_bounded
CONST	ENDS
;	COMDAT ?value@?$_Is_ratio@U?$ratio@$00$0JIJGIA@@std@@@chrono@std@@2_NB
CONST	SEGMENT
?value@?$_Is_ratio@U?$ratio@$00$0JIJGIA@@std@@@chrono@std@@2_NB DB 01H ; std::chrono::_Is_ratio<std::ratio<1,10000000> >::value
CONST	ENDS
;	COMDAT ?radix@_Num_base@std@@2HB
CONST	SEGMENT
?radix@_Num_base@std@@2HB DD 00H			; std::_Num_base::radix
CONST	ENDS
;	COMDAT ?min_exponent10@_Num_base@std@@2HB
CONST	SEGMENT
?min_exponent10@_Num_base@std@@2HB DD 00H		; std::_Num_base::min_exponent10
CONST	ENDS
;	COMDAT ?min_exponent@_Num_base@std@@2HB
CONST	SEGMENT
?min_exponent@_Num_base@std@@2HB DD 00H			; std::_Num_base::min_exponent
CONST	ENDS
;	COMDAT ?max_exponent10@_Num_base@std@@2HB
CONST	SEGMENT
?max_exponent10@_Num_base@std@@2HB DD 00H		; std::_Num_base::max_exponent10
CONST	ENDS
;	COMDAT ?max_exponent@_Num_base@std@@2HB
CONST	SEGMENT
?max_exponent@_Num_base@std@@2HB DD 00H			; std::_Num_base::max_exponent
CONST	ENDS
;	COMDAT ?max_digits10@_Num_base@std@@2HB
CONST	SEGMENT
?max_digits10@_Num_base@std@@2HB DD 00H			; std::_Num_base::max_digits10
CONST	ENDS
;	COMDAT ?digits10@_Num_base@std@@2HB
CONST	SEGMENT
?digits10@_Num_base@std@@2HB DD 00H			; std::_Num_base::digits10
CONST	ENDS
;	COMDAT ?digits@_Num_base@std@@2HB
CONST	SEGMENT
?digits@_Num_base@std@@2HB DD 00H			; std::_Num_base::digits
CONST	ENDS
;	COMDAT ?round_style@_Num_base@std@@2W4float_round_style@2@B
CONST	SEGMENT
?round_style@_Num_base@std@@2W4float_round_style@2@B DD 00H ; std::_Num_base::round_style
CONST	ENDS
;	COMDAT ?_S_reserved@_TaskCollectionBase@details@Concurrency@@1HB
CONST	SEGMENT
?_S_reserved@_TaskCollectionBase@details@Concurrency@@1HB DD 0cH ; Concurrency::details::_TaskCollectionBase::_S_reserved
CONST	ENDS
;	COMDAT ?_S_localCancel@_TaskCollectionBase@details@Concurrency@@1HB
CONST	SEGMENT
?_S_localCancel@_TaskCollectionBase@details@Concurrency@@1HB DD 02H ; Concurrency::details::_TaskCollectionBase::_S_localCancel
CONST	ENDS
;	COMDAT ?traps@_Num_base@std@@2_NB
CONST	SEGMENT
?traps@_Num_base@std@@2_NB DB 00H			; std::_Num_base::traps
CONST	ENDS
;	COMDAT ?_S_structured@_TaskCollectionBase@details@Concurrency@@1HB
CONST	SEGMENT
?_S_structured@_TaskCollectionBase@details@Concurrency@@1HB DD 01H ; Concurrency::details::_TaskCollectionBase::_S_structured
CONST	ENDS
;	COMDAT ?tinyness_before@_Num_base@std@@2_NB
CONST	SEGMENT
?tinyness_before@_Num_base@std@@2_NB DB 00H		; std::_Num_base::tinyness_before
CONST	ENDS
;	COMDAT ?_S_notInlined@_TaskCollectionBase@details@Concurrency@@1HB
CONST	SEGMENT
?_S_notInlined@_TaskCollectionBase@details@Concurrency@@1HB DD 0ffffffffH ; Concurrency::details::_TaskCollectionBase::_S_notInlined
CONST	ENDS
;	COMDAT ?_S_cancelException@_TaskCollectionBase@details@Concurrency@@1_KB
CONST	SEGMENT
?_S_cancelException@_TaskCollectionBase@details@Concurrency@@1_KB DQ 000000000000000cH ; Concurrency::details::_TaskCollectionBase::_S_cancelException
CONST	ENDS
;	COMDAT ?is_specialized@_Num_base@std@@2_NB
CONST	SEGMENT
?is_specialized@_Num_base@std@@2_NB DB 00H		; std::_Num_base::is_specialized
CONST	ENDS
;	COMDAT ?_S_nonNull@_TaskCollectionBase@details@Concurrency@@1_KB
CONST	SEGMENT
?_S_nonNull@_TaskCollectionBase@details@Concurrency@@1_KB DQ 0000000000000008H ; Concurrency::details::_TaskCollectionBase::_S_nonNull
CONST	ENDS
;	COMDAT ?is_signed@_Num_base@std@@2_NB
CONST	SEGMENT
?is_signed@_Num_base@std@@2_NB DB 00H			; std::_Num_base::is_signed
CONST	ENDS
;	COMDAT ?_S_cancelShotdownOwner@_TaskCollectionBase@details@Concurrency@@1_KB
CONST	SEGMENT
?_S_cancelShotdownOwner@_TaskCollectionBase@details@Concurrency@@1_KB DQ 0000000000000003H ; Concurrency::details::_TaskCollectionBase::_S_cancelShotdownOwner
CONST	ENDS
;	COMDAT ?_S_cancelDeferredShootdownOwner@_TaskCollectionBase@details@Concurrency@@1_KB
CONST	SEGMENT
?_S_cancelDeferredShootdownOwner@_TaskCollectionBase@details@Concurrency@@1_KB DQ 0000000000000002H ; Concurrency::details::_TaskCollectionBase::_S_cancelDeferredShootdownOwner
CONST	ENDS
;	COMDAT ?is_modulo@_Num_base@std@@2_NB
CONST	SEGMENT
?is_modulo@_Num_base@std@@2_NB DB 00H			; std::_Num_base::is_modulo
CONST	ENDS
;	COMDAT ?_S_cancelStarted@_TaskCollectionBase@details@Concurrency@@1_KB
CONST	SEGMENT
?_S_cancelStarted@_TaskCollectionBase@details@Concurrency@@1_KB DQ 0000000000000001H ; Concurrency::details::_TaskCollectionBase::_S_cancelStarted
CONST	ENDS
;	COMDAT ?is_integer@_Num_base@std@@2_NB
CONST	SEGMENT
?is_integer@_Num_base@std@@2_NB DB 00H			; std::_Num_base::is_integer
CONST	ENDS
;	COMDAT ?_S_cancelNone@_TaskCollectionBase@details@Concurrency@@1_KB
CONST	SEGMENT
?_S_cancelNone@_TaskCollectionBase@details@Concurrency@@1_KB DQ 0000000000000000H ; Concurrency::details::_TaskCollectionBase::_S_cancelNone
CONST	ENDS
;	COMDAT ?_S_cancelBitsMask@_TaskCollectionBase@details@Concurrency@@1_KB
CONST	SEGMENT
?_S_cancelBitsMask@_TaskCollectionBase@details@Concurrency@@1_KB DQ 0000000000000003H ; Concurrency::details::_TaskCollectionBase::_S_cancelBitsMask
CONST	ENDS
;	COMDAT ?is_iec559@_Num_base@std@@2_NB
CONST	SEGMENT
?is_iec559@_Num_base@std@@2_NB DB 00H			; std::_Num_base::is_iec559
CONST	ENDS
;	COMDAT ?is_exact@_Num_base@std@@2_NB
CONST	SEGMENT
?is_exact@_Num_base@std@@2_NB DB 00H			; std::_Num_base::is_exact
CONST	ENDS
;	COMDAT ?is_bounded@_Num_base@std@@2_NB
CONST	SEGMENT
?is_bounded@_Num_base@std@@2_NB DB 00H			; std::_Num_base::is_bounded
CONST	ENDS
;	COMDAT ?has_signaling_NaN@_Num_base@std@@2_NB
CONST	SEGMENT
?has_signaling_NaN@_Num_base@std@@2_NB DB 00H		; std::_Num_base::has_signaling_NaN
CONST	ENDS
;	COMDAT ?has_quiet_NaN@_Num_base@std@@2_NB
CONST	SEGMENT
?has_quiet_NaN@_Num_base@std@@2_NB DB 00H		; std::_Num_base::has_quiet_NaN
CONST	ENDS
;	COMDAT ?has_infinity@_Num_base@std@@2_NB
CONST	SEGMENT
?has_infinity@_Num_base@std@@2_NB DB 00H		; std::_Num_base::has_infinity
CONST	ENDS
;	COMDAT ?has_denorm_loss@_Num_base@std@@2_NB
CONST	SEGMENT
?has_denorm_loss@_Num_base@std@@2_NB DB 00H		; std::_Num_base::has_denorm_loss
CONST	ENDS
;	COMDAT ?has_denorm@_Num_base@std@@2W4float_denorm_style@2@B
CONST	SEGMENT
?has_denorm@_Num_base@std@@2W4float_denorm_style@2@B DD 00H ; std::_Num_base::has_denorm
CONST	ENDS
;	COMDAT ?value@?$_Sizeof@U_Nil@std@@U12@U12@U12@U12@U12@U12@U12@@std@@2_KB
CONST	SEGMENT
?value@?$_Sizeof@U_Nil@std@@U12@U12@U12@U12@U12@U12@U12@@std@@2_KB DQ 0000000000000000H ; std::_Sizeof<std::_Nil,std::_Nil,std::_Nil,std::_Nil,std::_Nil,std::_Nil,std::_Nil,std::_Nil>::value
CONST	ENDS
;	COMDAT ?is_steady@system_clock@chrono@std@@2_NB
CONST	SEGMENT
?is_steady@system_clock@chrono@std@@2_NB DB 00H		; std::chrono::system_clock::is_steady
CONST	ENDS
;	COMDAT ?is_monotonic@system_clock@chrono@std@@2_NB
CONST	SEGMENT
?is_monotonic@system_clock@chrono@std@@2_NB DB 00H	; std::chrono::system_clock::is_monotonic
CONST	ENDS
;	COMDAT ?_G2@?$_Ratio_multiply2@U?$ratio@$0GE@$00@std@@U?$ratio@$00$0DLJKMKAA@@2@@std@@2_JB
CONST	SEGMENT
?_G2@?$_Ratio_multiply2@U?$ratio@$0GE@$00@std@@U?$ratio@$00$0DLJKMKAA@@2@@std@@2_JB DQ 0000000000000001H ; std::_Ratio_multiply2<std::ratio<100,1>,std::ratio<1,1000000000> >::_G2
CONST	ENDS
;	COMDAT ?value@?$_Gcd@$00$00@std@@2_JB
CONST	SEGMENT
?value@?$_Gcd@$00$00@std@@2_JB DQ 0000000000000001H	; std::_Gcd<1,1>::value
CONST	ENDS
;	COMDAT ?value@?$_GcdX@$00$00@std@@2_JB
CONST	SEGMENT
?value@?$_GcdX@$00$00@std@@2_JB DQ 0000000000000001H	; std::_GcdX<1,1>::value
CONST	ENDS
;	COMDAT ?value@?$_GcdX@$00$0A@@std@@2_JB
CONST	SEGMENT
?value@?$_GcdX@$00$0A@@std@@2_JB DQ 0000000000000001H	; std::_GcdX<1,0>::value
CONST	ENDS
;	COMDAT ?min_exponent10@?$numeric_limits@O@std@@2HB
CONST	SEGMENT
?min_exponent10@?$numeric_limits@O@std@@2HB DD 0fffffecdH ; std::numeric_limits<long double>::min_exponent10
CONST	ENDS
;	COMDAT ?value@?$_Abs@$00@std@@2_JB
CONST	SEGMENT
?value@?$_Abs@$00@std@@2_JB DQ 0000000000000001H	; std::_Abs<1>::value
CONST	ENDS
;	COMDAT ?min_exponent@?$numeric_limits@O@std@@2HB
CONST	SEGMENT
?min_exponent@?$numeric_limits@O@std@@2HB DD 0fffffc03H	; std::numeric_limits<long double>::min_exponent
CONST	ENDS
;	COMDAT ?max_exponent10@?$numeric_limits@O@std@@2HB
CONST	SEGMENT
?max_exponent10@?$numeric_limits@O@std@@2HB DD 0134H	; std::numeric_limits<long double>::max_exponent10
CONST	ENDS
;	COMDAT ?_G1@?$_Ratio_multiply2@U?$ratio@$0GE@$00@std@@U?$ratio@$00$0DLJKMKAA@@2@@std@@2_JB
CONST	SEGMENT
?_G1@?$_Ratio_multiply2@U?$ratio@$0GE@$00@std@@U?$ratio@$00$0DLJKMKAA@@2@@std@@2_JB DQ 0000000000000064H ; std::_Ratio_multiply2<std::ratio<100,1>,std::ratio<1,1000000000> >::_G1
CONST	ENDS
;	COMDAT ?max_exponent@?$numeric_limits@O@std@@2HB
CONST	SEGMENT
?max_exponent@?$numeric_limits@O@std@@2HB DD 0400H	; std::numeric_limits<long double>::max_exponent
CONST	ENDS
;	COMDAT ?value@?$_Gcd@$0GE@$0DLJKMKAA@@std@@2_JB
CONST	SEGMENT
?value@?$_Gcd@$0GE@$0DLJKMKAA@@std@@2_JB DQ 0000000000000064H ; std::_Gcd<100,1000000000>::value
CONST	ENDS
;	COMDAT ?max_digits10@?$numeric_limits@O@std@@2HB
CONST	SEGMENT
?max_digits10@?$numeric_limits@O@std@@2HB DD 011H	; std::numeric_limits<long double>::max_digits10
CONST	ENDS
;	COMDAT ?digits10@?$numeric_limits@O@std@@2HB
CONST	SEGMENT
?digits10@?$numeric_limits@O@std@@2HB DD 0fH		; std::numeric_limits<long double>::digits10
CONST	ENDS
;	COMDAT ?value@?$integral_constant@_N$00@std@@2_NB
CONST	SEGMENT
?value@?$integral_constant@_N$00@std@@2_NB DB 01H	; std::integral_constant<bool,1>::value
CONST	ENDS
;	COMDAT ?digits@?$numeric_limits@O@std@@2HB
CONST	SEGMENT
?digits@?$numeric_limits@O@std@@2HB DD 035H		; std::numeric_limits<long double>::digits
CONST	ENDS
;	COMDAT ?value@?$_GcdX@$0GE@$0DLJKMKAA@@std@@2_JB
CONST	SEGMENT
?value@?$_GcdX@$0GE@$0DLJKMKAA@@std@@2_JB DQ 0000000000000064H ; std::_GcdX<100,1000000000>::value
CONST	ENDS
;	COMDAT ?value@?$_GcdX@$0DLJKMKAA@$0GE@@std@@2_JB
CONST	SEGMENT
?value@?$_GcdX@$0DLJKMKAA@$0GE@@std@@2_JB DQ 0000000000000064H ; std::_GcdX<1000000000,100>::value
CONST	ENDS
;	COMDAT ?value@?$integral_constant@_N$0A@@std@@2_NB
CONST	SEGMENT
?value@?$integral_constant@_N$0A@@std@@2_NB DB 00H	; std::integral_constant<bool,0>::value
CONST	ENDS
;	COMDAT ?_STATE_CALLED@_CancellationTokenRegistration@details@Concurrency@@0JB
CONST	SEGMENT
?_STATE_CALLED@_CancellationTokenRegistration@details@Concurrency@@0JB DD 03H ; Concurrency::details::_CancellationTokenRegistration::_STATE_CALLED
CONST	ENDS
;	COMDAT ?_STATE_SYNCHRONIZE@_CancellationTokenRegistration@details@Concurrency@@0JB
CONST	SEGMENT
?_STATE_SYNCHRONIZE@_CancellationTokenRegistration@details@Concurrency@@0JB DD 02H ; Concurrency::details::_CancellationTokenRegistration::_STATE_SYNCHRONIZE
CONST	ENDS
;	COMDAT ?value@?$_GcdX@$0GE@$0A@@std@@2_JB
CONST	SEGMENT
?value@?$_GcdX@$0GE@$0A@@std@@2_JB DQ 0000000000000064H	; std::_GcdX<100,0>::value
CONST	ENDS
;	COMDAT ?_STATE_DEFER_DELETE@_CancellationTokenRegistration@details@Concurrency@@0JB
CONST	SEGMENT
?_STATE_DEFER_DELETE@_CancellationTokenRegistration@details@Concurrency@@0JB DD 01H ; Concurrency::details::_CancellationTokenRegistration::_STATE_DEFER_DELETE
CONST	ENDS
;	COMDAT ?_STATE_CLEAR@_CancellationTokenRegistration@details@Concurrency@@0JB
CONST	SEGMENT
?_STATE_CLEAR@_CancellationTokenRegistration@details@Concurrency@@0JB DD 00H ; Concurrency::details::_CancellationTokenRegistration::_STATE_CLEAR
CONST	ENDS
;	COMDAT ?min_exponent10@?$numeric_limits@N@std@@2HB
CONST	SEGMENT
?min_exponent10@?$numeric_limits@N@std@@2HB DD 0fffffecdH ; std::numeric_limits<double>::min_exponent10
CONST	ENDS
;	COMDAT ?value@?$_Abs@$0DLJKMKAA@@std@@2_JB
CONST	SEGMENT
?value@?$_Abs@$0DLJKMKAA@@std@@2_JB DQ 000000003b9aca00H ; std::_Abs<1000000000>::value
CONST	ENDS
;	COMDAT ?min_exponent@?$numeric_limits@N@std@@2HB
CONST	SEGMENT
?min_exponent@?$numeric_limits@N@std@@2HB DD 0fffffc03H	; std::numeric_limits<double>::min_exponent
CONST	ENDS
;	COMDAT ?max_exponent10@?$numeric_limits@N@std@@2HB
CONST	SEGMENT
?max_exponent10@?$numeric_limits@N@std@@2HB DD 0134H	; std::numeric_limits<double>::max_exponent10
CONST	ENDS
;	COMDAT ?max_exponent@?$numeric_limits@N@std@@2HB
CONST	SEGMENT
?max_exponent@?$numeric_limits@N@std@@2HB DD 0400H	; std::numeric_limits<double>::max_exponent
CONST	ENDS
;	COMDAT ?value@?$_Abs@$0GE@@std@@2_JB
CONST	SEGMENT
?value@?$_Abs@$0GE@@std@@2_JB DQ 0000000000000064H	; std::_Abs<100>::value
CONST	ENDS
;	COMDAT ?max_digits10@?$numeric_limits@N@std@@2HB
CONST	SEGMENT
?max_digits10@?$numeric_limits@N@std@@2HB DD 011H	; std::numeric_limits<double>::max_digits10
CONST	ENDS
;	COMDAT ?digits10@?$numeric_limits@N@std@@2HB
CONST	SEGMENT
?digits10@?$numeric_limits@N@std@@2HB DD 0fH		; std::numeric_limits<double>::digits10
CONST	ENDS
;	COMDAT ?digits@?$numeric_limits@N@std@@2HB
CONST	SEGMENT
?digits@?$numeric_limits@N@std@@2HB DD 035H		; std::numeric_limits<double>::digits
CONST	ENDS
;	COMDAT ?min_exponent10@?$numeric_limits@M@std@@2HB
CONST	SEGMENT
?min_exponent10@?$numeric_limits@M@std@@2HB DD 0ffffffdbH ; std::numeric_limits<float>::min_exponent10
CONST	ENDS
;	COMDAT ?min_exponent@?$numeric_limits@M@std@@2HB
CONST	SEGMENT
?min_exponent@?$numeric_limits@M@std@@2HB DD 0ffffff83H	; std::numeric_limits<float>::min_exponent
CONST	ENDS
;	COMDAT ?max_exponent10@?$numeric_limits@M@std@@2HB
CONST	SEGMENT
?max_exponent10@?$numeric_limits@M@std@@2HB DD 026H	; std::numeric_limits<float>::max_exponent10
CONST	ENDS
;	COMDAT ?max_exponent@?$numeric_limits@M@std@@2HB
CONST	SEGMENT
?max_exponent@?$numeric_limits@M@std@@2HB DD 080H	; std::numeric_limits<float>::max_exponent
CONST	ENDS
;	COMDAT ?max_digits10@?$numeric_limits@M@std@@2HB
CONST	SEGMENT
?max_digits10@?$numeric_limits@M@std@@2HB DD 09H	; std::numeric_limits<float>::max_digits10
CONST	ENDS
;	COMDAT ?digits10@?$numeric_limits@M@std@@2HB
CONST	SEGMENT
?digits10@?$numeric_limits@M@std@@2HB DD 06H		; std::numeric_limits<float>::digits10
CONST	ENDS
;	COMDAT ?digits@?$numeric_limits@M@std@@2HB
CONST	SEGMENT
?digits@?$numeric_limits@M@std@@2HB DD 018H		; std::numeric_limits<float>::digits
CONST	ENDS
;	COMDAT ?digits10@?$numeric_limits@_K@std@@2HB
CONST	SEGMENT
?digits10@?$numeric_limits@_K@std@@2HB DD 013H		; std::numeric_limits<unsigned __int64>::digits10
CONST	ENDS
;	COMDAT ?digits@?$numeric_limits@_K@std@@2HB
CONST	SEGMENT
?digits@?$numeric_limits@_K@std@@2HB DD 040H		; std::numeric_limits<unsigned __int64>::digits
CONST	ENDS
;	COMDAT ?value@?$integral_constant@H$0A@@std@@2HB
CONST	SEGMENT
?value@?$integral_constant@H$0A@@std@@2HB DD 00H	; std::integral_constant<int,0>::value
CONST	ENDS
;	COMDAT ?is_signed@?$numeric_limits@_K@std@@2_NB
CONST	SEGMENT
?is_signed@?$numeric_limits@_K@std@@2_NB DB 00H		; std::numeric_limits<unsigned __int64>::is_signed
CONST	ENDS
;	COMDAT ?digits10@?$numeric_limits@_J@std@@2HB
CONST	SEGMENT
?digits10@?$numeric_limits@_J@std@@2HB DD 012H		; std::numeric_limits<__int64>::digits10
CONST	ENDS
;	COMDAT ?digits@?$numeric_limits@_J@std@@2HB
CONST	SEGMENT
?digits@?$numeric_limits@_J@std@@2HB DD 03fH		; std::numeric_limits<__int64>::digits
CONST	ENDS
;	COMDAT ?is_signed@?$numeric_limits@_J@std@@2_NB
CONST	SEGMENT
?is_signed@?$numeric_limits@_J@std@@2_NB DB 01H		; std::numeric_limits<__int64>::is_signed
CONST	ENDS
;	COMDAT ?digits10@?$numeric_limits@K@std@@2HB
CONST	SEGMENT
?digits10@?$numeric_limits@K@std@@2HB DD 09H		; std::numeric_limits<unsigned long>::digits10
CONST	ENDS
;	COMDAT ?value@?$integral_constant@_K$0A@@std@@2_KB
CONST	SEGMENT
?value@?$integral_constant@_K$0A@@std@@2_KB DQ 0000000000000000H ; std::integral_constant<unsigned __int64,0>::value
CONST	ENDS
;	COMDAT ?digits@?$numeric_limits@K@std@@2HB
CONST	SEGMENT
?digits@?$numeric_limits@K@std@@2HB DD 020H		; std::numeric_limits<unsigned long>::digits
CONST	ENDS
;	COMDAT ?is_signed@?$numeric_limits@K@std@@2_NB
CONST	SEGMENT
?is_signed@?$numeric_limits@K@std@@2_NB DB 00H		; std::numeric_limits<unsigned long>::is_signed
CONST	ENDS
;	COMDAT ?digits10@?$numeric_limits@J@std@@2HB
CONST	SEGMENT
?digits10@?$numeric_limits@J@std@@2HB DD 09H		; std::numeric_limits<long>::digits10
CONST	ENDS
;	COMDAT ?digits@?$numeric_limits@J@std@@2HB
CONST	SEGMENT
?digits@?$numeric_limits@J@std@@2HB DD 01fH		; std::numeric_limits<long>::digits
CONST	ENDS
;	COMDAT ?is_signed@?$numeric_limits@J@std@@2_NB
CONST	SEGMENT
?is_signed@?$numeric_limits@J@std@@2_NB DB 01H		; std::numeric_limits<long>::is_signed
CONST	ENDS
;	COMDAT ?digits10@?$numeric_limits@I@std@@2HB
CONST	SEGMENT
?digits10@?$numeric_limits@I@std@@2HB DD 09H		; std::numeric_limits<unsigned int>::digits10
CONST	ENDS
;	COMDAT ?digits@?$numeric_limits@I@std@@2HB
CONST	SEGMENT
?digits@?$numeric_limits@I@std@@2HB DD 020H		; std::numeric_limits<unsigned int>::digits
CONST	ENDS
;	COMDAT ?is_signed@?$numeric_limits@I@std@@2_NB
CONST	SEGMENT
?is_signed@?$numeric_limits@I@std@@2_NB DB 00H		; std::numeric_limits<unsigned int>::is_signed
CONST	ENDS
;	COMDAT ?digits10@?$numeric_limits@H@std@@2HB
CONST	SEGMENT
?digits10@?$numeric_limits@H@std@@2HB DD 09H		; std::numeric_limits<int>::digits10
CONST	ENDS
;	COMDAT ?digits@?$numeric_limits@H@std@@2HB
CONST	SEGMENT
?digits@?$numeric_limits@H@std@@2HB DD 01fH		; std::numeric_limits<int>::digits
CONST	ENDS
;	COMDAT ?is_signed@?$numeric_limits@H@std@@2_NB
CONST	SEGMENT
?is_signed@?$numeric_limits@H@std@@2_NB DB 01H		; std::numeric_limits<int>::is_signed
CONST	ENDS
;	COMDAT AgentEventGuid
CONST	SEGMENT
AgentEventGuid DD 0b9b5b78cH
	DW	0713H
	DW	04898H
	DB	0a2H
	DB	01aH
	DB	0c6H
	DB	079H
	DB	049H
	DB	0dcH
	DB	0edH
	DB	07H
CONST	ENDS
;	COMDAT PPLParallelForeachEventGuid
CONST	SEGMENT
PPLParallelForeachEventGuid DD 05cb7d785H
	DW	09d66H
	DW	0465dH
	DB	0baH
	DB	0e1H
	DB	046H
	DB	011H
	DB	06H
	DB	01bH
	DB	054H
	DB	034H
CONST	ENDS
;	COMDAT PPLParallelForEventGuid
CONST	SEGMENT
PPLParallelForEventGuid DD 031c8da6bH
	DW	06165H
	DW	04042H
	DB	08bH
	DB	092H
	DB	094H
	DB	09eH
	DB	031H
	DB	05fH
	DB	04dH
	DB	084H
CONST	ENDS
;	COMDAT PPLParallelInvokeEventGuid
CONST	SEGMENT
PPLParallelInvokeEventGuid DD 0d1b5b133H
	DW	0ec3dH
	DW	049f4H
	DB	098H
	DB	0a3H
	DB	046H
	DB	04dH
	DB	01aH
	DB	09eH
	DB	046H
	DB	082H
CONST	ENDS
;	COMDAT ResourceManagerEventGuid
CONST	SEGMENT
ResourceManagerEventGuid DD 02718d25bH
	DW	05bf5H
	DW	04479H
	DB	08eH
	DB	088H
	DB	0baH
	DB	0bcH
	DB	064H
	DB	0bdH
	DB	0bfH
	DB	0caH
CONST	ENDS
;	COMDAT LockEventGuid
CONST	SEGMENT
LockEventGuid DD 079a60dc6H
	DW	05fc8H
	DW	04952H
	DB	0a4H
	DB	01cH
	DB	011H
	DB	063H
	DB	0aeH
	DB	0ecH
	DB	05eH
	DB	0b8H
CONST	ENDS
;	COMDAT VirtualProcessorEventGuid
CONST	SEGMENT
VirtualProcessorEventGuid DD 02f27805fH
	DW	01676H
	DW	04eccH
	DB	096H
	DB	0faH
	DB	07eH
	DB	0b0H
	DB	09dH
	DB	044H
	DB	030H
	DB	02fH
CONST	ENDS
;	COMDAT ChoreEventGuid
CONST	SEGMENT
ChoreEventGuid DD 07e854ec7H
	DW	0cdc4H
	DW	0405aH
	DB	0b5H
	DB	0b2H
	DB	0aaH
	DB	0f7H
	DB	0c9H
	DB	0e7H
	DB	0d4H
	DB	0cH
CONST	ENDS
;	COMDAT ContextEventGuid
CONST	SEGMENT
ContextEventGuid DD 05727a00fH
	DW	050beH
	DW	04519H
	DB	082H
	DB	056H
	DB	0f7H
	DB	069H
	DB	098H
	DB	071H
	DB	0feH
	DB	0cbH
CONST	ENDS
;	COMDAT ScheduleGroupEventGuid
CONST	SEGMENT
ScheduleGroupEventGuid DD 0e8a3bf1fH
	DW	0a86bH
	DW	04390H
	DB	09cH
	DB	060H
	DB	053H
	DB	090H
	DB	0b9H
	DB	069H
	DB	0d2H
	DB	02cH
CONST	ENDS
;	COMDAT SchedulerEventGuid
CONST	SEGMENT
SchedulerEventGuid DD 0e2091f8aH
	DW	01e0aH
	DW	04731H
	DB	084H
	DB	0a2H
	DB	0dH
	DB	0d5H
	DB	07cH
	DB	08aH
	DB	052H
	DB	061H
CONST	ENDS
;	COMDAT ?digits10@?$numeric_limits@G@std@@2HB
CONST	SEGMENT
?digits10@?$numeric_limits@G@std@@2HB DD 04H		; std::numeric_limits<unsigned short>::digits10
CONST	ENDS
;	COMDAT ConcRTEventGuid
CONST	SEGMENT
ConcRTEventGuid DD 072b14a7dH
	DW	0704cH
	DW	0423eH
	DB	092H
	DB	0f8H
	DB	07eH
	DB	06dH
	DB	064H
	DB	0bcH
	DB	0b9H
	DB	02aH
CONST	ENDS
;	COMDAT ConcRT_ProviderGuid
CONST	SEGMENT
ConcRT_ProviderGuid DD 0f7b697a3H
	DW	04db5H
	DW	04d3bH
	DB	0beH
	DB	071H
	DB	0c4H
	DB	0d2H
	DB	084H
	DB	0e6H
	DB	059H
	DB	02fH
CONST	ENDS
;	COMDAT ?digits@?$numeric_limits@G@std@@2HB
CONST	SEGMENT
?digits@?$numeric_limits@G@std@@2HB DD 010H		; std::numeric_limits<unsigned short>::digits
CONST	ENDS
;	COMDAT ?is_signed@?$numeric_limits@G@std@@2_NB
CONST	SEGMENT
?is_signed@?$numeric_limits@G@std@@2_NB DB 00H		; std::numeric_limits<unsigned short>::is_signed
CONST	ENDS
;	COMDAT ?digits10@?$numeric_limits@F@std@@2HB
CONST	SEGMENT
?digits10@?$numeric_limits@F@std@@2HB DD 04H		; std::numeric_limits<short>::digits10
CONST	ENDS
;	COMDAT ?digits@?$numeric_limits@F@std@@2HB
CONST	SEGMENT
?digits@?$numeric_limits@F@std@@2HB DD 0fH		; std::numeric_limits<short>::digits
CONST	ENDS
;	COMDAT ?is_steady@steady_clock@chrono@std@@2_NB
CONST	SEGMENT
?is_steady@steady_clock@chrono@std@@2_NB DB 01H		; std::chrono::steady_clock::is_steady
CONST	ENDS
;	COMDAT ?is_signed@?$numeric_limits@F@std@@2_NB
CONST	SEGMENT
?is_signed@?$numeric_limits@F@std@@2_NB DB 01H		; std::numeric_limits<short>::is_signed
CONST	ENDS
;	COMDAT ?is_monotonic@steady_clock@chrono@std@@2_NB
CONST	SEGMENT
?is_monotonic@steady_clock@chrono@std@@2_NB DB 01H	; std::chrono::steady_clock::is_monotonic
CONST	ENDS
;	COMDAT ?digits10@?$numeric_limits@E@std@@2HB
CONST	SEGMENT
?digits10@?$numeric_limits@E@std@@2HB DD 02H		; std::numeric_limits<unsigned char>::digits10
CONST	ENDS
;	COMDAT ?digits@?$numeric_limits@E@std@@2HB
CONST	SEGMENT
?digits@?$numeric_limits@E@std@@2HB DD 08H		; std::numeric_limits<unsigned char>::digits
CONST	ENDS
;	COMDAT ?is_signed@?$numeric_limits@E@std@@2_NB
CONST	SEGMENT
?is_signed@?$numeric_limits@E@std@@2_NB DB 00H		; std::numeric_limits<unsigned char>::is_signed
CONST	ENDS
;	COMDAT ?digits10@?$numeric_limits@C@std@@2HB
CONST	SEGMENT
?digits10@?$numeric_limits@C@std@@2HB DD 02H		; std::numeric_limits<signed char>::digits10
CONST	ENDS
;	COMDAT ?digits@?$numeric_limits@C@std@@2HB
CONST	SEGMENT
?digits@?$numeric_limits@C@std@@2HB DD 07H		; std::numeric_limits<signed char>::digits
CONST	ENDS
;	COMDAT ?is_signed@?$numeric_limits@C@std@@2_NB
CONST	SEGMENT
?is_signed@?$numeric_limits@C@std@@2_NB DB 01H		; std::numeric_limits<signed char>::is_signed
CONST	ENDS
;	COMDAT ?value@?$_Sizeof@HU_Nil@std@@U12@U12@U12@U12@U12@U12@@std@@2_KB
CONST	SEGMENT
?value@?$_Sizeof@HU_Nil@std@@U12@U12@U12@U12@U12@U12@@std@@2_KB DQ 0000000000000001H ; std::_Sizeof<int,std::_Nil,std::_Nil,std::_Nil,std::_Nil,std::_Nil,std::_Nil,std::_Nil>::value
CONST	ENDS
CONST	SEGMENT
dutycycletable DB 00H
	DB	00H
	DB	00H
	DB	00H
	DB	01H
	DB	00H
	DB	00H
	DB	00H
	DB	00H
	DB	00H
	DB	00H
	DB	00H
	DB	01H
	DB	01H
	DB	00H
	DB	00H
	DB	00H
	DB	00H
	DB	01H
	DB	01H
	DB	01H
	DB	01H
	DB	00H
	DB	00H
	DB	01H
	DB	01H
	DB	01H
	DB	01H
	DB	00H
	DB	00H
	DB	01H
	DB	01H
reg_index DD	03H
	DD	02H
	DD	05H
	DD	04H
	DD	07H
	DD	06H
	DD	07H
	DD	01H
CONST	ENDS
;	COMDAT ?digits10@?$numeric_limits@_N@std@@2HB
CONST	SEGMENT
?digits10@?$numeric_limits@_N@std@@2HB DD 00H		; std::numeric_limits<bool>::digits10
CONST	ENDS
;	COMDAT ?digits@?$numeric_limits@_N@std@@2HB
CONST	SEGMENT
?digits@?$numeric_limits@_N@std@@2HB DD 01H		; std::numeric_limits<bool>::digits
CONST	ENDS
;	COMDAT ?is_signed@?$numeric_limits@_N@std@@2_NB
CONST	SEGMENT
?is_signed@?$numeric_limits@_N@std@@2_NB DB 00H		; std::numeric_limits<bool>::is_signed
CONST	ENDS
;	COMDAT ?is_modulo@?$numeric_limits@_N@std@@2_NB
CONST	SEGMENT
?is_modulo@?$numeric_limits@_N@std@@2_NB DB 00H		; std::numeric_limits<bool>::is_modulo
CONST	ENDS
;	COMDAT ?den@?$ratio@$00$00@std@@2_JB
CONST	SEGMENT
?den@?$ratio@$00$00@std@@2_JB DQ 0000000000000001H	; std::ratio<1,1>::den
CONST	ENDS
;	COMDAT ?num@?$ratio@$00$00@std@@2_JB
CONST	SEGMENT
?num@?$ratio@$00$00@std@@2_JB DQ 0000000000000001H	; std::ratio<1,1>::num
CONST	ENDS
PUBLIC	??0_Ignore@std@@QEAA@XZ				; std::_Ignore::_Ignore
PUBLIC	?Initialize@Component@gb@emulation@@UEAAXPEAVEmu@23@@Z ; emulation::gb::Component::Initialize
PUBLIC	?Deinitialize@Component@gb@emulation@@UEAAXXZ	; emulation::gb::Component::Deinitialize
PUBLIC	?Reset@Component@gb@emulation@@UEAAXXZ		; emulation::gb::Component::Reset
PUBLIC	??0Component@gb@emulation@@QEAA@XZ		; emulation::gb::Component::Component
PUBLIC	?interrupt_enable@Memory@gb@emulation@@QEAAAEAEXZ ; emulation::gb::Memory::interrupt_enable
PUBLIC	?interrupt_flag@Memory@gb@emulation@@QEAAAEAEXZ	; emulation::gb::Memory::interrupt_flag
PUBLIC	?lcdc@LCDDriver@gb@emulation@@QEAAAEBTLCDControlRegister@23@XZ ; emulation::gb::LCDDriver::lcdc
PUBLIC	??0Cpu@gb@emulation@@QEAA@XZ			; emulation::gb::Cpu::Cpu
PUBLIC	??1Cpu@gb@emulation@@QEAA@XZ			; emulation::gb::Cpu::~Cpu
PUBLIC	?Initialize@Cpu@gb@emulation@@UEAAXPEAVEmu@23@@Z ; emulation::gb::Cpu::Initialize
PUBLIC	?Deinitialize@Cpu@gb@emulation@@UEAAXXZ		; emulation::gb::Cpu::Deinitialize
PUBLIC	?Reset@Cpu@gb@emulation@@UEAAXXZ		; emulation::gb::Cpu::Reset
PUBLIC	?Tick@Cpu@gb@emulation@@QEAAXXZ			; emulation::gb::Cpu::Tick
PUBLIC	?Step@Cpu@gb@emulation@@QEAAXN@Z		; emulation::gb::Cpu::Step
PUBLIC	?simulateSpriteBug@Cpu@gb@emulation@@AEAAXXZ	; emulation::gb::Cpu::simulateSpriteBug
PUBLIC	?updateCpuFlagC@Cpu@gb@emulation@@AEAAXEEH@Z	; emulation::gb::Cpu::updateCpuFlagC
PUBLIC	?updateCpuFlagH@Cpu@gb@emulation@@AEAAXEEH@Z	; emulation::gb::Cpu::updateCpuFlagH
PUBLIC	?updateCpuFlagZ@Cpu@gb@emulation@@AEAAXE@Z	; emulation::gb::Cpu::updateCpuFlagZ
PUBLIC	?push@Cpu@gb@emulation@@AEAAXE@Z		; emulation::gb::Cpu::push
PUBLIC	?pop@Cpu@gb@emulation@@AEAAEXZ			; emulation::gb::Cpu::pop
PUBLIC	?pushPC@Cpu@gb@emulation@@AEAAXXZ		; emulation::gb::Cpu::pushPC
PUBLIC	?NOP@Cpu@gb@emulation@@AEAAXXZ			; emulation::gb::Cpu::NOP
PUBLIC	?ILLEGAL@Cpu@gb@emulation@@AEAAXXZ		; emulation::gb::Cpu::ILLEGAL
PUBLIC	?RST@Cpu@gb@emulation@@AEAAXXZ			; emulation::gb::Cpu::RST
PUBLIC	?LDSPHL@Cpu@gb@emulation@@AEAAXXZ		; emulation::gb::Cpu::LDSPHL
PUBLIC	?LDHLSPr8@Cpu@gb@emulation@@AEAAXXZ		; emulation::gb::Cpu::LDHLSPr8
PUBLIC	?LDa16SP@Cpu@gb@emulation@@AEAAXXZ		; emulation::gb::Cpu::LDa16SP
PUBLIC	?ADD_SPr8@Cpu@gb@emulation@@AEAAXXZ		; emulation::gb::Cpu::ADD_SPr8
PUBLIC	?SCF@Cpu@gb@emulation@@AEAAXXZ			; emulation::gb::Cpu::SCF
PUBLIC	?CCF@Cpu@gb@emulation@@AEAAXXZ			; emulation::gb::Cpu::CCF
PUBLIC	?HALT@Cpu@gb@emulation@@AEAAXXZ			; emulation::gb::Cpu::HALT
PUBLIC	?STOP@Cpu@gb@emulation@@AEAAXXZ			; emulation::gb::Cpu::STOP
PUBLIC	?CPL@Cpu@gb@emulation@@AEAAXXZ			; emulation::gb::Cpu::CPL
PUBLIC	?PREFIX_CB@Cpu@gb@emulation@@AEAAXXZ		; emulation::gb::Cpu::PREFIX_CB
PUBLIC	?JR@Cpu@gb@emulation@@AEAAXXZ			; emulation::gb::Cpu::JR
PUBLIC	?JP@Cpu@gb@emulation@@AEAAXXZ			; emulation::gb::Cpu::JP
PUBLIC	?JP_HL@Cpu@gb@emulation@@AEAAXXZ		; emulation::gb::Cpu::JP_HL
PUBLIC	?CALL@Cpu@gb@emulation@@AEAAXXZ			; emulation::gb::Cpu::CALL
PUBLIC	?RET@Cpu@gb@emulation@@AEAAXXZ			; emulation::gb::Cpu::RET
PUBLIC	?RLCA@Cpu@gb@emulation@@AEAAXXZ			; emulation::gb::Cpu::RLCA
PUBLIC	?RRCA@Cpu@gb@emulation@@AEAAXXZ			; emulation::gb::Cpu::RRCA
PUBLIC	?RLA@Cpu@gb@emulation@@AEAAXXZ			; emulation::gb::Cpu::RLA
PUBLIC	?RRA@Cpu@gb@emulation@@AEAAXXZ			; emulation::gb::Cpu::RRA
PUBLIC	?CP@Cpu@gb@emulation@@AEAAXEE@Z			; emulation::gb::Cpu::CP
PUBLIC	?CP_d8@Cpu@gb@emulation@@AEAAXXZ		; emulation::gb::Cpu::CP_d8
PUBLIC	?CP_HL@Cpu@gb@emulation@@AEAAXXZ		; emulation::gb::Cpu::CP_HL
PUBLIC	?DI@Cpu@gb@emulation@@AEAAXXZ			; emulation::gb::Cpu::DI
PUBLIC	?EI@Cpu@gb@emulation@@AEAAXXZ			; emulation::gb::Cpu::EI
PUBLIC	?RETI@Cpu@gb@emulation@@AEAAXXZ			; emulation::gb::Cpu::RETI
PUBLIC	?DAA@Cpu@gb@emulation@@AEAAXXZ			; emulation::gb::Cpu::DAA
PUBLIC	?cartridge@Emu@gb@emulation@@QEAAPEAVCartridge@23@XZ ; emulation::gb::Emu::cartridge
PUBLIC	?memory@Emu@gb@emulation@@QEAAPEAVMemory@23@XZ	; emulation::gb::Emu::memory
PUBLIC	?lcd_driver@Emu@gb@emulation@@QEAAPEAVLCDDriver@23@XZ ; emulation::gb::Emu::lcd_driver
PUBLIC	?sc@Emu@gb@emulation@@QEAAPEAVSoundController@23@XZ ; emulation::gb::Emu::sc
PUBLIC	?timer@Emu@gb@emulation@@QEAAPEAVTimer@23@XZ	; emulation::gb::Emu::timer
PUBLIC	??$LDrd16@$00@Cpu@gb@emulation@@AEAAXXZ		; emulation::gb::Cpu::LDrd16<1>
PUBLIC	??$LD$rr@$00$00@Cpu@gb@emulation@@AEAAXXZ	; emulation::gb::Cpu::LD$rr<1,1>
PUBLIC	??$INC_16bit@$00@Cpu@gb@emulation@@AEAAXXZ	; emulation::gb::Cpu::INC_16bit<1>
PUBLIC	??$INC_8bit@$02$0A@@Cpu@gb@emulation@@AEAAXXZ	; emulation::gb::Cpu::INC_8bit<3,0>
PUBLIC	??$DEC_8bit@$02$0A@@Cpu@gb@emulation@@AEAAXXZ	; emulation::gb::Cpu::DEC_8bit<3,0>
PUBLIC	??$LD@$02$0A@$09@Cpu@gb@emulation@@AEAAXXZ	; emulation::gb::Cpu::LD<3,0,10>
PUBLIC	??$ADD_16bit@$02$00@Cpu@gb@emulation@@AEAAXXZ	; emulation::gb::Cpu::ADD_16bit<3,1>
PUBLIC	??$LDr$r@$00$00@Cpu@gb@emulation@@AEAAXXZ	; emulation::gb::Cpu::LDr$r<1,1>
PUBLIC	??$DEC_16bit@$00@Cpu@gb@emulation@@AEAAXXZ	; emulation::gb::Cpu::DEC_16bit<1>
PUBLIC	??$INC_8bit@$01$0A@@Cpu@gb@emulation@@AEAAXXZ	; emulation::gb::Cpu::INC_8bit<2,0>
PUBLIC	??$DEC_8bit@$01$0A@@Cpu@gb@emulation@@AEAAXXZ	; emulation::gb::Cpu::DEC_8bit<2,0>
PUBLIC	??$LD@$01$0A@$09@Cpu@gb@emulation@@AEAAXXZ	; emulation::gb::Cpu::LD<2,0,10>
PUBLIC	??$LDrd16@$01@Cpu@gb@emulation@@AEAAXXZ		; emulation::gb::Cpu::LDrd16<2>
PUBLIC	??$LD$rr@$01$00@Cpu@gb@emulation@@AEAAXXZ	; emulation::gb::Cpu::LD$rr<2,1>
PUBLIC	??$INC_16bit@$01@Cpu@gb@emulation@@AEAAXXZ	; emulation::gb::Cpu::INC_16bit<2>
PUBLIC	??$INC_8bit@$04$0A@@Cpu@gb@emulation@@AEAAXXZ	; emulation::gb::Cpu::INC_8bit<5,0>
PUBLIC	??$DEC_8bit@$04$0A@@Cpu@gb@emulation@@AEAAXXZ	; emulation::gb::Cpu::DEC_8bit<5,0>
PUBLIC	??$LD@$04$0A@$09@Cpu@gb@emulation@@AEAAXXZ	; emulation::gb::Cpu::LD<5,0,10>
PUBLIC	??$ADD_16bit@$02$01@Cpu@gb@emulation@@AEAAXXZ	; emulation::gb::Cpu::ADD_16bit<3,2>
PUBLIC	??$LDr$r@$00$01@Cpu@gb@emulation@@AEAAXXZ	; emulation::gb::Cpu::LDr$r<1,2>
PUBLIC	??$DEC_16bit@$01@Cpu@gb@emulation@@AEAAXXZ	; emulation::gb::Cpu::DEC_16bit<2>
PUBLIC	??$INC_8bit@$03$0A@@Cpu@gb@emulation@@AEAAXXZ	; emulation::gb::Cpu::INC_8bit<4,0>
PUBLIC	??$DEC_8bit@$03$0A@@Cpu@gb@emulation@@AEAAXXZ	; emulation::gb::Cpu::DEC_8bit<4,0>
PUBLIC	??$LD@$03$0A@$09@Cpu@gb@emulation@@AEAAXXZ	; emulation::gb::Cpu::LD<4,0,10>
PUBLIC	??$JR_cc@$06$00@Cpu@gb@emulation@@AEAAXXZ	; emulation::gb::Cpu::JR_cc<7,1>
PUBLIC	??$LDrd16@$02@Cpu@gb@emulation@@AEAAXXZ		; emulation::gb::Cpu::LDrd16<3>
PUBLIC	??$LDI$regreg@$02$00@Cpu@gb@emulation@@AEAAXXZ	; emulation::gb::Cpu::LDI$regreg<3,1>
PUBLIC	??$INC_16bit@$02@Cpu@gb@emulation@@AEAAXXZ	; emulation::gb::Cpu::INC_16bit<3>
PUBLIC	??$INC_8bit@$06$0A@@Cpu@gb@emulation@@AEAAXXZ	; emulation::gb::Cpu::INC_8bit<7,0>
PUBLIC	??$DEC_8bit@$06$0A@@Cpu@gb@emulation@@AEAAXXZ	; emulation::gb::Cpu::DEC_8bit<7,0>
PUBLIC	??$LD@$06$0A@$09@Cpu@gb@emulation@@AEAAXXZ	; emulation::gb::Cpu::LD<7,0,10>
PUBLIC	??$JR_cc@$06$0A@@Cpu@gb@emulation@@AEAAXXZ	; emulation::gb::Cpu::JR_cc<7,0>
PUBLIC	??$ADD_16bit@$02$02@Cpu@gb@emulation@@AEAAXXZ	; emulation::gb::Cpu::ADD_16bit<3,3>
PUBLIC	??$LDIreg$reg@$00$02@Cpu@gb@emulation@@AEAAXXZ	; emulation::gb::Cpu::LDIreg$reg<1,3>
PUBLIC	??$DEC_16bit@$02@Cpu@gb@emulation@@AEAAXXZ	; emulation::gb::Cpu::DEC_16bit<3>
PUBLIC	??$INC_8bit@$05$0A@@Cpu@gb@emulation@@AEAAXXZ	; emulation::gb::Cpu::INC_8bit<6,0>
PUBLIC	??$DEC_8bit@$05$0A@@Cpu@gb@emulation@@AEAAXXZ	; emulation::gb::Cpu::DEC_8bit<6,0>
PUBLIC	??$LD@$05$0A@$09@Cpu@gb@emulation@@AEAAXXZ	; emulation::gb::Cpu::LD<6,0,10>
PUBLIC	??$JR_cc@$03$00@Cpu@gb@emulation@@AEAAXXZ	; emulation::gb::Cpu::JR_cc<4,1>
PUBLIC	??$LDrd16@$03@Cpu@gb@emulation@@AEAAXXZ		; emulation::gb::Cpu::LDrd16<4>
PUBLIC	??$LDD$regreg@$02$00@Cpu@gb@emulation@@AEAAXXZ	; emulation::gb::Cpu::LDD$regreg<3,1>
PUBLIC	??$INC_16bit@$03@Cpu@gb@emulation@@AEAAXXZ	; emulation::gb::Cpu::INC_16bit<4>
PUBLIC	??$INC_8bit@$02$00@Cpu@gb@emulation@@AEAAXXZ	; emulation::gb::Cpu::INC_8bit<3,1>
PUBLIC	??$DEC_8bit@$02$00@Cpu@gb@emulation@@AEAAXXZ	; emulation::gb::Cpu::DEC_8bit<3,1>
PUBLIC	??$LD@$02$0A@$0L@@Cpu@gb@emulation@@AEAAXXZ	; emulation::gb::Cpu::LD<3,0,11>
PUBLIC	??$JR_cc@$03$0A@@Cpu@gb@emulation@@AEAAXXZ	; emulation::gb::Cpu::JR_cc<4,0>
PUBLIC	??$ADD_16bit@$02$03@Cpu@gb@emulation@@AEAAXXZ	; emulation::gb::Cpu::ADD_16bit<3,4>
PUBLIC	??$LDDreg$reg@$00$02@Cpu@gb@emulation@@AEAAXXZ	; emulation::gb::Cpu::LDDreg$reg<1,3>
PUBLIC	??$DEC_16bit@$03@Cpu@gb@emulation@@AEAAXXZ	; emulation::gb::Cpu::DEC_16bit<4>
PUBLIC	??$INC_8bit@$00$0A@@Cpu@gb@emulation@@AEAAXXZ	; emulation::gb::Cpu::INC_8bit<1,0>
PUBLIC	??$DEC_8bit@$00$0A@@Cpu@gb@emulation@@AEAAXXZ	; emulation::gb::Cpu::DEC_8bit<1,0>
PUBLIC	??$LD@$00$0A@$09@Cpu@gb@emulation@@AEAAXXZ	; emulation::gb::Cpu::LD<1,0,10>
PUBLIC	??$LDrr@$02$02@Cpu@gb@emulation@@AEAAXXZ	; emulation::gb::Cpu::LDrr<3,3>
PUBLIC	??$LDrr@$02$01@Cpu@gb@emulation@@AEAAXXZ	; emulation::gb::Cpu::LDrr<3,2>
PUBLIC	??$LDrr@$02$04@Cpu@gb@emulation@@AEAAXXZ	; emulation::gb::Cpu::LDrr<3,5>
PUBLIC	??$LDrr@$02$03@Cpu@gb@emulation@@AEAAXXZ	; emulation::gb::Cpu::LDrr<3,4>
PUBLIC	??$LDrr@$02$06@Cpu@gb@emulation@@AEAAXXZ	; emulation::gb::Cpu::LDrr<3,7>
PUBLIC	??$LDrr@$02$05@Cpu@gb@emulation@@AEAAXXZ	; emulation::gb::Cpu::LDrr<3,6>
PUBLIC	??$LDr$r@$02$02@Cpu@gb@emulation@@AEAAXXZ	; emulation::gb::Cpu::LDr$r<3,3>
PUBLIC	??$LDrr@$02$00@Cpu@gb@emulation@@AEAAXXZ	; emulation::gb::Cpu::LDrr<3,1>
PUBLIC	??$LDrr@$01$02@Cpu@gb@emulation@@AEAAXXZ	; emulation::gb::Cpu::LDrr<2,3>
PUBLIC	??$LDrr@$01$01@Cpu@gb@emulation@@AEAAXXZ	; emulation::gb::Cpu::LDrr<2,2>
PUBLIC	??$LDrr@$01$04@Cpu@gb@emulation@@AEAAXXZ	; emulation::gb::Cpu::LDrr<2,5>
PUBLIC	??$LDrr@$01$03@Cpu@gb@emulation@@AEAAXXZ	; emulation::gb::Cpu::LDrr<2,4>
PUBLIC	??$LDrr@$01$06@Cpu@gb@emulation@@AEAAXXZ	; emulation::gb::Cpu::LDrr<2,7>
PUBLIC	??$LDrr@$01$05@Cpu@gb@emulation@@AEAAXXZ	; emulation::gb::Cpu::LDrr<2,6>
PUBLIC	??$LDr$r@$01$02@Cpu@gb@emulation@@AEAAXXZ	; emulation::gb::Cpu::LDr$r<2,3>
PUBLIC	??$LDrr@$01$00@Cpu@gb@emulation@@AEAAXXZ	; emulation::gb::Cpu::LDrr<2,1>
PUBLIC	??$LDrr@$04$02@Cpu@gb@emulation@@AEAAXXZ	; emulation::gb::Cpu::LDrr<5,3>
PUBLIC	??$LDrr@$04$01@Cpu@gb@emulation@@AEAAXXZ	; emulation::gb::Cpu::LDrr<5,2>
PUBLIC	??$LDrr@$04$04@Cpu@gb@emulation@@AEAAXXZ	; emulation::gb::Cpu::LDrr<5,5>
PUBLIC	??$LDrr@$04$03@Cpu@gb@emulation@@AEAAXXZ	; emulation::gb::Cpu::LDrr<5,4>
PUBLIC	??$LDrr@$04$06@Cpu@gb@emulation@@AEAAXXZ	; emulation::gb::Cpu::LDrr<5,7>
PUBLIC	??$LDrr@$04$05@Cpu@gb@emulation@@AEAAXXZ	; emulation::gb::Cpu::LDrr<5,6>
PUBLIC	??$LDr$r@$04$02@Cpu@gb@emulation@@AEAAXXZ	; emulation::gb::Cpu::LDr$r<5,3>
PUBLIC	??$LDrr@$04$00@Cpu@gb@emulation@@AEAAXXZ	; emulation::gb::Cpu::LDrr<5,1>
PUBLIC	??$LDrr@$03$02@Cpu@gb@emulation@@AEAAXXZ	; emulation::gb::Cpu::LDrr<4,3>
PUBLIC	??$LDrr@$03$01@Cpu@gb@emulation@@AEAAXXZ	; emulation::gb::Cpu::LDrr<4,2>
PUBLIC	??$LDrr@$03$04@Cpu@gb@emulation@@AEAAXXZ	; emulation::gb::Cpu::LDrr<4,5>
PUBLIC	??$LDrr@$03$03@Cpu@gb@emulation@@AEAAXXZ	; emulation::gb::Cpu::LDrr<4,4>
PUBLIC	??$LDrr@$03$06@Cpu@gb@emulation@@AEAAXXZ	; emulation::gb::Cpu::LDrr<4,7>
PUBLIC	??$LDrr@$03$05@Cpu@gb@emulation@@AEAAXXZ	; emulation::gb::Cpu::LDrr<4,6>
PUBLIC	??$LDr$r@$03$02@Cpu@gb@emulation@@AEAAXXZ	; emulation::gb::Cpu::LDr$r<4,3>
PUBLIC	??$LDrr@$03$00@Cpu@gb@emulation@@AEAAXXZ	; emulation::gb::Cpu::LDrr<4,1>
PUBLIC	??$LDrr@$06$02@Cpu@gb@emulation@@AEAAXXZ	; emulation::gb::Cpu::LDrr<7,3>
PUBLIC	??$LDrr@$06$01@Cpu@gb@emulation@@AEAAXXZ	; emulation::gb::Cpu::LDrr<7,2>
PUBLIC	??$LDrr@$06$04@Cpu@gb@emulation@@AEAAXXZ	; emulation::gb::Cpu::LDrr<7,5>
PUBLIC	??$LDrr@$06$03@Cpu@gb@emulation@@AEAAXXZ	; emulation::gb::Cpu::LDrr<7,4>
PUBLIC	??$LDrr@$06$06@Cpu@gb@emulation@@AEAAXXZ	; emulation::gb::Cpu::LDrr<7,7>
PUBLIC	??$LDrr@$06$05@Cpu@gb@emulation@@AEAAXXZ	; emulation::gb::Cpu::LDrr<7,6>
PUBLIC	??$LDr$r@$06$02@Cpu@gb@emulation@@AEAAXXZ	; emulation::gb::Cpu::LDr$r<7,3>
PUBLIC	??$LDrr@$06$00@Cpu@gb@emulation@@AEAAXXZ	; emulation::gb::Cpu::LDrr<7,1>
PUBLIC	??$LDrr@$05$02@Cpu@gb@emulation@@AEAAXXZ	; emulation::gb::Cpu::LDrr<6,3>
PUBLIC	??$LDrr@$05$01@Cpu@gb@emulation@@AEAAXXZ	; emulation::gb::Cpu::LDrr<6,2>
PUBLIC	??$LDrr@$05$04@Cpu@gb@emulation@@AEAAXXZ	; emulation::gb::Cpu::LDrr<6,5>
PUBLIC	??$LDrr@$05$03@Cpu@gb@emulation@@AEAAXXZ	; emulation::gb::Cpu::LDrr<6,4>
PUBLIC	??$LDrr@$05$06@Cpu@gb@emulation@@AEAAXXZ	; emulation::gb::Cpu::LDrr<6,7>
PUBLIC	??$LDrr@$05$05@Cpu@gb@emulation@@AEAAXXZ	; emulation::gb::Cpu::LDrr<6,6>
PUBLIC	??$LDr$r@$05$02@Cpu@gb@emulation@@AEAAXXZ	; emulation::gb::Cpu::LDr$r<6,3>
PUBLIC	??$LDrr@$05$00@Cpu@gb@emulation@@AEAAXXZ	; emulation::gb::Cpu::LDrr<6,1>
PUBLIC	??$LD$rr@$02$02@Cpu@gb@emulation@@AEAAXXZ	; emulation::gb::Cpu::LD$rr<3,3>
PUBLIC	??$LD$rr@$02$01@Cpu@gb@emulation@@AEAAXXZ	; emulation::gb::Cpu::LD$rr<3,2>
PUBLIC	??$LD$rr@$02$04@Cpu@gb@emulation@@AEAAXXZ	; emulation::gb::Cpu::LD$rr<3,5>
PUBLIC	??$LD$rr@$02$03@Cpu@gb@emulation@@AEAAXXZ	; emulation::gb::Cpu::LD$rr<3,4>
PUBLIC	??$LD$rr@$02$06@Cpu@gb@emulation@@AEAAXXZ	; emulation::gb::Cpu::LD$rr<3,7>
PUBLIC	??$LD$rr@$02$05@Cpu@gb@emulation@@AEAAXXZ	; emulation::gb::Cpu::LD$rr<3,6>
PUBLIC	??$LD$rr@$02$00@Cpu@gb@emulation@@AEAAXXZ	; emulation::gb::Cpu::LD$rr<3,1>
PUBLIC	??$LDrr@$00$02@Cpu@gb@emulation@@AEAAXXZ	; emulation::gb::Cpu::LDrr<1,3>
PUBLIC	??$LDrr@$00$01@Cpu@gb@emulation@@AEAAXXZ	; emulation::gb::Cpu::LDrr<1,2>
PUBLIC	??$LDrr@$00$04@Cpu@gb@emulation@@AEAAXXZ	; emulation::gb::Cpu::LDrr<1,5>
PUBLIC	??$LDrr@$00$03@Cpu@gb@emulation@@AEAAXXZ	; emulation::gb::Cpu::LDrr<1,4>
PUBLIC	??$LDrr@$00$06@Cpu@gb@emulation@@AEAAXXZ	; emulation::gb::Cpu::LDrr<1,7>
PUBLIC	??$LDrr@$00$05@Cpu@gb@emulation@@AEAAXXZ	; emulation::gb::Cpu::LDrr<1,6>
PUBLIC	??$LDr$r@$00$02@Cpu@gb@emulation@@AEAAXXZ	; emulation::gb::Cpu::LDr$r<1,3>
PUBLIC	??$LDrr@$00$00@Cpu@gb@emulation@@AEAAXXZ	; emulation::gb::Cpu::LDrr<1,1>
PUBLIC	??$ADD@$00$02$0A@@Cpu@gb@emulation@@AEAAXXZ	; emulation::gb::Cpu::ADD<1,3,0>
PUBLIC	??$ADD@$00$01$0A@@Cpu@gb@emulation@@AEAAXXZ	; emulation::gb::Cpu::ADD<1,2,0>
PUBLIC	??$ADD@$00$04$0A@@Cpu@gb@emulation@@AEAAXXZ	; emulation::gb::Cpu::ADD<1,5,0>
PUBLIC	??$ADD@$00$03$0A@@Cpu@gb@emulation@@AEAAXXZ	; emulation::gb::Cpu::ADD<1,4,0>
PUBLIC	??$ADD@$00$06$0A@@Cpu@gb@emulation@@AEAAXXZ	; emulation::gb::Cpu::ADD<1,7,0>
PUBLIC	??$ADD@$00$05$0A@@Cpu@gb@emulation@@AEAAXXZ	; emulation::gb::Cpu::ADD<1,6,0>
PUBLIC	??$ADD@$00$02$00@Cpu@gb@emulation@@AEAAXXZ	; emulation::gb::Cpu::ADD<1,3,1>
PUBLIC	??$ADD@$00$00$0A@@Cpu@gb@emulation@@AEAAXXZ	; emulation::gb::Cpu::ADD<1,1,0>
PUBLIC	??$ADC@$00$02$0A@@Cpu@gb@emulation@@AEAAXXZ	; emulation::gb::Cpu::ADC<1,3,0>
PUBLIC	??$ADC@$00$01$0A@@Cpu@gb@emulation@@AEAAXXZ	; emulation::gb::Cpu::ADC<1,2,0>
PUBLIC	??$ADC@$00$04$0A@@Cpu@gb@emulation@@AEAAXXZ	; emulation::gb::Cpu::ADC<1,5,0>
PUBLIC	??$ADC@$00$03$0A@@Cpu@gb@emulation@@AEAAXXZ	; emulation::gb::Cpu::ADC<1,4,0>
PUBLIC	??$ADC@$00$06$0A@@Cpu@gb@emulation@@AEAAXXZ	; emulation::gb::Cpu::ADC<1,7,0>
PUBLIC	??$ADC@$00$05$0A@@Cpu@gb@emulation@@AEAAXXZ	; emulation::gb::Cpu::ADC<1,6,0>
PUBLIC	??$ADC@$00$02$00@Cpu@gb@emulation@@AEAAXXZ	; emulation::gb::Cpu::ADC<1,3,1>
PUBLIC	??$ADC@$00$00$0A@@Cpu@gb@emulation@@AEAAXXZ	; emulation::gb::Cpu::ADC<1,1,0>
PUBLIC	??$SUB@$00$02$0A@@Cpu@gb@emulation@@AEAAXXZ	; emulation::gb::Cpu::SUB<1,3,0>
PUBLIC	??$SUB@$00$01$0A@@Cpu@gb@emulation@@AEAAXXZ	; emulation::gb::Cpu::SUB<1,2,0>
PUBLIC	??$SUB@$00$04$0A@@Cpu@gb@emulation@@AEAAXXZ	; emulation::gb::Cpu::SUB<1,5,0>
PUBLIC	??$SUB@$00$03$0A@@Cpu@gb@emulation@@AEAAXXZ	; emulation::gb::Cpu::SUB<1,4,0>
PUBLIC	??$SUB@$00$06$0A@@Cpu@gb@emulation@@AEAAXXZ	; emulation::gb::Cpu::SUB<1,7,0>
PUBLIC	??$SUB@$00$05$0A@@Cpu@gb@emulation@@AEAAXXZ	; emulation::gb::Cpu::SUB<1,6,0>
PUBLIC	??$SUB@$00$02$00@Cpu@gb@emulation@@AEAAXXZ	; emulation::gb::Cpu::SUB<1,3,1>
PUBLIC	??$SUB@$00$00$0A@@Cpu@gb@emulation@@AEAAXXZ	; emulation::gb::Cpu::SUB<1,1,0>
PUBLIC	??$SBC@$00$02$0A@@Cpu@gb@emulation@@AEAAXXZ	; emulation::gb::Cpu::SBC<1,3,0>
PUBLIC	??$SBC@$00$01$0A@@Cpu@gb@emulation@@AEAAXXZ	; emulation::gb::Cpu::SBC<1,2,0>
PUBLIC	??$SBC@$00$04$0A@@Cpu@gb@emulation@@AEAAXXZ	; emulation::gb::Cpu::SBC<1,5,0>
PUBLIC	??$SBC@$00$03$0A@@Cpu@gb@emulation@@AEAAXXZ	; emulation::gb::Cpu::SBC<1,4,0>
PUBLIC	??$SBC@$00$06$0A@@Cpu@gb@emulation@@AEAAXXZ	; emulation::gb::Cpu::SBC<1,7,0>
PUBLIC	??$SBC@$00$05$0A@@Cpu@gb@emulation@@AEAAXXZ	; emulation::gb::Cpu::SBC<1,6,0>
PUBLIC	??$SBC@$00$02$00@Cpu@gb@emulation@@AEAAXXZ	; emulation::gb::Cpu::SBC<1,3,1>
PUBLIC	??$SBC@$00$00$0A@@Cpu@gb@emulation@@AEAAXXZ	; emulation::gb::Cpu::SBC<1,1,0>
PUBLIC	??$AND@$00$02$0A@@Cpu@gb@emulation@@AEAAXXZ	; emulation::gb::Cpu::AND<1,3,0>
PUBLIC	??$AND@$00$01$0A@@Cpu@gb@emulation@@AEAAXXZ	; emulation::gb::Cpu::AND<1,2,0>
PUBLIC	??$AND@$00$04$0A@@Cpu@gb@emulation@@AEAAXXZ	; emulation::gb::Cpu::AND<1,5,0>
PUBLIC	??$AND@$00$03$0A@@Cpu@gb@emulation@@AEAAXXZ	; emulation::gb::Cpu::AND<1,4,0>
PUBLIC	??$AND@$00$06$0A@@Cpu@gb@emulation@@AEAAXXZ	; emulation::gb::Cpu::AND<1,7,0>
PUBLIC	??$AND@$00$05$0A@@Cpu@gb@emulation@@AEAAXXZ	; emulation::gb::Cpu::AND<1,6,0>
PUBLIC	??$AND@$00$02$00@Cpu@gb@emulation@@AEAAXXZ	; emulation::gb::Cpu::AND<1,3,1>
PUBLIC	??$AND@$00$00$0A@@Cpu@gb@emulation@@AEAAXXZ	; emulation::gb::Cpu::AND<1,1,0>
PUBLIC	??$XOR@$00$02$0A@@Cpu@gb@emulation@@AEAAXXZ	; emulation::gb::Cpu::XOR<1,3,0>
PUBLIC	??$XOR@$00$01$0A@@Cpu@gb@emulation@@AEAAXXZ	; emulation::gb::Cpu::XOR<1,2,0>
PUBLIC	??$XOR@$00$04$0A@@Cpu@gb@emulation@@AEAAXXZ	; emulation::gb::Cpu::XOR<1,5,0>
PUBLIC	??$XOR@$00$03$0A@@Cpu@gb@emulation@@AEAAXXZ	; emulation::gb::Cpu::XOR<1,4,0>
PUBLIC	??$XOR@$00$06$0A@@Cpu@gb@emulation@@AEAAXXZ	; emulation::gb::Cpu::XOR<1,7,0>
PUBLIC	??$XOR@$00$05$0A@@Cpu@gb@emulation@@AEAAXXZ	; emulation::gb::Cpu::XOR<1,6,0>
PUBLIC	??$XOR@$00$02$00@Cpu@gb@emulation@@AEAAXXZ	; emulation::gb::Cpu::XOR<1,3,1>
PUBLIC	??$XOR@$00$00$0A@@Cpu@gb@emulation@@AEAAXXZ	; emulation::gb::Cpu::XOR<1,1,0>
PUBLIC	??$OR@$00$02$0A@@Cpu@gb@emulation@@AEAAXXZ	; emulation::gb::Cpu::OR<1,3,0>
PUBLIC	??$OR@$00$01$0A@@Cpu@gb@emulation@@AEAAXXZ	; emulation::gb::Cpu::OR<1,2,0>
PUBLIC	??$OR@$00$04$0A@@Cpu@gb@emulation@@AEAAXXZ	; emulation::gb::Cpu::OR<1,5,0>
PUBLIC	??$OR@$00$03$0A@@Cpu@gb@emulation@@AEAAXXZ	; emulation::gb::Cpu::OR<1,4,0>
PUBLIC	??$OR@$00$06$0A@@Cpu@gb@emulation@@AEAAXXZ	; emulation::gb::Cpu::OR<1,7,0>
PUBLIC	??$OR@$00$05$0A@@Cpu@gb@emulation@@AEAAXXZ	; emulation::gb::Cpu::OR<1,6,0>
PUBLIC	??$OR@$00$02$00@Cpu@gb@emulation@@AEAAXXZ	; emulation::gb::Cpu::OR<1,3,1>
PUBLIC	??$OR@$00$00$0A@@Cpu@gb@emulation@@AEAAXXZ	; emulation::gb::Cpu::OR<1,1,0>
PUBLIC	??$CP_reg@$02@Cpu@gb@emulation@@AEAAXXZ		; emulation::gb::Cpu::CP_reg<3>
PUBLIC	??$CP_reg@$01@Cpu@gb@emulation@@AEAAXXZ		; emulation::gb::Cpu::CP_reg<2>
PUBLIC	??$CP_reg@$04@Cpu@gb@emulation@@AEAAXXZ		; emulation::gb::Cpu::CP_reg<5>
PUBLIC	??$CP_reg@$03@Cpu@gb@emulation@@AEAAXXZ		; emulation::gb::Cpu::CP_reg<4>
PUBLIC	??$CP_reg@$06@Cpu@gb@emulation@@AEAAXXZ		; emulation::gb::Cpu::CP_reg<7>
PUBLIC	??$CP_reg@$05@Cpu@gb@emulation@@AEAAXXZ		; emulation::gb::Cpu::CP_reg<6>
PUBLIC	??$CP_reg@$00@Cpu@gb@emulation@@AEAAXXZ		; emulation::gb::Cpu::CP_reg<1>
PUBLIC	??$RET_cc@$06$00@Cpu@gb@emulation@@AEAAXXZ	; emulation::gb::Cpu::RET_cc<7,1>
PUBLIC	??$POP@$00@Cpu@gb@emulation@@AEAAXXZ		; emulation::gb::Cpu::POP<1>
PUBLIC	??$JP_cc@$06$00@Cpu@gb@emulation@@AEAAXXZ	; emulation::gb::Cpu::JP_cc<7,1>
PUBLIC	??$CALL_cc@$06$00@Cpu@gb@emulation@@AEAAXXZ	; emulation::gb::Cpu::CALL_cc<7,1>
PUBLIC	??$PUSH@$00@Cpu@gb@emulation@@AEAAXXZ		; emulation::gb::Cpu::PUSH<1>
PUBLIC	??$ADD@$00$0A@$01@Cpu@gb@emulation@@AEAAXXZ	; emulation::gb::Cpu::ADD<1,0,2>
PUBLIC	??$RET_cc@$06$0A@@Cpu@gb@emulation@@AEAAXXZ	; emulation::gb::Cpu::RET_cc<7,0>
PUBLIC	??$JP_cc@$06$0A@@Cpu@gb@emulation@@AEAAXXZ	; emulation::gb::Cpu::JP_cc<7,0>
PUBLIC	??$CALL_cc@$06$0A@@Cpu@gb@emulation@@AEAAXXZ	; emulation::gb::Cpu::CALL_cc<7,0>
PUBLIC	??$ADC@$00$0A@$01@Cpu@gb@emulation@@AEAAXXZ	; emulation::gb::Cpu::ADC<1,0,2>
PUBLIC	??$RET_cc@$03$00@Cpu@gb@emulation@@AEAAXXZ	; emulation::gb::Cpu::RET_cc<4,1>
PUBLIC	??$POP@$01@Cpu@gb@emulation@@AEAAXXZ		; emulation::gb::Cpu::POP<2>
PUBLIC	??$JP_cc@$03$00@Cpu@gb@emulation@@AEAAXXZ	; emulation::gb::Cpu::JP_cc<4,1>
PUBLIC	??$CALL_cc@$03$00@Cpu@gb@emulation@@AEAAXXZ	; emulation::gb::Cpu::CALL_cc<4,1>
PUBLIC	??$PUSH@$01@Cpu@gb@emulation@@AEAAXXZ		; emulation::gb::Cpu::PUSH<2>
PUBLIC	??$SUB@$00$0A@$01@Cpu@gb@emulation@@AEAAXXZ	; emulation::gb::Cpu::SUB<1,0,2>
PUBLIC	??$RET_cc@$03$0A@@Cpu@gb@emulation@@AEAAXXZ	; emulation::gb::Cpu::RET_cc<4,0>
PUBLIC	??$JP_cc@$03$0A@@Cpu@gb@emulation@@AEAAXXZ	; emulation::gb::Cpu::JP_cc<4,0>
PUBLIC	??$CALL_cc@$03$0A@@Cpu@gb@emulation@@AEAAXXZ	; emulation::gb::Cpu::CALL_cc<4,0>
PUBLIC	??$SBC@$00$0A@$01@Cpu@gb@emulation@@AEAAXXZ	; emulation::gb::Cpu::SBC<1,0,2>
PUBLIC	??$LD@$0A@$00$0M@@Cpu@gb@emulation@@AEAAXXZ	; emulation::gb::Cpu::LD<0,1,12>
PUBLIC	??$POP@$02@Cpu@gb@emulation@@AEAAXXZ		; emulation::gb::Cpu::POP<3>
PUBLIC	??$LD$FF00rr@$01$00@Cpu@gb@emulation@@AEAAXXZ	; emulation::gb::Cpu::LD$FF00rr<2,1>
PUBLIC	??$PUSH@$02@Cpu@gb@emulation@@AEAAXXZ		; emulation::gb::Cpu::PUSH<3>
PUBLIC	??$AND@$00$0A@$01@Cpu@gb@emulation@@AEAAXXZ	; emulation::gb::Cpu::AND<1,0,2>
PUBLIC	??$LD@$0A@$00$0O@@Cpu@gb@emulation@@AEAAXXZ	; emulation::gb::Cpu::LD<0,1,14>
PUBLIC	??$XOR@$00$0A@$01@Cpu@gb@emulation@@AEAAXXZ	; emulation::gb::Cpu::XOR<1,0,2>
PUBLIC	??$LD@$00$0A@$0N@@Cpu@gb@emulation@@AEAAXXZ	; emulation::gb::Cpu::LD<1,0,13>
PUBLIC	??$POP@$0A@@Cpu@gb@emulation@@AEAAXXZ		; emulation::gb::Cpu::POP<0>
PUBLIC	??$LDr$FF00r@$00$01@Cpu@gb@emulation@@AEAAXXZ	; emulation::gb::Cpu::LDr$FF00r<1,2>
PUBLIC	??$PUSH@$0A@@Cpu@gb@emulation@@AEAAXXZ		; emulation::gb::Cpu::PUSH<0>
PUBLIC	??$OR@$00$0A@$01@Cpu@gb@emulation@@AEAAXXZ	; emulation::gb::Cpu::OR<1,0,2>
PUBLIC	??$LD@$00$0A@$0P@@Cpu@gb@emulation@@AEAAXXZ	; emulation::gb::Cpu::LD<1,0,15>
PUBLIC	??$arithmeticMode@$00$02$0A@@Cpu@gb@emulation@@AEAAXAEAE0@Z ; emulation::gb::Cpu::arithmeticMode<1,3,0>
PUBLIC	??$arithmeticMode@$00$01$0A@@Cpu@gb@emulation@@AEAAXAEAE0@Z ; emulation::gb::Cpu::arithmeticMode<1,2,0>
PUBLIC	??$arithmeticMode@$00$04$0A@@Cpu@gb@emulation@@AEAAXAEAE0@Z ; emulation::gb::Cpu::arithmeticMode<1,5,0>
PUBLIC	??$arithmeticMode@$00$03$0A@@Cpu@gb@emulation@@AEAAXAEAE0@Z ; emulation::gb::Cpu::arithmeticMode<1,4,0>
PUBLIC	??$arithmeticMode@$00$06$0A@@Cpu@gb@emulation@@AEAAXAEAE0@Z ; emulation::gb::Cpu::arithmeticMode<1,7,0>
PUBLIC	??$arithmeticMode@$00$05$0A@@Cpu@gb@emulation@@AEAAXAEAE0@Z ; emulation::gb::Cpu::arithmeticMode<1,6,0>
PUBLIC	??$arithmeticMode@$00$02$00@Cpu@gb@emulation@@AEAAXAEAE0@Z ; emulation::gb::Cpu::arithmeticMode<1,3,1>
PUBLIC	??$arithmeticMode@$00$00$0A@@Cpu@gb@emulation@@AEAAXAEAE0@Z ; emulation::gb::Cpu::arithmeticMode<1,1,0>
PUBLIC	??$arithmeticMode@$00$0A@$01@Cpu@gb@emulation@@AEAAXAEAE0@Z ; emulation::gb::Cpu::arithmeticMode<1,0,2>
PUBLIC	??_7Component@gb@emulation@@6B@			; emulation::gb::Component::`vftable'
PUBLIC	??_7Cpu@gb@emulation@@6B@			; emulation::gb::Cpu::`vftable'
PUBLIC	??_R1A@?0A@EA@Component@gb@emulation@@8		; emulation::gb::Component::`RTTI Base Class Descriptor at (0,-1,0,64)'
PUBLIC	??_R0?AVComponent@gb@emulation@@@8		; emulation::gb::Component `RTTI Type Descriptor'
PUBLIC	??_R3Component@gb@emulation@@8			; emulation::gb::Component::`RTTI Class Hierarchy Descriptor'
PUBLIC	??_R2Component@gb@emulation@@8			; emulation::gb::Component::`RTTI Base Class Array'
PUBLIC	??_R4Cpu@gb@emulation@@6B@			; emulation::gb::Cpu::`RTTI Complete Object Locator'
PUBLIC	??_R0?AVCpu@gb@emulation@@@8			; emulation::gb::Cpu `RTTI Type Descriptor'
PUBLIC	??_R3Cpu@gb@emulation@@8			; emulation::gb::Cpu::`RTTI Class Hierarchy Descriptor'
PUBLIC	??_R2Cpu@gb@emulation@@8			; emulation::gb::Cpu::`RTTI Base Class Array'
PUBLIC	??_R1A@?0A@EA@Cpu@gb@emulation@@8		; emulation::gb::Cpu::`RTTI Base Class Descriptor at (0,-1,0,64)'
PUBLIC	??_R4Component@gb@emulation@@6B@		; emulation::gb::Component::`RTTI Complete Object Locator'
EXTRN	memset:PROC
EXTRN	?Read8@Memory@gb@emulation@@QEAAEG@Z:PROC	; emulation::gb::Memory::Read8
EXTRN	?Write8@Memory@gb@emulation@@QEAAXGE@Z:PROC	; emulation::gb::Memory::Write8
EXTRN	?Tick@Memory@gb@emulation@@QEAAXXZ:PROC		; emulation::gb::Memory::Tick
EXTRN	?Step@LCDDriver@gb@emulation@@QEAAXN@Z:PROC	; emulation::gb::LCDDriver::Step
EXTRN	?Step@SoundController@gb@emulation@@QEAAXN@Z:PROC ; emulation::gb::SoundController::Step
EXTRN	?Tick@Timer@gb@emulation@@QEAAXXZ:PROC		; emulation::gb::Timer::Tick
EXTRN	_RTC_CheckStackVars:PROC
EXTRN	_RTC_InitBase:PROC
EXTRN	_RTC_Shutdown:PROC
EXTRN	??_7type_info@@6B@:BYTE				; type_info::`vftable'
EXTRN	_fltused:DWORD
_BSS	SEGMENT
piecewise_construct DB 01H DUP (?)
allocator_arg DB 01H DUP (?)
ignore	DB	01H DUP (?)
_Tuple_alloc DB	01H DUP (?)
_BSS	ENDS
;	COMDAT pdata
pdata	SEGMENT
$pdata$??__Epiecewise_construct@std@@YAXXZ DD imagerel ??__Epiecewise_construct@std@@YAXXZ
	DD	imagerel ??__Epiecewise_construct@std@@YAXXZ+43
	DD	imagerel $unwind$??__Epiecewise_construct@std@@YAXXZ
pdata	ENDS
;	COMDAT pdata
pdata	SEGMENT
$pdata$??__Eallocator_arg@std@@YAXXZ DD imagerel ??__Eallocator_arg@std@@YAXXZ
	DD	imagerel ??__Eallocator_arg@std@@YAXXZ+43
	DD	imagerel $unwind$??__Eallocator_arg@std@@YAXXZ
pdata	ENDS
;	COMDAT pdata
pdata	SEGMENT
$pdata$??0_Ignore@std@@QEAA@XZ DD imagerel $LN3
	DD	imagerel $LN3+13
	DD	imagerel $unwind$??0_Ignore@std@@QEAA@XZ
pdata	ENDS
;	COMDAT pdata
pdata	SEGMENT
$pdata$??__Eignore@std@@YAXXZ DD imagerel ??__Eignore@std@@YAXXZ
	DD	imagerel ??__Eignore@std@@YAXXZ+39
	DD	imagerel $unwind$??__Eignore@std@@YAXXZ
pdata	ENDS
;	COMDAT pdata
pdata	SEGMENT
$pdata$??__E_Tuple_alloc@std@@YAXXZ DD imagerel ??__E_Tuple_alloc@std@@YAXXZ
	DD	imagerel ??__E_Tuple_alloc@std@@YAXXZ+43
	DD	imagerel $unwind$??__E_Tuple_alloc@std@@YAXXZ
pdata	ENDS
;	COMDAT pdata
pdata	SEGMENT
$pdata$?Initialize@Component@gb@emulation@@UEAAXPEAVEmu@23@@Z DD imagerel $LN3
	DD	imagerel $LN3+27
	DD	imagerel $unwind$?Initialize@Component@gb@emulation@@UEAAXPEAVEmu@23@@Z
pdata	ENDS
;	COMDAT pdata
pdata	SEGMENT
$pdata$?Deinitialize@Component@gb@emulation@@UEAAXXZ DD imagerel $LN3
	DD	imagerel $LN3+8
	DD	imagerel $unwind$?Deinitialize@Component@gb@emulation@@UEAAXXZ
pdata	ENDS
;	COMDAT pdata
pdata	SEGMENT
$pdata$?Reset@Component@gb@emulation@@UEAAXXZ DD imagerel $LN3
	DD	imagerel $LN3+8
	DD	imagerel $unwind$?Reset@Component@gb@emulation@@UEAAXXZ
pdata	ENDS
;	COMDAT pdata
pdata	SEGMENT
$pdata$??0Component@gb@emulation@@QEAA@XZ DD imagerel $LN3
	DD	imagerel $LN3+28
	DD	imagerel $unwind$??0Component@gb@emulation@@QEAA@XZ
pdata	ENDS
;	COMDAT pdata
pdata	SEGMENT
$pdata$?interrupt_enable@Memory@gb@emulation@@QEAAAEAEXZ DD imagerel $LN3
	DD	imagerel $LN3+19
	DD	imagerel $unwind$?interrupt_enable@Memory@gb@emulation@@QEAAAEAEXZ
pdata	ENDS
;	COMDAT pdata
pdata	SEGMENT
$pdata$?interrupt_flag@Memory@gb@emulation@@QEAAAEAEXZ DD imagerel $LN3
	DD	imagerel $LN3+30
	DD	imagerel $unwind$?interrupt_flag@Memory@gb@emulation@@QEAAAEAEXZ
pdata	ENDS
;	COMDAT pdata
pdata	SEGMENT
$pdata$?lcdc@LCDDriver@gb@emulation@@QEAAAEBTLCDControlRegister@23@XZ DD imagerel $LN3
	DD	imagerel $LN3+17
	DD	imagerel $unwind$?lcdc@LCDDriver@gb@emulation@@QEAAAEBTLCDControlRegister@23@XZ
pdata	ENDS
pdata	SEGMENT
$pdata$??0Cpu@gb@emulation@@QEAA@XZ DD imagerel $LN3
	DD	imagerel $LN3+7106
	DD	imagerel $unwind$??0Cpu@gb@emulation@@QEAA@XZ
$pdata$??1Cpu@gb@emulation@@QEAA@XZ DD imagerel $LN3
	DD	imagerel $LN3+23
	DD	imagerel $unwind$??1Cpu@gb@emulation@@QEAA@XZ
$pdata$?Initialize@Cpu@gb@emulation@@UEAAXPEAVEmu@23@@Z DD imagerel $LN3
	DD	imagerel $LN3+98
	DD	imagerel $unwind$?Initialize@Cpu@gb@emulation@@UEAAXPEAVEmu@23@@Z
$pdata$?Deinitialize@Cpu@gb@emulation@@UEAAXXZ DD imagerel $LN3
	DD	imagerel $LN3+8
	DD	imagerel $unwind$?Deinitialize@Cpu@gb@emulation@@UEAAXXZ
$pdata$?Reset@Cpu@gb@emulation@@UEAAXXZ DD imagerel $LN3
	DD	imagerel $LN3+123
	DD	imagerel $unwind$?Reset@Cpu@gb@emulation@@UEAAXXZ
$pdata$?Tick@Cpu@gb@emulation@@QEAAXXZ DD imagerel $LN3
	DD	imagerel $LN3+204
	DD	imagerel $unwind$?Tick@Cpu@gb@emulation@@QEAAXXZ
$pdata$?Step@Cpu@gb@emulation@@QEAAXN@Z DD imagerel $LN19
	DD	imagerel $LN19+798
	DD	imagerel $unwind$?Step@Cpu@gb@emulation@@QEAAXN@Z
$pdata$?simulateSpriteBug@Cpu@gb@emulation@@AEAAXXZ DD imagerel $LN4
	DD	imagerel $LN4+77
	DD	imagerel $unwind$?simulateSpriteBug@Cpu@gb@emulation@@AEAAXXZ
pdata	ENDS
;	COMDAT pdata
pdata	SEGMENT
$pdata$?updateCpuFlagC@Cpu@gb@emulation@@AEAAXEEH@Z DD imagerel $LN9
	DD	imagerel $LN9+218
	DD	imagerel $unwind$?updateCpuFlagC@Cpu@gb@emulation@@AEAAXEEH@Z
pdata	ENDS
;	COMDAT pdata
pdata	SEGMENT
$pdata$?updateCpuFlagH@Cpu@gb@emulation@@AEAAXEEH@Z DD imagerel $LN9
	DD	imagerel $LN9+227
	DD	imagerel $unwind$?updateCpuFlagH@Cpu@gb@emulation@@AEAAXEEH@Z
pdata	ENDS
;	COMDAT pdata
pdata	SEGMENT
$pdata$?updateCpuFlagZ@Cpu@gb@emulation@@AEAAXE@Z DD imagerel $LN5
	DD	imagerel $LN5+105
	DD	imagerel $unwind$?updateCpuFlagZ@Cpu@gb@emulation@@AEAAXE@Z
pdata	ENDS
;	COMDAT pdata
pdata	SEGMENT
$pdata$?push@Cpu@gb@emulation@@AEAAXE@Z DD imagerel $LN3
	DD	imagerel $LN3+105
	DD	imagerel $unwind$?push@Cpu@gb@emulation@@AEAAXE@Z
pdata	ENDS
;	COMDAT pdata
pdata	SEGMENT
$pdata$?pop@Cpu@gb@emulation@@AEAAEXZ DD imagerel $LN3
	DD	imagerel $LN3+102
	DD	imagerel $unwind$?pop@Cpu@gb@emulation@@AEAAEXZ
pdata	ENDS
;	COMDAT pdata
pdata	SEGMENT
$pdata$?pushPC@Cpu@gb@emulation@@AEAAXXZ DD imagerel $LN3
	DD	imagerel $LN3+99
	DD	imagerel $unwind$?pushPC@Cpu@gb@emulation@@AEAAXXZ
pdata	ENDS
pdata	SEGMENT
$pdata$?NOP@Cpu@gb@emulation@@AEAAXXZ DD imagerel $LN3
	DD	imagerel $LN3+8
	DD	imagerel $unwind$?NOP@Cpu@gb@emulation@@AEAAXXZ
$pdata$?ILLEGAL@Cpu@gb@emulation@@AEAAXXZ DD imagerel $LN3
	DD	imagerel $LN3+43
	DD	imagerel $unwind$?ILLEGAL@Cpu@gb@emulation@@AEAAXXZ
$pdata$?RST@Cpu@gb@emulation@@AEAAXXZ DD imagerel $LN3
	DD	imagerel $LN3+128
	DD	imagerel $unwind$?RST@Cpu@gb@emulation@@AEAAXXZ
$pdata$?LDSPHL@Cpu@gb@emulation@@AEAAXXZ DD imagerel $LN3
	DD	imagerel $LN3+100
	DD	imagerel $unwind$?LDSPHL@Cpu@gb@emulation@@AEAAXXZ
$pdata$?LDHLSPr8@Cpu@gb@emulation@@AEAAXXZ DD imagerel $LN3
	DD	imagerel $LN3+308
	DD	imagerel $unwind$?LDHLSPr8@Cpu@gb@emulation@@AEAAXXZ
$pdata$?LDa16SP@Cpu@gb@emulation@@AEAAXXZ DD imagerel $LN3
	DD	imagerel $LN3+285
	DD	imagerel $unwind$?LDa16SP@Cpu@gb@emulation@@AEAAXXZ
$pdata$?ADD_SPr8@Cpu@gb@emulation@@AEAAXXZ DD imagerel $LN3
	DD	imagerel $LN3+350
	DD	imagerel $unwind$?ADD_SPr8@Cpu@gb@emulation@@AEAAXXZ
$pdata$?SCF@Cpu@gb@emulation@@AEAAXXZ DD imagerel $LN3
	DD	imagerel $LN3+83
	DD	imagerel $unwind$?SCF@Cpu@gb@emulation@@AEAAXXZ
$pdata$?CCF@Cpu@gb@emulation@@AEAAXXZ DD imagerel $LN3
	DD	imagerel $LN3+116
	DD	imagerel $unwind$?CCF@Cpu@gb@emulation@@AEAAXXZ
$pdata$?HALT@Cpu@gb@emulation@@AEAAXXZ DD imagerel $LN3
	DD	imagerel $LN3+20
	DD	imagerel $unwind$?HALT@Cpu@gb@emulation@@AEAAXXZ
$pdata$?STOP@Cpu@gb@emulation@@AEAAXXZ DD imagerel $LN3
	DD	imagerel $LN3+20
	DD	imagerel $unwind$?STOP@Cpu@gb@emulation@@AEAAXXZ
$pdata$?CPL@Cpu@gb@emulation@@AEAAXXZ DD imagerel $LN3
	DD	imagerel $LN3+83
	DD	imagerel $unwind$?CPL@Cpu@gb@emulation@@AEAAXXZ
$pdata$?PREFIX_CB@Cpu@gb@emulation@@AEAAXXZ DD imagerel $LN26
	DD	imagerel $LN26+2709
	DD	imagerel $unwind$?PREFIX_CB@Cpu@gb@emulation@@AEAAXXZ
$pdata$?JR@Cpu@gb@emulation@@AEAAXXZ DD imagerel $LN3
	DD	imagerel $LN3+179
	DD	imagerel $unwind$?JR@Cpu@gb@emulation@@AEAAXXZ
$pdata$?JP@Cpu@gb@emulation@@AEAAXXZ DD imagerel $LN3
	DD	imagerel $LN3+253
	DD	imagerel $unwind$?JP@Cpu@gb@emulation@@AEAAXXZ
$pdata$?JP_HL@Cpu@gb@emulation@@AEAAXXZ DD imagerel $LN3
	DD	imagerel $LN3+32
	DD	imagerel $unwind$?JP_HL@Cpu@gb@emulation@@AEAAXXZ
$pdata$?CALL@Cpu@gb@emulation@@AEAAXXZ DD imagerel $LN3
	DD	imagerel $LN3+263
	DD	imagerel $unwind$?CALL@Cpu@gb@emulation@@AEAAXXZ
$pdata$?RET@Cpu@gb@emulation@@AEAAXXZ DD imagerel $LN3
	DD	imagerel $LN3+145
	DD	imagerel $unwind$?RET@Cpu@gb@emulation@@AEAAXXZ
$pdata$?RLCA@Cpu@gb@emulation@@AEAAXXZ DD imagerel $LN3
	DD	imagerel $LN3+229
	DD	imagerel $unwind$?RLCA@Cpu@gb@emulation@@AEAAXXZ
$pdata$?RRCA@Cpu@gb@emulation@@AEAAXXZ DD imagerel $LN3
	DD	imagerel $LN3+227
	DD	imagerel $unwind$?RRCA@Cpu@gb@emulation@@AEAAXXZ
$pdata$?RLA@Cpu@gb@emulation@@AEAAXXZ DD imagerel $LN3
	DD	imagerel $LN3+235
	DD	imagerel $unwind$?RLA@Cpu@gb@emulation@@AEAAXXZ
$pdata$?RRA@Cpu@gb@emulation@@AEAAXXZ DD imagerel $LN3
	DD	imagerel $LN3+233
	DD	imagerel $unwind$?RRA@Cpu@gb@emulation@@AEAAXXZ
$pdata$?CP@Cpu@gb@emulation@@AEAAXEE@Z DD imagerel $LN3
	DD	imagerel $LN3+149
	DD	imagerel $unwind$?CP@Cpu@gb@emulation@@AEAAXEE@Z
$pdata$?CP_d8@Cpu@gb@emulation@@AEAAXXZ DD imagerel $LN3
	DD	imagerel $LN3+128
	DD	imagerel $unwind$?CP_d8@Cpu@gb@emulation@@AEAAXXZ
$pdata$?CP_HL@Cpu@gb@emulation@@AEAAXXZ DD imagerel $LN3
	DD	imagerel $LN3+91
	DD	imagerel $unwind$?CP_HL@Cpu@gb@emulation@@AEAAXXZ
$pdata$?DI@Cpu@gb@emulation@@AEAAXXZ DD imagerel $LN3
	DD	imagerel $LN3+20
	DD	imagerel $unwind$?DI@Cpu@gb@emulation@@AEAAXXZ
$pdata$?EI@Cpu@gb@emulation@@AEAAXXZ DD imagerel $LN3
	DD	imagerel $LN3+20
	DD	imagerel $unwind$?EI@Cpu@gb@emulation@@AEAAXXZ
$pdata$?RETI@Cpu@gb@emulation@@AEAAXXZ DD imagerel $LN3
	DD	imagerel $LN3+56
	DD	imagerel $unwind$?RETI@Cpu@gb@emulation@@AEAAXXZ
$pdata$?DAA@Cpu@gb@emulation@@AEAAXXZ DD imagerel $LN12
	DD	imagerel $LN12+355
	DD	imagerel $unwind$?DAA@Cpu@gb@emulation@@AEAAXXZ
pdata	ENDS
;	COMDAT pdata
pdata	SEGMENT
$pdata$?cartridge@Emu@gb@emulation@@QEAAPEAVCartridge@23@XZ DD imagerel $LN3
	DD	imagerel $LN3+17
	DD	imagerel $unwind$?cartridge@Emu@gb@emulation@@QEAAPEAVCartridge@23@XZ
pdata	ENDS
;	COMDAT pdata
pdata	SEGMENT
$pdata$?memory@Emu@gb@emulation@@QEAAPEAVMemory@23@XZ DD imagerel $LN3
	DD	imagerel $LN3+19
	DD	imagerel $unwind$?memory@Emu@gb@emulation@@QEAAPEAVMemory@23@XZ
pdata	ENDS
;	COMDAT pdata
pdata	SEGMENT
$pdata$?lcd_driver@Emu@gb@emulation@@QEAAPEAVLCDDriver@23@XZ DD imagerel $LN3
	DD	imagerel $LN3+19
	DD	imagerel $unwind$?lcd_driver@Emu@gb@emulation@@QEAAPEAVLCDDriver@23@XZ
pdata	ENDS
;	COMDAT pdata
pdata	SEGMENT
$pdata$?sc@Emu@gb@emulation@@QEAAPEAVSoundController@23@XZ DD imagerel $LN3
	DD	imagerel $LN3+19
	DD	imagerel $unwind$?sc@Emu@gb@emulation@@QEAAPEAVSoundController@23@XZ
pdata	ENDS
;	COMDAT pdata
pdata	SEGMENT
$pdata$?timer@Emu@gb@emulation@@QEAAPEAVTimer@23@XZ DD imagerel $LN3
	DD	imagerel $LN3+19
	DD	imagerel $unwind$?timer@Emu@gb@emulation@@QEAAPEAVTimer@23@XZ
pdata	ENDS
;	COMDAT pdata
pdata	SEGMENT
$pdata$??$LDrd16@$00@Cpu@gb@emulation@@AEAAXXZ DD imagerel $LN4
	DD	imagerel $LN4+359
	DD	imagerel $unwind$??$LDrd16@$00@Cpu@gb@emulation@@AEAAXXZ
pdata	ENDS
;	COMDAT pdata
pdata	SEGMENT
$pdata$??$LD$rr@$00$00@Cpu@gb@emulation@@AEAAXXZ DD imagerel $LN3
	DD	imagerel $LN3+98
	DD	imagerel $unwind$??$LD$rr@$00$00@Cpu@gb@emulation@@AEAAXXZ
pdata	ENDS
;	COMDAT pdata
pdata	SEGMENT
$pdata$??$INC_16bit@$00@Cpu@gb@emulation@@AEAAXXZ DD imagerel $LN3
	DD	imagerel $LN3+133
	DD	imagerel $unwind$??$INC_16bit@$00@Cpu@gb@emulation@@AEAAXXZ
pdata	ENDS
;	COMDAT pdata
pdata	SEGMENT
$pdata$??$INC_8bit@$02$0A@@Cpu@gb@emulation@@AEAAXXZ DD imagerel $LN5
	DD	imagerel $LN5+300
	DD	imagerel $unwind$??$INC_8bit@$02$0A@@Cpu@gb@emulation@@AEAAXXZ
pdata	ENDS
;	COMDAT pdata
pdata	SEGMENT
$pdata$??$DEC_8bit@$02$0A@@Cpu@gb@emulation@@AEAAXXZ DD imagerel $LN9
	DD	imagerel $LN9+395
	DD	imagerel $unwind$??$DEC_8bit@$02$0A@@Cpu@gb@emulation@@AEAAXXZ
pdata	ENDS
;	COMDAT pdata
pdata	SEGMENT
$pdata$??$LD@$02$0A@$09@Cpu@gb@emulation@@AEAAXXZ DD imagerel $LN14
	DD	imagerel $LN14+965
	DD	imagerel $unwind$??$LD@$02$0A@$09@Cpu@gb@emulation@@AEAAXXZ
pdata	ENDS
;	COMDAT pdata
pdata	SEGMENT
$pdata$??$ADD_16bit@$02$00@Cpu@gb@emulation@@AEAAXXZ DD imagerel $LN7
	DD	imagerel $LN7+398
	DD	imagerel $unwind$??$ADD_16bit@$02$00@Cpu@gb@emulation@@AEAAXXZ
pdata	ENDS
;	COMDAT pdata
pdata	SEGMENT
$pdata$??$LDr$r@$00$00@Cpu@gb@emulation@@AEAAXXZ DD imagerel $LN3
	DD	imagerel $LN3+96
	DD	imagerel $unwind$??$LDr$r@$00$00@Cpu@gb@emulation@@AEAAXXZ
pdata	ENDS
;	COMDAT pdata
pdata	SEGMENT
$pdata$??$DEC_16bit@$00@Cpu@gb@emulation@@AEAAXXZ DD imagerel $LN3
	DD	imagerel $LN3+133
	DD	imagerel $unwind$??$DEC_16bit@$00@Cpu@gb@emulation@@AEAAXXZ
pdata	ENDS
;	COMDAT pdata
pdata	SEGMENT
$pdata$??$INC_8bit@$01$0A@@Cpu@gb@emulation@@AEAAXXZ DD imagerel $LN5
	DD	imagerel $LN5+300
	DD	imagerel $unwind$??$INC_8bit@$01$0A@@Cpu@gb@emulation@@AEAAXXZ
pdata	ENDS
;	COMDAT pdata
pdata	SEGMENT
$pdata$??$DEC_8bit@$01$0A@@Cpu@gb@emulation@@AEAAXXZ DD imagerel $LN9
	DD	imagerel $LN9+395
	DD	imagerel $unwind$??$DEC_8bit@$01$0A@@Cpu@gb@emulation@@AEAAXXZ
pdata	ENDS
;	COMDAT pdata
pdata	SEGMENT
$pdata$??$LD@$01$0A@$09@Cpu@gb@emulation@@AEAAXXZ DD imagerel $LN14
	DD	imagerel $LN14+965
	DD	imagerel $unwind$??$LD@$01$0A@$09@Cpu@gb@emulation@@AEAAXXZ
pdata	ENDS
;	COMDAT pdata
pdata	SEGMENT
$pdata$??$LDrd16@$01@Cpu@gb@emulation@@AEAAXXZ DD imagerel $LN4
	DD	imagerel $LN4+359
	DD	imagerel $unwind$??$LDrd16@$01@Cpu@gb@emulation@@AEAAXXZ
pdata	ENDS
;	COMDAT pdata
pdata	SEGMENT
$pdata$??$LD$rr@$01$00@Cpu@gb@emulation@@AEAAXXZ DD imagerel $LN3
	DD	imagerel $LN3+98
	DD	imagerel $unwind$??$LD$rr@$01$00@Cpu@gb@emulation@@AEAAXXZ
pdata	ENDS
;	COMDAT pdata
pdata	SEGMENT
$pdata$??$INC_16bit@$01@Cpu@gb@emulation@@AEAAXXZ DD imagerel $LN3
	DD	imagerel $LN3+133
	DD	imagerel $unwind$??$INC_16bit@$01@Cpu@gb@emulation@@AEAAXXZ
pdata	ENDS
;	COMDAT pdata
pdata	SEGMENT
$pdata$??$INC_8bit@$04$0A@@Cpu@gb@emulation@@AEAAXXZ DD imagerel $LN5
	DD	imagerel $LN5+300
	DD	imagerel $unwind$??$INC_8bit@$04$0A@@Cpu@gb@emulation@@AEAAXXZ
pdata	ENDS
;	COMDAT pdata
pdata	SEGMENT
$pdata$??$DEC_8bit@$04$0A@@Cpu@gb@emulation@@AEAAXXZ DD imagerel $LN9
	DD	imagerel $LN9+395
	DD	imagerel $unwind$??$DEC_8bit@$04$0A@@Cpu@gb@emulation@@AEAAXXZ
pdata	ENDS
;	COMDAT pdata
pdata	SEGMENT
$pdata$??$LD@$04$0A@$09@Cpu@gb@emulation@@AEAAXXZ DD imagerel $LN14
	DD	imagerel $LN14+965
	DD	imagerel $unwind$??$LD@$04$0A@$09@Cpu@gb@emulation@@AEAAXXZ
pdata	ENDS
;	COMDAT pdata
pdata	SEGMENT
$pdata$??$ADD_16bit@$02$01@Cpu@gb@emulation@@AEAAXXZ DD imagerel $LN7
	DD	imagerel $LN7+398
	DD	imagerel $unwind$??$ADD_16bit@$02$01@Cpu@gb@emulation@@AEAAXXZ
pdata	ENDS
;	COMDAT pdata
pdata	SEGMENT
$pdata$??$LDr$r@$00$01@Cpu@gb@emulation@@AEAAXXZ DD imagerel $LN3
	DD	imagerel $LN3+96
	DD	imagerel $unwind$??$LDr$r@$00$01@Cpu@gb@emulation@@AEAAXXZ
pdata	ENDS
;	COMDAT pdata
pdata	SEGMENT
$pdata$??$DEC_16bit@$01@Cpu@gb@emulation@@AEAAXXZ DD imagerel $LN3
	DD	imagerel $LN3+133
	DD	imagerel $unwind$??$DEC_16bit@$01@Cpu@gb@emulation@@AEAAXXZ
pdata	ENDS
;	COMDAT pdata
pdata	SEGMENT
$pdata$??$INC_8bit@$03$0A@@Cpu@gb@emulation@@AEAAXXZ DD imagerel $LN5
	DD	imagerel $LN5+300
	DD	imagerel $unwind$??$INC_8bit@$03$0A@@Cpu@gb@emulation@@AEAAXXZ
pdata	ENDS
;	COMDAT pdata
pdata	SEGMENT
$pdata$??$DEC_8bit@$03$0A@@Cpu@gb@emulation@@AEAAXXZ DD imagerel $LN9
	DD	imagerel $LN9+395
	DD	imagerel $unwind$??$DEC_8bit@$03$0A@@Cpu@gb@emulation@@AEAAXXZ
pdata	ENDS
;	COMDAT pdata
pdata	SEGMENT
$pdata$??$LD@$03$0A@$09@Cpu@gb@emulation@@AEAAXXZ DD imagerel $LN14
	DD	imagerel $LN14+965
	DD	imagerel $unwind$??$LD@$03$0A@$09@Cpu@gb@emulation@@AEAAXXZ
pdata	ENDS
;	COMDAT pdata
pdata	SEGMENT
$pdata$??$JR_cc@$06$00@Cpu@gb@emulation@@AEAAXXZ DD imagerel $LN5
	DD	imagerel $LN5+203
	DD	imagerel $unwind$??$JR_cc@$06$00@Cpu@gb@emulation@@AEAAXXZ
pdata	ENDS
;	COMDAT pdata
pdata	SEGMENT
$pdata$??$LDrd16@$02@Cpu@gb@emulation@@AEAAXXZ DD imagerel $LN4
	DD	imagerel $LN4+359
	DD	imagerel $unwind$??$LDrd16@$02@Cpu@gb@emulation@@AEAAXXZ
pdata	ENDS
;	COMDAT pdata
pdata	SEGMENT
$pdata$??$LDI$regreg@$02$00@Cpu@gb@emulation@@AEAAXXZ DD imagerel $LN3
	DD	imagerel $LN3+145
	DD	imagerel $unwind$??$LDI$regreg@$02$00@Cpu@gb@emulation@@AEAAXXZ
pdata	ENDS
;	COMDAT pdata
pdata	SEGMENT
$pdata$??$INC_16bit@$02@Cpu@gb@emulation@@AEAAXXZ DD imagerel $LN3
	DD	imagerel $LN3+133
	DD	imagerel $unwind$??$INC_16bit@$02@Cpu@gb@emulation@@AEAAXXZ
pdata	ENDS
;	COMDAT pdata
pdata	SEGMENT
$pdata$??$INC_8bit@$06$0A@@Cpu@gb@emulation@@AEAAXXZ DD imagerel $LN5
	DD	imagerel $LN5+300
	DD	imagerel $unwind$??$INC_8bit@$06$0A@@Cpu@gb@emulation@@AEAAXXZ
pdata	ENDS
;	COMDAT pdata
pdata	SEGMENT
$pdata$??$DEC_8bit@$06$0A@@Cpu@gb@emulation@@AEAAXXZ DD imagerel $LN9
	DD	imagerel $LN9+395
	DD	imagerel $unwind$??$DEC_8bit@$06$0A@@Cpu@gb@emulation@@AEAAXXZ
pdata	ENDS
;	COMDAT pdata
pdata	SEGMENT
$pdata$??$LD@$06$0A@$09@Cpu@gb@emulation@@AEAAXXZ DD imagerel $LN14
	DD	imagerel $LN14+965
	DD	imagerel $unwind$??$LD@$06$0A@$09@Cpu@gb@emulation@@AEAAXXZ
pdata	ENDS
;	COMDAT pdata
pdata	SEGMENT
$pdata$??$JR_cc@$06$0A@@Cpu@gb@emulation@@AEAAXXZ DD imagerel $LN5
	DD	imagerel $LN5+203
	DD	imagerel $unwind$??$JR_cc@$06$0A@@Cpu@gb@emulation@@AEAAXXZ
pdata	ENDS
;	COMDAT pdata
pdata	SEGMENT
$pdata$??$ADD_16bit@$02$02@Cpu@gb@emulation@@AEAAXXZ DD imagerel $LN7
	DD	imagerel $LN7+398
	DD	imagerel $unwind$??$ADD_16bit@$02$02@Cpu@gb@emulation@@AEAAXXZ
pdata	ENDS
;	COMDAT pdata
pdata	SEGMENT
$pdata$??$LDIreg$reg@$00$02@Cpu@gb@emulation@@AEAAXXZ DD imagerel $LN3
	DD	imagerel $LN3+153
	DD	imagerel $unwind$??$LDIreg$reg@$00$02@Cpu@gb@emulation@@AEAAXXZ
pdata	ENDS
;	COMDAT pdata
pdata	SEGMENT
$pdata$??$DEC_16bit@$02@Cpu@gb@emulation@@AEAAXXZ DD imagerel $LN3
	DD	imagerel $LN3+133
	DD	imagerel $unwind$??$DEC_16bit@$02@Cpu@gb@emulation@@AEAAXXZ
pdata	ENDS
;	COMDAT pdata
pdata	SEGMENT
$pdata$??$INC_8bit@$05$0A@@Cpu@gb@emulation@@AEAAXXZ DD imagerel $LN5
	DD	imagerel $LN5+300
	DD	imagerel $unwind$??$INC_8bit@$05$0A@@Cpu@gb@emulation@@AEAAXXZ
pdata	ENDS
;	COMDAT pdata
pdata	SEGMENT
$pdata$??$DEC_8bit@$05$0A@@Cpu@gb@emulation@@AEAAXXZ DD imagerel $LN9
	DD	imagerel $LN9+395
	DD	imagerel $unwind$??$DEC_8bit@$05$0A@@Cpu@gb@emulation@@AEAAXXZ
pdata	ENDS
;	COMDAT pdata
pdata	SEGMENT
$pdata$??$LD@$05$0A@$09@Cpu@gb@emulation@@AEAAXXZ DD imagerel $LN14
	DD	imagerel $LN14+965
	DD	imagerel $unwind$??$LD@$05$0A@$09@Cpu@gb@emulation@@AEAAXXZ
pdata	ENDS
;	COMDAT pdata
pdata	SEGMENT
$pdata$??$JR_cc@$03$00@Cpu@gb@emulation@@AEAAXXZ DD imagerel $LN5
	DD	imagerel $LN5+199
	DD	imagerel $unwind$??$JR_cc@$03$00@Cpu@gb@emulation@@AEAAXXZ
pdata	ENDS
;	COMDAT pdata
pdata	SEGMENT
$pdata$??$LDrd16@$03@Cpu@gb@emulation@@AEAAXXZ DD imagerel $LN4
	DD	imagerel $LN4+359
	DD	imagerel $unwind$??$LDrd16@$03@Cpu@gb@emulation@@AEAAXXZ
pdata	ENDS
;	COMDAT pdata
pdata	SEGMENT
$pdata$??$LDD$regreg@$02$00@Cpu@gb@emulation@@AEAAXXZ DD imagerel $LN3
	DD	imagerel $LN3+145
	DD	imagerel $unwind$??$LDD$regreg@$02$00@Cpu@gb@emulation@@AEAAXXZ
pdata	ENDS
;	COMDAT pdata
pdata	SEGMENT
$pdata$??$INC_16bit@$03@Cpu@gb@emulation@@AEAAXXZ DD imagerel $LN3
	DD	imagerel $LN3+133
	DD	imagerel $unwind$??$INC_16bit@$03@Cpu@gb@emulation@@AEAAXXZ
pdata	ENDS
;	COMDAT pdata
pdata	SEGMENT
$pdata$??$INC_8bit@$02$00@Cpu@gb@emulation@@AEAAXXZ DD imagerel $LN5
	DD	imagerel $LN5+299
	DD	imagerel $unwind$??$INC_8bit@$02$00@Cpu@gb@emulation@@AEAAXXZ
pdata	ENDS
;	COMDAT pdata
pdata	SEGMENT
$pdata$??$DEC_8bit@$02$00@Cpu@gb@emulation@@AEAAXXZ DD imagerel $LN9
	DD	imagerel $LN9+394
	DD	imagerel $unwind$??$DEC_8bit@$02$00@Cpu@gb@emulation@@AEAAXXZ
pdata	ENDS
;	COMDAT pdata
pdata	SEGMENT
$pdata$??$LD@$02$0A@$0L@@Cpu@gb@emulation@@AEAAXXZ DD imagerel $LN14
	DD	imagerel $LN14+965
	DD	imagerel $unwind$??$LD@$02$0A@$0L@@Cpu@gb@emulation@@AEAAXXZ
pdata	ENDS
;	COMDAT pdata
pdata	SEGMENT
$pdata$??$JR_cc@$03$0A@@Cpu@gb@emulation@@AEAAXXZ DD imagerel $LN5
	DD	imagerel $LN5+199
	DD	imagerel $unwind$??$JR_cc@$03$0A@@Cpu@gb@emulation@@AEAAXXZ
pdata	ENDS
;	COMDAT pdata
pdata	SEGMENT
$pdata$??$ADD_16bit@$02$03@Cpu@gb@emulation@@AEAAXXZ DD imagerel $LN7
	DD	imagerel $LN7+398
	DD	imagerel $unwind$??$ADD_16bit@$02$03@Cpu@gb@emulation@@AEAAXXZ
pdata	ENDS
;	COMDAT pdata
pdata	SEGMENT
$pdata$??$LDDreg$reg@$00$02@Cpu@gb@emulation@@AEAAXXZ DD imagerel $LN3
	DD	imagerel $LN3+153
	DD	imagerel $unwind$??$LDDreg$reg@$00$02@Cpu@gb@emulation@@AEAAXXZ
pdata	ENDS
;	COMDAT pdata
pdata	SEGMENT
$pdata$??$DEC_16bit@$03@Cpu@gb@emulation@@AEAAXXZ DD imagerel $LN3
	DD	imagerel $LN3+133
	DD	imagerel $unwind$??$DEC_16bit@$03@Cpu@gb@emulation@@AEAAXXZ
pdata	ENDS
;	COMDAT pdata
pdata	SEGMENT
$pdata$??$INC_8bit@$00$0A@@Cpu@gb@emulation@@AEAAXXZ DD imagerel $LN5
	DD	imagerel $LN5+300
	DD	imagerel $unwind$??$INC_8bit@$00$0A@@Cpu@gb@emulation@@AEAAXXZ
pdata	ENDS
;	COMDAT pdata
pdata	SEGMENT
$pdata$??$DEC_8bit@$00$0A@@Cpu@gb@emulation@@AEAAXXZ DD imagerel $LN9
	DD	imagerel $LN9+395
	DD	imagerel $unwind$??$DEC_8bit@$00$0A@@Cpu@gb@emulation@@AEAAXXZ
pdata	ENDS
;	COMDAT pdata
pdata	SEGMENT
$pdata$??$LD@$00$0A@$09@Cpu@gb@emulation@@AEAAXXZ DD imagerel $LN14
	DD	imagerel $LN14+965
	DD	imagerel $unwind$??$LD@$00$0A@$09@Cpu@gb@emulation@@AEAAXXZ
pdata	ENDS
;	COMDAT pdata
pdata	SEGMENT
$pdata$??$LDrr@$02$02@Cpu@gb@emulation@@AEAAXXZ DD imagerel $LN3
	DD	imagerel $LN3+52
	DD	imagerel $unwind$??$LDrr@$02$02@Cpu@gb@emulation@@AEAAXXZ
pdata	ENDS
;	COMDAT pdata
pdata	SEGMENT
$pdata$??$LDrr@$02$01@Cpu@gb@emulation@@AEAAXXZ DD imagerel $LN3
	DD	imagerel $LN3+52
	DD	imagerel $unwind$??$LDrr@$02$01@Cpu@gb@emulation@@AEAAXXZ
pdata	ENDS
;	COMDAT pdata
pdata	SEGMENT
$pdata$??$LDrr@$02$04@Cpu@gb@emulation@@AEAAXXZ DD imagerel $LN3
	DD	imagerel $LN3+52
	DD	imagerel $unwind$??$LDrr@$02$04@Cpu@gb@emulation@@AEAAXXZ
pdata	ENDS
;	COMDAT pdata
pdata	SEGMENT
$pdata$??$LDrr@$02$03@Cpu@gb@emulation@@AEAAXXZ DD imagerel $LN3
	DD	imagerel $LN3+52
	DD	imagerel $unwind$??$LDrr@$02$03@Cpu@gb@emulation@@AEAAXXZ
pdata	ENDS
;	COMDAT pdata
pdata	SEGMENT
$pdata$??$LDrr@$02$06@Cpu@gb@emulation@@AEAAXXZ DD imagerel $LN3
	DD	imagerel $LN3+52
	DD	imagerel $unwind$??$LDrr@$02$06@Cpu@gb@emulation@@AEAAXXZ
pdata	ENDS
;	COMDAT pdata
pdata	SEGMENT
$pdata$??$LDrr@$02$05@Cpu@gb@emulation@@AEAAXXZ DD imagerel $LN3
	DD	imagerel $LN3+52
	DD	imagerel $unwind$??$LDrr@$02$05@Cpu@gb@emulation@@AEAAXXZ
pdata	ENDS
;	COMDAT pdata
pdata	SEGMENT
$pdata$??$LDr$r@$02$02@Cpu@gb@emulation@@AEAAXXZ DD imagerel $LN3
	DD	imagerel $LN3+96
	DD	imagerel $unwind$??$LDr$r@$02$02@Cpu@gb@emulation@@AEAAXXZ
pdata	ENDS
;	COMDAT pdata
pdata	SEGMENT
$pdata$??$LDrr@$02$00@Cpu@gb@emulation@@AEAAXXZ DD imagerel $LN3
	DD	imagerel $LN3+52
	DD	imagerel $unwind$??$LDrr@$02$00@Cpu@gb@emulation@@AEAAXXZ
pdata	ENDS
;	COMDAT pdata
pdata	SEGMENT
$pdata$??$LDrr@$01$02@Cpu@gb@emulation@@AEAAXXZ DD imagerel $LN3
	DD	imagerel $LN3+52
	DD	imagerel $unwind$??$LDrr@$01$02@Cpu@gb@emulation@@AEAAXXZ
pdata	ENDS
;	COMDAT pdata
pdata	SEGMENT
$pdata$??$LDrr@$01$01@Cpu@gb@emulation@@AEAAXXZ DD imagerel $LN3
	DD	imagerel $LN3+52
	DD	imagerel $unwind$??$LDrr@$01$01@Cpu@gb@emulation@@AEAAXXZ
pdata	ENDS
;	COMDAT pdata
pdata	SEGMENT
$pdata$??$LDrr@$01$04@Cpu@gb@emulation@@AEAAXXZ DD imagerel $LN3
	DD	imagerel $LN3+52
	DD	imagerel $unwind$??$LDrr@$01$04@Cpu@gb@emulation@@AEAAXXZ
pdata	ENDS
;	COMDAT pdata
pdata	SEGMENT
$pdata$??$LDrr@$01$03@Cpu@gb@emulation@@AEAAXXZ DD imagerel $LN3
	DD	imagerel $LN3+52
	DD	imagerel $unwind$??$LDrr@$01$03@Cpu@gb@emulation@@AEAAXXZ
pdata	ENDS
;	COMDAT pdata
pdata	SEGMENT
$pdata$??$LDrr@$01$06@Cpu@gb@emulation@@AEAAXXZ DD imagerel $LN3
	DD	imagerel $LN3+52
	DD	imagerel $unwind$??$LDrr@$01$06@Cpu@gb@emulation@@AEAAXXZ
pdata	ENDS
;	COMDAT pdata
pdata	SEGMENT
$pdata$??$LDrr@$01$05@Cpu@gb@emulation@@AEAAXXZ DD imagerel $LN3
	DD	imagerel $LN3+52
	DD	imagerel $unwind$??$LDrr@$01$05@Cpu@gb@emulation@@AEAAXXZ
pdata	ENDS
;	COMDAT pdata
pdata	SEGMENT
$pdata$??$LDr$r@$01$02@Cpu@gb@emulation@@AEAAXXZ DD imagerel $LN3
	DD	imagerel $LN3+96
	DD	imagerel $unwind$??$LDr$r@$01$02@Cpu@gb@emulation@@AEAAXXZ
pdata	ENDS
;	COMDAT pdata
pdata	SEGMENT
$pdata$??$LDrr@$01$00@Cpu@gb@emulation@@AEAAXXZ DD imagerel $LN3
	DD	imagerel $LN3+52
	DD	imagerel $unwind$??$LDrr@$01$00@Cpu@gb@emulation@@AEAAXXZ
pdata	ENDS
;	COMDAT pdata
pdata	SEGMENT
$pdata$??$LDrr@$04$02@Cpu@gb@emulation@@AEAAXXZ DD imagerel $LN3
	DD	imagerel $LN3+52
	DD	imagerel $unwind$??$LDrr@$04$02@Cpu@gb@emulation@@AEAAXXZ
pdata	ENDS
;	COMDAT pdata
pdata	SEGMENT
$pdata$??$LDrr@$04$01@Cpu@gb@emulation@@AEAAXXZ DD imagerel $LN3
	DD	imagerel $LN3+52
	DD	imagerel $unwind$??$LDrr@$04$01@Cpu@gb@emulation@@AEAAXXZ
pdata	ENDS
;	COMDAT pdata
pdata	SEGMENT
$pdata$??$LDrr@$04$04@Cpu@gb@emulation@@AEAAXXZ DD imagerel $LN3
	DD	imagerel $LN3+52
	DD	imagerel $unwind$??$LDrr@$04$04@Cpu@gb@emulation@@AEAAXXZ
pdata	ENDS
;	COMDAT pdata
pdata	SEGMENT
$pdata$??$LDrr@$04$03@Cpu@gb@emulation@@AEAAXXZ DD imagerel $LN3
	DD	imagerel $LN3+52
	DD	imagerel $unwind$??$LDrr@$04$03@Cpu@gb@emulation@@AEAAXXZ
pdata	ENDS
;	COMDAT pdata
pdata	SEGMENT
$pdata$??$LDrr@$04$06@Cpu@gb@emulation@@AEAAXXZ DD imagerel $LN3
	DD	imagerel $LN3+52
	DD	imagerel $unwind$??$LDrr@$04$06@Cpu@gb@emulation@@AEAAXXZ
pdata	ENDS
;	COMDAT pdata
pdata	SEGMENT
$pdata$??$LDrr@$04$05@Cpu@gb@emulation@@AEAAXXZ DD imagerel $LN3
	DD	imagerel $LN3+52
	DD	imagerel $unwind$??$LDrr@$04$05@Cpu@gb@emulation@@AEAAXXZ
pdata	ENDS
;	COMDAT pdata
pdata	SEGMENT
$pdata$??$LDr$r@$04$02@Cpu@gb@emulation@@AEAAXXZ DD imagerel $LN3
	DD	imagerel $LN3+96
	DD	imagerel $unwind$??$LDr$r@$04$02@Cpu@gb@emulation@@AEAAXXZ
pdata	ENDS
;	COMDAT pdata
pdata	SEGMENT
$pdata$??$LDrr@$04$00@Cpu@gb@emulation@@AEAAXXZ DD imagerel $LN3
	DD	imagerel $LN3+52
	DD	imagerel $unwind$??$LDrr@$04$00@Cpu@gb@emulation@@AEAAXXZ
pdata	ENDS
;	COMDAT pdata
pdata	SEGMENT
$pdata$??$LDrr@$03$02@Cpu@gb@emulation@@AEAAXXZ DD imagerel $LN3
	DD	imagerel $LN3+52
	DD	imagerel $unwind$??$LDrr@$03$02@Cpu@gb@emulation@@AEAAXXZ
pdata	ENDS
;	COMDAT pdata
pdata	SEGMENT
$pdata$??$LDrr@$03$01@Cpu@gb@emulation@@AEAAXXZ DD imagerel $LN3
	DD	imagerel $LN3+52
	DD	imagerel $unwind$??$LDrr@$03$01@Cpu@gb@emulation@@AEAAXXZ
pdata	ENDS
;	COMDAT pdata
pdata	SEGMENT
$pdata$??$LDrr@$03$04@Cpu@gb@emulation@@AEAAXXZ DD imagerel $LN3
	DD	imagerel $LN3+52
	DD	imagerel $unwind$??$LDrr@$03$04@Cpu@gb@emulation@@AEAAXXZ
pdata	ENDS
;	COMDAT pdata
pdata	SEGMENT
$pdata$??$LDrr@$03$03@Cpu@gb@emulation@@AEAAXXZ DD imagerel $LN3
	DD	imagerel $LN3+52
	DD	imagerel $unwind$??$LDrr@$03$03@Cpu@gb@emulation@@AEAAXXZ
pdata	ENDS
;	COMDAT pdata
pdata	SEGMENT
$pdata$??$LDrr@$03$06@Cpu@gb@emulation@@AEAAXXZ DD imagerel $LN3
	DD	imagerel $LN3+52
	DD	imagerel $unwind$??$LDrr@$03$06@Cpu@gb@emulation@@AEAAXXZ
pdata	ENDS
;	COMDAT pdata
pdata	SEGMENT
$pdata$??$LDrr@$03$05@Cpu@gb@emulation@@AEAAXXZ DD imagerel $LN3
	DD	imagerel $LN3+52
	DD	imagerel $unwind$??$LDrr@$03$05@Cpu@gb@emulation@@AEAAXXZ
pdata	ENDS
;	COMDAT pdata
pdata	SEGMENT
$pdata$??$LDr$r@$03$02@Cpu@gb@emulation@@AEAAXXZ DD imagerel $LN3
	DD	imagerel $LN3+96
	DD	imagerel $unwind$??$LDr$r@$03$02@Cpu@gb@emulation@@AEAAXXZ
pdata	ENDS
;	COMDAT pdata
pdata	SEGMENT
$pdata$??$LDrr@$03$00@Cpu@gb@emulation@@AEAAXXZ DD imagerel $LN3
	DD	imagerel $LN3+52
	DD	imagerel $unwind$??$LDrr@$03$00@Cpu@gb@emulation@@AEAAXXZ
pdata	ENDS
;	COMDAT pdata
pdata	SEGMENT
$pdata$??$LDrr@$06$02@Cpu@gb@emulation@@AEAAXXZ DD imagerel $LN3
	DD	imagerel $LN3+52
	DD	imagerel $unwind$??$LDrr@$06$02@Cpu@gb@emulation@@AEAAXXZ
pdata	ENDS
;	COMDAT pdata
pdata	SEGMENT
$pdata$??$LDrr@$06$01@Cpu@gb@emulation@@AEAAXXZ DD imagerel $LN3
	DD	imagerel $LN3+52
	DD	imagerel $unwind$??$LDrr@$06$01@Cpu@gb@emulation@@AEAAXXZ
pdata	ENDS
;	COMDAT pdata
pdata	SEGMENT
$pdata$??$LDrr@$06$04@Cpu@gb@emulation@@AEAAXXZ DD imagerel $LN3
	DD	imagerel $LN3+52
	DD	imagerel $unwind$??$LDrr@$06$04@Cpu@gb@emulation@@AEAAXXZ
pdata	ENDS
;	COMDAT pdata
pdata	SEGMENT
$pdata$??$LDrr@$06$03@Cpu@gb@emulation@@AEAAXXZ DD imagerel $LN3
	DD	imagerel $LN3+52
	DD	imagerel $unwind$??$LDrr@$06$03@Cpu@gb@emulation@@AEAAXXZ
pdata	ENDS
;	COMDAT pdata
pdata	SEGMENT
$pdata$??$LDrr@$06$06@Cpu@gb@emulation@@AEAAXXZ DD imagerel $LN3
	DD	imagerel $LN3+52
	DD	imagerel $unwind$??$LDrr@$06$06@Cpu@gb@emulation@@AEAAXXZ
pdata	ENDS
;	COMDAT pdata
pdata	SEGMENT
$pdata$??$LDrr@$06$05@Cpu@gb@emulation@@AEAAXXZ DD imagerel $LN3
	DD	imagerel $LN3+52
	DD	imagerel $unwind$??$LDrr@$06$05@Cpu@gb@emulation@@AEAAXXZ
pdata	ENDS
;	COMDAT pdata
pdata	SEGMENT
$pdata$??$LDr$r@$06$02@Cpu@gb@emulation@@AEAAXXZ DD imagerel $LN3
	DD	imagerel $LN3+96
	DD	imagerel $unwind$??$LDr$r@$06$02@Cpu@gb@emulation@@AEAAXXZ
pdata	ENDS
;	COMDAT pdata
pdata	SEGMENT
$pdata$??$LDrr@$06$00@Cpu@gb@emulation@@AEAAXXZ DD imagerel $LN3
	DD	imagerel $LN3+52
	DD	imagerel $unwind$??$LDrr@$06$00@Cpu@gb@emulation@@AEAAXXZ
pdata	ENDS
;	COMDAT pdata
pdata	SEGMENT
$pdata$??$LDrr@$05$02@Cpu@gb@emulation@@AEAAXXZ DD imagerel $LN3
	DD	imagerel $LN3+52
	DD	imagerel $unwind$??$LDrr@$05$02@Cpu@gb@emulation@@AEAAXXZ
pdata	ENDS
;	COMDAT pdata
pdata	SEGMENT
$pdata$??$LDrr@$05$01@Cpu@gb@emulation@@AEAAXXZ DD imagerel $LN3
	DD	imagerel $LN3+52
	DD	imagerel $unwind$??$LDrr@$05$01@Cpu@gb@emulation@@AEAAXXZ
pdata	ENDS
;	COMDAT pdata
pdata	SEGMENT
$pdata$??$LDrr@$05$04@Cpu@gb@emulation@@AEAAXXZ DD imagerel $LN3
	DD	imagerel $LN3+52
	DD	imagerel $unwind$??$LDrr@$05$04@Cpu@gb@emulation@@AEAAXXZ
pdata	ENDS
;	COMDAT pdata
pdata	SEGMENT
$pdata$??$LDrr@$05$03@Cpu@gb@emulation@@AEAAXXZ DD imagerel $LN3
	DD	imagerel $LN3+52
	DD	imagerel $unwind$??$LDrr@$05$03@Cpu@gb@emulation@@AEAAXXZ
pdata	ENDS
;	COMDAT pdata
pdata	SEGMENT
$pdata$??$LDrr@$05$06@Cpu@gb@emulation@@AEAAXXZ DD imagerel $LN3
	DD	imagerel $LN3+52
	DD	imagerel $unwind$??$LDrr@$05$06@Cpu@gb@emulation@@AEAAXXZ
pdata	ENDS
;	COMDAT pdata
pdata	SEGMENT
$pdata$??$LDrr@$05$05@Cpu@gb@emulation@@AEAAXXZ DD imagerel $LN3
	DD	imagerel $LN3+52
	DD	imagerel $unwind$??$LDrr@$05$05@Cpu@gb@emulation@@AEAAXXZ
pdata	ENDS
;	COMDAT pdata
pdata	SEGMENT
$pdata$??$LDr$r@$05$02@Cpu@gb@emulation@@AEAAXXZ DD imagerel $LN3
	DD	imagerel $LN3+96
	DD	imagerel $unwind$??$LDr$r@$05$02@Cpu@gb@emulation@@AEAAXXZ
pdata	ENDS
;	COMDAT pdata
pdata	SEGMENT
$pdata$??$LDrr@$05$00@Cpu@gb@emulation@@AEAAXXZ DD imagerel $LN3
	DD	imagerel $LN3+52
	DD	imagerel $unwind$??$LDrr@$05$00@Cpu@gb@emulation@@AEAAXXZ
pdata	ENDS
;	COMDAT pdata
pdata	SEGMENT
$pdata$??$LD$rr@$02$02@Cpu@gb@emulation@@AEAAXXZ DD imagerel $LN3
	DD	imagerel $LN3+98
	DD	imagerel $unwind$??$LD$rr@$02$02@Cpu@gb@emulation@@AEAAXXZ
pdata	ENDS
;	COMDAT pdata
pdata	SEGMENT
$pdata$??$LD$rr@$02$01@Cpu@gb@emulation@@AEAAXXZ DD imagerel $LN3
	DD	imagerel $LN3+98
	DD	imagerel $unwind$??$LD$rr@$02$01@Cpu@gb@emulation@@AEAAXXZ
pdata	ENDS
;	COMDAT pdata
pdata	SEGMENT
$pdata$??$LD$rr@$02$04@Cpu@gb@emulation@@AEAAXXZ DD imagerel $LN3
	DD	imagerel $LN3+98
	DD	imagerel $unwind$??$LD$rr@$02$04@Cpu@gb@emulation@@AEAAXXZ
pdata	ENDS
;	COMDAT pdata
pdata	SEGMENT
$pdata$??$LD$rr@$02$03@Cpu@gb@emulation@@AEAAXXZ DD imagerel $LN3
	DD	imagerel $LN3+98
	DD	imagerel $unwind$??$LD$rr@$02$03@Cpu@gb@emulation@@AEAAXXZ
pdata	ENDS
;	COMDAT pdata
pdata	SEGMENT
$pdata$??$LD$rr@$02$06@Cpu@gb@emulation@@AEAAXXZ DD imagerel $LN3
	DD	imagerel $LN3+98
	DD	imagerel $unwind$??$LD$rr@$02$06@Cpu@gb@emulation@@AEAAXXZ
pdata	ENDS
;	COMDAT pdata
pdata	SEGMENT
$pdata$??$LD$rr@$02$05@Cpu@gb@emulation@@AEAAXXZ DD imagerel $LN3
	DD	imagerel $LN3+98
	DD	imagerel $unwind$??$LD$rr@$02$05@Cpu@gb@emulation@@AEAAXXZ
pdata	ENDS
;	COMDAT pdata
pdata	SEGMENT
$pdata$??$LD$rr@$02$00@Cpu@gb@emulation@@AEAAXXZ DD imagerel $LN3
	DD	imagerel $LN3+98
	DD	imagerel $unwind$??$LD$rr@$02$00@Cpu@gb@emulation@@AEAAXXZ
pdata	ENDS
;	COMDAT pdata
pdata	SEGMENT
$pdata$??$LDrr@$00$02@Cpu@gb@emulation@@AEAAXXZ DD imagerel $LN3
	DD	imagerel $LN3+52
	DD	imagerel $unwind$??$LDrr@$00$02@Cpu@gb@emulation@@AEAAXXZ
pdata	ENDS
;	COMDAT pdata
pdata	SEGMENT
$pdata$??$LDrr@$00$01@Cpu@gb@emulation@@AEAAXXZ DD imagerel $LN3
	DD	imagerel $LN3+52
	DD	imagerel $unwind$??$LDrr@$00$01@Cpu@gb@emulation@@AEAAXXZ
pdata	ENDS
;	COMDAT pdata
pdata	SEGMENT
$pdata$??$LDrr@$00$04@Cpu@gb@emulation@@AEAAXXZ DD imagerel $LN3
	DD	imagerel $LN3+52
	DD	imagerel $unwind$??$LDrr@$00$04@Cpu@gb@emulation@@AEAAXXZ
pdata	ENDS
;	COMDAT pdata
pdata	SEGMENT
$pdata$??$LDrr@$00$03@Cpu@gb@emulation@@AEAAXXZ DD imagerel $LN3
	DD	imagerel $LN3+52
	DD	imagerel $unwind$??$LDrr@$00$03@Cpu@gb@emulation@@AEAAXXZ
pdata	ENDS
;	COMDAT pdata
pdata	SEGMENT
$pdata$??$LDrr@$00$06@Cpu@gb@emulation@@AEAAXXZ DD imagerel $LN3
	DD	imagerel $LN3+52
	DD	imagerel $unwind$??$LDrr@$00$06@Cpu@gb@emulation@@AEAAXXZ
pdata	ENDS
;	COMDAT pdata
pdata	SEGMENT
$pdata$??$LDrr@$00$05@Cpu@gb@emulation@@AEAAXXZ DD imagerel $LN3
	DD	imagerel $LN3+52
	DD	imagerel $unwind$??$LDrr@$00$05@Cpu@gb@emulation@@AEAAXXZ
pdata	ENDS
;	COMDAT pdata
pdata	SEGMENT
$pdata$??$LDr$r@$00$02@Cpu@gb@emulation@@AEAAXXZ DD imagerel $LN3
	DD	imagerel $LN3+96
	DD	imagerel $unwind$??$LDr$r@$00$02@Cpu@gb@emulation@@AEAAXXZ
pdata	ENDS
;	COMDAT pdata
pdata	SEGMENT
$pdata$??$LDrr@$00$00@Cpu@gb@emulation@@AEAAXXZ DD imagerel $LN3
	DD	imagerel $LN3+52
	DD	imagerel $unwind$??$LDrr@$00$00@Cpu@gb@emulation@@AEAAXXZ
pdata	ENDS
;	COMDAT pdata
pdata	SEGMENT
$pdata$??$ADD@$00$02$0A@@Cpu@gb@emulation@@AEAAXXZ DD imagerel $LN3
	DD	imagerel $LN3+219
	DD	imagerel $unwind$??$ADD@$00$02$0A@@Cpu@gb@emulation@@AEAAXXZ
pdata	ENDS
;	COMDAT pdata
pdata	SEGMENT
$pdata$??$ADD@$00$01$0A@@Cpu@gb@emulation@@AEAAXXZ DD imagerel $LN3
	DD	imagerel $LN3+219
	DD	imagerel $unwind$??$ADD@$00$01$0A@@Cpu@gb@emulation@@AEAAXXZ
pdata	ENDS
;	COMDAT pdata
pdata	SEGMENT
$pdata$??$ADD@$00$04$0A@@Cpu@gb@emulation@@AEAAXXZ DD imagerel $LN3
	DD	imagerel $LN3+219
	DD	imagerel $unwind$??$ADD@$00$04$0A@@Cpu@gb@emulation@@AEAAXXZ
pdata	ENDS
;	COMDAT pdata
pdata	SEGMENT
$pdata$??$ADD@$00$03$0A@@Cpu@gb@emulation@@AEAAXXZ DD imagerel $LN3
	DD	imagerel $LN3+219
	DD	imagerel $unwind$??$ADD@$00$03$0A@@Cpu@gb@emulation@@AEAAXXZ
pdata	ENDS
;	COMDAT pdata
pdata	SEGMENT
$pdata$??$ADD@$00$06$0A@@Cpu@gb@emulation@@AEAAXXZ DD imagerel $LN3
	DD	imagerel $LN3+219
	DD	imagerel $unwind$??$ADD@$00$06$0A@@Cpu@gb@emulation@@AEAAXXZ
pdata	ENDS
;	COMDAT pdata
pdata	SEGMENT
$pdata$??$ADD@$00$05$0A@@Cpu@gb@emulation@@AEAAXXZ DD imagerel $LN3
	DD	imagerel $LN3+219
	DD	imagerel $unwind$??$ADD@$00$05$0A@@Cpu@gb@emulation@@AEAAXXZ
pdata	ENDS
;	COMDAT pdata
pdata	SEGMENT
$pdata$??$ADD@$00$02$00@Cpu@gb@emulation@@AEAAXXZ DD imagerel $LN3
	DD	imagerel $LN3+219
	DD	imagerel $unwind$??$ADD@$00$02$00@Cpu@gb@emulation@@AEAAXXZ
pdata	ENDS
;	COMDAT pdata
pdata	SEGMENT
$pdata$??$ADD@$00$00$0A@@Cpu@gb@emulation@@AEAAXXZ DD imagerel $LN3
	DD	imagerel $LN3+219
	DD	imagerel $unwind$??$ADD@$00$00$0A@@Cpu@gb@emulation@@AEAAXXZ
pdata	ENDS
;	COMDAT pdata
pdata	SEGMENT
$pdata$??$ADC@$00$02$0A@@Cpu@gb@emulation@@AEAAXXZ DD imagerel $LN6
	DD	imagerel $LN6+462
	DD	imagerel $unwind$??$ADC@$00$02$0A@@Cpu@gb@emulation@@AEAAXXZ
pdata	ENDS
;	COMDAT pdata
pdata	SEGMENT
$pdata$??$ADC@$00$01$0A@@Cpu@gb@emulation@@AEAAXXZ DD imagerel $LN6
	DD	imagerel $LN6+462
	DD	imagerel $unwind$??$ADC@$00$01$0A@@Cpu@gb@emulation@@AEAAXXZ
pdata	ENDS
;	COMDAT pdata
pdata	SEGMENT
$pdata$??$ADC@$00$04$0A@@Cpu@gb@emulation@@AEAAXXZ DD imagerel $LN6
	DD	imagerel $LN6+462
	DD	imagerel $unwind$??$ADC@$00$04$0A@@Cpu@gb@emulation@@AEAAXXZ
pdata	ENDS
;	COMDAT pdata
pdata	SEGMENT
$pdata$??$ADC@$00$03$0A@@Cpu@gb@emulation@@AEAAXXZ DD imagerel $LN6
	DD	imagerel $LN6+462
	DD	imagerel $unwind$??$ADC@$00$03$0A@@Cpu@gb@emulation@@AEAAXXZ
pdata	ENDS
;	COMDAT pdata
pdata	SEGMENT
$pdata$??$ADC@$00$06$0A@@Cpu@gb@emulation@@AEAAXXZ DD imagerel $LN6
	DD	imagerel $LN6+462
	DD	imagerel $unwind$??$ADC@$00$06$0A@@Cpu@gb@emulation@@AEAAXXZ
pdata	ENDS
;	COMDAT pdata
pdata	SEGMENT
$pdata$??$ADC@$00$05$0A@@Cpu@gb@emulation@@AEAAXXZ DD imagerel $LN6
	DD	imagerel $LN6+462
	DD	imagerel $unwind$??$ADC@$00$05$0A@@Cpu@gb@emulation@@AEAAXXZ
pdata	ENDS
;	COMDAT pdata
pdata	SEGMENT
$pdata$??$ADC@$00$02$00@Cpu@gb@emulation@@AEAAXXZ DD imagerel $LN6
	DD	imagerel $LN6+462
	DD	imagerel $unwind$??$ADC@$00$02$00@Cpu@gb@emulation@@AEAAXXZ
pdata	ENDS
;	COMDAT pdata
pdata	SEGMENT
$pdata$??$ADC@$00$00$0A@@Cpu@gb@emulation@@AEAAXXZ DD imagerel $LN6
	DD	imagerel $LN6+462
	DD	imagerel $unwind$??$ADC@$00$00$0A@@Cpu@gb@emulation@@AEAAXXZ
pdata	ENDS
;	COMDAT pdata
pdata	SEGMENT
$pdata$??$SUB@$00$02$0A@@Cpu@gb@emulation@@AEAAXXZ DD imagerel $LN3
	DD	imagerel $LN3+225
	DD	imagerel $unwind$??$SUB@$00$02$0A@@Cpu@gb@emulation@@AEAAXXZ
pdata	ENDS
;	COMDAT pdata
pdata	SEGMENT
$pdata$??$SUB@$00$01$0A@@Cpu@gb@emulation@@AEAAXXZ DD imagerel $LN3
	DD	imagerel $LN3+225
	DD	imagerel $unwind$??$SUB@$00$01$0A@@Cpu@gb@emulation@@AEAAXXZ
pdata	ENDS
;	COMDAT pdata
pdata	SEGMENT
$pdata$??$SUB@$00$04$0A@@Cpu@gb@emulation@@AEAAXXZ DD imagerel $LN3
	DD	imagerel $LN3+225
	DD	imagerel $unwind$??$SUB@$00$04$0A@@Cpu@gb@emulation@@AEAAXXZ
pdata	ENDS
;	COMDAT pdata
pdata	SEGMENT
$pdata$??$SUB@$00$03$0A@@Cpu@gb@emulation@@AEAAXXZ DD imagerel $LN3
	DD	imagerel $LN3+225
	DD	imagerel $unwind$??$SUB@$00$03$0A@@Cpu@gb@emulation@@AEAAXXZ
pdata	ENDS
;	COMDAT pdata
pdata	SEGMENT
$pdata$??$SUB@$00$06$0A@@Cpu@gb@emulation@@AEAAXXZ DD imagerel $LN3
	DD	imagerel $LN3+225
	DD	imagerel $unwind$??$SUB@$00$06$0A@@Cpu@gb@emulation@@AEAAXXZ
pdata	ENDS
;	COMDAT pdata
pdata	SEGMENT
$pdata$??$SUB@$00$05$0A@@Cpu@gb@emulation@@AEAAXXZ DD imagerel $LN3
	DD	imagerel $LN3+225
	DD	imagerel $unwind$??$SUB@$00$05$0A@@Cpu@gb@emulation@@AEAAXXZ
pdata	ENDS
;	COMDAT pdata
pdata	SEGMENT
$pdata$??$SUB@$00$02$00@Cpu@gb@emulation@@AEAAXXZ DD imagerel $LN3
	DD	imagerel $LN3+225
	DD	imagerel $unwind$??$SUB@$00$02$00@Cpu@gb@emulation@@AEAAXXZ
pdata	ENDS
;	COMDAT pdata
pdata	SEGMENT
$pdata$??$SUB@$00$00$0A@@Cpu@gb@emulation@@AEAAXXZ DD imagerel $LN3
	DD	imagerel $LN3+225
	DD	imagerel $unwind$??$SUB@$00$00$0A@@Cpu@gb@emulation@@AEAAXXZ
pdata	ENDS
;	COMDAT pdata
pdata	SEGMENT
$pdata$??$SBC@$00$02$0A@@Cpu@gb@emulation@@AEAAXXZ DD imagerel $LN5
	DD	imagerel $LN5+375
	DD	imagerel $unwind$??$SBC@$00$02$0A@@Cpu@gb@emulation@@AEAAXXZ
pdata	ENDS
;	COMDAT pdata
pdata	SEGMENT
$pdata$??$SBC@$00$01$0A@@Cpu@gb@emulation@@AEAAXXZ DD imagerel $LN5
	DD	imagerel $LN5+375
	DD	imagerel $unwind$??$SBC@$00$01$0A@@Cpu@gb@emulation@@AEAAXXZ
pdata	ENDS
;	COMDAT pdata
pdata	SEGMENT
$pdata$??$SBC@$00$04$0A@@Cpu@gb@emulation@@AEAAXXZ DD imagerel $LN5
	DD	imagerel $LN5+375
	DD	imagerel $unwind$??$SBC@$00$04$0A@@Cpu@gb@emulation@@AEAAXXZ
pdata	ENDS
;	COMDAT pdata
pdata	SEGMENT
$pdata$??$SBC@$00$03$0A@@Cpu@gb@emulation@@AEAAXXZ DD imagerel $LN5
	DD	imagerel $LN5+375
	DD	imagerel $unwind$??$SBC@$00$03$0A@@Cpu@gb@emulation@@AEAAXXZ
pdata	ENDS
;	COMDAT pdata
pdata	SEGMENT
$pdata$??$SBC@$00$06$0A@@Cpu@gb@emulation@@AEAAXXZ DD imagerel $LN5
	DD	imagerel $LN5+375
	DD	imagerel $unwind$??$SBC@$00$06$0A@@Cpu@gb@emulation@@AEAAXXZ
pdata	ENDS
;	COMDAT pdata
pdata	SEGMENT
$pdata$??$SBC@$00$05$0A@@Cpu@gb@emulation@@AEAAXXZ DD imagerel $LN5
	DD	imagerel $LN5+375
	DD	imagerel $unwind$??$SBC@$00$05$0A@@Cpu@gb@emulation@@AEAAXXZ
pdata	ENDS
;	COMDAT pdata
pdata	SEGMENT
$pdata$??$SBC@$00$02$00@Cpu@gb@emulation@@AEAAXXZ DD imagerel $LN5
	DD	imagerel $LN5+375
	DD	imagerel $unwind$??$SBC@$00$02$00@Cpu@gb@emulation@@AEAAXXZ
pdata	ENDS
;	COMDAT pdata
pdata	SEGMENT
$pdata$??$SBC@$00$00$0A@@Cpu@gb@emulation@@AEAAXXZ DD imagerel $LN5
	DD	imagerel $LN5+375
	DD	imagerel $unwind$??$SBC@$00$00$0A@@Cpu@gb@emulation@@AEAAXXZ
pdata	ENDS
;	COMDAT pdata
pdata	SEGMENT
$pdata$??$AND@$00$02$0A@@Cpu@gb@emulation@@AEAAXXZ DD imagerel $LN3
	DD	imagerel $LN3+183
	DD	imagerel $unwind$??$AND@$00$02$0A@@Cpu@gb@emulation@@AEAAXXZ
pdata	ENDS
;	COMDAT pdata
pdata	SEGMENT
$pdata$??$AND@$00$01$0A@@Cpu@gb@emulation@@AEAAXXZ DD imagerel $LN3
	DD	imagerel $LN3+183
	DD	imagerel $unwind$??$AND@$00$01$0A@@Cpu@gb@emulation@@AEAAXXZ
pdata	ENDS
;	COMDAT pdata
pdata	SEGMENT
$pdata$??$AND@$00$04$0A@@Cpu@gb@emulation@@AEAAXXZ DD imagerel $LN3
	DD	imagerel $LN3+183
	DD	imagerel $unwind$??$AND@$00$04$0A@@Cpu@gb@emulation@@AEAAXXZ
pdata	ENDS
;	COMDAT pdata
pdata	SEGMENT
$pdata$??$AND@$00$03$0A@@Cpu@gb@emulation@@AEAAXXZ DD imagerel $LN3
	DD	imagerel $LN3+183
	DD	imagerel $unwind$??$AND@$00$03$0A@@Cpu@gb@emulation@@AEAAXXZ
pdata	ENDS
;	COMDAT pdata
pdata	SEGMENT
$pdata$??$AND@$00$06$0A@@Cpu@gb@emulation@@AEAAXXZ DD imagerel $LN3
	DD	imagerel $LN3+183
	DD	imagerel $unwind$??$AND@$00$06$0A@@Cpu@gb@emulation@@AEAAXXZ
pdata	ENDS
;	COMDAT pdata
pdata	SEGMENT
$pdata$??$AND@$00$05$0A@@Cpu@gb@emulation@@AEAAXXZ DD imagerel $LN3
	DD	imagerel $LN3+183
	DD	imagerel $unwind$??$AND@$00$05$0A@@Cpu@gb@emulation@@AEAAXXZ
pdata	ENDS
;	COMDAT pdata
pdata	SEGMENT
$pdata$??$AND@$00$02$00@Cpu@gb@emulation@@AEAAXXZ DD imagerel $LN3
	DD	imagerel $LN3+183
	DD	imagerel $unwind$??$AND@$00$02$00@Cpu@gb@emulation@@AEAAXXZ
pdata	ENDS
;	COMDAT pdata
pdata	SEGMENT
$pdata$??$AND@$00$00$0A@@Cpu@gb@emulation@@AEAAXXZ DD imagerel $LN3
	DD	imagerel $LN3+183
	DD	imagerel $unwind$??$AND@$00$00$0A@@Cpu@gb@emulation@@AEAAXXZ
pdata	ENDS
;	COMDAT pdata
pdata	SEGMENT
$pdata$??$XOR@$00$02$0A@@Cpu@gb@emulation@@AEAAXXZ DD imagerel $LN3
	DD	imagerel $LN3+158
	DD	imagerel $unwind$??$XOR@$00$02$0A@@Cpu@gb@emulation@@AEAAXXZ
pdata	ENDS
;	COMDAT pdata
pdata	SEGMENT
$pdata$??$XOR@$00$01$0A@@Cpu@gb@emulation@@AEAAXXZ DD imagerel $LN3
	DD	imagerel $LN3+158
	DD	imagerel $unwind$??$XOR@$00$01$0A@@Cpu@gb@emulation@@AEAAXXZ
pdata	ENDS
;	COMDAT pdata
pdata	SEGMENT
$pdata$??$XOR@$00$04$0A@@Cpu@gb@emulation@@AEAAXXZ DD imagerel $LN3
	DD	imagerel $LN3+158
	DD	imagerel $unwind$??$XOR@$00$04$0A@@Cpu@gb@emulation@@AEAAXXZ
pdata	ENDS
;	COMDAT pdata
pdata	SEGMENT
$pdata$??$XOR@$00$03$0A@@Cpu@gb@emulation@@AEAAXXZ DD imagerel $LN3
	DD	imagerel $LN3+158
	DD	imagerel $unwind$??$XOR@$00$03$0A@@Cpu@gb@emulation@@AEAAXXZ
pdata	ENDS
;	COMDAT pdata
pdata	SEGMENT
$pdata$??$XOR@$00$06$0A@@Cpu@gb@emulation@@AEAAXXZ DD imagerel $LN3
	DD	imagerel $LN3+158
	DD	imagerel $unwind$??$XOR@$00$06$0A@@Cpu@gb@emulation@@AEAAXXZ
pdata	ENDS
;	COMDAT pdata
pdata	SEGMENT
$pdata$??$XOR@$00$05$0A@@Cpu@gb@emulation@@AEAAXXZ DD imagerel $LN3
	DD	imagerel $LN3+158
	DD	imagerel $unwind$??$XOR@$00$05$0A@@Cpu@gb@emulation@@AEAAXXZ
pdata	ENDS
;	COMDAT pdata
pdata	SEGMENT
$pdata$??$XOR@$00$02$00@Cpu@gb@emulation@@AEAAXXZ DD imagerel $LN3
	DD	imagerel $LN3+158
	DD	imagerel $unwind$??$XOR@$00$02$00@Cpu@gb@emulation@@AEAAXXZ
pdata	ENDS
;	COMDAT pdata
pdata	SEGMENT
$pdata$??$XOR@$00$00$0A@@Cpu@gb@emulation@@AEAAXXZ DD imagerel $LN3
	DD	imagerel $LN3+158
	DD	imagerel $unwind$??$XOR@$00$00$0A@@Cpu@gb@emulation@@AEAAXXZ
pdata	ENDS
;	COMDAT pdata
pdata	SEGMENT
$pdata$??$OR@$00$02$0A@@Cpu@gb@emulation@@AEAAXXZ DD imagerel $LN3
	DD	imagerel $LN3+158
	DD	imagerel $unwind$??$OR@$00$02$0A@@Cpu@gb@emulation@@AEAAXXZ
pdata	ENDS
;	COMDAT pdata
pdata	SEGMENT
$pdata$??$OR@$00$01$0A@@Cpu@gb@emulation@@AEAAXXZ DD imagerel $LN3
	DD	imagerel $LN3+158
	DD	imagerel $unwind$??$OR@$00$01$0A@@Cpu@gb@emulation@@AEAAXXZ
pdata	ENDS
;	COMDAT pdata
pdata	SEGMENT
$pdata$??$OR@$00$04$0A@@Cpu@gb@emulation@@AEAAXXZ DD imagerel $LN3
	DD	imagerel $LN3+158
	DD	imagerel $unwind$??$OR@$00$04$0A@@Cpu@gb@emulation@@AEAAXXZ
pdata	ENDS
;	COMDAT pdata
pdata	SEGMENT
$pdata$??$OR@$00$03$0A@@Cpu@gb@emulation@@AEAAXXZ DD imagerel $LN3
	DD	imagerel $LN3+158
	DD	imagerel $unwind$??$OR@$00$03$0A@@Cpu@gb@emulation@@AEAAXXZ
pdata	ENDS
;	COMDAT pdata
pdata	SEGMENT
$pdata$??$OR@$00$06$0A@@Cpu@gb@emulation@@AEAAXXZ DD imagerel $LN3
	DD	imagerel $LN3+158
	DD	imagerel $unwind$??$OR@$00$06$0A@@Cpu@gb@emulation@@AEAAXXZ
pdata	ENDS
;	COMDAT pdata
pdata	SEGMENT
$pdata$??$OR@$00$05$0A@@Cpu@gb@emulation@@AEAAXXZ DD imagerel $LN3
	DD	imagerel $LN3+158
	DD	imagerel $unwind$??$OR@$00$05$0A@@Cpu@gb@emulation@@AEAAXXZ
pdata	ENDS
;	COMDAT pdata
pdata	SEGMENT
$pdata$??$OR@$00$02$00@Cpu@gb@emulation@@AEAAXXZ DD imagerel $LN3
	DD	imagerel $LN3+158
	DD	imagerel $unwind$??$OR@$00$02$00@Cpu@gb@emulation@@AEAAXXZ
pdata	ENDS
;	COMDAT pdata
pdata	SEGMENT
$pdata$??$OR@$00$00$0A@@Cpu@gb@emulation@@AEAAXXZ DD imagerel $LN3
	DD	imagerel $LN3+158
	DD	imagerel $unwind$??$OR@$00$00$0A@@Cpu@gb@emulation@@AEAAXXZ
pdata	ENDS
;	COMDAT pdata
pdata	SEGMENT
$pdata$??$CP_reg@$02@Cpu@gb@emulation@@AEAAXXZ DD imagerel $LN3
	DD	imagerel $LN3+81
	DD	imagerel $unwind$??$CP_reg@$02@Cpu@gb@emulation@@AEAAXXZ
pdata	ENDS
;	COMDAT pdata
pdata	SEGMENT
$pdata$??$CP_reg@$01@Cpu@gb@emulation@@AEAAXXZ DD imagerel $LN3
	DD	imagerel $LN3+81
	DD	imagerel $unwind$??$CP_reg@$01@Cpu@gb@emulation@@AEAAXXZ
pdata	ENDS
;	COMDAT pdata
pdata	SEGMENT
$pdata$??$CP_reg@$04@Cpu@gb@emulation@@AEAAXXZ DD imagerel $LN3
	DD	imagerel $LN3+81
	DD	imagerel $unwind$??$CP_reg@$04@Cpu@gb@emulation@@AEAAXXZ
pdata	ENDS
;	COMDAT pdata
pdata	SEGMENT
$pdata$??$CP_reg@$03@Cpu@gb@emulation@@AEAAXXZ DD imagerel $LN3
	DD	imagerel $LN3+81
	DD	imagerel $unwind$??$CP_reg@$03@Cpu@gb@emulation@@AEAAXXZ
pdata	ENDS
;	COMDAT pdata
pdata	SEGMENT
$pdata$??$CP_reg@$06@Cpu@gb@emulation@@AEAAXXZ DD imagerel $LN3
	DD	imagerel $LN3+81
	DD	imagerel $unwind$??$CP_reg@$06@Cpu@gb@emulation@@AEAAXXZ
pdata	ENDS
;	COMDAT pdata
pdata	SEGMENT
$pdata$??$CP_reg@$05@Cpu@gb@emulation@@AEAAXXZ DD imagerel $LN3
	DD	imagerel $LN3+81
	DD	imagerel $unwind$??$CP_reg@$05@Cpu@gb@emulation@@AEAAXXZ
pdata	ENDS
;	COMDAT pdata
pdata	SEGMENT
$pdata$??$CP_reg@$00@Cpu@gb@emulation@@AEAAXXZ DD imagerel $LN3
	DD	imagerel $LN3+81
	DD	imagerel $unwind$??$CP_reg@$00@Cpu@gb@emulation@@AEAAXXZ
pdata	ENDS
;	COMDAT pdata
pdata	SEGMENT
$pdata$??$RET_cc@$06$00@Cpu@gb@emulation@@AEAAXXZ DD imagerel $LN5
	DD	imagerel $LN5+171
	DD	imagerel $unwind$??$RET_cc@$06$00@Cpu@gb@emulation@@AEAAXXZ
pdata	ENDS
;	COMDAT pdata
pdata	SEGMENT
$pdata$??$POP@$00@Cpu@gb@emulation@@AEAAXXZ DD imagerel $LN4
	DD	imagerel $LN4+186
	DD	imagerel $unwind$??$POP@$00@Cpu@gb@emulation@@AEAAXXZ
pdata	ENDS
;	COMDAT pdata
pdata	SEGMENT
$pdata$??$JP_cc@$06$00@Cpu@gb@emulation@@AEAAXXZ DD imagerel $LN5
	DD	imagerel $LN5+296
	DD	imagerel $unwind$??$JP_cc@$06$00@Cpu@gb@emulation@@AEAAXXZ
pdata	ENDS
;	COMDAT pdata
pdata	SEGMENT
$pdata$??$CALL_cc@$06$00@Cpu@gb@emulation@@AEAAXXZ DD imagerel $LN5
	DD	imagerel $LN5+296
	DD	imagerel $unwind$??$CALL_cc@$06$00@Cpu@gb@emulation@@AEAAXXZ
pdata	ENDS
;	COMDAT pdata
pdata	SEGMENT
$pdata$??$PUSH@$00@Cpu@gb@emulation@@AEAAXXZ DD imagerel $LN3
	DD	imagerel $LN3+164
	DD	imagerel $unwind$??$PUSH@$00@Cpu@gb@emulation@@AEAAXXZ
pdata	ENDS
;	COMDAT pdata
pdata	SEGMENT
$pdata$??$ADD@$00$0A@$01@Cpu@gb@emulation@@AEAAXXZ DD imagerel $LN3
	DD	imagerel $LN3+219
	DD	imagerel $unwind$??$ADD@$00$0A@$01@Cpu@gb@emulation@@AEAAXXZ
pdata	ENDS
;	COMDAT pdata
pdata	SEGMENT
$pdata$??$RET_cc@$06$0A@@Cpu@gb@emulation@@AEAAXXZ DD imagerel $LN5
	DD	imagerel $LN5+171
	DD	imagerel $unwind$??$RET_cc@$06$0A@@Cpu@gb@emulation@@AEAAXXZ
pdata	ENDS
;	COMDAT pdata
pdata	SEGMENT
$pdata$??$JP_cc@$06$0A@@Cpu@gb@emulation@@AEAAXXZ DD imagerel $LN5
	DD	imagerel $LN5+296
	DD	imagerel $unwind$??$JP_cc@$06$0A@@Cpu@gb@emulation@@AEAAXXZ
pdata	ENDS
;	COMDAT pdata
pdata	SEGMENT
$pdata$??$CALL_cc@$06$0A@@Cpu@gb@emulation@@AEAAXXZ DD imagerel $LN5
	DD	imagerel $LN5+296
	DD	imagerel $unwind$??$CALL_cc@$06$0A@@Cpu@gb@emulation@@AEAAXXZ
pdata	ENDS
;	COMDAT pdata
pdata	SEGMENT
$pdata$??$ADC@$00$0A@$01@Cpu@gb@emulation@@AEAAXXZ DD imagerel $LN6
	DD	imagerel $LN6+462
	DD	imagerel $unwind$??$ADC@$00$0A@$01@Cpu@gb@emulation@@AEAAXXZ
pdata	ENDS
;	COMDAT pdata
pdata	SEGMENT
$pdata$??$RET_cc@$03$00@Cpu@gb@emulation@@AEAAXXZ DD imagerel $LN5
	DD	imagerel $LN5+167
	DD	imagerel $unwind$??$RET_cc@$03$00@Cpu@gb@emulation@@AEAAXXZ
pdata	ENDS
;	COMDAT pdata
pdata	SEGMENT
$pdata$??$POP@$01@Cpu@gb@emulation@@AEAAXXZ DD imagerel $LN4
	DD	imagerel $LN4+186
	DD	imagerel $unwind$??$POP@$01@Cpu@gb@emulation@@AEAAXXZ
pdata	ENDS
;	COMDAT pdata
pdata	SEGMENT
$pdata$??$JP_cc@$03$00@Cpu@gb@emulation@@AEAAXXZ DD imagerel $LN5
	DD	imagerel $LN5+292
	DD	imagerel $unwind$??$JP_cc@$03$00@Cpu@gb@emulation@@AEAAXXZ
pdata	ENDS
;	COMDAT pdata
pdata	SEGMENT
$pdata$??$CALL_cc@$03$00@Cpu@gb@emulation@@AEAAXXZ DD imagerel $LN5
	DD	imagerel $LN5+292
	DD	imagerel $unwind$??$CALL_cc@$03$00@Cpu@gb@emulation@@AEAAXXZ
pdata	ENDS
;	COMDAT pdata
pdata	SEGMENT
$pdata$??$PUSH@$01@Cpu@gb@emulation@@AEAAXXZ DD imagerel $LN3
	DD	imagerel $LN3+164
	DD	imagerel $unwind$??$PUSH@$01@Cpu@gb@emulation@@AEAAXXZ
pdata	ENDS
;	COMDAT pdata
pdata	SEGMENT
$pdata$??$SUB@$00$0A@$01@Cpu@gb@emulation@@AEAAXXZ DD imagerel $LN3
	DD	imagerel $LN3+225
	DD	imagerel $unwind$??$SUB@$00$0A@$01@Cpu@gb@emulation@@AEAAXXZ
pdata	ENDS
;	COMDAT pdata
pdata	SEGMENT
$pdata$??$RET_cc@$03$0A@@Cpu@gb@emulation@@AEAAXXZ DD imagerel $LN5
	DD	imagerel $LN5+167
	DD	imagerel $unwind$??$RET_cc@$03$0A@@Cpu@gb@emulation@@AEAAXXZ
pdata	ENDS
;	COMDAT pdata
pdata	SEGMENT
$pdata$??$JP_cc@$03$0A@@Cpu@gb@emulation@@AEAAXXZ DD imagerel $LN5
	DD	imagerel $LN5+292
	DD	imagerel $unwind$??$JP_cc@$03$0A@@Cpu@gb@emulation@@AEAAXXZ
pdata	ENDS
;	COMDAT pdata
pdata	SEGMENT
$pdata$??$CALL_cc@$03$0A@@Cpu@gb@emulation@@AEAAXXZ DD imagerel $LN5
	DD	imagerel $LN5+292
	DD	imagerel $unwind$??$CALL_cc@$03$0A@@Cpu@gb@emulation@@AEAAXXZ
pdata	ENDS
;	COMDAT pdata
pdata	SEGMENT
$pdata$??$SBC@$00$0A@$01@Cpu@gb@emulation@@AEAAXXZ DD imagerel $LN5
	DD	imagerel $LN5+375
	DD	imagerel $unwind$??$SBC@$00$0A@$01@Cpu@gb@emulation@@AEAAXXZ
pdata	ENDS
;	COMDAT pdata
pdata	SEGMENT
$pdata$??$LD@$0A@$00$0M@@Cpu@gb@emulation@@AEAAXXZ DD imagerel $LN14
	DD	imagerel $LN14+965
	DD	imagerel $unwind$??$LD@$0A@$00$0M@@Cpu@gb@emulation@@AEAAXXZ
pdata	ENDS
;	COMDAT pdata
pdata	SEGMENT
$pdata$??$POP@$02@Cpu@gb@emulation@@AEAAXXZ DD imagerel $LN4
	DD	imagerel $LN4+186
	DD	imagerel $unwind$??$POP@$02@Cpu@gb@emulation@@AEAAXXZ
pdata	ENDS
;	COMDAT pdata
pdata	SEGMENT
$pdata$??$LD$FF00rr@$01$00@Cpu@gb@emulation@@AEAAXXZ DD imagerel $LN3
	DD	imagerel $LN3+107
	DD	imagerel $unwind$??$LD$FF00rr@$01$00@Cpu@gb@emulation@@AEAAXXZ
pdata	ENDS
;	COMDAT pdata
pdata	SEGMENT
$pdata$??$PUSH@$02@Cpu@gb@emulation@@AEAAXXZ DD imagerel $LN3
	DD	imagerel $LN3+164
	DD	imagerel $unwind$??$PUSH@$02@Cpu@gb@emulation@@AEAAXXZ
pdata	ENDS
;	COMDAT pdata
pdata	SEGMENT
$pdata$??$AND@$00$0A@$01@Cpu@gb@emulation@@AEAAXXZ DD imagerel $LN3
	DD	imagerel $LN3+183
	DD	imagerel $unwind$??$AND@$00$0A@$01@Cpu@gb@emulation@@AEAAXXZ
pdata	ENDS
;	COMDAT pdata
pdata	SEGMENT
$pdata$??$LD@$0A@$00$0O@@Cpu@gb@emulation@@AEAAXXZ DD imagerel $LN14
	DD	imagerel $LN14+965
	DD	imagerel $unwind$??$LD@$0A@$00$0O@@Cpu@gb@emulation@@AEAAXXZ
pdata	ENDS
;	COMDAT pdata
pdata	SEGMENT
$pdata$??$XOR@$00$0A@$01@Cpu@gb@emulation@@AEAAXXZ DD imagerel $LN3
	DD	imagerel $LN3+158
	DD	imagerel $unwind$??$XOR@$00$0A@$01@Cpu@gb@emulation@@AEAAXXZ
pdata	ENDS
;	COMDAT pdata
pdata	SEGMENT
$pdata$??$LD@$00$0A@$0N@@Cpu@gb@emulation@@AEAAXXZ DD imagerel $LN14
	DD	imagerel $LN14+965
	DD	imagerel $unwind$??$LD@$00$0A@$0N@@Cpu@gb@emulation@@AEAAXXZ
pdata	ENDS
;	COMDAT pdata
pdata	SEGMENT
$pdata$??$POP@$0A@@Cpu@gb@emulation@@AEAAXXZ DD imagerel $LN4
	DD	imagerel $LN4+187
	DD	imagerel $unwind$??$POP@$0A@@Cpu@gb@emulation@@AEAAXXZ
pdata	ENDS
;	COMDAT pdata
pdata	SEGMENT
$pdata$??$LDr$FF00r@$00$01@Cpu@gb@emulation@@AEAAXXZ DD imagerel $LN3
	DD	imagerel $LN3+104
	DD	imagerel $unwind$??$LDr$FF00r@$00$01@Cpu@gb@emulation@@AEAAXXZ
pdata	ENDS
;	COMDAT pdata
pdata	SEGMENT
$pdata$??$PUSH@$0A@@Cpu@gb@emulation@@AEAAXXZ DD imagerel $LN3
	DD	imagerel $LN3+164
	DD	imagerel $unwind$??$PUSH@$0A@@Cpu@gb@emulation@@AEAAXXZ
pdata	ENDS
;	COMDAT pdata
pdata	SEGMENT
$pdata$??$OR@$00$0A@$01@Cpu@gb@emulation@@AEAAXXZ DD imagerel $LN3
	DD	imagerel $LN3+158
	DD	imagerel $unwind$??$OR@$00$0A@$01@Cpu@gb@emulation@@AEAAXXZ
pdata	ENDS
;	COMDAT pdata
pdata	SEGMENT
$pdata$??$LD@$00$0A@$0P@@Cpu@gb@emulation@@AEAAXXZ DD imagerel $LN14
	DD	imagerel $LN14+965
	DD	imagerel $unwind$??$LD@$00$0A@$0P@@Cpu@gb@emulation@@AEAAXXZ
pdata	ENDS
pdata	SEGMENT
$pdata$??0<lambda_e6006dac0a8482b356b9f0c5ff6de944>@@QEAA@AEBEPEAVCpu@gb@emulation@@@Z DD imagerel ??0<lambda_e6006dac0a8482b356b9f0c5ff6de944>@@QEAA@AEBEPEAVCpu@gb@emulation@@@Z
	DD	imagerel ??0<lambda_e6006dac0a8482b356b9f0c5ff6de944>@@QEAA@AEBEPEAVCpu@gb@emulation@@@Z+52
	DD	imagerel $unwind$??0<lambda_e6006dac0a8482b356b9f0c5ff6de944>@@QEAA@AEBEPEAVCpu@gb@emulation@@@Z
$pdata$??R<lambda_e6006dac0a8482b356b9f0c5ff6de944>@@QEBAEXZ DD imagerel ??R<lambda_e6006dac0a8482b356b9f0c5ff6de944>@@QEBAEXZ
	DD	imagerel ??R<lambda_e6006dac0a8482b356b9f0c5ff6de944>@@QEBAEXZ+135
	DD	imagerel $unwind$??R<lambda_e6006dac0a8482b356b9f0c5ff6de944>@@QEBAEXZ
$pdata$??0<lambda_dcf6fcf4240e7a010887eba0f732f129>@@QEAA@AEBEPEAVCpu@gb@emulation@@@Z DD imagerel ??0<lambda_dcf6fcf4240e7a010887eba0f732f129>@@QEAA@AEBEPEAVCpu@gb@emulation@@@Z
	DD	imagerel ??0<lambda_dcf6fcf4240e7a010887eba0f732f129>@@QEAA@AEBEPEAVCpu@gb@emulation@@@Z+52
	DD	imagerel $unwind$??0<lambda_dcf6fcf4240e7a010887eba0f732f129>@@QEAA@AEBEPEAVCpu@gb@emulation@@@Z
$pdata$??R<lambda_dcf6fcf4240e7a010887eba0f732f129>@@QEBAXE@Z DD imagerel ??R<lambda_dcf6fcf4240e7a010887eba0f732f129>@@QEBAXE@Z
	DD	imagerel ??R<lambda_dcf6fcf4240e7a010887eba0f732f129>@@QEBAXE@Z+147
	DD	imagerel $unwind$??R<lambda_dcf6fcf4240e7a010887eba0f732f129>@@QEBAXE@Z
pdata	ENDS
;	COMDAT pdata
pdata	SEGMENT
$pdata$??$arithmeticMode@$00$02$0A@@Cpu@gb@emulation@@AEAAXAEAE0@Z DD imagerel $LN8
	DD	imagerel $LN8+307
	DD	imagerel $unwind$??$arithmeticMode@$00$02$0A@@Cpu@gb@emulation@@AEAAXAEAE0@Z
pdata	ENDS
;	COMDAT pdata
pdata	SEGMENT
$pdata$??$arithmeticMode@$00$01$0A@@Cpu@gb@emulation@@AEAAXAEAE0@Z DD imagerel $LN8
	DD	imagerel $LN8+307
	DD	imagerel $unwind$??$arithmeticMode@$00$01$0A@@Cpu@gb@emulation@@AEAAXAEAE0@Z
pdata	ENDS
;	COMDAT pdata
pdata	SEGMENT
$pdata$??$arithmeticMode@$00$04$0A@@Cpu@gb@emulation@@AEAAXAEAE0@Z DD imagerel $LN8
	DD	imagerel $LN8+307
	DD	imagerel $unwind$??$arithmeticMode@$00$04$0A@@Cpu@gb@emulation@@AEAAXAEAE0@Z
pdata	ENDS
;	COMDAT pdata
pdata	SEGMENT
$pdata$??$arithmeticMode@$00$03$0A@@Cpu@gb@emulation@@AEAAXAEAE0@Z DD imagerel $LN8
	DD	imagerel $LN8+307
	DD	imagerel $unwind$??$arithmeticMode@$00$03$0A@@Cpu@gb@emulation@@AEAAXAEAE0@Z
pdata	ENDS
;	COMDAT pdata
pdata	SEGMENT
$pdata$??$arithmeticMode@$00$06$0A@@Cpu@gb@emulation@@AEAAXAEAE0@Z DD imagerel $LN8
	DD	imagerel $LN8+307
	DD	imagerel $unwind$??$arithmeticMode@$00$06$0A@@Cpu@gb@emulation@@AEAAXAEAE0@Z
pdata	ENDS
;	COMDAT pdata
pdata	SEGMENT
$pdata$??$arithmeticMode@$00$05$0A@@Cpu@gb@emulation@@AEAAXAEAE0@Z DD imagerel $LN8
	DD	imagerel $LN8+307
	DD	imagerel $unwind$??$arithmeticMode@$00$05$0A@@Cpu@gb@emulation@@AEAAXAEAE0@Z
pdata	ENDS
;	COMDAT pdata
pdata	SEGMENT
$pdata$??$arithmeticMode@$00$02$00@Cpu@gb@emulation@@AEAAXAEAE0@Z DD imagerel $LN8
	DD	imagerel $LN8+307
	DD	imagerel $unwind$??$arithmeticMode@$00$02$00@Cpu@gb@emulation@@AEAAXAEAE0@Z
pdata	ENDS
;	COMDAT pdata
pdata	SEGMENT
$pdata$??$arithmeticMode@$00$00$0A@@Cpu@gb@emulation@@AEAAXAEAE0@Z DD imagerel $LN8
	DD	imagerel $LN8+307
	DD	imagerel $unwind$??$arithmeticMode@$00$00$0A@@Cpu@gb@emulation@@AEAAXAEAE0@Z
pdata	ENDS
;	COMDAT pdata
pdata	SEGMENT
$pdata$??$arithmeticMode@$00$0A@$01@Cpu@gb@emulation@@AEAAXAEAE0@Z DD imagerel $LN8
	DD	imagerel $LN8+307
	DD	imagerel $unwind$??$arithmeticMode@$00$0A@$01@Cpu@gb@emulation@@AEAAXAEAE0@Z
pdata	ENDS
CRT$XCU	SEGMENT
piecewise_construct$initializer$ DQ FLAT:??__Epiecewise_construct@std@@YAXXZ
CRT$XCU	ENDS
;	COMDAT rtc$TMZ
rtc$TMZ	SEGMENT
_RTC_Shutdown.rtc$TMZ DQ FLAT:_RTC_Shutdown
rtc$TMZ	ENDS
;	COMDAT rtc$IMZ
rtc$IMZ	SEGMENT
_RTC_InitBase.rtc$IMZ DQ FLAT:_RTC_InitBase
rtc$IMZ	ENDS
;	COMDAT ??_R4Component@gb@emulation@@6B@
rdata$r	SEGMENT
??_R4Component@gb@emulation@@6B@ DD 01H			; emulation::gb::Component::`RTTI Complete Object Locator'
	DD	00H
	DD	00H
	DD	imagerel ??_R0?AVComponent@gb@emulation@@@8
	DD	imagerel ??_R3Component@gb@emulation@@8
	DD	imagerel ??_R4Component@gb@emulation@@6B@
rdata$r	ENDS
;	COMDAT ??_R1A@?0A@EA@Cpu@gb@emulation@@8
rdata$r	SEGMENT
??_R1A@?0A@EA@Cpu@gb@emulation@@8 DD imagerel ??_R0?AVCpu@gb@emulation@@@8 ; emulation::gb::Cpu::`RTTI Base Class Descriptor at (0,-1,0,64)'
	DD	01H
	DD	00H
	DD	0ffffffffH
	DD	00H
	DD	040H
	DD	imagerel ??_R3Cpu@gb@emulation@@8
rdata$r	ENDS
;	COMDAT ??_R2Cpu@gb@emulation@@8
rdata$r	SEGMENT
??_R2Cpu@gb@emulation@@8 DD imagerel ??_R1A@?0A@EA@Cpu@gb@emulation@@8 ; emulation::gb::Cpu::`RTTI Base Class Array'
	DD	imagerel ??_R1A@?0A@EA@Component@gb@emulation@@8
	ORG $+3
rdata$r	ENDS
;	COMDAT ??_R3Cpu@gb@emulation@@8
rdata$r	SEGMENT
??_R3Cpu@gb@emulation@@8 DD 00H				; emulation::gb::Cpu::`RTTI Class Hierarchy Descriptor'
	DD	00H
	DD	02H
	DD	imagerel ??_R2Cpu@gb@emulation@@8
rdata$r	ENDS
;	COMDAT ??_R0?AVCpu@gb@emulation@@@8
_DATA	SEGMENT
??_R0?AVCpu@gb@emulation@@@8 DQ FLAT:??_7type_info@@6B@	; emulation::gb::Cpu `RTTI Type Descriptor'
	DQ	0000000000000000H
	DB	'.?AVCpu@gb@emulation@@', 00H
_DATA	ENDS
;	COMDAT ??_R4Cpu@gb@emulation@@6B@
rdata$r	SEGMENT
??_R4Cpu@gb@emulation@@6B@ DD 01H			; emulation::gb::Cpu::`RTTI Complete Object Locator'
	DD	00H
	DD	00H
	DD	imagerel ??_R0?AVCpu@gb@emulation@@@8
	DD	imagerel ??_R3Cpu@gb@emulation@@8
	DD	imagerel ??_R4Cpu@gb@emulation@@6B@
rdata$r	ENDS
;	COMDAT ??_R2Component@gb@emulation@@8
rdata$r	SEGMENT
??_R2Component@gb@emulation@@8 DD imagerel ??_R1A@?0A@EA@Component@gb@emulation@@8 ; emulation::gb::Component::`RTTI Base Class Array'
	ORG $+3
rdata$r	ENDS
;	COMDAT ??_R3Component@gb@emulation@@8
rdata$r	SEGMENT
??_R3Component@gb@emulation@@8 DD 00H			; emulation::gb::Component::`RTTI Class Hierarchy Descriptor'
	DD	00H
	DD	01H
	DD	imagerel ??_R2Component@gb@emulation@@8
rdata$r	ENDS
;	COMDAT ??_R0?AVComponent@gb@emulation@@@8
_DATA	SEGMENT
??_R0?AVComponent@gb@emulation@@@8 DQ FLAT:??_7type_info@@6B@ ; emulation::gb::Component `RTTI Type Descriptor'
	DQ	0000000000000000H
	DB	'.?AVComponent@gb@emulation@@', 00H
_DATA	ENDS
;	COMDAT ??_R1A@?0A@EA@Component@gb@emulation@@8
rdata$r	SEGMENT
??_R1A@?0A@EA@Component@gb@emulation@@8 DD imagerel ??_R0?AVComponent@gb@emulation@@@8 ; emulation::gb::Component::`RTTI Base Class Descriptor at (0,-1,0,64)'
	DD	00H
	DD	00H
	DD	0ffffffffH
	DD	00H
	DD	040H
	DD	imagerel ??_R3Component@gb@emulation@@8
rdata$r	ENDS
;	COMDAT ??_7Cpu@gb@emulation@@6B@
CONST	SEGMENT
??_7Cpu@gb@emulation@@6B@ DQ FLAT:??_R4Cpu@gb@emulation@@6B@ ; emulation::gb::Cpu::`vftable'
	DQ	FLAT:?Initialize@Cpu@gb@emulation@@UEAAXPEAVEmu@23@@Z
	DQ	FLAT:?Deinitialize@Cpu@gb@emulation@@UEAAXXZ
	DQ	FLAT:?Reset@Cpu@gb@emulation@@UEAAXXZ
CONST	ENDS
;	COMDAT ??_7Component@gb@emulation@@6B@
CONST	SEGMENT
??_7Component@gb@emulation@@6B@ DQ FLAT:??_R4Component@gb@emulation@@6B@ ; emulation::gb::Component::`vftable'
	DQ	FLAT:?Initialize@Component@gb@emulation@@UEAAXPEAVEmu@23@@Z
	DQ	FLAT:?Deinitialize@Component@gb@emulation@@UEAAXXZ
	DQ	FLAT:?Reset@Component@gb@emulation@@UEAAXXZ
CONST	ENDS
;	COMDAT xdata
xdata	SEGMENT
$unwind$??$arithmeticMode@$00$0A@$01@Cpu@gb@emulation@@AEAAXAEAE0@Z DD 022801H
	DD	070105214H
xdata	ENDS
;	COMDAT xdata
xdata	SEGMENT
$unwind$??$arithmeticMode@$00$00$0A@@Cpu@gb@emulation@@AEAAXAEAE0@Z DD 022801H
	DD	070105214H
xdata	ENDS
;	COMDAT xdata
xdata	SEGMENT
$unwind$??$arithmeticMode@$00$02$00@Cpu@gb@emulation@@AEAAXAEAE0@Z DD 022801H
	DD	070105214H
xdata	ENDS
;	COMDAT xdata
xdata	SEGMENT
$unwind$??$arithmeticMode@$00$05$0A@@Cpu@gb@emulation@@AEAAXAEAE0@Z DD 022801H
	DD	070105214H
xdata	ENDS
;	COMDAT xdata
xdata	SEGMENT
$unwind$??$arithmeticMode@$00$06$0A@@Cpu@gb@emulation@@AEAAXAEAE0@Z DD 022801H
	DD	070105214H
xdata	ENDS
;	COMDAT xdata
xdata	SEGMENT
$unwind$??$arithmeticMode@$00$03$0A@@Cpu@gb@emulation@@AEAAXAEAE0@Z DD 022801H
	DD	070105214H
xdata	ENDS
;	COMDAT xdata
xdata	SEGMENT
$unwind$??$arithmeticMode@$00$04$0A@@Cpu@gb@emulation@@AEAAXAEAE0@Z DD 022801H
	DD	070105214H
xdata	ENDS
;	COMDAT xdata
xdata	SEGMENT
$unwind$??$arithmeticMode@$00$01$0A@@Cpu@gb@emulation@@AEAAXAEAE0@Z DD 022801H
	DD	070105214H
xdata	ENDS
;	COMDAT xdata
xdata	SEGMENT
$unwind$??$arithmeticMode@$00$02$0A@@Cpu@gb@emulation@@AEAAXAEAE0@Z DD 022801H
	DD	070105214H
xdata	ENDS
;	COMDAT xdata
xdata	SEGMENT
$unwind$??$LD@$00$0A@$0P@@Cpu@gb@emulation@@AEAAXXZ DD 021e01H
	DD	07006720aH
xdata	ENDS
;	COMDAT xdata
xdata	SEGMENT
$unwind$??$OR@$00$0A@$01@Cpu@gb@emulation@@AEAAXXZ DD 021e01H
	DD	07006b20aH
xdata	ENDS
;	COMDAT CONST
CONST	SEGMENT
??$OR@$00$0A@$01@Cpu@gb@emulation@@AEAAXXZ$rtcName$0 DB 061H ; emulation::gb::Cpu::OR<1,0,2>
	DB	00H
	ORG $+2
??$OR@$00$0A@$01@Cpu@gb@emulation@@AEAAXXZ$rtcName$1 DB 062H ; emulation::gb::Cpu::OR<1,0,2>
	DB	00H
	ORG $+10
??$OR@$00$0A@$01@Cpu@gb@emulation@@AEAAXXZ$rtcVarDesc DD 044H ; emulation::gb::Cpu::OR<1,0,2>
	DD	01H
	DQ	FLAT:??$OR@$00$0A@$01@Cpu@gb@emulation@@AEAAXXZ$rtcName$1
	DD	024H
	DD	01H
	DQ	FLAT:??$OR@$00$0A@$01@Cpu@gb@emulation@@AEAAXXZ$rtcName$0
	ORG $+96
??$OR@$00$0A@$01@Cpu@gb@emulation@@AEAAXXZ$rtcFrameData DD 02H ; emulation::gb::Cpu::OR<1,0,2>
	DD	00H
	DQ	FLAT:??$OR@$00$0A@$01@Cpu@gb@emulation@@AEAAXXZ$rtcVarDesc
CONST	ENDS
;	COMDAT xdata
xdata	SEGMENT
$unwind$??$PUSH@$0A@@Cpu@gb@emulation@@AEAAXXZ DD 021e01H
	DD	07006320aH
xdata	ENDS
;	COMDAT xdata
xdata	SEGMENT
$unwind$??$LDr$FF00r@$00$01@Cpu@gb@emulation@@AEAAXXZ DD 021e01H
	DD	07006320aH
xdata	ENDS
;	COMDAT xdata
xdata	SEGMENT
$unwind$??$POP@$0A@@Cpu@gb@emulation@@AEAAXXZ DD 021e01H
	DD	07006520aH
xdata	ENDS
;	COMDAT xdata
xdata	SEGMENT
$unwind$??$LD@$00$0A@$0N@@Cpu@gb@emulation@@AEAAXXZ DD 021e01H
	DD	07006720aH
xdata	ENDS
;	COMDAT xdata
xdata	SEGMENT
$unwind$??$XOR@$00$0A@$01@Cpu@gb@emulation@@AEAAXXZ DD 021e01H
	DD	07006b20aH
xdata	ENDS
;	COMDAT CONST
CONST	SEGMENT
??$XOR@$00$0A@$01@Cpu@gb@emulation@@AEAAXXZ$rtcName$0 DB 061H ; emulation::gb::Cpu::XOR<1,0,2>
	DB	00H
	ORG $+2
??$XOR@$00$0A@$01@Cpu@gb@emulation@@AEAAXXZ$rtcName$1 DB 062H ; emulation::gb::Cpu::XOR<1,0,2>
	DB	00H
	ORG $+10
??$XOR@$00$0A@$01@Cpu@gb@emulation@@AEAAXXZ$rtcVarDesc DD 044H ; emulation::gb::Cpu::XOR<1,0,2>
	DD	01H
	DQ	FLAT:??$XOR@$00$0A@$01@Cpu@gb@emulation@@AEAAXXZ$rtcName$1
	DD	024H
	DD	01H
	DQ	FLAT:??$XOR@$00$0A@$01@Cpu@gb@emulation@@AEAAXXZ$rtcName$0
	ORG $+96
??$XOR@$00$0A@$01@Cpu@gb@emulation@@AEAAXXZ$rtcFrameData DD 02H ; emulation::gb::Cpu::XOR<1,0,2>
	DD	00H
	DQ	FLAT:??$XOR@$00$0A@$01@Cpu@gb@emulation@@AEAAXXZ$rtcVarDesc
CONST	ENDS
;	COMDAT xdata
xdata	SEGMENT
$unwind$??$LD@$0A@$00$0O@@Cpu@gb@emulation@@AEAAXXZ DD 021e01H
	DD	07006720aH
xdata	ENDS
;	COMDAT xdata
xdata	SEGMENT
$unwind$??$AND@$00$0A@$01@Cpu@gb@emulation@@AEAAXXZ DD 021e01H
	DD	07006b20aH
xdata	ENDS
;	COMDAT CONST
CONST	SEGMENT
??$AND@$00$0A@$01@Cpu@gb@emulation@@AEAAXXZ$rtcName$0 DB 061H ; emulation::gb::Cpu::AND<1,0,2>
	DB	00H
	ORG $+2
??$AND@$00$0A@$01@Cpu@gb@emulation@@AEAAXXZ$rtcName$1 DB 062H ; emulation::gb::Cpu::AND<1,0,2>
	DB	00H
	ORG $+10
??$AND@$00$0A@$01@Cpu@gb@emulation@@AEAAXXZ$rtcVarDesc DD 044H ; emulation::gb::Cpu::AND<1,0,2>
	DD	01H
	DQ	FLAT:??$AND@$00$0A@$01@Cpu@gb@emulation@@AEAAXXZ$rtcName$1
	DD	024H
	DD	01H
	DQ	FLAT:??$AND@$00$0A@$01@Cpu@gb@emulation@@AEAAXXZ$rtcName$0
	ORG $+96
??$AND@$00$0A@$01@Cpu@gb@emulation@@AEAAXXZ$rtcFrameData DD 02H ; emulation::gb::Cpu::AND<1,0,2>
	DD	00H
	DQ	FLAT:??$AND@$00$0A@$01@Cpu@gb@emulation@@AEAAXXZ$rtcVarDesc
CONST	ENDS
;	COMDAT xdata
xdata	SEGMENT
$unwind$??$PUSH@$02@Cpu@gb@emulation@@AEAAXXZ DD 021e01H
	DD	07006320aH
xdata	ENDS
;	COMDAT xdata
xdata	SEGMENT
$unwind$??$LD$FF00rr@$01$00@Cpu@gb@emulation@@AEAAXXZ DD 021e01H
	DD	07006320aH
xdata	ENDS
;	COMDAT xdata
xdata	SEGMENT
$unwind$??$POP@$02@Cpu@gb@emulation@@AEAAXXZ DD 021e01H
	DD	07006520aH
xdata	ENDS
;	COMDAT xdata
xdata	SEGMENT
$unwind$??$LD@$0A@$00$0M@@Cpu@gb@emulation@@AEAAXXZ DD 021e01H
	DD	07006720aH
xdata	ENDS
;	COMDAT xdata
xdata	SEGMENT
$unwind$??$SBC@$00$0A@$01@Cpu@gb@emulation@@AEAAXXZ DD 021e01H
	DD	07006b20aH
xdata	ENDS
;	COMDAT CONST
CONST	SEGMENT
??$SBC@$00$0A@$01@Cpu@gb@emulation@@AEAAXXZ$rtcName$0 DB 061H ; emulation::gb::Cpu::SBC<1,0,2>
	DB	00H
	ORG $+2
??$SBC@$00$0A@$01@Cpu@gb@emulation@@AEAAXXZ$rtcName$1 DB 062H ; emulation::gb::Cpu::SBC<1,0,2>
	DB	00H
	ORG $+10
??$SBC@$00$0A@$01@Cpu@gb@emulation@@AEAAXXZ$rtcVarDesc DD 044H ; emulation::gb::Cpu::SBC<1,0,2>
	DD	01H
	DQ	FLAT:??$SBC@$00$0A@$01@Cpu@gb@emulation@@AEAAXXZ$rtcName$1
	DD	024H
	DD	01H
	DQ	FLAT:??$SBC@$00$0A@$01@Cpu@gb@emulation@@AEAAXXZ$rtcName$0
	ORG $+96
??$SBC@$00$0A@$01@Cpu@gb@emulation@@AEAAXXZ$rtcFrameData DD 02H ; emulation::gb::Cpu::SBC<1,0,2>
	DD	00H
	DQ	FLAT:??$SBC@$00$0A@$01@Cpu@gb@emulation@@AEAAXXZ$rtcVarDesc
CONST	ENDS
;	COMDAT xdata
xdata	SEGMENT
$unwind$??$CALL_cc@$03$0A@@Cpu@gb@emulation@@AEAAXXZ DD 021e01H
	DD	07006720aH
xdata	ENDS
;	COMDAT CONST
CONST	SEGMENT
??$CALL_cc@$03$0A@@Cpu@gb@emulation@@AEAAXXZ$rtcName$0 DB 074H ; emulation::gb::Cpu::CALL_cc<4,0>
	DB	061H
	DB	062H
	DB	06cH
	DB	065H
	DB	00H
	ORG $+10
??$CALL_cc@$03$0A@@Cpu@gb@emulation@@AEAAXXZ$rtcVarDesc DD 028H ; emulation::gb::Cpu::CALL_cc<4,0>
	DD	08H
	DQ	FLAT:??$CALL_cc@$03$0A@@Cpu@gb@emulation@@AEAAXXZ$rtcName$0
	ORG $+48
??$CALL_cc@$03$0A@@Cpu@gb@emulation@@AEAAXXZ$rtcFrameData DD 01H ; emulation::gb::Cpu::CALL_cc<4,0>
	DD	00H
	DQ	FLAT:??$CALL_cc@$03$0A@@Cpu@gb@emulation@@AEAAXXZ$rtcVarDesc
CONST	ENDS
;	COMDAT xdata
xdata	SEGMENT
$unwind$??$JP_cc@$03$0A@@Cpu@gb@emulation@@AEAAXXZ DD 021e01H
	DD	07006720aH
xdata	ENDS
;	COMDAT CONST
CONST	SEGMENT
??$JP_cc@$03$0A@@Cpu@gb@emulation@@AEAAXXZ$rtcName$0 DB 074H ; emulation::gb::Cpu::JP_cc<4,0>
	DB	061H
	DB	062H
	DB	06cH
	DB	065H
	DB	00H
	ORG $+10
??$JP_cc@$03$0A@@Cpu@gb@emulation@@AEAAXXZ$rtcVarDesc DD 028H ; emulation::gb::Cpu::JP_cc<4,0>
	DD	08H
	DQ	FLAT:??$JP_cc@$03$0A@@Cpu@gb@emulation@@AEAAXXZ$rtcName$0
	ORG $+48
??$JP_cc@$03$0A@@Cpu@gb@emulation@@AEAAXXZ$rtcFrameData DD 01H ; emulation::gb::Cpu::JP_cc<4,0>
	DD	00H
	DQ	FLAT:??$JP_cc@$03$0A@@Cpu@gb@emulation@@AEAAXXZ$rtcVarDesc
CONST	ENDS
;	COMDAT xdata
xdata	SEGMENT
$unwind$??$RET_cc@$03$0A@@Cpu@gb@emulation@@AEAAXXZ DD 021e01H
	DD	07006720aH
xdata	ENDS
;	COMDAT CONST
CONST	SEGMENT
??$RET_cc@$03$0A@@Cpu@gb@emulation@@AEAAXXZ$rtcName$0 DB 074H ; emulation::gb::Cpu::RET_cc<4,0>
	DB	061H
	DB	062H
	DB	06cH
	DB	065H
	DB	00H
	ORG $+10
??$RET_cc@$03$0A@@Cpu@gb@emulation@@AEAAXXZ$rtcVarDesc DD 028H ; emulation::gb::Cpu::RET_cc<4,0>
	DD	08H
	DQ	FLAT:??$RET_cc@$03$0A@@Cpu@gb@emulation@@AEAAXXZ$rtcName$0
	ORG $+48
??$RET_cc@$03$0A@@Cpu@gb@emulation@@AEAAXXZ$rtcFrameData DD 01H ; emulation::gb::Cpu::RET_cc<4,0>
	DD	00H
	DQ	FLAT:??$RET_cc@$03$0A@@Cpu@gb@emulation@@AEAAXXZ$rtcVarDesc
CONST	ENDS
;	COMDAT xdata
xdata	SEGMENT
$unwind$??$SUB@$00$0A@$01@Cpu@gb@emulation@@AEAAXXZ DD 021e01H
	DD	07006b20aH
xdata	ENDS
;	COMDAT CONST
CONST	SEGMENT
??$SUB@$00$0A@$01@Cpu@gb@emulation@@AEAAXXZ$rtcName$0 DB 061H ; emulation::gb::Cpu::SUB<1,0,2>
	DB	00H
	ORG $+2
??$SUB@$00$0A@$01@Cpu@gb@emulation@@AEAAXXZ$rtcName$1 DB 062H ; emulation::gb::Cpu::SUB<1,0,2>
	DB	00H
	ORG $+10
??$SUB@$00$0A@$01@Cpu@gb@emulation@@AEAAXXZ$rtcVarDesc DD 044H ; emulation::gb::Cpu::SUB<1,0,2>
	DD	01H
	DQ	FLAT:??$SUB@$00$0A@$01@Cpu@gb@emulation@@AEAAXXZ$rtcName$1
	DD	024H
	DD	01H
	DQ	FLAT:??$SUB@$00$0A@$01@Cpu@gb@emulation@@AEAAXXZ$rtcName$0
	ORG $+96
??$SUB@$00$0A@$01@Cpu@gb@emulation@@AEAAXXZ$rtcFrameData DD 02H ; emulation::gb::Cpu::SUB<1,0,2>
	DD	00H
	DQ	FLAT:??$SUB@$00$0A@$01@Cpu@gb@emulation@@AEAAXXZ$rtcVarDesc
CONST	ENDS
;	COMDAT xdata
xdata	SEGMENT
$unwind$??$PUSH@$01@Cpu@gb@emulation@@AEAAXXZ DD 021e01H
	DD	07006320aH
xdata	ENDS
;	COMDAT xdata
xdata	SEGMENT
$unwind$??$CALL_cc@$03$00@Cpu@gb@emulation@@AEAAXXZ DD 021e01H
	DD	07006720aH
xdata	ENDS
;	COMDAT CONST
CONST	SEGMENT
??$CALL_cc@$03$00@Cpu@gb@emulation@@AEAAXXZ$rtcName$0 DB 074H ; emulation::gb::Cpu::CALL_cc<4,1>
	DB	061H
	DB	062H
	DB	06cH
	DB	065H
	DB	00H
	ORG $+10
??$CALL_cc@$03$00@Cpu@gb@emulation@@AEAAXXZ$rtcVarDesc DD 028H ; emulation::gb::Cpu::CALL_cc<4,1>
	DD	08H
	DQ	FLAT:??$CALL_cc@$03$00@Cpu@gb@emulation@@AEAAXXZ$rtcName$0
	ORG $+48
??$CALL_cc@$03$00@Cpu@gb@emulation@@AEAAXXZ$rtcFrameData DD 01H ; emulation::gb::Cpu::CALL_cc<4,1>
	DD	00H
	DQ	FLAT:??$CALL_cc@$03$00@Cpu@gb@emulation@@AEAAXXZ$rtcVarDesc
CONST	ENDS
;	COMDAT xdata
xdata	SEGMENT
$unwind$??$JP_cc@$03$00@Cpu@gb@emulation@@AEAAXXZ DD 021e01H
	DD	07006720aH
xdata	ENDS
;	COMDAT CONST
CONST	SEGMENT
??$JP_cc@$03$00@Cpu@gb@emulation@@AEAAXXZ$rtcName$0 DB 074H ; emulation::gb::Cpu::JP_cc<4,1>
	DB	061H
	DB	062H
	DB	06cH
	DB	065H
	DB	00H
	ORG $+10
??$JP_cc@$03$00@Cpu@gb@emulation@@AEAAXXZ$rtcVarDesc DD 028H ; emulation::gb::Cpu::JP_cc<4,1>
	DD	08H
	DQ	FLAT:??$JP_cc@$03$00@Cpu@gb@emulation@@AEAAXXZ$rtcName$0
	ORG $+48
??$JP_cc@$03$00@Cpu@gb@emulation@@AEAAXXZ$rtcFrameData DD 01H ; emulation::gb::Cpu::JP_cc<4,1>
	DD	00H
	DQ	FLAT:??$JP_cc@$03$00@Cpu@gb@emulation@@AEAAXXZ$rtcVarDesc
CONST	ENDS
;	COMDAT xdata
xdata	SEGMENT
$unwind$??$POP@$01@Cpu@gb@emulation@@AEAAXXZ DD 021e01H
	DD	07006520aH
xdata	ENDS
;	COMDAT xdata
xdata	SEGMENT
$unwind$??$RET_cc@$03$00@Cpu@gb@emulation@@AEAAXXZ DD 021e01H
	DD	07006720aH
xdata	ENDS
;	COMDAT CONST
CONST	SEGMENT
??$RET_cc@$03$00@Cpu@gb@emulation@@AEAAXXZ$rtcName$0 DB 074H ; emulation::gb::Cpu::RET_cc<4,1>
	DB	061H
	DB	062H
	DB	06cH
	DB	065H
	DB	00H
	ORG $+10
??$RET_cc@$03$00@Cpu@gb@emulation@@AEAAXXZ$rtcVarDesc DD 028H ; emulation::gb::Cpu::RET_cc<4,1>
	DD	08H
	DQ	FLAT:??$RET_cc@$03$00@Cpu@gb@emulation@@AEAAXXZ$rtcName$0
	ORG $+48
??$RET_cc@$03$00@Cpu@gb@emulation@@AEAAXXZ$rtcFrameData DD 01H ; emulation::gb::Cpu::RET_cc<4,1>
	DD	00H
	DQ	FLAT:??$RET_cc@$03$00@Cpu@gb@emulation@@AEAAXXZ$rtcVarDesc
CONST	ENDS
;	COMDAT xdata
xdata	SEGMENT
$unwind$??$ADC@$00$0A@$01@Cpu@gb@emulation@@AEAAXXZ DD 021e01H
	DD	07006b20aH
xdata	ENDS
;	COMDAT CONST
CONST	SEGMENT
??$ADC@$00$0A@$01@Cpu@gb@emulation@@AEAAXXZ$rtcName$0 DB 061H ; emulation::gb::Cpu::ADC<1,0,2>
	DB	00H
	ORG $+2
??$ADC@$00$0A@$01@Cpu@gb@emulation@@AEAAXXZ$rtcName$1 DB 062H ; emulation::gb::Cpu::ADC<1,0,2>
	DB	00H
	ORG $+10
??$ADC@$00$0A@$01@Cpu@gb@emulation@@AEAAXXZ$rtcVarDesc DD 044H ; emulation::gb::Cpu::ADC<1,0,2>
	DD	01H
	DQ	FLAT:??$ADC@$00$0A@$01@Cpu@gb@emulation@@AEAAXXZ$rtcName$1
	DD	024H
	DD	01H
	DQ	FLAT:??$ADC@$00$0A@$01@Cpu@gb@emulation@@AEAAXXZ$rtcName$0
	ORG $+96
??$ADC@$00$0A@$01@Cpu@gb@emulation@@AEAAXXZ$rtcFrameData DD 02H ; emulation::gb::Cpu::ADC<1,0,2>
	DD	00H
	DQ	FLAT:??$ADC@$00$0A@$01@Cpu@gb@emulation@@AEAAXXZ$rtcVarDesc
CONST	ENDS
;	COMDAT xdata
xdata	SEGMENT
$unwind$??$CALL_cc@$06$0A@@Cpu@gb@emulation@@AEAAXXZ DD 021e01H
	DD	07006720aH
xdata	ENDS
;	COMDAT CONST
CONST	SEGMENT
??$CALL_cc@$06$0A@@Cpu@gb@emulation@@AEAAXXZ$rtcName$0 DB 074H ; emulation::gb::Cpu::CALL_cc<7,0>
	DB	061H
	DB	062H
	DB	06cH
	DB	065H
	DB	00H
	ORG $+10
??$CALL_cc@$06$0A@@Cpu@gb@emulation@@AEAAXXZ$rtcVarDesc DD 028H ; emulation::gb::Cpu::CALL_cc<7,0>
	DD	08H
	DQ	FLAT:??$CALL_cc@$06$0A@@Cpu@gb@emulation@@AEAAXXZ$rtcName$0
	ORG $+48
??$CALL_cc@$06$0A@@Cpu@gb@emulation@@AEAAXXZ$rtcFrameData DD 01H ; emulation::gb::Cpu::CALL_cc<7,0>
	DD	00H
	DQ	FLAT:??$CALL_cc@$06$0A@@Cpu@gb@emulation@@AEAAXXZ$rtcVarDesc
CONST	ENDS
;	COMDAT xdata
xdata	SEGMENT
$unwind$??$JP_cc@$06$0A@@Cpu@gb@emulation@@AEAAXXZ DD 021e01H
	DD	07006720aH
xdata	ENDS
;	COMDAT CONST
CONST	SEGMENT
??$JP_cc@$06$0A@@Cpu@gb@emulation@@AEAAXXZ$rtcName$0 DB 074H ; emulation::gb::Cpu::JP_cc<7,0>
	DB	061H
	DB	062H
	DB	06cH
	DB	065H
	DB	00H
	ORG $+10
??$JP_cc@$06$0A@@Cpu@gb@emulation@@AEAAXXZ$rtcVarDesc DD 028H ; emulation::gb::Cpu::JP_cc<7,0>
	DD	08H
	DQ	FLAT:??$JP_cc@$06$0A@@Cpu@gb@emulation@@AEAAXXZ$rtcName$0
	ORG $+48
??$JP_cc@$06$0A@@Cpu@gb@emulation@@AEAAXXZ$rtcFrameData DD 01H ; emulation::gb::Cpu::JP_cc<7,0>
	DD	00H
	DQ	FLAT:??$JP_cc@$06$0A@@Cpu@gb@emulation@@AEAAXXZ$rtcVarDesc
CONST	ENDS
;	COMDAT xdata
xdata	SEGMENT
$unwind$??$RET_cc@$06$0A@@Cpu@gb@emulation@@AEAAXXZ DD 021e01H
	DD	07006720aH
xdata	ENDS
;	COMDAT CONST
CONST	SEGMENT
??$RET_cc@$06$0A@@Cpu@gb@emulation@@AEAAXXZ$rtcName$0 DB 074H ; emulation::gb::Cpu::RET_cc<7,0>
	DB	061H
	DB	062H
	DB	06cH
	DB	065H
	DB	00H
	ORG $+10
??$RET_cc@$06$0A@@Cpu@gb@emulation@@AEAAXXZ$rtcVarDesc DD 028H ; emulation::gb::Cpu::RET_cc<7,0>
	DD	08H
	DQ	FLAT:??$RET_cc@$06$0A@@Cpu@gb@emulation@@AEAAXXZ$rtcName$0
	ORG $+48
??$RET_cc@$06$0A@@Cpu@gb@emulation@@AEAAXXZ$rtcFrameData DD 01H ; emulation::gb::Cpu::RET_cc<7,0>
	DD	00H
	DQ	FLAT:??$RET_cc@$06$0A@@Cpu@gb@emulation@@AEAAXXZ$rtcVarDesc
CONST	ENDS
;	COMDAT xdata
xdata	SEGMENT
$unwind$??$ADD@$00$0A@$01@Cpu@gb@emulation@@AEAAXXZ DD 021e01H
	DD	07006b20aH
xdata	ENDS
;	COMDAT CONST
CONST	SEGMENT
??$ADD@$00$0A@$01@Cpu@gb@emulation@@AEAAXXZ$rtcName$0 DB 061H ; emulation::gb::Cpu::ADD<1,0,2>
	DB	00H
	ORG $+2
??$ADD@$00$0A@$01@Cpu@gb@emulation@@AEAAXXZ$rtcName$1 DB 062H ; emulation::gb::Cpu::ADD<1,0,2>
	DB	00H
	ORG $+10
??$ADD@$00$0A@$01@Cpu@gb@emulation@@AEAAXXZ$rtcVarDesc DD 044H ; emulation::gb::Cpu::ADD<1,0,2>
	DD	01H
	DQ	FLAT:??$ADD@$00$0A@$01@Cpu@gb@emulation@@AEAAXXZ$rtcName$1
	DD	024H
	DD	01H
	DQ	FLAT:??$ADD@$00$0A@$01@Cpu@gb@emulation@@AEAAXXZ$rtcName$0
	ORG $+96
??$ADD@$00$0A@$01@Cpu@gb@emulation@@AEAAXXZ$rtcFrameData DD 02H ; emulation::gb::Cpu::ADD<1,0,2>
	DD	00H
	DQ	FLAT:??$ADD@$00$0A@$01@Cpu@gb@emulation@@AEAAXXZ$rtcVarDesc
CONST	ENDS
;	COMDAT xdata
xdata	SEGMENT
$unwind$??$PUSH@$00@Cpu@gb@emulation@@AEAAXXZ DD 021e01H
	DD	07006320aH
xdata	ENDS
;	COMDAT xdata
xdata	SEGMENT
$unwind$??$CALL_cc@$06$00@Cpu@gb@emulation@@AEAAXXZ DD 021e01H
	DD	07006720aH
xdata	ENDS
;	COMDAT CONST
CONST	SEGMENT
??$CALL_cc@$06$00@Cpu@gb@emulation@@AEAAXXZ$rtcName$0 DB 074H ; emulation::gb::Cpu::CALL_cc<7,1>
	DB	061H
	DB	062H
	DB	06cH
	DB	065H
	DB	00H
	ORG $+10
??$CALL_cc@$06$00@Cpu@gb@emulation@@AEAAXXZ$rtcVarDesc DD 028H ; emulation::gb::Cpu::CALL_cc<7,1>
	DD	08H
	DQ	FLAT:??$CALL_cc@$06$00@Cpu@gb@emulation@@AEAAXXZ$rtcName$0
	ORG $+48
??$CALL_cc@$06$00@Cpu@gb@emulation@@AEAAXXZ$rtcFrameData DD 01H ; emulation::gb::Cpu::CALL_cc<7,1>
	DD	00H
	DQ	FLAT:??$CALL_cc@$06$00@Cpu@gb@emulation@@AEAAXXZ$rtcVarDesc
CONST	ENDS
;	COMDAT xdata
xdata	SEGMENT
$unwind$??$JP_cc@$06$00@Cpu@gb@emulation@@AEAAXXZ DD 021e01H
	DD	07006720aH
xdata	ENDS
;	COMDAT CONST
CONST	SEGMENT
??$JP_cc@$06$00@Cpu@gb@emulation@@AEAAXXZ$rtcName$0 DB 074H ; emulation::gb::Cpu::JP_cc<7,1>
	DB	061H
	DB	062H
	DB	06cH
	DB	065H
	DB	00H
	ORG $+10
??$JP_cc@$06$00@Cpu@gb@emulation@@AEAAXXZ$rtcVarDesc DD 028H ; emulation::gb::Cpu::JP_cc<7,1>
	DD	08H
	DQ	FLAT:??$JP_cc@$06$00@Cpu@gb@emulation@@AEAAXXZ$rtcName$0
	ORG $+48
??$JP_cc@$06$00@Cpu@gb@emulation@@AEAAXXZ$rtcFrameData DD 01H ; emulation::gb::Cpu::JP_cc<7,1>
	DD	00H
	DQ	FLAT:??$JP_cc@$06$00@Cpu@gb@emulation@@AEAAXXZ$rtcVarDesc
CONST	ENDS
;	COMDAT xdata
xdata	SEGMENT
$unwind$??$POP@$00@Cpu@gb@emulation@@AEAAXXZ DD 021e01H
	DD	07006520aH
xdata	ENDS
;	COMDAT xdata
xdata	SEGMENT
$unwind$??$RET_cc@$06$00@Cpu@gb@emulation@@AEAAXXZ DD 021e01H
	DD	07006720aH
xdata	ENDS
;	COMDAT CONST
CONST	SEGMENT
??$RET_cc@$06$00@Cpu@gb@emulation@@AEAAXXZ$rtcName$0 DB 074H ; emulation::gb::Cpu::RET_cc<7,1>
	DB	061H
	DB	062H
	DB	06cH
	DB	065H
	DB	00H
	ORG $+10
??$RET_cc@$06$00@Cpu@gb@emulation@@AEAAXXZ$rtcVarDesc DD 028H ; emulation::gb::Cpu::RET_cc<7,1>
	DD	08H
	DQ	FLAT:??$RET_cc@$06$00@Cpu@gb@emulation@@AEAAXXZ$rtcName$0
	ORG $+48
??$RET_cc@$06$00@Cpu@gb@emulation@@AEAAXXZ$rtcFrameData DD 01H ; emulation::gb::Cpu::RET_cc<7,1>
	DD	00H
	DQ	FLAT:??$RET_cc@$06$00@Cpu@gb@emulation@@AEAAXXZ$rtcVarDesc
CONST	ENDS
;	COMDAT xdata
xdata	SEGMENT
$unwind$??$CP_reg@$00@Cpu@gb@emulation@@AEAAXXZ DD 021e01H
	DD	07006320aH
xdata	ENDS
;	COMDAT xdata
xdata	SEGMENT
$unwind$??$CP_reg@$05@Cpu@gb@emulation@@AEAAXXZ DD 021e01H
	DD	07006320aH
xdata	ENDS
;	COMDAT xdata
xdata	SEGMENT
$unwind$??$CP_reg@$06@Cpu@gb@emulation@@AEAAXXZ DD 021e01H
	DD	07006320aH
xdata	ENDS
;	COMDAT xdata
xdata	SEGMENT
$unwind$??$CP_reg@$03@Cpu@gb@emulation@@AEAAXXZ DD 021e01H
	DD	07006320aH
xdata	ENDS
;	COMDAT xdata
xdata	SEGMENT
$unwind$??$CP_reg@$04@Cpu@gb@emulation@@AEAAXXZ DD 021e01H
	DD	07006320aH
xdata	ENDS
;	COMDAT xdata
xdata	SEGMENT
$unwind$??$CP_reg@$01@Cpu@gb@emulation@@AEAAXXZ DD 021e01H
	DD	07006320aH
xdata	ENDS
;	COMDAT xdata
xdata	SEGMENT
$unwind$??$CP_reg@$02@Cpu@gb@emulation@@AEAAXXZ DD 021e01H
	DD	07006320aH
xdata	ENDS
;	COMDAT xdata
xdata	SEGMENT
$unwind$??$OR@$00$00$0A@@Cpu@gb@emulation@@AEAAXXZ DD 021e01H
	DD	07006b20aH
xdata	ENDS
;	COMDAT CONST
CONST	SEGMENT
??$OR@$00$00$0A@@Cpu@gb@emulation@@AEAAXXZ$rtcName$0 DB 061H ; emulation::gb::Cpu::OR<1,1,0>
	DB	00H
	ORG $+2
??$OR@$00$00$0A@@Cpu@gb@emulation@@AEAAXXZ$rtcName$1 DB 062H ; emulation::gb::Cpu::OR<1,1,0>
	DB	00H
	ORG $+10
??$OR@$00$00$0A@@Cpu@gb@emulation@@AEAAXXZ$rtcVarDesc DD 044H ; emulation::gb::Cpu::OR<1,1,0>
	DD	01H
	DQ	FLAT:??$OR@$00$00$0A@@Cpu@gb@emulation@@AEAAXXZ$rtcName$1
	DD	024H
	DD	01H
	DQ	FLAT:??$OR@$00$00$0A@@Cpu@gb@emulation@@AEAAXXZ$rtcName$0
	ORG $+96
??$OR@$00$00$0A@@Cpu@gb@emulation@@AEAAXXZ$rtcFrameData DD 02H ; emulation::gb::Cpu::OR<1,1,0>
	DD	00H
	DQ	FLAT:??$OR@$00$00$0A@@Cpu@gb@emulation@@AEAAXXZ$rtcVarDesc
CONST	ENDS
;	COMDAT xdata
xdata	SEGMENT
$unwind$??$OR@$00$02$00@Cpu@gb@emulation@@AEAAXXZ DD 021e01H
	DD	07006b20aH
xdata	ENDS
;	COMDAT CONST
CONST	SEGMENT
??$OR@$00$02$00@Cpu@gb@emulation@@AEAAXXZ$rtcName$0 DB 061H ; emulation::gb::Cpu::OR<1,3,1>
	DB	00H
	ORG $+2
??$OR@$00$02$00@Cpu@gb@emulation@@AEAAXXZ$rtcName$1 DB 062H ; emulation::gb::Cpu::OR<1,3,1>
	DB	00H
	ORG $+10
??$OR@$00$02$00@Cpu@gb@emulation@@AEAAXXZ$rtcVarDesc DD 044H ; emulation::gb::Cpu::OR<1,3,1>
	DD	01H
	DQ	FLAT:??$OR@$00$02$00@Cpu@gb@emulation@@AEAAXXZ$rtcName$1
	DD	024H
	DD	01H
	DQ	FLAT:??$OR@$00$02$00@Cpu@gb@emulation@@AEAAXXZ$rtcName$0
	ORG $+96
??$OR@$00$02$00@Cpu@gb@emulation@@AEAAXXZ$rtcFrameData DD 02H ; emulation::gb::Cpu::OR<1,3,1>
	DD	00H
	DQ	FLAT:??$OR@$00$02$00@Cpu@gb@emulation@@AEAAXXZ$rtcVarDesc
CONST	ENDS
;	COMDAT xdata
xdata	SEGMENT
$unwind$??$OR@$00$05$0A@@Cpu@gb@emulation@@AEAAXXZ DD 021e01H
	DD	07006b20aH
xdata	ENDS
;	COMDAT CONST
CONST	SEGMENT
??$OR@$00$05$0A@@Cpu@gb@emulation@@AEAAXXZ$rtcName$0 DB 061H ; emulation::gb::Cpu::OR<1,6,0>
	DB	00H
	ORG $+2
??$OR@$00$05$0A@@Cpu@gb@emulation@@AEAAXXZ$rtcName$1 DB 062H ; emulation::gb::Cpu::OR<1,6,0>
	DB	00H
	ORG $+10
??$OR@$00$05$0A@@Cpu@gb@emulation@@AEAAXXZ$rtcVarDesc DD 044H ; emulation::gb::Cpu::OR<1,6,0>
	DD	01H
	DQ	FLAT:??$OR@$00$05$0A@@Cpu@gb@emulation@@AEAAXXZ$rtcName$1
	DD	024H
	DD	01H
	DQ	FLAT:??$OR@$00$05$0A@@Cpu@gb@emulation@@AEAAXXZ$rtcName$0
	ORG $+96
??$OR@$00$05$0A@@Cpu@gb@emulation@@AEAAXXZ$rtcFrameData DD 02H ; emulation::gb::Cpu::OR<1,6,0>
	DD	00H
	DQ	FLAT:??$OR@$00$05$0A@@Cpu@gb@emulation@@AEAAXXZ$rtcVarDesc
CONST	ENDS
;	COMDAT xdata
xdata	SEGMENT
$unwind$??$OR@$00$06$0A@@Cpu@gb@emulation@@AEAAXXZ DD 021e01H
	DD	07006b20aH
xdata	ENDS
;	COMDAT CONST
CONST	SEGMENT
??$OR@$00$06$0A@@Cpu@gb@emulation@@AEAAXXZ$rtcName$0 DB 061H ; emulation::gb::Cpu::OR<1,7,0>
	DB	00H
	ORG $+2
??$OR@$00$06$0A@@Cpu@gb@emulation@@AEAAXXZ$rtcName$1 DB 062H ; emulation::gb::Cpu::OR<1,7,0>
	DB	00H
	ORG $+10
??$OR@$00$06$0A@@Cpu@gb@emulation@@AEAAXXZ$rtcVarDesc DD 044H ; emulation::gb::Cpu::OR<1,7,0>
	DD	01H
	DQ	FLAT:??$OR@$00$06$0A@@Cpu@gb@emulation@@AEAAXXZ$rtcName$1
	DD	024H
	DD	01H
	DQ	FLAT:??$OR@$00$06$0A@@Cpu@gb@emulation@@AEAAXXZ$rtcName$0
	ORG $+96
??$OR@$00$06$0A@@Cpu@gb@emulation@@AEAAXXZ$rtcFrameData DD 02H ; emulation::gb::Cpu::OR<1,7,0>
	DD	00H
	DQ	FLAT:??$OR@$00$06$0A@@Cpu@gb@emulation@@AEAAXXZ$rtcVarDesc
CONST	ENDS
;	COMDAT xdata
xdata	SEGMENT
$unwind$??$OR@$00$03$0A@@Cpu@gb@emulation@@AEAAXXZ DD 021e01H
	DD	07006b20aH
xdata	ENDS
;	COMDAT CONST
CONST	SEGMENT
??$OR@$00$03$0A@@Cpu@gb@emulation@@AEAAXXZ$rtcName$0 DB 061H ; emulation::gb::Cpu::OR<1,4,0>
	DB	00H
	ORG $+2
??$OR@$00$03$0A@@Cpu@gb@emulation@@AEAAXXZ$rtcName$1 DB 062H ; emulation::gb::Cpu::OR<1,4,0>
	DB	00H
	ORG $+10
??$OR@$00$03$0A@@Cpu@gb@emulation@@AEAAXXZ$rtcVarDesc DD 044H ; emulation::gb::Cpu::OR<1,4,0>
	DD	01H
	DQ	FLAT:??$OR@$00$03$0A@@Cpu@gb@emulation@@AEAAXXZ$rtcName$1
	DD	024H
	DD	01H
	DQ	FLAT:??$OR@$00$03$0A@@Cpu@gb@emulation@@AEAAXXZ$rtcName$0
	ORG $+96
??$OR@$00$03$0A@@Cpu@gb@emulation@@AEAAXXZ$rtcFrameData DD 02H ; emulation::gb::Cpu::OR<1,4,0>
	DD	00H
	DQ	FLAT:??$OR@$00$03$0A@@Cpu@gb@emulation@@AEAAXXZ$rtcVarDesc
CONST	ENDS
;	COMDAT xdata
xdata	SEGMENT
$unwind$??$OR@$00$04$0A@@Cpu@gb@emulation@@AEAAXXZ DD 021e01H
	DD	07006b20aH
xdata	ENDS
;	COMDAT CONST
CONST	SEGMENT
??$OR@$00$04$0A@@Cpu@gb@emulation@@AEAAXXZ$rtcName$0 DB 061H ; emulation::gb::Cpu::OR<1,5,0>
	DB	00H
	ORG $+2
??$OR@$00$04$0A@@Cpu@gb@emulation@@AEAAXXZ$rtcName$1 DB 062H ; emulation::gb::Cpu::OR<1,5,0>
	DB	00H
	ORG $+10
??$OR@$00$04$0A@@Cpu@gb@emulation@@AEAAXXZ$rtcVarDesc DD 044H ; emulation::gb::Cpu::OR<1,5,0>
	DD	01H
	DQ	FLAT:??$OR@$00$04$0A@@Cpu@gb@emulation@@AEAAXXZ$rtcName$1
	DD	024H
	DD	01H
	DQ	FLAT:??$OR@$00$04$0A@@Cpu@gb@emulation@@AEAAXXZ$rtcName$0
	ORG $+96
??$OR@$00$04$0A@@Cpu@gb@emulation@@AEAAXXZ$rtcFrameData DD 02H ; emulation::gb::Cpu::OR<1,5,0>
	DD	00H
	DQ	FLAT:??$OR@$00$04$0A@@Cpu@gb@emulation@@AEAAXXZ$rtcVarDesc
CONST	ENDS
;	COMDAT xdata
xdata	SEGMENT
$unwind$??$OR@$00$01$0A@@Cpu@gb@emulation@@AEAAXXZ DD 021e01H
	DD	07006b20aH
xdata	ENDS
;	COMDAT CONST
CONST	SEGMENT
??$OR@$00$01$0A@@Cpu@gb@emulation@@AEAAXXZ$rtcName$0 DB 061H ; emulation::gb::Cpu::OR<1,2,0>
	DB	00H
	ORG $+2
??$OR@$00$01$0A@@Cpu@gb@emulation@@AEAAXXZ$rtcName$1 DB 062H ; emulation::gb::Cpu::OR<1,2,0>
	DB	00H
	ORG $+10
??$OR@$00$01$0A@@Cpu@gb@emulation@@AEAAXXZ$rtcVarDesc DD 044H ; emulation::gb::Cpu::OR<1,2,0>
	DD	01H
	DQ	FLAT:??$OR@$00$01$0A@@Cpu@gb@emulation@@AEAAXXZ$rtcName$1
	DD	024H
	DD	01H
	DQ	FLAT:??$OR@$00$01$0A@@Cpu@gb@emulation@@AEAAXXZ$rtcName$0
	ORG $+96
??$OR@$00$01$0A@@Cpu@gb@emulation@@AEAAXXZ$rtcFrameData DD 02H ; emulation::gb::Cpu::OR<1,2,0>
	DD	00H
	DQ	FLAT:??$OR@$00$01$0A@@Cpu@gb@emulation@@AEAAXXZ$rtcVarDesc
CONST	ENDS
;	COMDAT xdata
xdata	SEGMENT
$unwind$??$OR@$00$02$0A@@Cpu@gb@emulation@@AEAAXXZ DD 021e01H
	DD	07006b20aH
xdata	ENDS
;	COMDAT CONST
CONST	SEGMENT
??$OR@$00$02$0A@@Cpu@gb@emulation@@AEAAXXZ$rtcName$0 DB 061H ; emulation::gb::Cpu::OR<1,3,0>
	DB	00H
	ORG $+2
??$OR@$00$02$0A@@Cpu@gb@emulation@@AEAAXXZ$rtcName$1 DB 062H ; emulation::gb::Cpu::OR<1,3,0>
	DB	00H
	ORG $+10
??$OR@$00$02$0A@@Cpu@gb@emulation@@AEAAXXZ$rtcVarDesc DD 044H ; emulation::gb::Cpu::OR<1,3,0>
	DD	01H
	DQ	FLAT:??$OR@$00$02$0A@@Cpu@gb@emulation@@AEAAXXZ$rtcName$1
	DD	024H
	DD	01H
	DQ	FLAT:??$OR@$00$02$0A@@Cpu@gb@emulation@@AEAAXXZ$rtcName$0
	ORG $+96
??$OR@$00$02$0A@@Cpu@gb@emulation@@AEAAXXZ$rtcFrameData DD 02H ; emulation::gb::Cpu::OR<1,3,0>
	DD	00H
	DQ	FLAT:??$OR@$00$02$0A@@Cpu@gb@emulation@@AEAAXXZ$rtcVarDesc
CONST	ENDS
;	COMDAT xdata
xdata	SEGMENT
$unwind$??$XOR@$00$00$0A@@Cpu@gb@emulation@@AEAAXXZ DD 021e01H
	DD	07006b20aH
xdata	ENDS
;	COMDAT CONST
CONST	SEGMENT
??$XOR@$00$00$0A@@Cpu@gb@emulation@@AEAAXXZ$rtcName$0 DB 061H ; emulation::gb::Cpu::XOR<1,1,0>
	DB	00H
	ORG $+2
??$XOR@$00$00$0A@@Cpu@gb@emulation@@AEAAXXZ$rtcName$1 DB 062H ; emulation::gb::Cpu::XOR<1,1,0>
	DB	00H
	ORG $+10
??$XOR@$00$00$0A@@Cpu@gb@emulation@@AEAAXXZ$rtcVarDesc DD 044H ; emulation::gb::Cpu::XOR<1,1,0>
	DD	01H
	DQ	FLAT:??$XOR@$00$00$0A@@Cpu@gb@emulation@@AEAAXXZ$rtcName$1
	DD	024H
	DD	01H
	DQ	FLAT:??$XOR@$00$00$0A@@Cpu@gb@emulation@@AEAAXXZ$rtcName$0
	ORG $+96
??$XOR@$00$00$0A@@Cpu@gb@emulation@@AEAAXXZ$rtcFrameData DD 02H ; emulation::gb::Cpu::XOR<1,1,0>
	DD	00H
	DQ	FLAT:??$XOR@$00$00$0A@@Cpu@gb@emulation@@AEAAXXZ$rtcVarDesc
CONST	ENDS
;	COMDAT xdata
xdata	SEGMENT
$unwind$??$XOR@$00$02$00@Cpu@gb@emulation@@AEAAXXZ DD 021e01H
	DD	07006b20aH
xdata	ENDS
;	COMDAT CONST
CONST	SEGMENT
??$XOR@$00$02$00@Cpu@gb@emulation@@AEAAXXZ$rtcName$0 DB 061H ; emulation::gb::Cpu::XOR<1,3,1>
	DB	00H
	ORG $+2
??$XOR@$00$02$00@Cpu@gb@emulation@@AEAAXXZ$rtcName$1 DB 062H ; emulation::gb::Cpu::XOR<1,3,1>
	DB	00H
	ORG $+10
??$XOR@$00$02$00@Cpu@gb@emulation@@AEAAXXZ$rtcVarDesc DD 044H ; emulation::gb::Cpu::XOR<1,3,1>
	DD	01H
	DQ	FLAT:??$XOR@$00$02$00@Cpu@gb@emulation@@AEAAXXZ$rtcName$1
	DD	024H
	DD	01H
	DQ	FLAT:??$XOR@$00$02$00@Cpu@gb@emulation@@AEAAXXZ$rtcName$0
	ORG $+96
??$XOR@$00$02$00@Cpu@gb@emulation@@AEAAXXZ$rtcFrameData DD 02H ; emulation::gb::Cpu::XOR<1,3,1>
	DD	00H
	DQ	FLAT:??$XOR@$00$02$00@Cpu@gb@emulation@@AEAAXXZ$rtcVarDesc
CONST	ENDS
;	COMDAT xdata
xdata	SEGMENT
$unwind$??$XOR@$00$05$0A@@Cpu@gb@emulation@@AEAAXXZ DD 021e01H
	DD	07006b20aH
xdata	ENDS
;	COMDAT CONST
CONST	SEGMENT
??$XOR@$00$05$0A@@Cpu@gb@emulation@@AEAAXXZ$rtcName$0 DB 061H ; emulation::gb::Cpu::XOR<1,6,0>
	DB	00H
	ORG $+2
??$XOR@$00$05$0A@@Cpu@gb@emulation@@AEAAXXZ$rtcName$1 DB 062H ; emulation::gb::Cpu::XOR<1,6,0>
	DB	00H
	ORG $+10
??$XOR@$00$05$0A@@Cpu@gb@emulation@@AEAAXXZ$rtcVarDesc DD 044H ; emulation::gb::Cpu::XOR<1,6,0>
	DD	01H
	DQ	FLAT:??$XOR@$00$05$0A@@Cpu@gb@emulation@@AEAAXXZ$rtcName$1
	DD	024H
	DD	01H
	DQ	FLAT:??$XOR@$00$05$0A@@Cpu@gb@emulation@@AEAAXXZ$rtcName$0
	ORG $+96
??$XOR@$00$05$0A@@Cpu@gb@emulation@@AEAAXXZ$rtcFrameData DD 02H ; emulation::gb::Cpu::XOR<1,6,0>
	DD	00H
	DQ	FLAT:??$XOR@$00$05$0A@@Cpu@gb@emulation@@AEAAXXZ$rtcVarDesc
CONST	ENDS
;	COMDAT xdata
xdata	SEGMENT
$unwind$??$XOR@$00$06$0A@@Cpu@gb@emulation@@AEAAXXZ DD 021e01H
	DD	07006b20aH
xdata	ENDS
;	COMDAT CONST
CONST	SEGMENT
??$XOR@$00$06$0A@@Cpu@gb@emulation@@AEAAXXZ$rtcName$0 DB 061H ; emulation::gb::Cpu::XOR<1,7,0>
	DB	00H
	ORG $+2
??$XOR@$00$06$0A@@Cpu@gb@emulation@@AEAAXXZ$rtcName$1 DB 062H ; emulation::gb::Cpu::XOR<1,7,0>
	DB	00H
	ORG $+10
??$XOR@$00$06$0A@@Cpu@gb@emulation@@AEAAXXZ$rtcVarDesc DD 044H ; emulation::gb::Cpu::XOR<1,7,0>
	DD	01H
	DQ	FLAT:??$XOR@$00$06$0A@@Cpu@gb@emulation@@AEAAXXZ$rtcName$1
	DD	024H
	DD	01H
	DQ	FLAT:??$XOR@$00$06$0A@@Cpu@gb@emulation@@AEAAXXZ$rtcName$0
	ORG $+96
??$XOR@$00$06$0A@@Cpu@gb@emulation@@AEAAXXZ$rtcFrameData DD 02H ; emulation::gb::Cpu::XOR<1,7,0>
	DD	00H
	DQ	FLAT:??$XOR@$00$06$0A@@Cpu@gb@emulation@@AEAAXXZ$rtcVarDesc
CONST	ENDS
;	COMDAT xdata
xdata	SEGMENT
$unwind$??$XOR@$00$03$0A@@Cpu@gb@emulation@@AEAAXXZ DD 021e01H
	DD	07006b20aH
xdata	ENDS
;	COMDAT CONST
CONST	SEGMENT
??$XOR@$00$03$0A@@Cpu@gb@emulation@@AEAAXXZ$rtcName$0 DB 061H ; emulation::gb::Cpu::XOR<1,4,0>
	DB	00H
	ORG $+2
??$XOR@$00$03$0A@@Cpu@gb@emulation@@AEAAXXZ$rtcName$1 DB 062H ; emulation::gb::Cpu::XOR<1,4,0>
	DB	00H
	ORG $+10
??$XOR@$00$03$0A@@Cpu@gb@emulation@@AEAAXXZ$rtcVarDesc DD 044H ; emulation::gb::Cpu::XOR<1,4,0>
	DD	01H
	DQ	FLAT:??$XOR@$00$03$0A@@Cpu@gb@emulation@@AEAAXXZ$rtcName$1
	DD	024H
	DD	01H
	DQ	FLAT:??$XOR@$00$03$0A@@Cpu@gb@emulation@@AEAAXXZ$rtcName$0
	ORG $+96
??$XOR@$00$03$0A@@Cpu@gb@emulation@@AEAAXXZ$rtcFrameData DD 02H ; emulation::gb::Cpu::XOR<1,4,0>
	DD	00H
	DQ	FLAT:??$XOR@$00$03$0A@@Cpu@gb@emulation@@AEAAXXZ$rtcVarDesc
CONST	ENDS
;	COMDAT xdata
xdata	SEGMENT
$unwind$??$XOR@$00$04$0A@@Cpu@gb@emulation@@AEAAXXZ DD 021e01H
	DD	07006b20aH
xdata	ENDS
;	COMDAT CONST
CONST	SEGMENT
??$XOR@$00$04$0A@@Cpu@gb@emulation@@AEAAXXZ$rtcName$0 DB 061H ; emulation::gb::Cpu::XOR<1,5,0>
	DB	00H
	ORG $+2
??$XOR@$00$04$0A@@Cpu@gb@emulation@@AEAAXXZ$rtcName$1 DB 062H ; emulation::gb::Cpu::XOR<1,5,0>
	DB	00H
	ORG $+10
??$XOR@$00$04$0A@@Cpu@gb@emulation@@AEAAXXZ$rtcVarDesc DD 044H ; emulation::gb::Cpu::XOR<1,5,0>
	DD	01H
	DQ	FLAT:??$XOR@$00$04$0A@@Cpu@gb@emulation@@AEAAXXZ$rtcName$1
	DD	024H
	DD	01H
	DQ	FLAT:??$XOR@$00$04$0A@@Cpu@gb@emulation@@AEAAXXZ$rtcName$0
	ORG $+96
??$XOR@$00$04$0A@@Cpu@gb@emulation@@AEAAXXZ$rtcFrameData DD 02H ; emulation::gb::Cpu::XOR<1,5,0>
	DD	00H
	DQ	FLAT:??$XOR@$00$04$0A@@Cpu@gb@emulation@@AEAAXXZ$rtcVarDesc
CONST	ENDS
;	COMDAT xdata
xdata	SEGMENT
$unwind$??$XOR@$00$01$0A@@Cpu@gb@emulation@@AEAAXXZ DD 021e01H
	DD	07006b20aH
xdata	ENDS
;	COMDAT CONST
CONST	SEGMENT
??$XOR@$00$01$0A@@Cpu@gb@emulation@@AEAAXXZ$rtcName$0 DB 061H ; emulation::gb::Cpu::XOR<1,2,0>
	DB	00H
	ORG $+2
??$XOR@$00$01$0A@@Cpu@gb@emulation@@AEAAXXZ$rtcName$1 DB 062H ; emulation::gb::Cpu::XOR<1,2,0>
	DB	00H
	ORG $+10
??$XOR@$00$01$0A@@Cpu@gb@emulation@@AEAAXXZ$rtcVarDesc DD 044H ; emulation::gb::Cpu::XOR<1,2,0>
	DD	01H
	DQ	FLAT:??$XOR@$00$01$0A@@Cpu@gb@emulation@@AEAAXXZ$rtcName$1
	DD	024H
	DD	01H
	DQ	FLAT:??$XOR@$00$01$0A@@Cpu@gb@emulation@@AEAAXXZ$rtcName$0
	ORG $+96
??$XOR@$00$01$0A@@Cpu@gb@emulation@@AEAAXXZ$rtcFrameData DD 02H ; emulation::gb::Cpu::XOR<1,2,0>
	DD	00H
	DQ	FLAT:??$XOR@$00$01$0A@@Cpu@gb@emulation@@AEAAXXZ$rtcVarDesc
CONST	ENDS
;	COMDAT xdata
xdata	SEGMENT
$unwind$??$XOR@$00$02$0A@@Cpu@gb@emulation@@AEAAXXZ DD 021e01H
	DD	07006b20aH
xdata	ENDS
;	COMDAT CONST
CONST	SEGMENT
??$XOR@$00$02$0A@@Cpu@gb@emulation@@AEAAXXZ$rtcName$0 DB 061H ; emulation::gb::Cpu::XOR<1,3,0>
	DB	00H
	ORG $+2
??$XOR@$00$02$0A@@Cpu@gb@emulation@@AEAAXXZ$rtcName$1 DB 062H ; emulation::gb::Cpu::XOR<1,3,0>
	DB	00H
	ORG $+10
??$XOR@$00$02$0A@@Cpu@gb@emulation@@AEAAXXZ$rtcVarDesc DD 044H ; emulation::gb::Cpu::XOR<1,3,0>
	DD	01H
	DQ	FLAT:??$XOR@$00$02$0A@@Cpu@gb@emulation@@AEAAXXZ$rtcName$1
	DD	024H
	DD	01H
	DQ	FLAT:??$XOR@$00$02$0A@@Cpu@gb@emulation@@AEAAXXZ$rtcName$0
	ORG $+96
??$XOR@$00$02$0A@@Cpu@gb@emulation@@AEAAXXZ$rtcFrameData DD 02H ; emulation::gb::Cpu::XOR<1,3,0>
	DD	00H
	DQ	FLAT:??$XOR@$00$02$0A@@Cpu@gb@emulation@@AEAAXXZ$rtcVarDesc
CONST	ENDS
;	COMDAT xdata
xdata	SEGMENT
$unwind$??$AND@$00$00$0A@@Cpu@gb@emulation@@AEAAXXZ DD 021e01H
	DD	07006b20aH
xdata	ENDS
;	COMDAT CONST
CONST	SEGMENT
??$AND@$00$00$0A@@Cpu@gb@emulation@@AEAAXXZ$rtcName$0 DB 061H ; emulation::gb::Cpu::AND<1,1,0>
	DB	00H
	ORG $+2
??$AND@$00$00$0A@@Cpu@gb@emulation@@AEAAXXZ$rtcName$1 DB 062H ; emulation::gb::Cpu::AND<1,1,0>
	DB	00H
	ORG $+10
??$AND@$00$00$0A@@Cpu@gb@emulation@@AEAAXXZ$rtcVarDesc DD 044H ; emulation::gb::Cpu::AND<1,1,0>
	DD	01H
	DQ	FLAT:??$AND@$00$00$0A@@Cpu@gb@emulation@@AEAAXXZ$rtcName$1
	DD	024H
	DD	01H
	DQ	FLAT:??$AND@$00$00$0A@@Cpu@gb@emulation@@AEAAXXZ$rtcName$0
	ORG $+96
??$AND@$00$00$0A@@Cpu@gb@emulation@@AEAAXXZ$rtcFrameData DD 02H ; emulation::gb::Cpu::AND<1,1,0>
	DD	00H
	DQ	FLAT:??$AND@$00$00$0A@@Cpu@gb@emulation@@AEAAXXZ$rtcVarDesc
CONST	ENDS
;	COMDAT xdata
xdata	SEGMENT
$unwind$??$AND@$00$02$00@Cpu@gb@emulation@@AEAAXXZ DD 021e01H
	DD	07006b20aH
xdata	ENDS
;	COMDAT CONST
CONST	SEGMENT
??$AND@$00$02$00@Cpu@gb@emulation@@AEAAXXZ$rtcName$0 DB 061H ; emulation::gb::Cpu::AND<1,3,1>
	DB	00H
	ORG $+2
??$AND@$00$02$00@Cpu@gb@emulation@@AEAAXXZ$rtcName$1 DB 062H ; emulation::gb::Cpu::AND<1,3,1>
	DB	00H
	ORG $+10
??$AND@$00$02$00@Cpu@gb@emulation@@AEAAXXZ$rtcVarDesc DD 044H ; emulation::gb::Cpu::AND<1,3,1>
	DD	01H
	DQ	FLAT:??$AND@$00$02$00@Cpu@gb@emulation@@AEAAXXZ$rtcName$1
	DD	024H
	DD	01H
	DQ	FLAT:??$AND@$00$02$00@Cpu@gb@emulation@@AEAAXXZ$rtcName$0
	ORG $+96
??$AND@$00$02$00@Cpu@gb@emulation@@AEAAXXZ$rtcFrameData DD 02H ; emulation::gb::Cpu::AND<1,3,1>
	DD	00H
	DQ	FLAT:??$AND@$00$02$00@Cpu@gb@emulation@@AEAAXXZ$rtcVarDesc
CONST	ENDS
;	COMDAT xdata
xdata	SEGMENT
$unwind$??$AND@$00$05$0A@@Cpu@gb@emulation@@AEAAXXZ DD 021e01H
	DD	07006b20aH
xdata	ENDS
;	COMDAT CONST
CONST	SEGMENT
??$AND@$00$05$0A@@Cpu@gb@emulation@@AEAAXXZ$rtcName$0 DB 061H ; emulation::gb::Cpu::AND<1,6,0>
	DB	00H
	ORG $+2
??$AND@$00$05$0A@@Cpu@gb@emulation@@AEAAXXZ$rtcName$1 DB 062H ; emulation::gb::Cpu::AND<1,6,0>
	DB	00H
	ORG $+10
??$AND@$00$05$0A@@Cpu@gb@emulation@@AEAAXXZ$rtcVarDesc DD 044H ; emulation::gb::Cpu::AND<1,6,0>
	DD	01H
	DQ	FLAT:??$AND@$00$05$0A@@Cpu@gb@emulation@@AEAAXXZ$rtcName$1
	DD	024H
	DD	01H
	DQ	FLAT:??$AND@$00$05$0A@@Cpu@gb@emulation@@AEAAXXZ$rtcName$0
	ORG $+96
??$AND@$00$05$0A@@Cpu@gb@emulation@@AEAAXXZ$rtcFrameData DD 02H ; emulation::gb::Cpu::AND<1,6,0>
	DD	00H
	DQ	FLAT:??$AND@$00$05$0A@@Cpu@gb@emulation@@AEAAXXZ$rtcVarDesc
CONST	ENDS
;	COMDAT xdata
xdata	SEGMENT
$unwind$??$AND@$00$06$0A@@Cpu@gb@emulation@@AEAAXXZ DD 021e01H
	DD	07006b20aH
xdata	ENDS
;	COMDAT CONST
CONST	SEGMENT
??$AND@$00$06$0A@@Cpu@gb@emulation@@AEAAXXZ$rtcName$0 DB 061H ; emulation::gb::Cpu::AND<1,7,0>
	DB	00H
	ORG $+2
??$AND@$00$06$0A@@Cpu@gb@emulation@@AEAAXXZ$rtcName$1 DB 062H ; emulation::gb::Cpu::AND<1,7,0>
	DB	00H
	ORG $+10
??$AND@$00$06$0A@@Cpu@gb@emulation@@AEAAXXZ$rtcVarDesc DD 044H ; emulation::gb::Cpu::AND<1,7,0>
	DD	01H
	DQ	FLAT:??$AND@$00$06$0A@@Cpu@gb@emulation@@AEAAXXZ$rtcName$1
	DD	024H
	DD	01H
	DQ	FLAT:??$AND@$00$06$0A@@Cpu@gb@emulation@@AEAAXXZ$rtcName$0
	ORG $+96
??$AND@$00$06$0A@@Cpu@gb@emulation@@AEAAXXZ$rtcFrameData DD 02H ; emulation::gb::Cpu::AND<1,7,0>
	DD	00H
	DQ	FLAT:??$AND@$00$06$0A@@Cpu@gb@emulation@@AEAAXXZ$rtcVarDesc
CONST	ENDS
;	COMDAT xdata
xdata	SEGMENT
$unwind$??$AND@$00$03$0A@@Cpu@gb@emulation@@AEAAXXZ DD 021e01H
	DD	07006b20aH
xdata	ENDS
;	COMDAT CONST
CONST	SEGMENT
??$AND@$00$03$0A@@Cpu@gb@emulation@@AEAAXXZ$rtcName$0 DB 061H ; emulation::gb::Cpu::AND<1,4,0>
	DB	00H
	ORG $+2
??$AND@$00$03$0A@@Cpu@gb@emulation@@AEAAXXZ$rtcName$1 DB 062H ; emulation::gb::Cpu::AND<1,4,0>
	DB	00H
	ORG $+10
??$AND@$00$03$0A@@Cpu@gb@emulation@@AEAAXXZ$rtcVarDesc DD 044H ; emulation::gb::Cpu::AND<1,4,0>
	DD	01H
	DQ	FLAT:??$AND@$00$03$0A@@Cpu@gb@emulation@@AEAAXXZ$rtcName$1
	DD	024H
	DD	01H
	DQ	FLAT:??$AND@$00$03$0A@@Cpu@gb@emulation@@AEAAXXZ$rtcName$0
	ORG $+96
??$AND@$00$03$0A@@Cpu@gb@emulation@@AEAAXXZ$rtcFrameData DD 02H ; emulation::gb::Cpu::AND<1,4,0>
	DD	00H
	DQ	FLAT:??$AND@$00$03$0A@@Cpu@gb@emulation@@AEAAXXZ$rtcVarDesc
CONST	ENDS
;	COMDAT xdata
xdata	SEGMENT
$unwind$??$AND@$00$04$0A@@Cpu@gb@emulation@@AEAAXXZ DD 021e01H
	DD	07006b20aH
xdata	ENDS
;	COMDAT CONST
CONST	SEGMENT
??$AND@$00$04$0A@@Cpu@gb@emulation@@AEAAXXZ$rtcName$0 DB 061H ; emulation::gb::Cpu::AND<1,5,0>
	DB	00H
	ORG $+2
??$AND@$00$04$0A@@Cpu@gb@emulation@@AEAAXXZ$rtcName$1 DB 062H ; emulation::gb::Cpu::AND<1,5,0>
	DB	00H
	ORG $+10
??$AND@$00$04$0A@@Cpu@gb@emulation@@AEAAXXZ$rtcVarDesc DD 044H ; emulation::gb::Cpu::AND<1,5,0>
	DD	01H
	DQ	FLAT:??$AND@$00$04$0A@@Cpu@gb@emulation@@AEAAXXZ$rtcName$1
	DD	024H
	DD	01H
	DQ	FLAT:??$AND@$00$04$0A@@Cpu@gb@emulation@@AEAAXXZ$rtcName$0
	ORG $+96
??$AND@$00$04$0A@@Cpu@gb@emulation@@AEAAXXZ$rtcFrameData DD 02H ; emulation::gb::Cpu::AND<1,5,0>
	DD	00H
	DQ	FLAT:??$AND@$00$04$0A@@Cpu@gb@emulation@@AEAAXXZ$rtcVarDesc
CONST	ENDS
;	COMDAT xdata
xdata	SEGMENT
$unwind$??$AND@$00$01$0A@@Cpu@gb@emulation@@AEAAXXZ DD 021e01H
	DD	07006b20aH
xdata	ENDS
;	COMDAT CONST
CONST	SEGMENT
??$AND@$00$01$0A@@Cpu@gb@emulation@@AEAAXXZ$rtcName$0 DB 061H ; emulation::gb::Cpu::AND<1,2,0>
	DB	00H
	ORG $+2
??$AND@$00$01$0A@@Cpu@gb@emulation@@AEAAXXZ$rtcName$1 DB 062H ; emulation::gb::Cpu::AND<1,2,0>
	DB	00H
	ORG $+10
??$AND@$00$01$0A@@Cpu@gb@emulation@@AEAAXXZ$rtcVarDesc DD 044H ; emulation::gb::Cpu::AND<1,2,0>
	DD	01H
	DQ	FLAT:??$AND@$00$01$0A@@Cpu@gb@emulation@@AEAAXXZ$rtcName$1
	DD	024H
	DD	01H
	DQ	FLAT:??$AND@$00$01$0A@@Cpu@gb@emulation@@AEAAXXZ$rtcName$0
	ORG $+96
??$AND@$00$01$0A@@Cpu@gb@emulation@@AEAAXXZ$rtcFrameData DD 02H ; emulation::gb::Cpu::AND<1,2,0>
	DD	00H
	DQ	FLAT:??$AND@$00$01$0A@@Cpu@gb@emulation@@AEAAXXZ$rtcVarDesc
CONST	ENDS
;	COMDAT xdata
xdata	SEGMENT
$unwind$??$AND@$00$02$0A@@Cpu@gb@emulation@@AEAAXXZ DD 021e01H
	DD	07006b20aH
xdata	ENDS
;	COMDAT CONST
CONST	SEGMENT
??$AND@$00$02$0A@@Cpu@gb@emulation@@AEAAXXZ$rtcName$0 DB 061H ; emulation::gb::Cpu::AND<1,3,0>
	DB	00H
	ORG $+2
??$AND@$00$02$0A@@Cpu@gb@emulation@@AEAAXXZ$rtcName$1 DB 062H ; emulation::gb::Cpu::AND<1,3,0>
	DB	00H
	ORG $+10
??$AND@$00$02$0A@@Cpu@gb@emulation@@AEAAXXZ$rtcVarDesc DD 044H ; emulation::gb::Cpu::AND<1,3,0>
	DD	01H
	DQ	FLAT:??$AND@$00$02$0A@@Cpu@gb@emulation@@AEAAXXZ$rtcName$1
	DD	024H
	DD	01H
	DQ	FLAT:??$AND@$00$02$0A@@Cpu@gb@emulation@@AEAAXXZ$rtcName$0
	ORG $+96
??$AND@$00$02$0A@@Cpu@gb@emulation@@AEAAXXZ$rtcFrameData DD 02H ; emulation::gb::Cpu::AND<1,3,0>
	DD	00H
	DQ	FLAT:??$AND@$00$02$0A@@Cpu@gb@emulation@@AEAAXXZ$rtcVarDesc
CONST	ENDS
;	COMDAT xdata
xdata	SEGMENT
$unwind$??$SBC@$00$00$0A@@Cpu@gb@emulation@@AEAAXXZ DD 021e01H
	DD	07006b20aH
xdata	ENDS
;	COMDAT CONST
CONST	SEGMENT
??$SBC@$00$00$0A@@Cpu@gb@emulation@@AEAAXXZ$rtcName$0 DB 061H ; emulation::gb::Cpu::SBC<1,1,0>
	DB	00H
	ORG $+2
??$SBC@$00$00$0A@@Cpu@gb@emulation@@AEAAXXZ$rtcName$1 DB 062H ; emulation::gb::Cpu::SBC<1,1,0>
	DB	00H
	ORG $+10
??$SBC@$00$00$0A@@Cpu@gb@emulation@@AEAAXXZ$rtcVarDesc DD 044H ; emulation::gb::Cpu::SBC<1,1,0>
	DD	01H
	DQ	FLAT:??$SBC@$00$00$0A@@Cpu@gb@emulation@@AEAAXXZ$rtcName$1
	DD	024H
	DD	01H
	DQ	FLAT:??$SBC@$00$00$0A@@Cpu@gb@emulation@@AEAAXXZ$rtcName$0
	ORG $+96
??$SBC@$00$00$0A@@Cpu@gb@emulation@@AEAAXXZ$rtcFrameData DD 02H ; emulation::gb::Cpu::SBC<1,1,0>
	DD	00H
	DQ	FLAT:??$SBC@$00$00$0A@@Cpu@gb@emulation@@AEAAXXZ$rtcVarDesc
CONST	ENDS
;	COMDAT xdata
xdata	SEGMENT
$unwind$??$SBC@$00$02$00@Cpu@gb@emulation@@AEAAXXZ DD 021e01H
	DD	07006b20aH
xdata	ENDS
;	COMDAT CONST
CONST	SEGMENT
??$SBC@$00$02$00@Cpu@gb@emulation@@AEAAXXZ$rtcName$0 DB 061H ; emulation::gb::Cpu::SBC<1,3,1>
	DB	00H
	ORG $+2
??$SBC@$00$02$00@Cpu@gb@emulation@@AEAAXXZ$rtcName$1 DB 062H ; emulation::gb::Cpu::SBC<1,3,1>
	DB	00H
	ORG $+10
??$SBC@$00$02$00@Cpu@gb@emulation@@AEAAXXZ$rtcVarDesc DD 044H ; emulation::gb::Cpu::SBC<1,3,1>
	DD	01H
	DQ	FLAT:??$SBC@$00$02$00@Cpu@gb@emulation@@AEAAXXZ$rtcName$1
	DD	024H
	DD	01H
	DQ	FLAT:??$SBC@$00$02$00@Cpu@gb@emulation@@AEAAXXZ$rtcName$0
	ORG $+96
??$SBC@$00$02$00@Cpu@gb@emulation@@AEAAXXZ$rtcFrameData DD 02H ; emulation::gb::Cpu::SBC<1,3,1>
	DD	00H
	DQ	FLAT:??$SBC@$00$02$00@Cpu@gb@emulation@@AEAAXXZ$rtcVarDesc
CONST	ENDS
;	COMDAT xdata
xdata	SEGMENT
$unwind$??$SBC@$00$05$0A@@Cpu@gb@emulation@@AEAAXXZ DD 021e01H
	DD	07006b20aH
xdata	ENDS
;	COMDAT CONST
CONST	SEGMENT
??$SBC@$00$05$0A@@Cpu@gb@emulation@@AEAAXXZ$rtcName$0 DB 061H ; emulation::gb::Cpu::SBC<1,6,0>
	DB	00H
	ORG $+2
??$SBC@$00$05$0A@@Cpu@gb@emulation@@AEAAXXZ$rtcName$1 DB 062H ; emulation::gb::Cpu::SBC<1,6,0>
	DB	00H
	ORG $+10
??$SBC@$00$05$0A@@Cpu@gb@emulation@@AEAAXXZ$rtcVarDesc DD 044H ; emulation::gb::Cpu::SBC<1,6,0>
	DD	01H
	DQ	FLAT:??$SBC@$00$05$0A@@Cpu@gb@emulation@@AEAAXXZ$rtcName$1
	DD	024H
	DD	01H
	DQ	FLAT:??$SBC@$00$05$0A@@Cpu@gb@emulation@@AEAAXXZ$rtcName$0
	ORG $+96
??$SBC@$00$05$0A@@Cpu@gb@emulation@@AEAAXXZ$rtcFrameData DD 02H ; emulation::gb::Cpu::SBC<1,6,0>
	DD	00H
	DQ	FLAT:??$SBC@$00$05$0A@@Cpu@gb@emulation@@AEAAXXZ$rtcVarDesc
CONST	ENDS
;	COMDAT xdata
xdata	SEGMENT
$unwind$??$SBC@$00$06$0A@@Cpu@gb@emulation@@AEAAXXZ DD 021e01H
	DD	07006b20aH
xdata	ENDS
;	COMDAT CONST
CONST	SEGMENT
??$SBC@$00$06$0A@@Cpu@gb@emulation@@AEAAXXZ$rtcName$0 DB 061H ; emulation::gb::Cpu::SBC<1,7,0>
	DB	00H
	ORG $+2
??$SBC@$00$06$0A@@Cpu@gb@emulation@@AEAAXXZ$rtcName$1 DB 062H ; emulation::gb::Cpu::SBC<1,7,0>
	DB	00H
	ORG $+10
??$SBC@$00$06$0A@@Cpu@gb@emulation@@AEAAXXZ$rtcVarDesc DD 044H ; emulation::gb::Cpu::SBC<1,7,0>
	DD	01H
	DQ	FLAT:??$SBC@$00$06$0A@@Cpu@gb@emulation@@AEAAXXZ$rtcName$1
	DD	024H
	DD	01H
	DQ	FLAT:??$SBC@$00$06$0A@@Cpu@gb@emulation@@AEAAXXZ$rtcName$0
	ORG $+96
??$SBC@$00$06$0A@@Cpu@gb@emulation@@AEAAXXZ$rtcFrameData DD 02H ; emulation::gb::Cpu::SBC<1,7,0>
	DD	00H
	DQ	FLAT:??$SBC@$00$06$0A@@Cpu@gb@emulation@@AEAAXXZ$rtcVarDesc
CONST	ENDS
;	COMDAT xdata
xdata	SEGMENT
$unwind$??$SBC@$00$03$0A@@Cpu@gb@emulation@@AEAAXXZ DD 021e01H
	DD	07006b20aH
xdata	ENDS
;	COMDAT CONST
CONST	SEGMENT
??$SBC@$00$03$0A@@Cpu@gb@emulation@@AEAAXXZ$rtcName$0 DB 061H ; emulation::gb::Cpu::SBC<1,4,0>
	DB	00H
	ORG $+2
??$SBC@$00$03$0A@@Cpu@gb@emulation@@AEAAXXZ$rtcName$1 DB 062H ; emulation::gb::Cpu::SBC<1,4,0>
	DB	00H
	ORG $+10
??$SBC@$00$03$0A@@Cpu@gb@emulation@@AEAAXXZ$rtcVarDesc DD 044H ; emulation::gb::Cpu::SBC<1,4,0>
	DD	01H
	DQ	FLAT:??$SBC@$00$03$0A@@Cpu@gb@emulation@@AEAAXXZ$rtcName$1
	DD	024H
	DD	01H
	DQ	FLAT:??$SBC@$00$03$0A@@Cpu@gb@emulation@@AEAAXXZ$rtcName$0
	ORG $+96
??$SBC@$00$03$0A@@Cpu@gb@emulation@@AEAAXXZ$rtcFrameData DD 02H ; emulation::gb::Cpu::SBC<1,4,0>
	DD	00H
	DQ	FLAT:??$SBC@$00$03$0A@@Cpu@gb@emulation@@AEAAXXZ$rtcVarDesc
CONST	ENDS
;	COMDAT xdata
xdata	SEGMENT
$unwind$??$SBC@$00$04$0A@@Cpu@gb@emulation@@AEAAXXZ DD 021e01H
	DD	07006b20aH
xdata	ENDS
;	COMDAT CONST
CONST	SEGMENT
??$SBC@$00$04$0A@@Cpu@gb@emulation@@AEAAXXZ$rtcName$0 DB 061H ; emulation::gb::Cpu::SBC<1,5,0>
	DB	00H
	ORG $+2
??$SBC@$00$04$0A@@Cpu@gb@emulation@@AEAAXXZ$rtcName$1 DB 062H ; emulation::gb::Cpu::SBC<1,5,0>
	DB	00H
	ORG $+10
??$SBC@$00$04$0A@@Cpu@gb@emulation@@AEAAXXZ$rtcVarDesc DD 044H ; emulation::gb::Cpu::SBC<1,5,0>
	DD	01H
	DQ	FLAT:??$SBC@$00$04$0A@@Cpu@gb@emulation@@AEAAXXZ$rtcName$1
	DD	024H
	DD	01H
	DQ	FLAT:??$SBC@$00$04$0A@@Cpu@gb@emulation@@AEAAXXZ$rtcName$0
	ORG $+96
??$SBC@$00$04$0A@@Cpu@gb@emulation@@AEAAXXZ$rtcFrameData DD 02H ; emulation::gb::Cpu::SBC<1,5,0>
	DD	00H
	DQ	FLAT:??$SBC@$00$04$0A@@Cpu@gb@emulation@@AEAAXXZ$rtcVarDesc
CONST	ENDS
;	COMDAT xdata
xdata	SEGMENT
$unwind$??$SBC@$00$01$0A@@Cpu@gb@emulation@@AEAAXXZ DD 021e01H
	DD	07006b20aH
xdata	ENDS
;	COMDAT CONST
CONST	SEGMENT
??$SBC@$00$01$0A@@Cpu@gb@emulation@@AEAAXXZ$rtcName$0 DB 061H ; emulation::gb::Cpu::SBC<1,2,0>
	DB	00H
	ORG $+2
??$SBC@$00$01$0A@@Cpu@gb@emulation@@AEAAXXZ$rtcName$1 DB 062H ; emulation::gb::Cpu::SBC<1,2,0>
	DB	00H
	ORG $+10
??$SBC@$00$01$0A@@Cpu@gb@emulation@@AEAAXXZ$rtcVarDesc DD 044H ; emulation::gb::Cpu::SBC<1,2,0>
	DD	01H
	DQ	FLAT:??$SBC@$00$01$0A@@Cpu@gb@emulation@@AEAAXXZ$rtcName$1
	DD	024H
	DD	01H
	DQ	FLAT:??$SBC@$00$01$0A@@Cpu@gb@emulation@@AEAAXXZ$rtcName$0
	ORG $+96
??$SBC@$00$01$0A@@Cpu@gb@emulation@@AEAAXXZ$rtcFrameData DD 02H ; emulation::gb::Cpu::SBC<1,2,0>
	DD	00H
	DQ	FLAT:??$SBC@$00$01$0A@@Cpu@gb@emulation@@AEAAXXZ$rtcVarDesc
CONST	ENDS
;	COMDAT xdata
xdata	SEGMENT
$unwind$??$SBC@$00$02$0A@@Cpu@gb@emulation@@AEAAXXZ DD 021e01H
	DD	07006b20aH
xdata	ENDS
;	COMDAT CONST
CONST	SEGMENT
??$SBC@$00$02$0A@@Cpu@gb@emulation@@AEAAXXZ$rtcName$0 DB 061H ; emulation::gb::Cpu::SBC<1,3,0>
	DB	00H
	ORG $+2
??$SBC@$00$02$0A@@Cpu@gb@emulation@@AEAAXXZ$rtcName$1 DB 062H ; emulation::gb::Cpu::SBC<1,3,0>
	DB	00H
	ORG $+10
??$SBC@$00$02$0A@@Cpu@gb@emulation@@AEAAXXZ$rtcVarDesc DD 044H ; emulation::gb::Cpu::SBC<1,3,0>
	DD	01H
	DQ	FLAT:??$SBC@$00$02$0A@@Cpu@gb@emulation@@AEAAXXZ$rtcName$1
	DD	024H
	DD	01H
	DQ	FLAT:??$SBC@$00$02$0A@@Cpu@gb@emulation@@AEAAXXZ$rtcName$0
	ORG $+96
??$SBC@$00$02$0A@@Cpu@gb@emulation@@AEAAXXZ$rtcFrameData DD 02H ; emulation::gb::Cpu::SBC<1,3,0>
	DD	00H
	DQ	FLAT:??$SBC@$00$02$0A@@Cpu@gb@emulation@@AEAAXXZ$rtcVarDesc
CONST	ENDS
;	COMDAT xdata
xdata	SEGMENT
$unwind$??$SUB@$00$00$0A@@Cpu@gb@emulation@@AEAAXXZ DD 021e01H
	DD	07006b20aH
xdata	ENDS
;	COMDAT CONST
CONST	SEGMENT
??$SUB@$00$00$0A@@Cpu@gb@emulation@@AEAAXXZ$rtcName$0 DB 061H ; emulation::gb::Cpu::SUB<1,1,0>
	DB	00H
	ORG $+2
??$SUB@$00$00$0A@@Cpu@gb@emulation@@AEAAXXZ$rtcName$1 DB 062H ; emulation::gb::Cpu::SUB<1,1,0>
	DB	00H
	ORG $+10
??$SUB@$00$00$0A@@Cpu@gb@emulation@@AEAAXXZ$rtcVarDesc DD 044H ; emulation::gb::Cpu::SUB<1,1,0>
	DD	01H
	DQ	FLAT:??$SUB@$00$00$0A@@Cpu@gb@emulation@@AEAAXXZ$rtcName$1
	DD	024H
	DD	01H
	DQ	FLAT:??$SUB@$00$00$0A@@Cpu@gb@emulation@@AEAAXXZ$rtcName$0
	ORG $+96
??$SUB@$00$00$0A@@Cpu@gb@emulation@@AEAAXXZ$rtcFrameData DD 02H ; emulation::gb::Cpu::SUB<1,1,0>
	DD	00H
	DQ	FLAT:??$SUB@$00$00$0A@@Cpu@gb@emulation@@AEAAXXZ$rtcVarDesc
CONST	ENDS
;	COMDAT xdata
xdata	SEGMENT
$unwind$??$SUB@$00$02$00@Cpu@gb@emulation@@AEAAXXZ DD 021e01H
	DD	07006b20aH
xdata	ENDS
;	COMDAT CONST
CONST	SEGMENT
??$SUB@$00$02$00@Cpu@gb@emulation@@AEAAXXZ$rtcName$0 DB 061H ; emulation::gb::Cpu::SUB<1,3,1>
	DB	00H
	ORG $+2
??$SUB@$00$02$00@Cpu@gb@emulation@@AEAAXXZ$rtcName$1 DB 062H ; emulation::gb::Cpu::SUB<1,3,1>
	DB	00H
	ORG $+10
??$SUB@$00$02$00@Cpu@gb@emulation@@AEAAXXZ$rtcVarDesc DD 044H ; emulation::gb::Cpu::SUB<1,3,1>
	DD	01H
	DQ	FLAT:??$SUB@$00$02$00@Cpu@gb@emulation@@AEAAXXZ$rtcName$1
	DD	024H
	DD	01H
	DQ	FLAT:??$SUB@$00$02$00@Cpu@gb@emulation@@AEAAXXZ$rtcName$0
	ORG $+96
??$SUB@$00$02$00@Cpu@gb@emulation@@AEAAXXZ$rtcFrameData DD 02H ; emulation::gb::Cpu::SUB<1,3,1>
	DD	00H
	DQ	FLAT:??$SUB@$00$02$00@Cpu@gb@emulation@@AEAAXXZ$rtcVarDesc
CONST	ENDS
;	COMDAT xdata
xdata	SEGMENT
$unwind$??$SUB@$00$05$0A@@Cpu@gb@emulation@@AEAAXXZ DD 021e01H
	DD	07006b20aH
xdata	ENDS
;	COMDAT CONST
CONST	SEGMENT
??$SUB@$00$05$0A@@Cpu@gb@emulation@@AEAAXXZ$rtcName$0 DB 061H ; emulation::gb::Cpu::SUB<1,6,0>
	DB	00H
	ORG $+2
??$SUB@$00$05$0A@@Cpu@gb@emulation@@AEAAXXZ$rtcName$1 DB 062H ; emulation::gb::Cpu::SUB<1,6,0>
	DB	00H
	ORG $+10
??$SUB@$00$05$0A@@Cpu@gb@emulation@@AEAAXXZ$rtcVarDesc DD 044H ; emulation::gb::Cpu::SUB<1,6,0>
	DD	01H
	DQ	FLAT:??$SUB@$00$05$0A@@Cpu@gb@emulation@@AEAAXXZ$rtcName$1
	DD	024H
	DD	01H
	DQ	FLAT:??$SUB@$00$05$0A@@Cpu@gb@emulation@@AEAAXXZ$rtcName$0
	ORG $+96
??$SUB@$00$05$0A@@Cpu@gb@emulation@@AEAAXXZ$rtcFrameData DD 02H ; emulation::gb::Cpu::SUB<1,6,0>
	DD	00H
	DQ	FLAT:??$SUB@$00$05$0A@@Cpu@gb@emulation@@AEAAXXZ$rtcVarDesc
CONST	ENDS
;	COMDAT xdata
xdata	SEGMENT
$unwind$??$SUB@$00$06$0A@@Cpu@gb@emulation@@AEAAXXZ DD 021e01H
	DD	07006b20aH
xdata	ENDS
;	COMDAT CONST
CONST	SEGMENT
??$SUB@$00$06$0A@@Cpu@gb@emulation@@AEAAXXZ$rtcName$0 DB 061H ; emulation::gb::Cpu::SUB<1,7,0>
	DB	00H
	ORG $+2
??$SUB@$00$06$0A@@Cpu@gb@emulation@@AEAAXXZ$rtcName$1 DB 062H ; emulation::gb::Cpu::SUB<1,7,0>
	DB	00H
	ORG $+10
??$SUB@$00$06$0A@@Cpu@gb@emulation@@AEAAXXZ$rtcVarDesc DD 044H ; emulation::gb::Cpu::SUB<1,7,0>
	DD	01H
	DQ	FLAT:??$SUB@$00$06$0A@@Cpu@gb@emulation@@AEAAXXZ$rtcName$1
	DD	024H
	DD	01H
	DQ	FLAT:??$SUB@$00$06$0A@@Cpu@gb@emulation@@AEAAXXZ$rtcName$0
	ORG $+96
??$SUB@$00$06$0A@@Cpu@gb@emulation@@AEAAXXZ$rtcFrameData DD 02H ; emulation::gb::Cpu::SUB<1,7,0>
	DD	00H
	DQ	FLAT:??$SUB@$00$06$0A@@Cpu@gb@emulation@@AEAAXXZ$rtcVarDesc
CONST	ENDS
;	COMDAT xdata
xdata	SEGMENT
$unwind$??$SUB@$00$03$0A@@Cpu@gb@emulation@@AEAAXXZ DD 021e01H
	DD	07006b20aH
xdata	ENDS
;	COMDAT CONST
CONST	SEGMENT
??$SUB@$00$03$0A@@Cpu@gb@emulation@@AEAAXXZ$rtcName$0 DB 061H ; emulation::gb::Cpu::SUB<1,4,0>
	DB	00H
	ORG $+2
??$SUB@$00$03$0A@@Cpu@gb@emulation@@AEAAXXZ$rtcName$1 DB 062H ; emulation::gb::Cpu::SUB<1,4,0>
	DB	00H
	ORG $+10
??$SUB@$00$03$0A@@Cpu@gb@emulation@@AEAAXXZ$rtcVarDesc DD 044H ; emulation::gb::Cpu::SUB<1,4,0>
	DD	01H
	DQ	FLAT:??$SUB@$00$03$0A@@Cpu@gb@emulation@@AEAAXXZ$rtcName$1
	DD	024H
	DD	01H
	DQ	FLAT:??$SUB@$00$03$0A@@Cpu@gb@emulation@@AEAAXXZ$rtcName$0
	ORG $+96
??$SUB@$00$03$0A@@Cpu@gb@emulation@@AEAAXXZ$rtcFrameData DD 02H ; emulation::gb::Cpu::SUB<1,4,0>
	DD	00H
	DQ	FLAT:??$SUB@$00$03$0A@@Cpu@gb@emulation@@AEAAXXZ$rtcVarDesc
CONST	ENDS
;	COMDAT xdata
xdata	SEGMENT
$unwind$??$SUB@$00$04$0A@@Cpu@gb@emulation@@AEAAXXZ DD 021e01H
	DD	07006b20aH
xdata	ENDS
;	COMDAT CONST
CONST	SEGMENT
??$SUB@$00$04$0A@@Cpu@gb@emulation@@AEAAXXZ$rtcName$0 DB 061H ; emulation::gb::Cpu::SUB<1,5,0>
	DB	00H
	ORG $+2
??$SUB@$00$04$0A@@Cpu@gb@emulation@@AEAAXXZ$rtcName$1 DB 062H ; emulation::gb::Cpu::SUB<1,5,0>
	DB	00H
	ORG $+10
??$SUB@$00$04$0A@@Cpu@gb@emulation@@AEAAXXZ$rtcVarDesc DD 044H ; emulation::gb::Cpu::SUB<1,5,0>
	DD	01H
	DQ	FLAT:??$SUB@$00$04$0A@@Cpu@gb@emulation@@AEAAXXZ$rtcName$1
	DD	024H
	DD	01H
	DQ	FLAT:??$SUB@$00$04$0A@@Cpu@gb@emulation@@AEAAXXZ$rtcName$0
	ORG $+96
??$SUB@$00$04$0A@@Cpu@gb@emulation@@AEAAXXZ$rtcFrameData DD 02H ; emulation::gb::Cpu::SUB<1,5,0>
	DD	00H
	DQ	FLAT:??$SUB@$00$04$0A@@Cpu@gb@emulation@@AEAAXXZ$rtcVarDesc
CONST	ENDS
;	COMDAT xdata
xdata	SEGMENT
$unwind$??$SUB@$00$01$0A@@Cpu@gb@emulation@@AEAAXXZ DD 021e01H
	DD	07006b20aH
xdata	ENDS
;	COMDAT CONST
CONST	SEGMENT
??$SUB@$00$01$0A@@Cpu@gb@emulation@@AEAAXXZ$rtcName$0 DB 061H ; emulation::gb::Cpu::SUB<1,2,0>
	DB	00H
	ORG $+2
??$SUB@$00$01$0A@@Cpu@gb@emulation@@AEAAXXZ$rtcName$1 DB 062H ; emulation::gb::Cpu::SUB<1,2,0>
	DB	00H
	ORG $+10
??$SUB@$00$01$0A@@Cpu@gb@emulation@@AEAAXXZ$rtcVarDesc DD 044H ; emulation::gb::Cpu::SUB<1,2,0>
	DD	01H
	DQ	FLAT:??$SUB@$00$01$0A@@Cpu@gb@emulation@@AEAAXXZ$rtcName$1
	DD	024H
	DD	01H
	DQ	FLAT:??$SUB@$00$01$0A@@Cpu@gb@emulation@@AEAAXXZ$rtcName$0
	ORG $+96
??$SUB@$00$01$0A@@Cpu@gb@emulation@@AEAAXXZ$rtcFrameData DD 02H ; emulation::gb::Cpu::SUB<1,2,0>
	DD	00H
	DQ	FLAT:??$SUB@$00$01$0A@@Cpu@gb@emulation@@AEAAXXZ$rtcVarDesc
CONST	ENDS
;	COMDAT xdata
xdata	SEGMENT
$unwind$??$SUB@$00$02$0A@@Cpu@gb@emulation@@AEAAXXZ DD 021e01H
	DD	07006b20aH
xdata	ENDS
;	COMDAT CONST
CONST	SEGMENT
??$SUB@$00$02$0A@@Cpu@gb@emulation@@AEAAXXZ$rtcName$0 DB 061H ; emulation::gb::Cpu::SUB<1,3,0>
	DB	00H
	ORG $+2
??$SUB@$00$02$0A@@Cpu@gb@emulation@@AEAAXXZ$rtcName$1 DB 062H ; emulation::gb::Cpu::SUB<1,3,0>
	DB	00H
	ORG $+10
??$SUB@$00$02$0A@@Cpu@gb@emulation@@AEAAXXZ$rtcVarDesc DD 044H ; emulation::gb::Cpu::SUB<1,3,0>
	DD	01H
	DQ	FLAT:??$SUB@$00$02$0A@@Cpu@gb@emulation@@AEAAXXZ$rtcName$1
	DD	024H
	DD	01H
	DQ	FLAT:??$SUB@$00$02$0A@@Cpu@gb@emulation@@AEAAXXZ$rtcName$0
	ORG $+96
??$SUB@$00$02$0A@@Cpu@gb@emulation@@AEAAXXZ$rtcFrameData DD 02H ; emulation::gb::Cpu::SUB<1,3,0>
	DD	00H
	DQ	FLAT:??$SUB@$00$02$0A@@Cpu@gb@emulation@@AEAAXXZ$rtcVarDesc
CONST	ENDS
;	COMDAT xdata
xdata	SEGMENT
$unwind$??$ADC@$00$00$0A@@Cpu@gb@emulation@@AEAAXXZ DD 021e01H
	DD	07006b20aH
xdata	ENDS
;	COMDAT CONST
CONST	SEGMENT
??$ADC@$00$00$0A@@Cpu@gb@emulation@@AEAAXXZ$rtcName$0 DB 061H ; emulation::gb::Cpu::ADC<1,1,0>
	DB	00H
	ORG $+2
??$ADC@$00$00$0A@@Cpu@gb@emulation@@AEAAXXZ$rtcName$1 DB 062H ; emulation::gb::Cpu::ADC<1,1,0>
	DB	00H
	ORG $+10
??$ADC@$00$00$0A@@Cpu@gb@emulation@@AEAAXXZ$rtcVarDesc DD 044H ; emulation::gb::Cpu::ADC<1,1,0>
	DD	01H
	DQ	FLAT:??$ADC@$00$00$0A@@Cpu@gb@emulation@@AEAAXXZ$rtcName$1
	DD	024H
	DD	01H
	DQ	FLAT:??$ADC@$00$00$0A@@Cpu@gb@emulation@@AEAAXXZ$rtcName$0
	ORG $+96
??$ADC@$00$00$0A@@Cpu@gb@emulation@@AEAAXXZ$rtcFrameData DD 02H ; emulation::gb::Cpu::ADC<1,1,0>
	DD	00H
	DQ	FLAT:??$ADC@$00$00$0A@@Cpu@gb@emulation@@AEAAXXZ$rtcVarDesc
CONST	ENDS
;	COMDAT xdata
xdata	SEGMENT
$unwind$??$ADC@$00$02$00@Cpu@gb@emulation@@AEAAXXZ DD 021e01H
	DD	07006b20aH
xdata	ENDS
;	COMDAT CONST
CONST	SEGMENT
??$ADC@$00$02$00@Cpu@gb@emulation@@AEAAXXZ$rtcName$0 DB 061H ; emulation::gb::Cpu::ADC<1,3,1>
	DB	00H
	ORG $+2
??$ADC@$00$02$00@Cpu@gb@emulation@@AEAAXXZ$rtcName$1 DB 062H ; emulation::gb::Cpu::ADC<1,3,1>
	DB	00H
	ORG $+10
??$ADC@$00$02$00@Cpu@gb@emulation@@AEAAXXZ$rtcVarDesc DD 044H ; emulation::gb::Cpu::ADC<1,3,1>
	DD	01H
	DQ	FLAT:??$ADC@$00$02$00@Cpu@gb@emulation@@AEAAXXZ$rtcName$1
	DD	024H
	DD	01H
	DQ	FLAT:??$ADC@$00$02$00@Cpu@gb@emulation@@AEAAXXZ$rtcName$0
	ORG $+96
??$ADC@$00$02$00@Cpu@gb@emulation@@AEAAXXZ$rtcFrameData DD 02H ; emulation::gb::Cpu::ADC<1,3,1>
	DD	00H
	DQ	FLAT:??$ADC@$00$02$00@Cpu@gb@emulation@@AEAAXXZ$rtcVarDesc
CONST	ENDS
;	COMDAT xdata
xdata	SEGMENT
$unwind$??$ADC@$00$05$0A@@Cpu@gb@emulation@@AEAAXXZ DD 021e01H
	DD	07006b20aH
xdata	ENDS
;	COMDAT CONST
CONST	SEGMENT
??$ADC@$00$05$0A@@Cpu@gb@emulation@@AEAAXXZ$rtcName$0 DB 061H ; emulation::gb::Cpu::ADC<1,6,0>
	DB	00H
	ORG $+2
??$ADC@$00$05$0A@@Cpu@gb@emulation@@AEAAXXZ$rtcName$1 DB 062H ; emulation::gb::Cpu::ADC<1,6,0>
	DB	00H
	ORG $+10
??$ADC@$00$05$0A@@Cpu@gb@emulation@@AEAAXXZ$rtcVarDesc DD 044H ; emulation::gb::Cpu::ADC<1,6,0>
	DD	01H
	DQ	FLAT:??$ADC@$00$05$0A@@Cpu@gb@emulation@@AEAAXXZ$rtcName$1
	DD	024H
	DD	01H
	DQ	FLAT:??$ADC@$00$05$0A@@Cpu@gb@emulation@@AEAAXXZ$rtcName$0
	ORG $+96
??$ADC@$00$05$0A@@Cpu@gb@emulation@@AEAAXXZ$rtcFrameData DD 02H ; emulation::gb::Cpu::ADC<1,6,0>
	DD	00H
	DQ	FLAT:??$ADC@$00$05$0A@@Cpu@gb@emulation@@AEAAXXZ$rtcVarDesc
CONST	ENDS
;	COMDAT xdata
xdata	SEGMENT
$unwind$??$ADC@$00$06$0A@@Cpu@gb@emulation@@AEAAXXZ DD 021e01H
	DD	07006b20aH
xdata	ENDS
;	COMDAT CONST
CONST	SEGMENT
??$ADC@$00$06$0A@@Cpu@gb@emulation@@AEAAXXZ$rtcName$0 DB 061H ; emulation::gb::Cpu::ADC<1,7,0>
	DB	00H
	ORG $+2
??$ADC@$00$06$0A@@Cpu@gb@emulation@@AEAAXXZ$rtcName$1 DB 062H ; emulation::gb::Cpu::ADC<1,7,0>
	DB	00H
	ORG $+10
??$ADC@$00$06$0A@@Cpu@gb@emulation@@AEAAXXZ$rtcVarDesc DD 044H ; emulation::gb::Cpu::ADC<1,7,0>
	DD	01H
	DQ	FLAT:??$ADC@$00$06$0A@@Cpu@gb@emulation@@AEAAXXZ$rtcName$1
	DD	024H
	DD	01H
	DQ	FLAT:??$ADC@$00$06$0A@@Cpu@gb@emulation@@AEAAXXZ$rtcName$0
	ORG $+96
??$ADC@$00$06$0A@@Cpu@gb@emulation@@AEAAXXZ$rtcFrameData DD 02H ; emulation::gb::Cpu::ADC<1,7,0>
	DD	00H
	DQ	FLAT:??$ADC@$00$06$0A@@Cpu@gb@emulation@@AEAAXXZ$rtcVarDesc
CONST	ENDS
;	COMDAT xdata
xdata	SEGMENT
$unwind$??$ADC@$00$03$0A@@Cpu@gb@emulation@@AEAAXXZ DD 021e01H
	DD	07006b20aH
xdata	ENDS
;	COMDAT CONST
CONST	SEGMENT
??$ADC@$00$03$0A@@Cpu@gb@emulation@@AEAAXXZ$rtcName$0 DB 061H ; emulation::gb::Cpu::ADC<1,4,0>
	DB	00H
	ORG $+2
??$ADC@$00$03$0A@@Cpu@gb@emulation@@AEAAXXZ$rtcName$1 DB 062H ; emulation::gb::Cpu::ADC<1,4,0>
	DB	00H
	ORG $+10
??$ADC@$00$03$0A@@Cpu@gb@emulation@@AEAAXXZ$rtcVarDesc DD 044H ; emulation::gb::Cpu::ADC<1,4,0>
	DD	01H
	DQ	FLAT:??$ADC@$00$03$0A@@Cpu@gb@emulation@@AEAAXXZ$rtcName$1
	DD	024H
	DD	01H
	DQ	FLAT:??$ADC@$00$03$0A@@Cpu@gb@emulation@@AEAAXXZ$rtcName$0
	ORG $+96
??$ADC@$00$03$0A@@Cpu@gb@emulation@@AEAAXXZ$rtcFrameData DD 02H ; emulation::gb::Cpu::ADC<1,4,0>
	DD	00H
	DQ	FLAT:??$ADC@$00$03$0A@@Cpu@gb@emulation@@AEAAXXZ$rtcVarDesc
CONST	ENDS
;	COMDAT xdata
xdata	SEGMENT
$unwind$??$ADC@$00$04$0A@@Cpu@gb@emulation@@AEAAXXZ DD 021e01H
	DD	07006b20aH
xdata	ENDS
;	COMDAT CONST
CONST	SEGMENT
??$ADC@$00$04$0A@@Cpu@gb@emulation@@AEAAXXZ$rtcName$0 DB 061H ; emulation::gb::Cpu::ADC<1,5,0>
	DB	00H
	ORG $+2
??$ADC@$00$04$0A@@Cpu@gb@emulation@@AEAAXXZ$rtcName$1 DB 062H ; emulation::gb::Cpu::ADC<1,5,0>
	DB	00H
	ORG $+10
??$ADC@$00$04$0A@@Cpu@gb@emulation@@AEAAXXZ$rtcVarDesc DD 044H ; emulation::gb::Cpu::ADC<1,5,0>
	DD	01H
	DQ	FLAT:??$ADC@$00$04$0A@@Cpu@gb@emulation@@AEAAXXZ$rtcName$1
	DD	024H
	DD	01H
	DQ	FLAT:??$ADC@$00$04$0A@@Cpu@gb@emulation@@AEAAXXZ$rtcName$0
	ORG $+96
??$ADC@$00$04$0A@@Cpu@gb@emulation@@AEAAXXZ$rtcFrameData DD 02H ; emulation::gb::Cpu::ADC<1,5,0>
	DD	00H
	DQ	FLAT:??$ADC@$00$04$0A@@Cpu@gb@emulation@@AEAAXXZ$rtcVarDesc
CONST	ENDS
;	COMDAT xdata
xdata	SEGMENT
$unwind$??$ADC@$00$01$0A@@Cpu@gb@emulation@@AEAAXXZ DD 021e01H
	DD	07006b20aH
xdata	ENDS
;	COMDAT CONST
CONST	SEGMENT
??$ADC@$00$01$0A@@Cpu@gb@emulation@@AEAAXXZ$rtcName$0 DB 061H ; emulation::gb::Cpu::ADC<1,2,0>
	DB	00H
	ORG $+2
??$ADC@$00$01$0A@@Cpu@gb@emulation@@AEAAXXZ$rtcName$1 DB 062H ; emulation::gb::Cpu::ADC<1,2,0>
	DB	00H
	ORG $+10
??$ADC@$00$01$0A@@Cpu@gb@emulation@@AEAAXXZ$rtcVarDesc DD 044H ; emulation::gb::Cpu::ADC<1,2,0>
	DD	01H
	DQ	FLAT:??$ADC@$00$01$0A@@Cpu@gb@emulation@@AEAAXXZ$rtcName$1
	DD	024H
	DD	01H
	DQ	FLAT:??$ADC@$00$01$0A@@Cpu@gb@emulation@@AEAAXXZ$rtcName$0
	ORG $+96
??$ADC@$00$01$0A@@Cpu@gb@emulation@@AEAAXXZ$rtcFrameData DD 02H ; emulation::gb::Cpu::ADC<1,2,0>
	DD	00H
	DQ	FLAT:??$ADC@$00$01$0A@@Cpu@gb@emulation@@AEAAXXZ$rtcVarDesc
CONST	ENDS
;	COMDAT xdata
xdata	SEGMENT
$unwind$??$ADC@$00$02$0A@@Cpu@gb@emulation@@AEAAXXZ DD 021e01H
	DD	07006b20aH
xdata	ENDS
;	COMDAT CONST
CONST	SEGMENT
??$ADC@$00$02$0A@@Cpu@gb@emulation@@AEAAXXZ$rtcName$0 DB 061H ; emulation::gb::Cpu::ADC<1,3,0>
	DB	00H
	ORG $+2
??$ADC@$00$02$0A@@Cpu@gb@emulation@@AEAAXXZ$rtcName$1 DB 062H ; emulation::gb::Cpu::ADC<1,3,0>
	DB	00H
	ORG $+10
??$ADC@$00$02$0A@@Cpu@gb@emulation@@AEAAXXZ$rtcVarDesc DD 044H ; emulation::gb::Cpu::ADC<1,3,0>
	DD	01H
	DQ	FLAT:??$ADC@$00$02$0A@@Cpu@gb@emulation@@AEAAXXZ$rtcName$1
	DD	024H
	DD	01H
	DQ	FLAT:??$ADC@$00$02$0A@@Cpu@gb@emulation@@AEAAXXZ$rtcName$0
	ORG $+96
??$ADC@$00$02$0A@@Cpu@gb@emulation@@AEAAXXZ$rtcFrameData DD 02H ; emulation::gb::Cpu::ADC<1,3,0>
	DD	00H
	DQ	FLAT:??$ADC@$00$02$0A@@Cpu@gb@emulation@@AEAAXXZ$rtcVarDesc
CONST	ENDS
;	COMDAT xdata
xdata	SEGMENT
$unwind$??$ADD@$00$00$0A@@Cpu@gb@emulation@@AEAAXXZ DD 021e01H
	DD	07006b20aH
xdata	ENDS
;	COMDAT CONST
CONST	SEGMENT
??$ADD@$00$00$0A@@Cpu@gb@emulation@@AEAAXXZ$rtcName$0 DB 061H ; emulation::gb::Cpu::ADD<1,1,0>
	DB	00H
	ORG $+2
??$ADD@$00$00$0A@@Cpu@gb@emulation@@AEAAXXZ$rtcName$1 DB 062H ; emulation::gb::Cpu::ADD<1,1,0>
	DB	00H
	ORG $+10
??$ADD@$00$00$0A@@Cpu@gb@emulation@@AEAAXXZ$rtcVarDesc DD 044H ; emulation::gb::Cpu::ADD<1,1,0>
	DD	01H
	DQ	FLAT:??$ADD@$00$00$0A@@Cpu@gb@emulation@@AEAAXXZ$rtcName$1
	DD	024H
	DD	01H
	DQ	FLAT:??$ADD@$00$00$0A@@Cpu@gb@emulation@@AEAAXXZ$rtcName$0
	ORG $+96
??$ADD@$00$00$0A@@Cpu@gb@emulation@@AEAAXXZ$rtcFrameData DD 02H ; emulation::gb::Cpu::ADD<1,1,0>
	DD	00H
	DQ	FLAT:??$ADD@$00$00$0A@@Cpu@gb@emulation@@AEAAXXZ$rtcVarDesc
CONST	ENDS
;	COMDAT xdata
xdata	SEGMENT
$unwind$??$ADD@$00$02$00@Cpu@gb@emulation@@AEAAXXZ DD 021e01H
	DD	07006b20aH
xdata	ENDS
;	COMDAT CONST
CONST	SEGMENT
??$ADD@$00$02$00@Cpu@gb@emulation@@AEAAXXZ$rtcName$0 DB 061H ; emulation::gb::Cpu::ADD<1,3,1>
	DB	00H
	ORG $+2
??$ADD@$00$02$00@Cpu@gb@emulation@@AEAAXXZ$rtcName$1 DB 062H ; emulation::gb::Cpu::ADD<1,3,1>
	DB	00H
	ORG $+10
??$ADD@$00$02$00@Cpu@gb@emulation@@AEAAXXZ$rtcVarDesc DD 044H ; emulation::gb::Cpu::ADD<1,3,1>
	DD	01H
	DQ	FLAT:??$ADD@$00$02$00@Cpu@gb@emulation@@AEAAXXZ$rtcName$1
	DD	024H
	DD	01H
	DQ	FLAT:??$ADD@$00$02$00@Cpu@gb@emulation@@AEAAXXZ$rtcName$0
	ORG $+96
??$ADD@$00$02$00@Cpu@gb@emulation@@AEAAXXZ$rtcFrameData DD 02H ; emulation::gb::Cpu::ADD<1,3,1>
	DD	00H
	DQ	FLAT:??$ADD@$00$02$00@Cpu@gb@emulation@@AEAAXXZ$rtcVarDesc
CONST	ENDS
;	COMDAT xdata
xdata	SEGMENT
$unwind$??$ADD@$00$05$0A@@Cpu@gb@emulation@@AEAAXXZ DD 021e01H
	DD	07006b20aH
xdata	ENDS
;	COMDAT CONST
CONST	SEGMENT
??$ADD@$00$05$0A@@Cpu@gb@emulation@@AEAAXXZ$rtcName$0 DB 061H ; emulation::gb::Cpu::ADD<1,6,0>
	DB	00H
	ORG $+2
??$ADD@$00$05$0A@@Cpu@gb@emulation@@AEAAXXZ$rtcName$1 DB 062H ; emulation::gb::Cpu::ADD<1,6,0>
	DB	00H
	ORG $+10
??$ADD@$00$05$0A@@Cpu@gb@emulation@@AEAAXXZ$rtcVarDesc DD 044H ; emulation::gb::Cpu::ADD<1,6,0>
	DD	01H
	DQ	FLAT:??$ADD@$00$05$0A@@Cpu@gb@emulation@@AEAAXXZ$rtcName$1
	DD	024H
	DD	01H
	DQ	FLAT:??$ADD@$00$05$0A@@Cpu@gb@emulation@@AEAAXXZ$rtcName$0
	ORG $+96
??$ADD@$00$05$0A@@Cpu@gb@emulation@@AEAAXXZ$rtcFrameData DD 02H ; emulation::gb::Cpu::ADD<1,6,0>
	DD	00H
	DQ	FLAT:??$ADD@$00$05$0A@@Cpu@gb@emulation@@AEAAXXZ$rtcVarDesc
CONST	ENDS
;	COMDAT xdata
xdata	SEGMENT
$unwind$??$ADD@$00$06$0A@@Cpu@gb@emulation@@AEAAXXZ DD 021e01H
	DD	07006b20aH
xdata	ENDS
;	COMDAT CONST
CONST	SEGMENT
??$ADD@$00$06$0A@@Cpu@gb@emulation@@AEAAXXZ$rtcName$0 DB 061H ; emulation::gb::Cpu::ADD<1,7,0>
	DB	00H
	ORG $+2
??$ADD@$00$06$0A@@Cpu@gb@emulation@@AEAAXXZ$rtcName$1 DB 062H ; emulation::gb::Cpu::ADD<1,7,0>
	DB	00H
	ORG $+10
??$ADD@$00$06$0A@@Cpu@gb@emulation@@AEAAXXZ$rtcVarDesc DD 044H ; emulation::gb::Cpu::ADD<1,7,0>
	DD	01H
	DQ	FLAT:??$ADD@$00$06$0A@@Cpu@gb@emulation@@AEAAXXZ$rtcName$1
	DD	024H
	DD	01H
	DQ	FLAT:??$ADD@$00$06$0A@@Cpu@gb@emulation@@AEAAXXZ$rtcName$0
	ORG $+96
??$ADD@$00$06$0A@@Cpu@gb@emulation@@AEAAXXZ$rtcFrameData DD 02H ; emulation::gb::Cpu::ADD<1,7,0>
	DD	00H
	DQ	FLAT:??$ADD@$00$06$0A@@Cpu@gb@emulation@@AEAAXXZ$rtcVarDesc
CONST	ENDS
;	COMDAT xdata
xdata	SEGMENT
$unwind$??$ADD@$00$03$0A@@Cpu@gb@emulation@@AEAAXXZ DD 021e01H
	DD	07006b20aH
xdata	ENDS
;	COMDAT CONST
CONST	SEGMENT
??$ADD@$00$03$0A@@Cpu@gb@emulation@@AEAAXXZ$rtcName$0 DB 061H ; emulation::gb::Cpu::ADD<1,4,0>
	DB	00H
	ORG $+2
??$ADD@$00$03$0A@@Cpu@gb@emulation@@AEAAXXZ$rtcName$1 DB 062H ; emulation::gb::Cpu::ADD<1,4,0>
	DB	00H
	ORG $+10
??$ADD@$00$03$0A@@Cpu@gb@emulation@@AEAAXXZ$rtcVarDesc DD 044H ; emulation::gb::Cpu::ADD<1,4,0>
	DD	01H
	DQ	FLAT:??$ADD@$00$03$0A@@Cpu@gb@emulation@@AEAAXXZ$rtcName$1
	DD	024H
	DD	01H
	DQ	FLAT:??$ADD@$00$03$0A@@Cpu@gb@emulation@@AEAAXXZ$rtcName$0
	ORG $+96
??$ADD@$00$03$0A@@Cpu@gb@emulation@@AEAAXXZ$rtcFrameData DD 02H ; emulation::gb::Cpu::ADD<1,4,0>
	DD	00H
	DQ	FLAT:??$ADD@$00$03$0A@@Cpu@gb@emulation@@AEAAXXZ$rtcVarDesc
CONST	ENDS
;	COMDAT xdata
xdata	SEGMENT
$unwind$??$ADD@$00$04$0A@@Cpu@gb@emulation@@AEAAXXZ DD 021e01H
	DD	07006b20aH
xdata	ENDS
;	COMDAT CONST
CONST	SEGMENT
??$ADD@$00$04$0A@@Cpu@gb@emulation@@AEAAXXZ$rtcName$0 DB 061H ; emulation::gb::Cpu::ADD<1,5,0>
	DB	00H
	ORG $+2
??$ADD@$00$04$0A@@Cpu@gb@emulation@@AEAAXXZ$rtcName$1 DB 062H ; emulation::gb::Cpu::ADD<1,5,0>
	DB	00H
	ORG $+10
??$ADD@$00$04$0A@@Cpu@gb@emulation@@AEAAXXZ$rtcVarDesc DD 044H ; emulation::gb::Cpu::ADD<1,5,0>
	DD	01H
	DQ	FLAT:??$ADD@$00$04$0A@@Cpu@gb@emulation@@AEAAXXZ$rtcName$1
	DD	024H
	DD	01H
	DQ	FLAT:??$ADD@$00$04$0A@@Cpu@gb@emulation@@AEAAXXZ$rtcName$0
	ORG $+96
??$ADD@$00$04$0A@@Cpu@gb@emulation@@AEAAXXZ$rtcFrameData DD 02H ; emulation::gb::Cpu::ADD<1,5,0>
	DD	00H
	DQ	FLAT:??$ADD@$00$04$0A@@Cpu@gb@emulation@@AEAAXXZ$rtcVarDesc
CONST	ENDS
;	COMDAT xdata
xdata	SEGMENT
$unwind$??$ADD@$00$01$0A@@Cpu@gb@emulation@@AEAAXXZ DD 021e01H
	DD	07006b20aH
xdata	ENDS
;	COMDAT CONST
CONST	SEGMENT
??$ADD@$00$01$0A@@Cpu@gb@emulation@@AEAAXXZ$rtcName$0 DB 061H ; emulation::gb::Cpu::ADD<1,2,0>
	DB	00H
	ORG $+2
??$ADD@$00$01$0A@@Cpu@gb@emulation@@AEAAXXZ$rtcName$1 DB 062H ; emulation::gb::Cpu::ADD<1,2,0>
	DB	00H
	ORG $+10
??$ADD@$00$01$0A@@Cpu@gb@emulation@@AEAAXXZ$rtcVarDesc DD 044H ; emulation::gb::Cpu::ADD<1,2,0>
	DD	01H
	DQ	FLAT:??$ADD@$00$01$0A@@Cpu@gb@emulation@@AEAAXXZ$rtcName$1
	DD	024H
	DD	01H
	DQ	FLAT:??$ADD@$00$01$0A@@Cpu@gb@emulation@@AEAAXXZ$rtcName$0
	ORG $+96
??$ADD@$00$01$0A@@Cpu@gb@emulation@@AEAAXXZ$rtcFrameData DD 02H ; emulation::gb::Cpu::ADD<1,2,0>
	DD	00H
	DQ	FLAT:??$ADD@$00$01$0A@@Cpu@gb@emulation@@AEAAXXZ$rtcVarDesc
CONST	ENDS
;	COMDAT xdata
xdata	SEGMENT
$unwind$??$ADD@$00$02$0A@@Cpu@gb@emulation@@AEAAXXZ DD 021e01H
	DD	07006b20aH
xdata	ENDS
;	COMDAT CONST
CONST	SEGMENT
??$ADD@$00$02$0A@@Cpu@gb@emulation@@AEAAXXZ$rtcName$0 DB 061H ; emulation::gb::Cpu::ADD<1,3,0>
	DB	00H
	ORG $+2
??$ADD@$00$02$0A@@Cpu@gb@emulation@@AEAAXXZ$rtcName$1 DB 062H ; emulation::gb::Cpu::ADD<1,3,0>
	DB	00H
	ORG $+10
??$ADD@$00$02$0A@@Cpu@gb@emulation@@AEAAXXZ$rtcVarDesc DD 044H ; emulation::gb::Cpu::ADD<1,3,0>
	DD	01H
	DQ	FLAT:??$ADD@$00$02$0A@@Cpu@gb@emulation@@AEAAXXZ$rtcName$1
	DD	024H
	DD	01H
	DQ	FLAT:??$ADD@$00$02$0A@@Cpu@gb@emulation@@AEAAXXZ$rtcName$0
	ORG $+96
??$ADD@$00$02$0A@@Cpu@gb@emulation@@AEAAXXZ$rtcFrameData DD 02H ; emulation::gb::Cpu::ADD<1,3,0>
	DD	00H
	DQ	FLAT:??$ADD@$00$02$0A@@Cpu@gb@emulation@@AEAAXXZ$rtcVarDesc
CONST	ENDS
;	COMDAT xdata
xdata	SEGMENT
$unwind$??$LDrr@$00$00@Cpu@gb@emulation@@AEAAXXZ DD 010601H
	DD	07006H
xdata	ENDS
;	COMDAT xdata
xdata	SEGMENT
$unwind$??$LDr$r@$00$02@Cpu@gb@emulation@@AEAAXXZ DD 021e01H
	DD	07006320aH
xdata	ENDS
;	COMDAT xdata
xdata	SEGMENT
$unwind$??$LDrr@$00$05@Cpu@gb@emulation@@AEAAXXZ DD 010601H
	DD	07006H
xdata	ENDS
;	COMDAT xdata
xdata	SEGMENT
$unwind$??$LDrr@$00$06@Cpu@gb@emulation@@AEAAXXZ DD 010601H
	DD	07006H
xdata	ENDS
;	COMDAT xdata
xdata	SEGMENT
$unwind$??$LDrr@$00$03@Cpu@gb@emulation@@AEAAXXZ DD 010601H
	DD	07006H
xdata	ENDS
;	COMDAT xdata
xdata	SEGMENT
$unwind$??$LDrr@$00$04@Cpu@gb@emulation@@AEAAXXZ DD 010601H
	DD	07006H
xdata	ENDS
;	COMDAT xdata
xdata	SEGMENT
$unwind$??$LDrr@$00$01@Cpu@gb@emulation@@AEAAXXZ DD 010601H
	DD	07006H
xdata	ENDS
;	COMDAT xdata
xdata	SEGMENT
$unwind$??$LDrr@$00$02@Cpu@gb@emulation@@AEAAXXZ DD 010601H
	DD	07006H
xdata	ENDS
;	COMDAT xdata
xdata	SEGMENT
$unwind$??$LD$rr@$02$00@Cpu@gb@emulation@@AEAAXXZ DD 021e01H
	DD	07006320aH
xdata	ENDS
;	COMDAT xdata
xdata	SEGMENT
$unwind$??$LD$rr@$02$05@Cpu@gb@emulation@@AEAAXXZ DD 021e01H
	DD	07006320aH
xdata	ENDS
;	COMDAT xdata
xdata	SEGMENT
$unwind$??$LD$rr@$02$06@Cpu@gb@emulation@@AEAAXXZ DD 021e01H
	DD	07006320aH
xdata	ENDS
;	COMDAT xdata
xdata	SEGMENT
$unwind$??$LD$rr@$02$03@Cpu@gb@emulation@@AEAAXXZ DD 021e01H
	DD	07006320aH
xdata	ENDS
;	COMDAT xdata
xdata	SEGMENT
$unwind$??$LD$rr@$02$04@Cpu@gb@emulation@@AEAAXXZ DD 021e01H
	DD	07006320aH
xdata	ENDS
;	COMDAT xdata
xdata	SEGMENT
$unwind$??$LD$rr@$02$01@Cpu@gb@emulation@@AEAAXXZ DD 021e01H
	DD	07006320aH
xdata	ENDS
;	COMDAT xdata
xdata	SEGMENT
$unwind$??$LD$rr@$02$02@Cpu@gb@emulation@@AEAAXXZ DD 021e01H
	DD	07006320aH
xdata	ENDS
;	COMDAT xdata
xdata	SEGMENT
$unwind$??$LDrr@$05$00@Cpu@gb@emulation@@AEAAXXZ DD 010601H
	DD	07006H
xdata	ENDS
;	COMDAT xdata
xdata	SEGMENT
$unwind$??$LDr$r@$05$02@Cpu@gb@emulation@@AEAAXXZ DD 021e01H
	DD	07006320aH
xdata	ENDS
;	COMDAT xdata
xdata	SEGMENT
$unwind$??$LDrr@$05$05@Cpu@gb@emulation@@AEAAXXZ DD 010601H
	DD	07006H
xdata	ENDS
;	COMDAT xdata
xdata	SEGMENT
$unwind$??$LDrr@$05$06@Cpu@gb@emulation@@AEAAXXZ DD 010601H
	DD	07006H
xdata	ENDS
;	COMDAT xdata
xdata	SEGMENT
$unwind$??$LDrr@$05$03@Cpu@gb@emulation@@AEAAXXZ DD 010601H
	DD	07006H
xdata	ENDS
;	COMDAT xdata
xdata	SEGMENT
$unwind$??$LDrr@$05$04@Cpu@gb@emulation@@AEAAXXZ DD 010601H
	DD	07006H
xdata	ENDS
;	COMDAT xdata
xdata	SEGMENT
$unwind$??$LDrr@$05$01@Cpu@gb@emulation@@AEAAXXZ DD 010601H
	DD	07006H
xdata	ENDS
;	COMDAT xdata
xdata	SEGMENT
$unwind$??$LDrr@$05$02@Cpu@gb@emulation@@AEAAXXZ DD 010601H
	DD	07006H
xdata	ENDS
;	COMDAT xdata
xdata	SEGMENT
$unwind$??$LDrr@$06$00@Cpu@gb@emulation@@AEAAXXZ DD 010601H
	DD	07006H
xdata	ENDS
;	COMDAT xdata
xdata	SEGMENT
$unwind$??$LDr$r@$06$02@Cpu@gb@emulation@@AEAAXXZ DD 021e01H
	DD	07006320aH
xdata	ENDS
;	COMDAT xdata
xdata	SEGMENT
$unwind$??$LDrr@$06$05@Cpu@gb@emulation@@AEAAXXZ DD 010601H
	DD	07006H
xdata	ENDS
;	COMDAT xdata
xdata	SEGMENT
$unwind$??$LDrr@$06$06@Cpu@gb@emulation@@AEAAXXZ DD 010601H
	DD	07006H
xdata	ENDS
;	COMDAT xdata
xdata	SEGMENT
$unwind$??$LDrr@$06$03@Cpu@gb@emulation@@AEAAXXZ DD 010601H
	DD	07006H
xdata	ENDS
;	COMDAT xdata
xdata	SEGMENT
$unwind$??$LDrr@$06$04@Cpu@gb@emulation@@AEAAXXZ DD 010601H
	DD	07006H
xdata	ENDS
;	COMDAT xdata
xdata	SEGMENT
$unwind$??$LDrr@$06$01@Cpu@gb@emulation@@AEAAXXZ DD 010601H
	DD	07006H
xdata	ENDS
;	COMDAT xdata
xdata	SEGMENT
$unwind$??$LDrr@$06$02@Cpu@gb@emulation@@AEAAXXZ DD 010601H
	DD	07006H
xdata	ENDS
;	COMDAT xdata
xdata	SEGMENT
$unwind$??$LDrr@$03$00@Cpu@gb@emulation@@AEAAXXZ DD 010601H
	DD	07006H
xdata	ENDS
;	COMDAT xdata
xdata	SEGMENT
$unwind$??$LDr$r@$03$02@Cpu@gb@emulation@@AEAAXXZ DD 021e01H
	DD	07006320aH
xdata	ENDS
;	COMDAT xdata
xdata	SEGMENT
$unwind$??$LDrr@$03$05@Cpu@gb@emulation@@AEAAXXZ DD 010601H
	DD	07006H
xdata	ENDS
;	COMDAT xdata
xdata	SEGMENT
$unwind$??$LDrr@$03$06@Cpu@gb@emulation@@AEAAXXZ DD 010601H
	DD	07006H
xdata	ENDS
;	COMDAT xdata
xdata	SEGMENT
$unwind$??$LDrr@$03$03@Cpu@gb@emulation@@AEAAXXZ DD 010601H
	DD	07006H
xdata	ENDS
;	COMDAT xdata
xdata	SEGMENT
$unwind$??$LDrr@$03$04@Cpu@gb@emulation@@AEAAXXZ DD 010601H
	DD	07006H
xdata	ENDS
;	COMDAT xdata
xdata	SEGMENT
$unwind$??$LDrr@$03$01@Cpu@gb@emulation@@AEAAXXZ DD 010601H
	DD	07006H
xdata	ENDS
;	COMDAT xdata
xdata	SEGMENT
$unwind$??$LDrr@$03$02@Cpu@gb@emulation@@AEAAXXZ DD 010601H
	DD	07006H
xdata	ENDS
;	COMDAT xdata
xdata	SEGMENT
$unwind$??$LDrr@$04$00@Cpu@gb@emulation@@AEAAXXZ DD 010601H
	DD	07006H
xdata	ENDS
;	COMDAT xdata
xdata	SEGMENT
$unwind$??$LDr$r@$04$02@Cpu@gb@emulation@@AEAAXXZ DD 021e01H
	DD	07006320aH
xdata	ENDS
;	COMDAT xdata
xdata	SEGMENT
$unwind$??$LDrr@$04$05@Cpu@gb@emulation@@AEAAXXZ DD 010601H
	DD	07006H
xdata	ENDS
;	COMDAT xdata
xdata	SEGMENT
$unwind$??$LDrr@$04$06@Cpu@gb@emulation@@AEAAXXZ DD 010601H
	DD	07006H
xdata	ENDS
;	COMDAT xdata
xdata	SEGMENT
$unwind$??$LDrr@$04$03@Cpu@gb@emulation@@AEAAXXZ DD 010601H
	DD	07006H
xdata	ENDS
;	COMDAT xdata
xdata	SEGMENT
$unwind$??$LDrr@$04$04@Cpu@gb@emulation@@AEAAXXZ DD 010601H
	DD	07006H
xdata	ENDS
;	COMDAT xdata
xdata	SEGMENT
$unwind$??$LDrr@$04$01@Cpu@gb@emulation@@AEAAXXZ DD 010601H
	DD	07006H
xdata	ENDS
;	COMDAT xdata
xdata	SEGMENT
$unwind$??$LDrr@$04$02@Cpu@gb@emulation@@AEAAXXZ DD 010601H
	DD	07006H
xdata	ENDS
;	COMDAT xdata
xdata	SEGMENT
$unwind$??$LDrr@$01$00@Cpu@gb@emulation@@AEAAXXZ DD 010601H
	DD	07006H
xdata	ENDS
;	COMDAT xdata
xdata	SEGMENT
$unwind$??$LDr$r@$01$02@Cpu@gb@emulation@@AEAAXXZ DD 021e01H
	DD	07006320aH
xdata	ENDS
;	COMDAT xdata
xdata	SEGMENT
$unwind$??$LDrr@$01$05@Cpu@gb@emulation@@AEAAXXZ DD 010601H
	DD	07006H
xdata	ENDS
;	COMDAT xdata
xdata	SEGMENT
$unwind$??$LDrr@$01$06@Cpu@gb@emulation@@AEAAXXZ DD 010601H
	DD	07006H
xdata	ENDS
;	COMDAT xdata
xdata	SEGMENT
$unwind$??$LDrr@$01$03@Cpu@gb@emulation@@AEAAXXZ DD 010601H
	DD	07006H
xdata	ENDS
;	COMDAT xdata
xdata	SEGMENT
$unwind$??$LDrr@$01$04@Cpu@gb@emulation@@AEAAXXZ DD 010601H
	DD	07006H
xdata	ENDS
;	COMDAT xdata
xdata	SEGMENT
$unwind$??$LDrr@$01$01@Cpu@gb@emulation@@AEAAXXZ DD 010601H
	DD	07006H
xdata	ENDS
;	COMDAT xdata
xdata	SEGMENT
$unwind$??$LDrr@$01$02@Cpu@gb@emulation@@AEAAXXZ DD 010601H
	DD	07006H
xdata	ENDS
;	COMDAT xdata
xdata	SEGMENT
$unwind$??$LDrr@$02$00@Cpu@gb@emulation@@AEAAXXZ DD 010601H
	DD	07006H
xdata	ENDS
;	COMDAT xdata
xdata	SEGMENT
$unwind$??$LDr$r@$02$02@Cpu@gb@emulation@@AEAAXXZ DD 021e01H
	DD	07006320aH
xdata	ENDS
;	COMDAT xdata
xdata	SEGMENT
$unwind$??$LDrr@$02$05@Cpu@gb@emulation@@AEAAXXZ DD 010601H
	DD	07006H
xdata	ENDS
;	COMDAT xdata
xdata	SEGMENT
$unwind$??$LDrr@$02$06@Cpu@gb@emulation@@AEAAXXZ DD 010601H
	DD	07006H
xdata	ENDS
;	COMDAT xdata
xdata	SEGMENT
$unwind$??$LDrr@$02$03@Cpu@gb@emulation@@AEAAXXZ DD 010601H
	DD	07006H
xdata	ENDS
;	COMDAT xdata
xdata	SEGMENT
$unwind$??$LDrr@$02$04@Cpu@gb@emulation@@AEAAXXZ DD 010601H
	DD	07006H
xdata	ENDS
;	COMDAT xdata
xdata	SEGMENT
$unwind$??$LDrr@$02$01@Cpu@gb@emulation@@AEAAXXZ DD 010601H
	DD	07006H
xdata	ENDS
;	COMDAT xdata
xdata	SEGMENT
$unwind$??$LDrr@$02$02@Cpu@gb@emulation@@AEAAXXZ DD 010601H
	DD	07006H
xdata	ENDS
;	COMDAT xdata
xdata	SEGMENT
$unwind$??$LD@$00$0A@$09@Cpu@gb@emulation@@AEAAXXZ DD 021e01H
	DD	07006720aH
xdata	ENDS
;	COMDAT xdata
xdata	SEGMENT
$unwind$??$DEC_8bit@$00$0A@@Cpu@gb@emulation@@AEAAXXZ DD 021e01H
	DD	07006520aH
xdata	ENDS
;	COMDAT xdata
xdata	SEGMENT
$unwind$??$INC_8bit@$00$0A@@Cpu@gb@emulation@@AEAAXXZ DD 021e01H
	DD	07006520aH
xdata	ENDS
;	COMDAT xdata
xdata	SEGMENT
$unwind$??$DEC_16bit@$03@Cpu@gb@emulation@@AEAAXXZ DD 021e01H
	DD	07006320aH
xdata	ENDS
;	COMDAT xdata
xdata	SEGMENT
$unwind$??$LDDreg$reg@$00$02@Cpu@gb@emulation@@AEAAXXZ DD 021e01H
	DD	07006320aH
xdata	ENDS
;	COMDAT xdata
xdata	SEGMENT
$unwind$??$ADD_16bit@$02$03@Cpu@gb@emulation@@AEAAXXZ DD 021e01H
	DD	07006720aH
xdata	ENDS
;	COMDAT xdata
xdata	SEGMENT
$unwind$??$JR_cc@$03$0A@@Cpu@gb@emulation@@AEAAXXZ DD 021e01H
	DD	07006720aH
xdata	ENDS
;	COMDAT CONST
CONST	SEGMENT
??$JR_cc@$03$0A@@Cpu@gb@emulation@@AEAAXXZ$rtcName$0 DB 074H ; emulation::gb::Cpu::JR_cc<4,0>
	DB	061H
	DB	062H
	DB	06cH
	DB	065H
	DB	00H
	ORG $+10
??$JR_cc@$03$0A@@Cpu@gb@emulation@@AEAAXXZ$rtcVarDesc DD 028H ; emulation::gb::Cpu::JR_cc<4,0>
	DD	08H
	DQ	FLAT:??$JR_cc@$03$0A@@Cpu@gb@emulation@@AEAAXXZ$rtcName$0
	ORG $+48
??$JR_cc@$03$0A@@Cpu@gb@emulation@@AEAAXXZ$rtcFrameData DD 01H ; emulation::gb::Cpu::JR_cc<4,0>
	DD	00H
	DQ	FLAT:??$JR_cc@$03$0A@@Cpu@gb@emulation@@AEAAXXZ$rtcVarDesc
CONST	ENDS
;	COMDAT xdata
xdata	SEGMENT
$unwind$??$LD@$02$0A@$0L@@Cpu@gb@emulation@@AEAAXXZ DD 021e01H
	DD	07006720aH
xdata	ENDS
;	COMDAT xdata
xdata	SEGMENT
$unwind$??$DEC_8bit@$02$00@Cpu@gb@emulation@@AEAAXXZ DD 021e01H
	DD	07006520aH
xdata	ENDS
;	COMDAT xdata
xdata	SEGMENT
$unwind$??$INC_8bit@$02$00@Cpu@gb@emulation@@AEAAXXZ DD 021e01H
	DD	07006520aH
xdata	ENDS
;	COMDAT xdata
xdata	SEGMENT
$unwind$??$INC_16bit@$03@Cpu@gb@emulation@@AEAAXXZ DD 021e01H
	DD	07006320aH
xdata	ENDS
;	COMDAT xdata
xdata	SEGMENT
$unwind$??$LDD$regreg@$02$00@Cpu@gb@emulation@@AEAAXXZ DD 021e01H
	DD	07006320aH
xdata	ENDS
;	COMDAT xdata
xdata	SEGMENT
$unwind$??$LDrd16@$03@Cpu@gb@emulation@@AEAAXXZ DD 021e01H
	DD	07006520aH
xdata	ENDS
;	COMDAT xdata
xdata	SEGMENT
$unwind$??$JR_cc@$03$00@Cpu@gb@emulation@@AEAAXXZ DD 021e01H
	DD	07006720aH
xdata	ENDS
;	COMDAT CONST
CONST	SEGMENT
??$JR_cc@$03$00@Cpu@gb@emulation@@AEAAXXZ$rtcName$0 DB 074H ; emulation::gb::Cpu::JR_cc<4,1>
	DB	061H
	DB	062H
	DB	06cH
	DB	065H
	DB	00H
	ORG $+10
??$JR_cc@$03$00@Cpu@gb@emulation@@AEAAXXZ$rtcVarDesc DD 028H ; emulation::gb::Cpu::JR_cc<4,1>
	DD	08H
	DQ	FLAT:??$JR_cc@$03$00@Cpu@gb@emulation@@AEAAXXZ$rtcName$0
	ORG $+48
??$JR_cc@$03$00@Cpu@gb@emulation@@AEAAXXZ$rtcFrameData DD 01H ; emulation::gb::Cpu::JR_cc<4,1>
	DD	00H
	DQ	FLAT:??$JR_cc@$03$00@Cpu@gb@emulation@@AEAAXXZ$rtcVarDesc
CONST	ENDS
;	COMDAT xdata
xdata	SEGMENT
$unwind$??$LD@$05$0A@$09@Cpu@gb@emulation@@AEAAXXZ DD 021e01H
	DD	07006720aH
xdata	ENDS
;	COMDAT xdata
xdata	SEGMENT
$unwind$??$DEC_8bit@$05$0A@@Cpu@gb@emulation@@AEAAXXZ DD 021e01H
	DD	07006520aH
xdata	ENDS
;	COMDAT xdata
xdata	SEGMENT
$unwind$??$INC_8bit@$05$0A@@Cpu@gb@emulation@@AEAAXXZ DD 021e01H
	DD	07006520aH
xdata	ENDS
;	COMDAT xdata
xdata	SEGMENT
$unwind$??$DEC_16bit@$02@Cpu@gb@emulation@@AEAAXXZ DD 021e01H
	DD	07006320aH
xdata	ENDS
;	COMDAT xdata
xdata	SEGMENT
$unwind$??$LDIreg$reg@$00$02@Cpu@gb@emulation@@AEAAXXZ DD 021e01H
	DD	07006320aH
xdata	ENDS
;	COMDAT xdata
xdata	SEGMENT
$unwind$??$ADD_16bit@$02$02@Cpu@gb@emulation@@AEAAXXZ DD 021e01H
	DD	07006720aH
xdata	ENDS
;	COMDAT xdata
xdata	SEGMENT
$unwind$??$JR_cc@$06$0A@@Cpu@gb@emulation@@AEAAXXZ DD 021e01H
	DD	07006720aH
xdata	ENDS
;	COMDAT CONST
CONST	SEGMENT
??$JR_cc@$06$0A@@Cpu@gb@emulation@@AEAAXXZ$rtcName$0 DB 074H ; emulation::gb::Cpu::JR_cc<7,0>
	DB	061H
	DB	062H
	DB	06cH
	DB	065H
	DB	00H
	ORG $+10
??$JR_cc@$06$0A@@Cpu@gb@emulation@@AEAAXXZ$rtcVarDesc DD 028H ; emulation::gb::Cpu::JR_cc<7,0>
	DD	08H
	DQ	FLAT:??$JR_cc@$06$0A@@Cpu@gb@emulation@@AEAAXXZ$rtcName$0
	ORG $+48
??$JR_cc@$06$0A@@Cpu@gb@emulation@@AEAAXXZ$rtcFrameData DD 01H ; emulation::gb::Cpu::JR_cc<7,0>
	DD	00H
	DQ	FLAT:??$JR_cc@$06$0A@@Cpu@gb@emulation@@AEAAXXZ$rtcVarDesc
CONST	ENDS
;	COMDAT xdata
xdata	SEGMENT
$unwind$??$LD@$06$0A@$09@Cpu@gb@emulation@@AEAAXXZ DD 021e01H
	DD	07006720aH
xdata	ENDS
;	COMDAT xdata
xdata	SEGMENT
$unwind$??$DEC_8bit@$06$0A@@Cpu@gb@emulation@@AEAAXXZ DD 021e01H
	DD	07006520aH
xdata	ENDS
;	COMDAT xdata
xdata	SEGMENT
$unwind$??$INC_8bit@$06$0A@@Cpu@gb@emulation@@AEAAXXZ DD 021e01H
	DD	07006520aH
xdata	ENDS
;	COMDAT xdata
xdata	SEGMENT
$unwind$??$INC_16bit@$02@Cpu@gb@emulation@@AEAAXXZ DD 021e01H
	DD	07006320aH
xdata	ENDS
;	COMDAT xdata
xdata	SEGMENT
$unwind$??$LDI$regreg@$02$00@Cpu@gb@emulation@@AEAAXXZ DD 021e01H
	DD	07006320aH
xdata	ENDS
;	COMDAT xdata
xdata	SEGMENT
$unwind$??$LDrd16@$02@Cpu@gb@emulation@@AEAAXXZ DD 021e01H
	DD	07006520aH
xdata	ENDS
;	COMDAT xdata
xdata	SEGMENT
$unwind$??$JR_cc@$06$00@Cpu@gb@emulation@@AEAAXXZ DD 021e01H
	DD	07006720aH
xdata	ENDS
;	COMDAT CONST
CONST	SEGMENT
??$JR_cc@$06$00@Cpu@gb@emulation@@AEAAXXZ$rtcName$0 DB 074H ; emulation::gb::Cpu::JR_cc<7,1>
	DB	061H
	DB	062H
	DB	06cH
	DB	065H
	DB	00H
	ORG $+10
??$JR_cc@$06$00@Cpu@gb@emulation@@AEAAXXZ$rtcVarDesc DD 028H ; emulation::gb::Cpu::JR_cc<7,1>
	DD	08H
	DQ	FLAT:??$JR_cc@$06$00@Cpu@gb@emulation@@AEAAXXZ$rtcName$0
	ORG $+48
??$JR_cc@$06$00@Cpu@gb@emulation@@AEAAXXZ$rtcFrameData DD 01H ; emulation::gb::Cpu::JR_cc<7,1>
	DD	00H
	DQ	FLAT:??$JR_cc@$06$00@Cpu@gb@emulation@@AEAAXXZ$rtcVarDesc
CONST	ENDS
;	COMDAT xdata
xdata	SEGMENT
$unwind$??$LD@$03$0A@$09@Cpu@gb@emulation@@AEAAXXZ DD 021e01H
	DD	07006720aH
xdata	ENDS
;	COMDAT xdata
xdata	SEGMENT
$unwind$??$DEC_8bit@$03$0A@@Cpu@gb@emulation@@AEAAXXZ DD 021e01H
	DD	07006520aH
xdata	ENDS
;	COMDAT xdata
xdata	SEGMENT
$unwind$??$INC_8bit@$03$0A@@Cpu@gb@emulation@@AEAAXXZ DD 021e01H
	DD	07006520aH
xdata	ENDS
;	COMDAT xdata
xdata	SEGMENT
$unwind$??$DEC_16bit@$01@Cpu@gb@emulation@@AEAAXXZ DD 021e01H
	DD	07006320aH
xdata	ENDS
;	COMDAT xdata
xdata	SEGMENT
$unwind$??$LDr$r@$00$01@Cpu@gb@emulation@@AEAAXXZ DD 021e01H
	DD	07006320aH
xdata	ENDS
;	COMDAT xdata
xdata	SEGMENT
$unwind$??$ADD_16bit@$02$01@Cpu@gb@emulation@@AEAAXXZ DD 021e01H
	DD	07006720aH
xdata	ENDS
;	COMDAT xdata
xdata	SEGMENT
$unwind$??$LD@$04$0A@$09@Cpu@gb@emulation@@AEAAXXZ DD 021e01H
	DD	07006720aH
xdata	ENDS
;	COMDAT xdata
xdata	SEGMENT
$unwind$??$DEC_8bit@$04$0A@@Cpu@gb@emulation@@AEAAXXZ DD 021e01H
	DD	07006520aH
xdata	ENDS
;	COMDAT xdata
xdata	SEGMENT
$unwind$??$INC_8bit@$04$0A@@Cpu@gb@emulation@@AEAAXXZ DD 021e01H
	DD	07006520aH
xdata	ENDS
;	COMDAT xdata
xdata	SEGMENT
$unwind$??$INC_16bit@$01@Cpu@gb@emulation@@AEAAXXZ DD 021e01H
	DD	07006320aH
xdata	ENDS
;	COMDAT xdata
xdata	SEGMENT
$unwind$??$LD$rr@$01$00@Cpu@gb@emulation@@AEAAXXZ DD 021e01H
	DD	07006320aH
xdata	ENDS
;	COMDAT xdata
xdata	SEGMENT
$unwind$??$LDrd16@$01@Cpu@gb@emulation@@AEAAXXZ DD 021e01H
	DD	07006520aH
xdata	ENDS
;	COMDAT xdata
xdata	SEGMENT
$unwind$??$LD@$01$0A@$09@Cpu@gb@emulation@@AEAAXXZ DD 021e01H
	DD	07006720aH
xdata	ENDS
;	COMDAT xdata
xdata	SEGMENT
$unwind$??$DEC_8bit@$01$0A@@Cpu@gb@emulation@@AEAAXXZ DD 021e01H
	DD	07006520aH
xdata	ENDS
;	COMDAT xdata
xdata	SEGMENT
$unwind$??$INC_8bit@$01$0A@@Cpu@gb@emulation@@AEAAXXZ DD 021e01H
	DD	07006520aH
xdata	ENDS
;	COMDAT xdata
xdata	SEGMENT
$unwind$??$DEC_16bit@$00@Cpu@gb@emulation@@AEAAXXZ DD 021e01H
	DD	07006320aH
xdata	ENDS
;	COMDAT xdata
xdata	SEGMENT
$unwind$??$LDr$r@$00$00@Cpu@gb@emulation@@AEAAXXZ DD 021e01H
	DD	07006320aH
xdata	ENDS
;	COMDAT xdata
xdata	SEGMENT
$unwind$??$ADD_16bit@$02$00@Cpu@gb@emulation@@AEAAXXZ DD 021e01H
	DD	07006720aH
xdata	ENDS
;	COMDAT xdata
xdata	SEGMENT
$unwind$??$LD@$02$0A@$09@Cpu@gb@emulation@@AEAAXXZ DD 021e01H
	DD	07006720aH
xdata	ENDS
;	COMDAT xdata
xdata	SEGMENT
$unwind$??$DEC_8bit@$02$0A@@Cpu@gb@emulation@@AEAAXXZ DD 021e01H
	DD	07006520aH
xdata	ENDS
;	COMDAT xdata
xdata	SEGMENT
$unwind$??$INC_8bit@$02$0A@@Cpu@gb@emulation@@AEAAXXZ DD 021e01H
	DD	07006520aH
xdata	ENDS
;	COMDAT xdata
xdata	SEGMENT
$unwind$??$INC_16bit@$00@Cpu@gb@emulation@@AEAAXXZ DD 021e01H
	DD	07006320aH
xdata	ENDS
;	COMDAT xdata
xdata	SEGMENT
$unwind$??$LD$rr@$00$00@Cpu@gb@emulation@@AEAAXXZ DD 021e01H
	DD	07006320aH
xdata	ENDS
;	COMDAT xdata
xdata	SEGMENT
$unwind$??$LDrd16@$00@Cpu@gb@emulation@@AEAAXXZ DD 021e01H
	DD	07006520aH
xdata	ENDS
;	COMDAT xdata
xdata	SEGMENT
$unwind$?timer@Emu@gb@emulation@@QEAAPEAVTimer@23@XZ DD 010601H
	DD	07006H
xdata	ENDS
;	COMDAT xdata
xdata	SEGMENT
$unwind$?sc@Emu@gb@emulation@@QEAAPEAVSoundController@23@XZ DD 010601H
	DD	07006H
xdata	ENDS
;	COMDAT xdata
xdata	SEGMENT
$unwind$?lcd_driver@Emu@gb@emulation@@QEAAPEAVLCDDriver@23@XZ DD 010601H
	DD	07006H
xdata	ENDS
;	COMDAT xdata
xdata	SEGMENT
$unwind$?memory@Emu@gb@emulation@@QEAAPEAVMemory@23@XZ DD 010601H
	DD	07006H
xdata	ENDS
;	COMDAT xdata
xdata	SEGMENT
$unwind$?cartridge@Emu@gb@emulation@@QEAAPEAVCartridge@23@XZ DD 010601H
	DD	07006H
xdata	ENDS
CONST	SEGMENT
?PREFIX_CB@Cpu@gb@emulation@@AEAAXXZ$rtcName$0 DB 063H	; emulation::gb::Cpu::PREFIX_CB
	DB	06fH
	DB	064H
	DB	065H
	DB	00H
	ORG $+3
?PREFIX_CB@Cpu@gb@emulation@@AEAAXXZ$rtcName$1 DB 067H	; emulation::gb::Cpu::PREFIX_CB
	DB	065H
	DB	074H
	DB	072H
	DB	00H
	ORG $+3
?PREFIX_CB@Cpu@gb@emulation@@AEAAXXZ$rtcName$2 DB 073H	; emulation::gb::Cpu::PREFIX_CB
	DB	065H
	DB	074H
	DB	072H
	DB	00H
	ORG $+3
?PREFIX_CB@Cpu@gb@emulation@@AEAAXXZ$rtcFrameData DD 03H ; emulation::gb::Cpu::PREFIX_CB
	DD	00H
	DQ	FLAT:?PREFIX_CB@Cpu@gb@emulation@@AEAAXXZ$rtcVarDesc
	ORG $+8
?PREFIX_CB@Cpu@gb@emulation@@AEAAXXZ$rtcVarDesc DD 078H	; emulation::gb::Cpu::PREFIX_CB
	DD	010H
	DQ	FLAT:?PREFIX_CB@Cpu@gb@emulation@@AEAAXXZ$rtcName$2
	DD	048H
	DD	010H
	DQ	FLAT:?PREFIX_CB@Cpu@gb@emulation@@AEAAXXZ$rtcName$1
	DD	024H
	DD	01H
	DQ	FLAT:?PREFIX_CB@Cpu@gb@emulation@@AEAAXXZ$rtcName$0
CONST	ENDS
;	COMDAT xdata
xdata	SEGMENT
$unwind$?pushPC@Cpu@gb@emulation@@AEAAXXZ DD 021e01H
	DD	07006320aH
xdata	ENDS
;	COMDAT xdata
xdata	SEGMENT
$unwind$?pop@Cpu@gb@emulation@@AEAAEXZ DD 021e01H
	DD	07006520aH
xdata	ENDS
;	COMDAT xdata
xdata	SEGMENT
$unwind$?push@Cpu@gb@emulation@@AEAAXE@Z DD 022201H
	DD	0700a520eH
xdata	ENDS
;	COMDAT xdata
xdata	SEGMENT
$unwind$?updateCpuFlagZ@Cpu@gb@emulation@@AEAAXE@Z DD 022201H
	DD	0700a120eH
xdata	ENDS
;	COMDAT xdata
xdata	SEGMENT
$unwind$?updateCpuFlagH@Cpu@gb@emulation@@AEAAXEEH@Z DD 022c01H
	DD	070141218H
xdata	ENDS
;	COMDAT xdata
xdata	SEGMENT
$unwind$?updateCpuFlagC@Cpu@gb@emulation@@AEAAXEEH@Z DD 022c01H
	DD	070141218H
xdata	ENDS
xdata	SEGMENT
$unwind$??0Cpu@gb@emulation@@QEAA@XZ DD 021e01H
	DD	07006320aH
$unwind$??1Cpu@gb@emulation@@QEAA@XZ DD 010601H
	DD	07006H
$unwind$?Initialize@Cpu@gb@emulation@@UEAAXPEAVEmu@23@@Z DD 022301H
	DD	0700b320fH
$unwind$?Deinitialize@Cpu@gb@emulation@@UEAAXXZ DD 010601H
	DD	07006H
$unwind$?Reset@Cpu@gb@emulation@@UEAAXXZ DD 021e01H
	DD	07006320aH
$unwind$?Tick@Cpu@gb@emulation@@QEAAXXZ DD 021e01H
	DD	07006520aH
$unwind$?Step@Cpu@gb@emulation@@QEAAXN@Z DD 022401H
	DD	0700c9210H
$unwind$?simulateSpriteBug@Cpu@gb@emulation@@AEAAXXZ DD 021e01H
	DD	07006320aH
$unwind$?NOP@Cpu@gb@emulation@@AEAAXXZ DD 010601H
	DD	07006H
$unwind$?ILLEGAL@Cpu@gb@emulation@@AEAAXXZ DD 021e01H
	DD	07006120aH
$unwind$?RST@Cpu@gb@emulation@@AEAAXXZ DD 021e01H
	DD	07006520aH
$unwind$?LDSPHL@Cpu@gb@emulation@@AEAAXXZ DD 021e01H
	DD	07006320aH
$unwind$?LDHLSPr8@Cpu@gb@emulation@@AEAAXXZ DD 021e01H
	DD	07006520aH
$unwind$?LDa16SP@Cpu@gb@emulation@@AEAAXXZ DD 021e01H
	DD	07006520aH
$unwind$?ADD_SPr8@Cpu@gb@emulation@@AEAAXXZ DD 021e01H
	DD	07006520aH
$unwind$?SCF@Cpu@gb@emulation@@AEAAXXZ DD 010601H
	DD	07006H
$unwind$?CCF@Cpu@gb@emulation@@AEAAXXZ DD 010601H
	DD	07006H
$unwind$?HALT@Cpu@gb@emulation@@AEAAXXZ DD 010601H
	DD	07006H
$unwind$?STOP@Cpu@gb@emulation@@AEAAXXZ DD 010601H
	DD	07006H
$unwind$?CPL@Cpu@gb@emulation@@AEAAXXZ DD 010601H
	DD	07006H
$unwind$?PREFIX_CB@Cpu@gb@emulation@@AEAAXXZ DD 032401H
	DD	018010dH
	DD	07006H
$unwind$?JR@Cpu@gb@emulation@@AEAAXXZ DD 021e01H
	DD	07006520aH
$unwind$?JP@Cpu@gb@emulation@@AEAAXXZ DD 021e01H
	DD	07006520aH
$unwind$?JP_HL@Cpu@gb@emulation@@AEAAXXZ DD 010601H
	DD	07006H
$unwind$?CALL@Cpu@gb@emulation@@AEAAXXZ DD 021e01H
	DD	07006520aH
$unwind$?RET@Cpu@gb@emulation@@AEAAXXZ DD 021e01H
	DD	07006320aH
$unwind$?RLCA@Cpu@gb@emulation@@AEAAXXZ DD 021e01H
	DD	07006120aH
$unwind$?RRCA@Cpu@gb@emulation@@AEAAXXZ DD 021e01H
	DD	07006120aH
$unwind$?RLA@Cpu@gb@emulation@@AEAAXXZ DD 021e01H
	DD	07006120aH
$unwind$?RRA@Cpu@gb@emulation@@AEAAXXZ DD 021e01H
	DD	07006120aH
$unwind$?CP@Cpu@gb@emulation@@AEAAXEE@Z DD 022701H
	DD	0700f3213H
$unwind$?CP_d8@Cpu@gb@emulation@@AEAAXXZ DD 021e01H
	DD	07006520aH
$unwind$?CP_HL@Cpu@gb@emulation@@AEAAXXZ DD 021e01H
	DD	07006320aH
$unwind$?DI@Cpu@gb@emulation@@AEAAXXZ DD 010601H
	DD	07006H
$unwind$?EI@Cpu@gb@emulation@@AEAAXXZ DD 010601H
	DD	07006H
$unwind$?RETI@Cpu@gb@emulation@@AEAAXXZ DD 021e01H
	DD	07006320aH
$unwind$?DAA@Cpu@gb@emulation@@AEAAXXZ DD 021e01H
	DD	07006520aH
$unwind$??0<lambda_e6006dac0a8482b356b9f0c5ff6de944>@@QEAA@AEBEPEAVCpu@gb@emulation@@@Z DD 011001H
	DD	07010H
$unwind$??R<lambda_e6006dac0a8482b356b9f0c5ff6de944>@@QEBAEXZ DD 021e01H
	DD	07006320aH
$unwind$??0<lambda_dcf6fcf4240e7a010887eba0f732f129>@@QEAA@AEBEPEAVCpu@gb@emulation@@@Z DD 011001H
	DD	07010H
$unwind$??R<lambda_dcf6fcf4240e7a010887eba0f732f129>@@QEBAXE@Z DD 022201H
	DD	0700a320eH
xdata	ENDS
;	COMDAT xdata
xdata	SEGMENT
$unwind$?lcdc@LCDDriver@gb@emulation@@QEAAAEBTLCDControlRegister@23@XZ DD 010601H
	DD	07006H
xdata	ENDS
;	COMDAT xdata
xdata	SEGMENT
$unwind$?interrupt_flag@Memory@gb@emulation@@QEAAAEAEXZ DD 010601H
	DD	07006H
xdata	ENDS
;	COMDAT xdata
xdata	SEGMENT
$unwind$?interrupt_enable@Memory@gb@emulation@@QEAAAEAEXZ DD 010601H
	DD	07006H
xdata	ENDS
;	COMDAT xdata
xdata	SEGMENT
$unwind$??0Component@gb@emulation@@QEAA@XZ DD 010601H
	DD	07006H
xdata	ENDS
;	COMDAT xdata
xdata	SEGMENT
$unwind$?Reset@Component@gb@emulation@@UEAAXXZ DD 010601H
	DD	07006H
xdata	ENDS
;	COMDAT xdata
xdata	SEGMENT
$unwind$?Deinitialize@Component@gb@emulation@@UEAAXXZ DD 010601H
	DD	07006H
xdata	ENDS
;	COMDAT xdata
xdata	SEGMENT
$unwind$?Initialize@Component@gb@emulation@@UEAAXPEAVEmu@23@@Z DD 010b01H
	DD	0700bH
xdata	ENDS
;	COMDAT xdata
xdata	SEGMENT
$unwind$??__E_Tuple_alloc@std@@YAXXZ DD 021501H
	DD	070021206H
xdata	ENDS
;	COMDAT xdata
xdata	SEGMENT
$unwind$??__Eignore@std@@YAXXZ DD 021501H
	DD	070023206H
xdata	ENDS
;	COMDAT xdata
xdata	SEGMENT
$unwind$??0_Ignore@std@@QEAA@XZ DD 010601H
	DD	07006H
xdata	ENDS
;	COMDAT xdata
xdata	SEGMENT
$unwind$??__Eallocator_arg@std@@YAXXZ DD 021501H
	DD	070021206H
xdata	ENDS
;	COMDAT xdata
xdata	SEGMENT
$unwind$??__Epiecewise_construct@std@@YAXXZ DD 021501H
	DD	070021206H
xdata	ENDS
CRT$XCU	SEGMENT
allocator_arg$initializer$ DQ FLAT:??__Eallocator_arg@std@@YAXXZ
CRT$XCU	ENDS
CRT$XCU	SEGMENT
ignore$initializer$ DQ FLAT:??__Eignore@std@@YAXXZ
CRT$XCU	ENDS
CRT$XCU	SEGMENT
_Tuple_alloc$initializer$ DQ FLAT:??__E_Tuple_alloc@std@@YAXXZ
CRT$XCU	ENDS
; Function compile flags: /Odtp /RTCsu
; File d:\personal\projects\gbemu\solution\code\emulation\gb\cpu.h
;	COMDAT ??$arithmeticMode@$00$0A@$01@Cpu@gb@emulation@@AEAAXAEAE0@Z
_TEXT	SEGMENT
tv133 = 32
this$ = 64
a$ = 72
b$ = 80
??$arithmeticMode@$00$0A@$01@Cpu@gb@emulation@@AEAAXAEAE0@Z PROC ; emulation::gb::Cpu::arithmeticMode<1,0,2>, COMDAT

; 124  :   void arithmeticMode(uint8_t& a, uint8_t& b) {

$LN8:
	mov	QWORD PTR [rsp+24], r8
	mov	QWORD PTR [rsp+16], rdx
	mov	QWORD PTR [rsp+8], rcx
	push	rdi
	sub	rsp, 48					; 00000030H
	mov	rdi, rsp
	mov	ecx, 12
	mov	eax, -858993460				; ccccccccH
	rep stosd
	mov	rcx, QWORD PTR [rsp+64]

; 125  : 	  if (mode == 0) {

	xor	eax, eax
	test	eax, eax
	je	SHORT $LN5@arithmetic

; 126  :       a = reg.raw8[dest];

	mov	eax, 1
	imul	rax, 1
	mov	rcx, QWORD PTR a$[rsp]
	mov	rdx, QWORD PTR this$[rsp]
	movzx	eax, BYTE PTR [rdx+rax+2096]
	mov	BYTE PTR [rcx], al

; 127  :       b = reg.raw8[src];

	mov	eax, 1
	imul	rax, 0
	mov	rcx, QWORD PTR b$[rsp]
	mov	rdx, QWORD PTR this$[rsp]
	movzx	eax, BYTE PTR [rdx+rax+2096]
	mov	BYTE PTR [rcx], al
	jmp	$LN4@arithmetic
$LN5@arithmetic:

; 128  :     } else if (mode == 1) {

	xor	eax, eax
	test	eax, eax
	je	SHORT $LN3@arithmetic

; 129  :       a = reg.raw8[dest];

	mov	eax, 1
	imul	rax, 1
	mov	rcx, QWORD PTR a$[rsp]
	mov	rdx, QWORD PTR this$[rsp]
	movzx	eax, BYTE PTR [rdx+rax+2096]
	mov	BYTE PTR [rcx], al

; 130  :       b = mem_->Read8(reg.raw16[src]);

	mov	eax, 2
	imul	rax, 0
	mov	rcx, QWORD PTR this$[rsp]
	movzx	edx, WORD PTR [rcx+rax+2096]
	mov	rax, QWORD PTR this$[rsp]
	mov	rcx, QWORD PTR [rax+2112]
	call	?Read8@Memory@gb@emulation@@QEAAEG@Z	; emulation::gb::Memory::Read8
	mov	rcx, QWORD PTR b$[rsp]
	mov	BYTE PTR [rcx], al
	jmp	SHORT $LN2@arithmetic
$LN3@arithmetic:

; 131  :     } else if (mode == 2) {

	xor	eax, eax
	cmp	eax, 1
	je	SHORT $LN1@arithmetic

; 132  :       a = reg.raw8[dest];

	mov	eax, 1
	imul	rax, 1
	mov	rcx, QWORD PTR a$[rsp]
	mov	rdx, QWORD PTR this$[rsp]
	movzx	eax, BYTE PTR [rdx+rax+2096]
	mov	BYTE PTR [rcx], al

; 133  :       b = mem_->Read8(reg.PC++);

	mov	rax, QWORD PTR this$[rsp]
	movzx	eax, WORD PTR [rax+2106]
	mov	WORD PTR tv133[rsp], ax
	mov	rax, QWORD PTR this$[rsp]
	movzx	eax, WORD PTR [rax+2106]
	inc	ax
	mov	rcx, QWORD PTR this$[rsp]
	mov	WORD PTR [rcx+2106], ax
	movzx	edx, WORD PTR tv133[rsp]
	mov	rax, QWORD PTR this$[rsp]
	mov	rcx, QWORD PTR [rax+2112]
	call	?Read8@Memory@gb@emulation@@QEAAEG@Z	; emulation::gb::Memory::Read8
	mov	rcx, QWORD PTR b$[rsp]
	mov	BYTE PTR [rcx], al
$LN1@arithmetic:
$LN2@arithmetic:
$LN4@arithmetic:

; 134  :     }
; 135  :   }

	add	rsp, 48					; 00000030H
	pop	rdi
	ret	0
??$arithmeticMode@$00$0A@$01@Cpu@gb@emulation@@AEAAXAEAE0@Z ENDP ; emulation::gb::Cpu::arithmeticMode<1,0,2>
_TEXT	ENDS
; Function compile flags: /Odtp /RTCsu
; File d:\personal\projects\gbemu\solution\code\emulation\gb\cpu.h
;	COMDAT ??$arithmeticMode@$00$00$0A@@Cpu@gb@emulation@@AEAAXAEAE0@Z
_TEXT	SEGMENT
tv133 = 32
this$ = 64
a$ = 72
b$ = 80
??$arithmeticMode@$00$00$0A@@Cpu@gb@emulation@@AEAAXAEAE0@Z PROC ; emulation::gb::Cpu::arithmeticMode<1,1,0>, COMDAT

; 124  :   void arithmeticMode(uint8_t& a, uint8_t& b) {

$LN8:
	mov	QWORD PTR [rsp+24], r8
	mov	QWORD PTR [rsp+16], rdx
	mov	QWORD PTR [rsp+8], rcx
	push	rdi
	sub	rsp, 48					; 00000030H
	mov	rdi, rsp
	mov	ecx, 12
	mov	eax, -858993460				; ccccccccH
	rep stosd
	mov	rcx, QWORD PTR [rsp+64]

; 125  : 	  if (mode == 0) {

	xor	eax, eax
	cmp	eax, 1
	je	SHORT $LN5@arithmetic

; 126  :       a = reg.raw8[dest];

	mov	eax, 1
	imul	rax, 1
	mov	rcx, QWORD PTR a$[rsp]
	mov	rdx, QWORD PTR this$[rsp]
	movzx	eax, BYTE PTR [rdx+rax+2096]
	mov	BYTE PTR [rcx], al

; 127  :       b = reg.raw8[src];

	mov	eax, 1
	imul	rax, 1
	mov	rcx, QWORD PTR b$[rsp]
	mov	rdx, QWORD PTR this$[rsp]
	movzx	eax, BYTE PTR [rdx+rax+2096]
	mov	BYTE PTR [rcx], al
	jmp	$LN4@arithmetic
$LN5@arithmetic:

; 128  :     } else if (mode == 1) {

	xor	eax, eax
	test	eax, eax
	je	SHORT $LN3@arithmetic

; 129  :       a = reg.raw8[dest];

	mov	eax, 1
	imul	rax, 1
	mov	rcx, QWORD PTR a$[rsp]
	mov	rdx, QWORD PTR this$[rsp]
	movzx	eax, BYTE PTR [rdx+rax+2096]
	mov	BYTE PTR [rcx], al

; 130  :       b = mem_->Read8(reg.raw16[src]);

	mov	eax, 2
	imul	rax, 1
	mov	rcx, QWORD PTR this$[rsp]
	movzx	edx, WORD PTR [rcx+rax+2096]
	mov	rax, QWORD PTR this$[rsp]
	mov	rcx, QWORD PTR [rax+2112]
	call	?Read8@Memory@gb@emulation@@QEAAEG@Z	; emulation::gb::Memory::Read8
	mov	rcx, QWORD PTR b$[rsp]
	mov	BYTE PTR [rcx], al
	jmp	SHORT $LN2@arithmetic
$LN3@arithmetic:

; 131  :     } else if (mode == 2) {

	xor	eax, eax
	test	eax, eax
	je	SHORT $LN1@arithmetic

; 132  :       a = reg.raw8[dest];

	mov	eax, 1
	imul	rax, 1
	mov	rcx, QWORD PTR a$[rsp]
	mov	rdx, QWORD PTR this$[rsp]
	movzx	eax, BYTE PTR [rdx+rax+2096]
	mov	BYTE PTR [rcx], al

; 133  :       b = mem_->Read8(reg.PC++);

	mov	rax, QWORD PTR this$[rsp]
	movzx	eax, WORD PTR [rax+2106]
	mov	WORD PTR tv133[rsp], ax
	mov	rax, QWORD PTR this$[rsp]
	movzx	eax, WORD PTR [rax+2106]
	inc	ax
	mov	rcx, QWORD PTR this$[rsp]
	mov	WORD PTR [rcx+2106], ax
	movzx	edx, WORD PTR tv133[rsp]
	mov	rax, QWORD PTR this$[rsp]
	mov	rcx, QWORD PTR [rax+2112]
	call	?Read8@Memory@gb@emulation@@QEAAEG@Z	; emulation::gb::Memory::Read8
	mov	rcx, QWORD PTR b$[rsp]
	mov	BYTE PTR [rcx], al
$LN1@arithmetic:
$LN2@arithmetic:
$LN4@arithmetic:

; 134  :     }
; 135  :   }

	add	rsp, 48					; 00000030H
	pop	rdi
	ret	0
??$arithmeticMode@$00$00$0A@@Cpu@gb@emulation@@AEAAXAEAE0@Z ENDP ; emulation::gb::Cpu::arithmeticMode<1,1,0>
_TEXT	ENDS
; Function compile flags: /Odtp /RTCsu
; File d:\personal\projects\gbemu\solution\code\emulation\gb\cpu.h
;	COMDAT ??$arithmeticMode@$00$02$00@Cpu@gb@emulation@@AEAAXAEAE0@Z
_TEXT	SEGMENT
tv133 = 32
this$ = 64
a$ = 72
b$ = 80
??$arithmeticMode@$00$02$00@Cpu@gb@emulation@@AEAAXAEAE0@Z PROC ; emulation::gb::Cpu::arithmeticMode<1,3,1>, COMDAT

; 124  :   void arithmeticMode(uint8_t& a, uint8_t& b) {

$LN8:
	mov	QWORD PTR [rsp+24], r8
	mov	QWORD PTR [rsp+16], rdx
	mov	QWORD PTR [rsp+8], rcx
	push	rdi
	sub	rsp, 48					; 00000030H
	mov	rdi, rsp
	mov	ecx, 12
	mov	eax, -858993460				; ccccccccH
	rep stosd
	mov	rcx, QWORD PTR [rsp+64]

; 125  : 	  if (mode == 0) {

	xor	eax, eax
	test	eax, eax
	je	SHORT $LN5@arithmetic

; 126  :       a = reg.raw8[dest];

	mov	eax, 1
	imul	rax, 1
	mov	rcx, QWORD PTR a$[rsp]
	mov	rdx, QWORD PTR this$[rsp]
	movzx	eax, BYTE PTR [rdx+rax+2096]
	mov	BYTE PTR [rcx], al

; 127  :       b = reg.raw8[src];

	mov	eax, 1
	imul	rax, 3
	mov	rcx, QWORD PTR b$[rsp]
	mov	rdx, QWORD PTR this$[rsp]
	movzx	eax, BYTE PTR [rdx+rax+2096]
	mov	BYTE PTR [rcx], al
	jmp	$LN4@arithmetic
$LN5@arithmetic:

; 128  :     } else if (mode == 1) {

	xor	eax, eax
	cmp	eax, 1
	je	SHORT $LN3@arithmetic

; 129  :       a = reg.raw8[dest];

	mov	eax, 1
	imul	rax, 1
	mov	rcx, QWORD PTR a$[rsp]
	mov	rdx, QWORD PTR this$[rsp]
	movzx	eax, BYTE PTR [rdx+rax+2096]
	mov	BYTE PTR [rcx], al

; 130  :       b = mem_->Read8(reg.raw16[src]);

	mov	eax, 2
	imul	rax, 3
	mov	rcx, QWORD PTR this$[rsp]
	movzx	edx, WORD PTR [rcx+rax+2096]
	mov	rax, QWORD PTR this$[rsp]
	mov	rcx, QWORD PTR [rax+2112]
	call	?Read8@Memory@gb@emulation@@QEAAEG@Z	; emulation::gb::Memory::Read8
	mov	rcx, QWORD PTR b$[rsp]
	mov	BYTE PTR [rcx], al
	jmp	SHORT $LN2@arithmetic
$LN3@arithmetic:

; 131  :     } else if (mode == 2) {

	xor	eax, eax
	test	eax, eax
	je	SHORT $LN1@arithmetic

; 132  :       a = reg.raw8[dest];

	mov	eax, 1
	imul	rax, 1
	mov	rcx, QWORD PTR a$[rsp]
	mov	rdx, QWORD PTR this$[rsp]
	movzx	eax, BYTE PTR [rdx+rax+2096]
	mov	BYTE PTR [rcx], al

; 133  :       b = mem_->Read8(reg.PC++);

	mov	rax, QWORD PTR this$[rsp]
	movzx	eax, WORD PTR [rax+2106]
	mov	WORD PTR tv133[rsp], ax
	mov	rax, QWORD PTR this$[rsp]
	movzx	eax, WORD PTR [rax+2106]
	inc	ax
	mov	rcx, QWORD PTR this$[rsp]
	mov	WORD PTR [rcx+2106], ax
	movzx	edx, WORD PTR tv133[rsp]
	mov	rax, QWORD PTR this$[rsp]
	mov	rcx, QWORD PTR [rax+2112]
	call	?Read8@Memory@gb@emulation@@QEAAEG@Z	; emulation::gb::Memory::Read8
	mov	rcx, QWORD PTR b$[rsp]
	mov	BYTE PTR [rcx], al
$LN1@arithmetic:
$LN2@arithmetic:
$LN4@arithmetic:

; 134  :     }
; 135  :   }

	add	rsp, 48					; 00000030H
	pop	rdi
	ret	0
??$arithmeticMode@$00$02$00@Cpu@gb@emulation@@AEAAXAEAE0@Z ENDP ; emulation::gb::Cpu::arithmeticMode<1,3,1>
_TEXT	ENDS
; Function compile flags: /Odtp /RTCsu
; File d:\personal\projects\gbemu\solution\code\emulation\gb\cpu.h
;	COMDAT ??$arithmeticMode@$00$05$0A@@Cpu@gb@emulation@@AEAAXAEAE0@Z
_TEXT	SEGMENT
tv133 = 32
this$ = 64
a$ = 72
b$ = 80
??$arithmeticMode@$00$05$0A@@Cpu@gb@emulation@@AEAAXAEAE0@Z PROC ; emulation::gb::Cpu::arithmeticMode<1,6,0>, COMDAT

; 124  :   void arithmeticMode(uint8_t& a, uint8_t& b) {

$LN8:
	mov	QWORD PTR [rsp+24], r8
	mov	QWORD PTR [rsp+16], rdx
	mov	QWORD PTR [rsp+8], rcx
	push	rdi
	sub	rsp, 48					; 00000030H
	mov	rdi, rsp
	mov	ecx, 12
	mov	eax, -858993460				; ccccccccH
	rep stosd
	mov	rcx, QWORD PTR [rsp+64]

; 125  : 	  if (mode == 0) {

	xor	eax, eax
	cmp	eax, 1
	je	SHORT $LN5@arithmetic

; 126  :       a = reg.raw8[dest];

	mov	eax, 1
	imul	rax, 1
	mov	rcx, QWORD PTR a$[rsp]
	mov	rdx, QWORD PTR this$[rsp]
	movzx	eax, BYTE PTR [rdx+rax+2096]
	mov	BYTE PTR [rcx], al

; 127  :       b = reg.raw8[src];

	mov	eax, 1
	imul	rax, 6
	mov	rcx, QWORD PTR b$[rsp]
	mov	rdx, QWORD PTR this$[rsp]
	movzx	eax, BYTE PTR [rdx+rax+2096]
	mov	BYTE PTR [rcx], al
	jmp	$LN4@arithmetic
$LN5@arithmetic:

; 128  :     } else if (mode == 1) {

	xor	eax, eax
	test	eax, eax
	je	SHORT $LN3@arithmetic

; 129  :       a = reg.raw8[dest];

	mov	eax, 1
	imul	rax, 1
	mov	rcx, QWORD PTR a$[rsp]
	mov	rdx, QWORD PTR this$[rsp]
	movzx	eax, BYTE PTR [rdx+rax+2096]
	mov	BYTE PTR [rcx], al

; 130  :       b = mem_->Read8(reg.raw16[src]);

	mov	eax, 2
	imul	rax, 6
	mov	rcx, QWORD PTR this$[rsp]
	movzx	edx, WORD PTR [rcx+rax+2096]
	mov	rax, QWORD PTR this$[rsp]
	mov	rcx, QWORD PTR [rax+2112]
	call	?Read8@Memory@gb@emulation@@QEAAEG@Z	; emulation::gb::Memory::Read8
	mov	rcx, QWORD PTR b$[rsp]
	mov	BYTE PTR [rcx], al
	jmp	SHORT $LN2@arithmetic
$LN3@arithmetic:

; 131  :     } else if (mode == 2) {

	xor	eax, eax
	test	eax, eax
	je	SHORT $LN1@arithmetic

; 132  :       a = reg.raw8[dest];

	mov	eax, 1
	imul	rax, 1
	mov	rcx, QWORD PTR a$[rsp]
	mov	rdx, QWORD PTR this$[rsp]
	movzx	eax, BYTE PTR [rdx+rax+2096]
	mov	BYTE PTR [rcx], al

; 133  :       b = mem_->Read8(reg.PC++);

	mov	rax, QWORD PTR this$[rsp]
	movzx	eax, WORD PTR [rax+2106]
	mov	WORD PTR tv133[rsp], ax
	mov	rax, QWORD PTR this$[rsp]
	movzx	eax, WORD PTR [rax+2106]
	inc	ax
	mov	rcx, QWORD PTR this$[rsp]
	mov	WORD PTR [rcx+2106], ax
	movzx	edx, WORD PTR tv133[rsp]
	mov	rax, QWORD PTR this$[rsp]
	mov	rcx, QWORD PTR [rax+2112]
	call	?Read8@Memory@gb@emulation@@QEAAEG@Z	; emulation::gb::Memory::Read8
	mov	rcx, QWORD PTR b$[rsp]
	mov	BYTE PTR [rcx], al
$LN1@arithmetic:
$LN2@arithmetic:
$LN4@arithmetic:

; 134  :     }
; 135  :   }

	add	rsp, 48					; 00000030H
	pop	rdi
	ret	0
??$arithmeticMode@$00$05$0A@@Cpu@gb@emulation@@AEAAXAEAE0@Z ENDP ; emulation::gb::Cpu::arithmeticMode<1,6,0>
_TEXT	ENDS
; Function compile flags: /Odtp /RTCsu
; File d:\personal\projects\gbemu\solution\code\emulation\gb\cpu.h
;	COMDAT ??$arithmeticMode@$00$06$0A@@Cpu@gb@emulation@@AEAAXAEAE0@Z
_TEXT	SEGMENT
tv133 = 32
this$ = 64
a$ = 72
b$ = 80
??$arithmeticMode@$00$06$0A@@Cpu@gb@emulation@@AEAAXAEAE0@Z PROC ; emulation::gb::Cpu::arithmeticMode<1,7,0>, COMDAT

; 124  :   void arithmeticMode(uint8_t& a, uint8_t& b) {

$LN8:
	mov	QWORD PTR [rsp+24], r8
	mov	QWORD PTR [rsp+16], rdx
	mov	QWORD PTR [rsp+8], rcx
	push	rdi
	sub	rsp, 48					; 00000030H
	mov	rdi, rsp
	mov	ecx, 12
	mov	eax, -858993460				; ccccccccH
	rep stosd
	mov	rcx, QWORD PTR [rsp+64]

; 125  : 	  if (mode == 0) {

	xor	eax, eax
	cmp	eax, 1
	je	SHORT $LN5@arithmetic

; 126  :       a = reg.raw8[dest];

	mov	eax, 1
	imul	rax, 1
	mov	rcx, QWORD PTR a$[rsp]
	mov	rdx, QWORD PTR this$[rsp]
	movzx	eax, BYTE PTR [rdx+rax+2096]
	mov	BYTE PTR [rcx], al

; 127  :       b = reg.raw8[src];

	mov	eax, 1
	imul	rax, 7
	mov	rcx, QWORD PTR b$[rsp]
	mov	rdx, QWORD PTR this$[rsp]
	movzx	eax, BYTE PTR [rdx+rax+2096]
	mov	BYTE PTR [rcx], al
	jmp	$LN4@arithmetic
$LN5@arithmetic:

; 128  :     } else if (mode == 1) {

	xor	eax, eax
	test	eax, eax
	je	SHORT $LN3@arithmetic

; 129  :       a = reg.raw8[dest];

	mov	eax, 1
	imul	rax, 1
	mov	rcx, QWORD PTR a$[rsp]
	mov	rdx, QWORD PTR this$[rsp]
	movzx	eax, BYTE PTR [rdx+rax+2096]
	mov	BYTE PTR [rcx], al

; 130  :       b = mem_->Read8(reg.raw16[src]);

	mov	eax, 2
	imul	rax, 7
	mov	rcx, QWORD PTR this$[rsp]
	movzx	edx, WORD PTR [rcx+rax+2096]
	mov	rax, QWORD PTR this$[rsp]
	mov	rcx, QWORD PTR [rax+2112]
	call	?Read8@Memory@gb@emulation@@QEAAEG@Z	; emulation::gb::Memory::Read8
	mov	rcx, QWORD PTR b$[rsp]
	mov	BYTE PTR [rcx], al
	jmp	SHORT $LN2@arithmetic
$LN3@arithmetic:

; 131  :     } else if (mode == 2) {

	xor	eax, eax
	test	eax, eax
	je	SHORT $LN1@arithmetic

; 132  :       a = reg.raw8[dest];

	mov	eax, 1
	imul	rax, 1
	mov	rcx, QWORD PTR a$[rsp]
	mov	rdx, QWORD PTR this$[rsp]
	movzx	eax, BYTE PTR [rdx+rax+2096]
	mov	BYTE PTR [rcx], al

; 133  :       b = mem_->Read8(reg.PC++);

	mov	rax, QWORD PTR this$[rsp]
	movzx	eax, WORD PTR [rax+2106]
	mov	WORD PTR tv133[rsp], ax
	mov	rax, QWORD PTR this$[rsp]
	movzx	eax, WORD PTR [rax+2106]
	inc	ax
	mov	rcx, QWORD PTR this$[rsp]
	mov	WORD PTR [rcx+2106], ax
	movzx	edx, WORD PTR tv133[rsp]
	mov	rax, QWORD PTR this$[rsp]
	mov	rcx, QWORD PTR [rax+2112]
	call	?Read8@Memory@gb@emulation@@QEAAEG@Z	; emulation::gb::Memory::Read8
	mov	rcx, QWORD PTR b$[rsp]
	mov	BYTE PTR [rcx], al
$LN1@arithmetic:
$LN2@arithmetic:
$LN4@arithmetic:

; 134  :     }
; 135  :   }

	add	rsp, 48					; 00000030H
	pop	rdi
	ret	0
??$arithmeticMode@$00$06$0A@@Cpu@gb@emulation@@AEAAXAEAE0@Z ENDP ; emulation::gb::Cpu::arithmeticMode<1,7,0>
_TEXT	ENDS
; Function compile flags: /Odtp /RTCsu
; File d:\personal\projects\gbemu\solution\code\emulation\gb\cpu.h
;	COMDAT ??$arithmeticMode@$00$03$0A@@Cpu@gb@emulation@@AEAAXAEAE0@Z
_TEXT	SEGMENT
tv133 = 32
this$ = 64
a$ = 72
b$ = 80
??$arithmeticMode@$00$03$0A@@Cpu@gb@emulation@@AEAAXAEAE0@Z PROC ; emulation::gb::Cpu::arithmeticMode<1,4,0>, COMDAT

; 124  :   void arithmeticMode(uint8_t& a, uint8_t& b) {

$LN8:
	mov	QWORD PTR [rsp+24], r8
	mov	QWORD PTR [rsp+16], rdx
	mov	QWORD PTR [rsp+8], rcx
	push	rdi
	sub	rsp, 48					; 00000030H
	mov	rdi, rsp
	mov	ecx, 12
	mov	eax, -858993460				; ccccccccH
	rep stosd
	mov	rcx, QWORD PTR [rsp+64]

; 125  : 	  if (mode == 0) {

	xor	eax, eax
	cmp	eax, 1
	je	SHORT $LN5@arithmetic

; 126  :       a = reg.raw8[dest];

	mov	eax, 1
	imul	rax, 1
	mov	rcx, QWORD PTR a$[rsp]
	mov	rdx, QWORD PTR this$[rsp]
	movzx	eax, BYTE PTR [rdx+rax+2096]
	mov	BYTE PTR [rcx], al

; 127  :       b = reg.raw8[src];

	mov	eax, 1
	imul	rax, 4
	mov	rcx, QWORD PTR b$[rsp]
	mov	rdx, QWORD PTR this$[rsp]
	movzx	eax, BYTE PTR [rdx+rax+2096]
	mov	BYTE PTR [rcx], al
	jmp	$LN4@arithmetic
$LN5@arithmetic:

; 128  :     } else if (mode == 1) {

	xor	eax, eax
	test	eax, eax
	je	SHORT $LN3@arithmetic

; 129  :       a = reg.raw8[dest];

	mov	eax, 1
	imul	rax, 1
	mov	rcx, QWORD PTR a$[rsp]
	mov	rdx, QWORD PTR this$[rsp]
	movzx	eax, BYTE PTR [rdx+rax+2096]
	mov	BYTE PTR [rcx], al

; 130  :       b = mem_->Read8(reg.raw16[src]);

	mov	eax, 2
	imul	rax, 4
	mov	rcx, QWORD PTR this$[rsp]
	movzx	edx, WORD PTR [rcx+rax+2096]
	mov	rax, QWORD PTR this$[rsp]
	mov	rcx, QWORD PTR [rax+2112]
	call	?Read8@Memory@gb@emulation@@QEAAEG@Z	; emulation::gb::Memory::Read8
	mov	rcx, QWORD PTR b$[rsp]
	mov	BYTE PTR [rcx], al
	jmp	SHORT $LN2@arithmetic
$LN3@arithmetic:

; 131  :     } else if (mode == 2) {

	xor	eax, eax
	test	eax, eax
	je	SHORT $LN1@arithmetic

; 132  :       a = reg.raw8[dest];

	mov	eax, 1
	imul	rax, 1
	mov	rcx, QWORD PTR a$[rsp]
	mov	rdx, QWORD PTR this$[rsp]
	movzx	eax, BYTE PTR [rdx+rax+2096]
	mov	BYTE PTR [rcx], al

; 133  :       b = mem_->Read8(reg.PC++);

	mov	rax, QWORD PTR this$[rsp]
	movzx	eax, WORD PTR [rax+2106]
	mov	WORD PTR tv133[rsp], ax
	mov	rax, QWORD PTR this$[rsp]
	movzx	eax, WORD PTR [rax+2106]
	inc	ax
	mov	rcx, QWORD PTR this$[rsp]
	mov	WORD PTR [rcx+2106], ax
	movzx	edx, WORD PTR tv133[rsp]
	mov	rax, QWORD PTR this$[rsp]
	mov	rcx, QWORD PTR [rax+2112]
	call	?Read8@Memory@gb@emulation@@QEAAEG@Z	; emulation::gb::Memory::Read8
	mov	rcx, QWORD PTR b$[rsp]
	mov	BYTE PTR [rcx], al
$LN1@arithmetic:
$LN2@arithmetic:
$LN4@arithmetic:

; 134  :     }
; 135  :   }

	add	rsp, 48					; 00000030H
	pop	rdi
	ret	0
??$arithmeticMode@$00$03$0A@@Cpu@gb@emulation@@AEAAXAEAE0@Z ENDP ; emulation::gb::Cpu::arithmeticMode<1,4,0>
_TEXT	ENDS
; Function compile flags: /Odtp /RTCsu
; File d:\personal\projects\gbemu\solution\code\emulation\gb\cpu.h
;	COMDAT ??$arithmeticMode@$00$04$0A@@Cpu@gb@emulation@@AEAAXAEAE0@Z
_TEXT	SEGMENT
tv133 = 32
this$ = 64
a$ = 72
b$ = 80
??$arithmeticMode@$00$04$0A@@Cpu@gb@emulation@@AEAAXAEAE0@Z PROC ; emulation::gb::Cpu::arithmeticMode<1,5,0>, COMDAT

; 124  :   void arithmeticMode(uint8_t& a, uint8_t& b) {

$LN8:
	mov	QWORD PTR [rsp+24], r8
	mov	QWORD PTR [rsp+16], rdx
	mov	QWORD PTR [rsp+8], rcx
	push	rdi
	sub	rsp, 48					; 00000030H
	mov	rdi, rsp
	mov	ecx, 12
	mov	eax, -858993460				; ccccccccH
	rep stosd
	mov	rcx, QWORD PTR [rsp+64]

; 125  : 	  if (mode == 0) {

	xor	eax, eax
	cmp	eax, 1
	je	SHORT $LN5@arithmetic

; 126  :       a = reg.raw8[dest];

	mov	eax, 1
	imul	rax, 1
	mov	rcx, QWORD PTR a$[rsp]
	mov	rdx, QWORD PTR this$[rsp]
	movzx	eax, BYTE PTR [rdx+rax+2096]
	mov	BYTE PTR [rcx], al

; 127  :       b = reg.raw8[src];

	mov	eax, 1
	imul	rax, 5
	mov	rcx, QWORD PTR b$[rsp]
	mov	rdx, QWORD PTR this$[rsp]
	movzx	eax, BYTE PTR [rdx+rax+2096]
	mov	BYTE PTR [rcx], al
	jmp	$LN4@arithmetic
$LN5@arithmetic:

; 128  :     } else if (mode == 1) {

	xor	eax, eax
	test	eax, eax
	je	SHORT $LN3@arithmetic

; 129  :       a = reg.raw8[dest];

	mov	eax, 1
	imul	rax, 1
	mov	rcx, QWORD PTR a$[rsp]
	mov	rdx, QWORD PTR this$[rsp]
	movzx	eax, BYTE PTR [rdx+rax+2096]
	mov	BYTE PTR [rcx], al

; 130  :       b = mem_->Read8(reg.raw16[src]);

	mov	eax, 2
	imul	rax, 5
	mov	rcx, QWORD PTR this$[rsp]
	movzx	edx, WORD PTR [rcx+rax+2096]
	mov	rax, QWORD PTR this$[rsp]
	mov	rcx, QWORD PTR [rax+2112]
	call	?Read8@Memory@gb@emulation@@QEAAEG@Z	; emulation::gb::Memory::Read8
	mov	rcx, QWORD PTR b$[rsp]
	mov	BYTE PTR [rcx], al
	jmp	SHORT $LN2@arithmetic
$LN3@arithmetic:

; 131  :     } else if (mode == 2) {

	xor	eax, eax
	test	eax, eax
	je	SHORT $LN1@arithmetic

; 132  :       a = reg.raw8[dest];

	mov	eax, 1
	imul	rax, 1
	mov	rcx, QWORD PTR a$[rsp]
	mov	rdx, QWORD PTR this$[rsp]
	movzx	eax, BYTE PTR [rdx+rax+2096]
	mov	BYTE PTR [rcx], al

; 133  :       b = mem_->Read8(reg.PC++);

	mov	rax, QWORD PTR this$[rsp]
	movzx	eax, WORD PTR [rax+2106]
	mov	WORD PTR tv133[rsp], ax
	mov	rax, QWORD PTR this$[rsp]
	movzx	eax, WORD PTR [rax+2106]
	inc	ax
	mov	rcx, QWORD PTR this$[rsp]
	mov	WORD PTR [rcx+2106], ax
	movzx	edx, WORD PTR tv133[rsp]
	mov	rax, QWORD PTR this$[rsp]
	mov	rcx, QWORD PTR [rax+2112]
	call	?Read8@Memory@gb@emulation@@QEAAEG@Z	; emulation::gb::Memory::Read8
	mov	rcx, QWORD PTR b$[rsp]
	mov	BYTE PTR [rcx], al
$LN1@arithmetic:
$LN2@arithmetic:
$LN4@arithmetic:

; 134  :     }
; 135  :   }

	add	rsp, 48					; 00000030H
	pop	rdi
	ret	0
??$arithmeticMode@$00$04$0A@@Cpu@gb@emulation@@AEAAXAEAE0@Z ENDP ; emulation::gb::Cpu::arithmeticMode<1,5,0>
_TEXT	ENDS
; Function compile flags: /Odtp /RTCsu
; File d:\personal\projects\gbemu\solution\code\emulation\gb\cpu.h
;	COMDAT ??$arithmeticMode@$00$01$0A@@Cpu@gb@emulation@@AEAAXAEAE0@Z
_TEXT	SEGMENT
tv133 = 32
this$ = 64
a$ = 72
b$ = 80
??$arithmeticMode@$00$01$0A@@Cpu@gb@emulation@@AEAAXAEAE0@Z PROC ; emulation::gb::Cpu::arithmeticMode<1,2,0>, COMDAT

; 124  :   void arithmeticMode(uint8_t& a, uint8_t& b) {

$LN8:
	mov	QWORD PTR [rsp+24], r8
	mov	QWORD PTR [rsp+16], rdx
	mov	QWORD PTR [rsp+8], rcx
	push	rdi
	sub	rsp, 48					; 00000030H
	mov	rdi, rsp
	mov	ecx, 12
	mov	eax, -858993460				; ccccccccH
	rep stosd
	mov	rcx, QWORD PTR [rsp+64]

; 125  : 	  if (mode == 0) {

	xor	eax, eax
	cmp	eax, 1
	je	SHORT $LN5@arithmetic

; 126  :       a = reg.raw8[dest];

	mov	eax, 1
	imul	rax, 1
	mov	rcx, QWORD PTR a$[rsp]
	mov	rdx, QWORD PTR this$[rsp]
	movzx	eax, BYTE PTR [rdx+rax+2096]
	mov	BYTE PTR [rcx], al

; 127  :       b = reg.raw8[src];

	mov	eax, 1
	imul	rax, 2
	mov	rcx, QWORD PTR b$[rsp]
	mov	rdx, QWORD PTR this$[rsp]
	movzx	eax, BYTE PTR [rdx+rax+2096]
	mov	BYTE PTR [rcx], al
	jmp	$LN4@arithmetic
$LN5@arithmetic:

; 128  :     } else if (mode == 1) {

	xor	eax, eax
	test	eax, eax
	je	SHORT $LN3@arithmetic

; 129  :       a = reg.raw8[dest];

	mov	eax, 1
	imul	rax, 1
	mov	rcx, QWORD PTR a$[rsp]
	mov	rdx, QWORD PTR this$[rsp]
	movzx	eax, BYTE PTR [rdx+rax+2096]
	mov	BYTE PTR [rcx], al

; 130  :       b = mem_->Read8(reg.raw16[src]);

	mov	eax, 2
	imul	rax, 2
	mov	rcx, QWORD PTR this$[rsp]
	movzx	edx, WORD PTR [rcx+rax+2096]
	mov	rax, QWORD PTR this$[rsp]
	mov	rcx, QWORD PTR [rax+2112]
	call	?Read8@Memory@gb@emulation@@QEAAEG@Z	; emulation::gb::Memory::Read8
	mov	rcx, QWORD PTR b$[rsp]
	mov	BYTE PTR [rcx], al
	jmp	SHORT $LN2@arithmetic
$LN3@arithmetic:

; 131  :     } else if (mode == 2) {

	xor	eax, eax
	test	eax, eax
	je	SHORT $LN1@arithmetic

; 132  :       a = reg.raw8[dest];

	mov	eax, 1
	imul	rax, 1
	mov	rcx, QWORD PTR a$[rsp]
	mov	rdx, QWORD PTR this$[rsp]
	movzx	eax, BYTE PTR [rdx+rax+2096]
	mov	BYTE PTR [rcx], al

; 133  :       b = mem_->Read8(reg.PC++);

	mov	rax, QWORD PTR this$[rsp]
	movzx	eax, WORD PTR [rax+2106]
	mov	WORD PTR tv133[rsp], ax
	mov	rax, QWORD PTR this$[rsp]
	movzx	eax, WORD PTR [rax+2106]
	inc	ax
	mov	rcx, QWORD PTR this$[rsp]
	mov	WORD PTR [rcx+2106], ax
	movzx	edx, WORD PTR tv133[rsp]
	mov	rax, QWORD PTR this$[rsp]
	mov	rcx, QWORD PTR [rax+2112]
	call	?Read8@Memory@gb@emulation@@QEAAEG@Z	; emulation::gb::Memory::Read8
	mov	rcx, QWORD PTR b$[rsp]
	mov	BYTE PTR [rcx], al
$LN1@arithmetic:
$LN2@arithmetic:
$LN4@arithmetic:

; 134  :     }
; 135  :   }

	add	rsp, 48					; 00000030H
	pop	rdi
	ret	0
??$arithmeticMode@$00$01$0A@@Cpu@gb@emulation@@AEAAXAEAE0@Z ENDP ; emulation::gb::Cpu::arithmeticMode<1,2,0>
_TEXT	ENDS
; Function compile flags: /Odtp /RTCsu
; File d:\personal\projects\gbemu\solution\code\emulation\gb\cpu.h
;	COMDAT ??$arithmeticMode@$00$02$0A@@Cpu@gb@emulation@@AEAAXAEAE0@Z
_TEXT	SEGMENT
tv133 = 32
this$ = 64
a$ = 72
b$ = 80
??$arithmeticMode@$00$02$0A@@Cpu@gb@emulation@@AEAAXAEAE0@Z PROC ; emulation::gb::Cpu::arithmeticMode<1,3,0>, COMDAT

; 124  :   void arithmeticMode(uint8_t& a, uint8_t& b) {

$LN8:
	mov	QWORD PTR [rsp+24], r8
	mov	QWORD PTR [rsp+16], rdx
	mov	QWORD PTR [rsp+8], rcx
	push	rdi
	sub	rsp, 48					; 00000030H
	mov	rdi, rsp
	mov	ecx, 12
	mov	eax, -858993460				; ccccccccH
	rep stosd
	mov	rcx, QWORD PTR [rsp+64]

; 125  : 	  if (mode == 0) {

	xor	eax, eax
	cmp	eax, 1
	je	SHORT $LN5@arithmetic

; 126  :       a = reg.raw8[dest];

	mov	eax, 1
	imul	rax, 1
	mov	rcx, QWORD PTR a$[rsp]
	mov	rdx, QWORD PTR this$[rsp]
	movzx	eax, BYTE PTR [rdx+rax+2096]
	mov	BYTE PTR [rcx], al

; 127  :       b = reg.raw8[src];

	mov	eax, 1
	imul	rax, 3
	mov	rcx, QWORD PTR b$[rsp]
	mov	rdx, QWORD PTR this$[rsp]
	movzx	eax, BYTE PTR [rdx+rax+2096]
	mov	BYTE PTR [rcx], al
	jmp	$LN4@arithmetic
$LN5@arithmetic:

; 128  :     } else if (mode == 1) {

	xor	eax, eax
	test	eax, eax
	je	SHORT $LN3@arithmetic

; 129  :       a = reg.raw8[dest];

	mov	eax, 1
	imul	rax, 1
	mov	rcx, QWORD PTR a$[rsp]
	mov	rdx, QWORD PTR this$[rsp]
	movzx	eax, BYTE PTR [rdx+rax+2096]
	mov	BYTE PTR [rcx], al

; 130  :       b = mem_->Read8(reg.raw16[src]);

	mov	eax, 2
	imul	rax, 3
	mov	rcx, QWORD PTR this$[rsp]
	movzx	edx, WORD PTR [rcx+rax+2096]
	mov	rax, QWORD PTR this$[rsp]
	mov	rcx, QWORD PTR [rax+2112]
	call	?Read8@Memory@gb@emulation@@QEAAEG@Z	; emulation::gb::Memory::Read8
	mov	rcx, QWORD PTR b$[rsp]
	mov	BYTE PTR [rcx], al
	jmp	SHORT $LN2@arithmetic
$LN3@arithmetic:

; 131  :     } else if (mode == 2) {

	xor	eax, eax
	test	eax, eax
	je	SHORT $LN1@arithmetic

; 132  :       a = reg.raw8[dest];

	mov	eax, 1
	imul	rax, 1
	mov	rcx, QWORD PTR a$[rsp]
	mov	rdx, QWORD PTR this$[rsp]
	movzx	eax, BYTE PTR [rdx+rax+2096]
	mov	BYTE PTR [rcx], al

; 133  :       b = mem_->Read8(reg.PC++);

	mov	rax, QWORD PTR this$[rsp]
	movzx	eax, WORD PTR [rax+2106]
	mov	WORD PTR tv133[rsp], ax
	mov	rax, QWORD PTR this$[rsp]
	movzx	eax, WORD PTR [rax+2106]
	inc	ax
	mov	rcx, QWORD PTR this$[rsp]
	mov	WORD PTR [rcx+2106], ax
	movzx	edx, WORD PTR tv133[rsp]
	mov	rax, QWORD PTR this$[rsp]
	mov	rcx, QWORD PTR [rax+2112]
	call	?Read8@Memory@gb@emulation@@QEAAEG@Z	; emulation::gb::Memory::Read8
	mov	rcx, QWORD PTR b$[rsp]
	mov	BYTE PTR [rcx], al
$LN1@arithmetic:
$LN2@arithmetic:
$LN4@arithmetic:

; 134  :     }
; 135  :   }

	add	rsp, 48					; 00000030H
	pop	rdi
	ret	0
??$arithmeticMode@$00$02$0A@@Cpu@gb@emulation@@AEAAXAEAE0@Z ENDP ; emulation::gb::Cpu::arithmeticMode<1,3,0>
_TEXT	ENDS
; Function compile flags: /Odtp /RTCsu
; File d:\personal\projects\gbemu\solution\code\emulation\gb\cpu.cpp
_TEXT	SEGMENT
this$ = 48
r$ = 56
??R<lambda_dcf6fcf4240e7a010887eba0f732f129>@@QEBAXE@Z PROC ; <lambda_dcf6fcf4240e7a010887eba0f732f129>::operator()

; 656  :   auto setr = [=](uint8_t r) {

	mov	BYTE PTR [rsp+16], dl
	mov	QWORD PTR [rsp+8], rcx
	push	rdi
	sub	rsp, 32					; 00000020H
	mov	rdi, rsp
	mov	ecx, 8
	mov	eax, -858993460				; ccccccccH
	rep stosd
	mov	rcx, QWORD PTR [rsp+48]

; 657  :     if ((code&0x7) != 6) {

	mov	rax, QWORD PTR this$[rsp]
	movzx	eax, BYTE PTR [rax]
	and	eax, 7
	cmp	eax, 6
	je	SHORT $LN2@operator

; 658  :       reg.raw8[reg_index[code&0x7]] = r;

	mov	rax, QWORD PTR this$[rsp]
	mov	rax, QWORD PTR [rax+8]
	mov	rcx, QWORD PTR this$[rsp]
	movzx	ecx, BYTE PTR [rcx]
	and	ecx, 7
	movsxd	rcx, ecx
	lea	rdx, OFFSET FLAT:reg_index
	movsxd	rcx, DWORD PTR [rdx+rcx*4]
	movzx	edx, BYTE PTR r$[rsp]
	mov	BYTE PTR [rax+rcx+2096], dl

; 659  :     } else {

	jmp	SHORT $LN1@operator
$LN2@operator:

; 660  :       mem_->Write8(reg.HL,r);

	mov	rax, QWORD PTR this$[rsp]
	mov	rax, QWORD PTR [rax+8]
	mov	rcx, QWORD PTR this$[rsp]
	mov	rcx, QWORD PTR [rcx+8]
	movzx	r8d, BYTE PTR r$[rsp]
	movzx	edx, WORD PTR [rax+2102]
	mov	rcx, QWORD PTR [rcx+2112]
	call	?Write8@Memory@gb@emulation@@QEAAXGE@Z	; emulation::gb::Memory::Write8
$LN1@operator:

; 661  :     }
; 662  :   };

	add	rsp, 32					; 00000020H
	pop	rdi
	ret	0
??R<lambda_dcf6fcf4240e7a010887eba0f732f129>@@QEBAXE@Z ENDP ; <lambda_dcf6fcf4240e7a010887eba0f732f129>::operator()
_TEXT	ENDS
; Function compile flags: /Odtp /RTCsu
; File d:\personal\projects\gbemu\solution\code\emulation\gb\cpu.cpp
_TEXT	SEGMENT
this$ = 16
_Code$ = 24
_This$ = 32
??0<lambda_dcf6fcf4240e7a010887eba0f732f129>@@QEAA@AEBEPEAVCpu@gb@emulation@@@Z PROC ; <lambda_dcf6fcf4240e7a010887eba0f732f129>::<lambda_dcf6fcf4240e7a010887eba0f732f129>

; 662  :   };

	mov	QWORD PTR [rsp+24], r8
	mov	QWORD PTR [rsp+16], rdx
	mov	QWORD PTR [rsp+8], rcx
	push	rdi
	mov	rax, QWORD PTR this$[rsp]
	mov	rcx, QWORD PTR _Code$[rsp]
	movzx	ecx, BYTE PTR [rcx]
	mov	BYTE PTR [rax], cl
	mov	rax, QWORD PTR this$[rsp]
	mov	rcx, QWORD PTR _This$[rsp]
	mov	QWORD PTR [rax+8], rcx
	mov	rax, QWORD PTR this$[rsp]
	pop	rdi
	ret	0
??0<lambda_dcf6fcf4240e7a010887eba0f732f129>@@QEAA@AEBEPEAVCpu@gb@emulation@@@Z ENDP ; <lambda_dcf6fcf4240e7a010887eba0f732f129>::<lambda_dcf6fcf4240e7a010887eba0f732f129>
_TEXT	ENDS
; Function compile flags: /Odtp /RTCsu
; File d:\personal\projects\gbemu\solution\code\emulation\gb\cpu.cpp
_TEXT	SEGMENT
this$ = 48
??R<lambda_e6006dac0a8482b356b9f0c5ff6de944>@@QEBAEXZ PROC ; <lambda_e6006dac0a8482b356b9f0c5ff6de944>::operator()

; 647  :   auto getr = [=]() {

	mov	QWORD PTR [rsp+8], rcx
	push	rdi
	sub	rsp, 32					; 00000020H
	mov	rdi, rsp
	mov	ecx, 8
	mov	eax, -858993460				; ccccccccH
	rep stosd
	mov	rcx, QWORD PTR [rsp+48]

; 648  :     if ((code&0x7) != 6) {

	mov	rax, QWORD PTR this$[rsp]
	movzx	eax, BYTE PTR [rax]
	and	eax, 7
	cmp	eax, 6
	je	SHORT $LN2@operator

; 649  :       return reg.raw8[reg_index[code&0x7]];

	mov	rax, QWORD PTR this$[rsp]
	mov	rax, QWORD PTR [rax+8]
	mov	rcx, QWORD PTR this$[rsp]
	movzx	ecx, BYTE PTR [rcx]
	and	ecx, 7
	movsxd	rcx, ecx
	lea	rdx, OFFSET FLAT:reg_index
	movsxd	rcx, DWORD PTR [rdx+rcx*4]
	movzx	eax, BYTE PTR [rax+rcx+2096]
	jmp	SHORT $LN3@operator

; 650  :     } else {

	jmp	SHORT $LN1@operator
$LN2@operator:

; 651  : 
; 652  :       return mem_->Read8(reg.HL);

	mov	rax, QWORD PTR this$[rsp]
	mov	rax, QWORD PTR [rax+8]
	mov	rcx, QWORD PTR this$[rsp]
	mov	rcx, QWORD PTR [rcx+8]
	movzx	edx, WORD PTR [rax+2102]
	mov	rcx, QWORD PTR [rcx+2112]
	call	?Read8@Memory@gb@emulation@@QEAAEG@Z	; emulation::gb::Memory::Read8
$LN1@operator:
$LN3@operator:

; 653  :     }
; 654  :   };

	add	rsp, 32					; 00000020H
	pop	rdi
	ret	0
??R<lambda_e6006dac0a8482b356b9f0c5ff6de944>@@QEBAEXZ ENDP ; <lambda_e6006dac0a8482b356b9f0c5ff6de944>::operator()
_TEXT	ENDS
; Function compile flags: /Odtp /RTCsu
; File d:\personal\projects\gbemu\solution\code\emulation\gb\cpu.cpp
_TEXT	SEGMENT
this$ = 16
_Code$ = 24
_This$ = 32
??0<lambda_e6006dac0a8482b356b9f0c5ff6de944>@@QEAA@AEBEPEAVCpu@gb@emulation@@@Z PROC ; <lambda_e6006dac0a8482b356b9f0c5ff6de944>::<lambda_e6006dac0a8482b356b9f0c5ff6de944>

; 654  :   };

	mov	QWORD PTR [rsp+24], r8
	mov	QWORD PTR [rsp+16], rdx
	mov	QWORD PTR [rsp+8], rcx
	push	rdi
	mov	rax, QWORD PTR this$[rsp]
	mov	rcx, QWORD PTR _Code$[rsp]
	movzx	ecx, BYTE PTR [rcx]
	mov	BYTE PTR [rax], cl
	mov	rax, QWORD PTR this$[rsp]
	mov	rcx, QWORD PTR _This$[rsp]
	mov	QWORD PTR [rax+8], rcx
	mov	rax, QWORD PTR this$[rsp]
	pop	rdi
	ret	0
??0<lambda_e6006dac0a8482b356b9f0c5ff6de944>@@QEAA@AEBEPEAVCpu@gb@emulation@@@Z ENDP ; <lambda_e6006dac0a8482b356b9f0c5ff6de944>::<lambda_e6006dac0a8482b356b9f0c5ff6de944>
_TEXT	ENDS
; Function compile flags: /Odtp /RTCsu
; File d:\personal\projects\gbemu\solution\code\emulation\gb\cpu.cpp
;	COMDAT ??$LD@$00$0A@$0P@@Cpu@gb@emulation@@AEAAXXZ
_TEXT	SEGMENT
d8$1 = 32
a8$2 = 33
a8$3 = 34
d16$4 = 36
d16$5 = 40
tv79 = 44
tv92 = 46
tv145 = 48
tv169 = 50
tv193 = 52
tv206 = 54
tv232 = 56
tv245 = 58
this$ = 80
??$LD@$00$0A@$0P@@Cpu@gb@emulation@@AEAAXXZ PROC	; emulation::gb::Cpu::LD<1,0,15>, COMDAT

; 446  : void Cpu::LD() {

$LN14:
	mov	QWORD PTR [rsp+8], rcx
	push	rdi
	sub	rsp, 64					; 00000040H
	mov	rdi, rsp
	mov	ecx, 16
	mov	eax, -858993460				; ccccccccH
	rep stosd
	mov	rcx, QWORD PTR [rsp+80]

; 447  :   if (mode == 10) { //dest,d8

	xor	eax, eax
	test	eax, eax
	je	SHORT $LN11@LD

; 448  : 		reg.raw8[dest] = mem_->Read8(reg.PC++);

	mov	rax, QWORD PTR this$[rsp]
	movzx	eax, WORD PTR [rax+2106]
	mov	WORD PTR tv79[rsp], ax
	mov	rax, QWORD PTR this$[rsp]
	movzx	eax, WORD PTR [rax+2106]
	inc	ax
	mov	rcx, QWORD PTR this$[rsp]
	mov	WORD PTR [rcx+2106], ax
	movzx	edx, WORD PTR tv79[rsp]
	mov	rax, QWORD PTR this$[rsp]
	mov	rcx, QWORD PTR [rax+2112]
	call	?Read8@Memory@gb@emulation@@QEAAEG@Z	; emulation::gb::Memory::Read8
	mov	ecx, 1
	imul	rcx, 1
	mov	rdx, QWORD PTR this$[rsp]
	mov	BYTE PTR [rdx+rcx+2096], al
	jmp	$LN10@LD
$LN11@LD:

; 449  : 	}else if (mode == 11) { //(dest),d8

	xor	eax, eax
	test	eax, eax
	je	SHORT $LN9@LD

; 450  : 		auto d8 = mem_->Read8(reg.PC++);

	mov	rax, QWORD PTR this$[rsp]
	movzx	eax, WORD PTR [rax+2106]
	mov	WORD PTR tv92[rsp], ax
	mov	rax, QWORD PTR this$[rsp]
	movzx	eax, WORD PTR [rax+2106]
	inc	ax
	mov	rcx, QWORD PTR this$[rsp]
	mov	WORD PTR [rcx+2106], ax
	movzx	edx, WORD PTR tv92[rsp]
	mov	rax, QWORD PTR this$[rsp]
	mov	rcx, QWORD PTR [rax+2112]
	call	?Read8@Memory@gb@emulation@@QEAAEG@Z	; emulation::gb::Memory::Read8
	mov	BYTE PTR d8$1[rsp], al

; 451  : 		mem_->Write8(reg.raw16[dest],d8);

	mov	eax, 2
	imul	rax, 1
	movzx	r8d, BYTE PTR d8$1[rsp]
	mov	rcx, QWORD PTR this$[rsp]
	movzx	edx, WORD PTR [rcx+rax+2096]
	mov	rax, QWORD PTR this$[rsp]
	mov	rcx, QWORD PTR [rax+2112]
	call	?Write8@Memory@gb@emulation@@QEAAXGE@Z	; emulation::gb::Memory::Write8
	jmp	$LN8@LD
$LN9@LD:

; 452  : 	} else if (mode == 12) { //0xFF00+d8 src

	xor	eax, eax
	test	eax, eax
	je	$LN7@LD

; 453  :     uint8_t a8 = mem_->Read8(reg.PC++);

	mov	rax, QWORD PTR this$[rsp]
	movzx	eax, WORD PTR [rax+2106]
	mov	WORD PTR tv145[rsp], ax
	mov	rax, QWORD PTR this$[rsp]
	movzx	eax, WORD PTR [rax+2106]
	inc	ax
	mov	rcx, QWORD PTR this$[rsp]
	mov	WORD PTR [rcx+2106], ax
	movzx	edx, WORD PTR tv145[rsp]
	mov	rax, QWORD PTR this$[rsp]
	mov	rcx, QWORD PTR [rax+2112]
	call	?Read8@Memory@gb@emulation@@QEAAEG@Z	; emulation::gb::Memory::Read8
	mov	BYTE PTR a8$2[rsp], al

; 454  : 		mem_->Write8(0xFF00+a8,reg.raw8[src]);

	mov	eax, 1
	imul	rax, 0
	movzx	ecx, BYTE PTR a8$2[rsp]
	add	ecx, 65280				; 0000ff00H
	mov	rdx, QWORD PTR this$[rsp]
	movzx	r8d, BYTE PTR [rdx+rax+2096]
	movzx	edx, cx
	mov	rax, QWORD PTR this$[rsp]
	mov	rcx, QWORD PTR [rax+2112]
	call	?Write8@Memory@gb@emulation@@QEAAXGE@Z	; emulation::gb::Memory::Write8
	jmp	$LN6@LD
$LN7@LD:

; 455  : 	} else if (mode == 13) { //dest,0xFF00+d8 

	xor	eax, eax
	test	eax, eax
	je	SHORT $LN5@LD

; 456  :     uint8_t a8 = mem_->Read8(reg.PC++);

	mov	rax, QWORD PTR this$[rsp]
	movzx	eax, WORD PTR [rax+2106]
	mov	WORD PTR tv169[rsp], ax
	mov	rax, QWORD PTR this$[rsp]
	movzx	eax, WORD PTR [rax+2106]
	inc	ax
	mov	rcx, QWORD PTR this$[rsp]
	mov	WORD PTR [rcx+2106], ax
	movzx	edx, WORD PTR tv169[rsp]
	mov	rax, QWORD PTR this$[rsp]
	mov	rcx, QWORD PTR [rax+2112]
	call	?Read8@Memory@gb@emulation@@QEAAEG@Z	; emulation::gb::Memory::Read8
	mov	BYTE PTR a8$3[rsp], al

; 457  : 		reg.raw8[dest] = mem_->Read8(0xFF00+a8);

	movzx	eax, BYTE PTR a8$3[rsp]
	add	eax, 65280				; 0000ff00H
	movzx	edx, ax
	mov	rax, QWORD PTR this$[rsp]
	mov	rcx, QWORD PTR [rax+2112]
	call	?Read8@Memory@gb@emulation@@QEAAEG@Z	; emulation::gb::Memory::Read8
	mov	ecx, 1
	imul	rcx, 1
	mov	rdx, QWORD PTR this$[rsp]
	mov	BYTE PTR [rdx+rcx+2096], al
	jmp	$LN4@LD
$LN5@LD:

; 458  : 	} else if (mode == 14) { //(d16),src

	xor	eax, eax
	test	eax, eax
	je	$LN3@LD

; 459  : 		uint16_t d16 = mem_->Read8(reg.PC++);

	mov	rax, QWORD PTR this$[rsp]
	movzx	eax, WORD PTR [rax+2106]
	mov	WORD PTR tv193[rsp], ax
	mov	rax, QWORD PTR this$[rsp]
	movzx	eax, WORD PTR [rax+2106]
	inc	ax
	mov	rcx, QWORD PTR this$[rsp]
	mov	WORD PTR [rcx+2106], ax
	movzx	edx, WORD PTR tv193[rsp]
	mov	rax, QWORD PTR this$[rsp]
	mov	rcx, QWORD PTR [rax+2112]
	call	?Read8@Memory@gb@emulation@@QEAAEG@Z	; emulation::gb::Memory::Read8
	movzx	eax, al
	mov	WORD PTR d16$4[rsp], ax

; 460  : 		d16 |= (mem_->Read8(reg.PC++))<<8;

	mov	rax, QWORD PTR this$[rsp]
	movzx	eax, WORD PTR [rax+2106]
	mov	WORD PTR tv206[rsp], ax
	mov	rax, QWORD PTR this$[rsp]
	movzx	eax, WORD PTR [rax+2106]
	inc	ax
	mov	rcx, QWORD PTR this$[rsp]
	mov	WORD PTR [rcx+2106], ax
	movzx	edx, WORD PTR tv206[rsp]
	mov	rax, QWORD PTR this$[rsp]
	mov	rcx, QWORD PTR [rax+2112]
	call	?Read8@Memory@gb@emulation@@QEAAEG@Z	; emulation::gb::Memory::Read8
	movzx	eax, al
	shl	eax, 8
	movzx	ecx, WORD PTR d16$4[rsp]
	or	ecx, eax
	mov	eax, ecx
	mov	WORD PTR d16$4[rsp], ax

; 461  :     mem_->Write8(d16,reg.raw8[src]);

	mov	eax, 1
	imul	rax, 0
	mov	rcx, QWORD PTR this$[rsp]
	movzx	r8d, BYTE PTR [rcx+rax+2096]
	movzx	edx, WORD PTR d16$4[rsp]
	mov	rax, QWORD PTR this$[rsp]
	mov	rcx, QWORD PTR [rax+2112]
	call	?Write8@Memory@gb@emulation@@QEAAXGE@Z	; emulation::gb::Memory::Write8
	jmp	$LN2@LD
$LN3@LD:

; 462  : 	} else if (mode == 15) { //src,(d16)

	xor	eax, eax
	cmp	eax, 1
	je	$LN1@LD

; 463  : 		uint16_t d16 = mem_->Read8(reg.PC++);

	mov	rax, QWORD PTR this$[rsp]
	movzx	eax, WORD PTR [rax+2106]
	mov	WORD PTR tv232[rsp], ax
	mov	rax, QWORD PTR this$[rsp]
	movzx	eax, WORD PTR [rax+2106]
	inc	ax
	mov	rcx, QWORD PTR this$[rsp]
	mov	WORD PTR [rcx+2106], ax
	movzx	edx, WORD PTR tv232[rsp]
	mov	rax, QWORD PTR this$[rsp]
	mov	rcx, QWORD PTR [rax+2112]
	call	?Read8@Memory@gb@emulation@@QEAAEG@Z	; emulation::gb::Memory::Read8
	movzx	eax, al
	mov	WORD PTR d16$5[rsp], ax

; 464  : 		d16 |= (mem_->Read8(reg.PC++))<<8;

	mov	rax, QWORD PTR this$[rsp]
	movzx	eax, WORD PTR [rax+2106]
	mov	WORD PTR tv245[rsp], ax
	mov	rax, QWORD PTR this$[rsp]
	movzx	eax, WORD PTR [rax+2106]
	inc	ax
	mov	rcx, QWORD PTR this$[rsp]
	mov	WORD PTR [rcx+2106], ax
	movzx	edx, WORD PTR tv245[rsp]
	mov	rax, QWORD PTR this$[rsp]
	mov	rcx, QWORD PTR [rax+2112]
	call	?Read8@Memory@gb@emulation@@QEAAEG@Z	; emulation::gb::Memory::Read8
	movzx	eax, al
	shl	eax, 8
	movzx	ecx, WORD PTR d16$5[rsp]
	or	ecx, eax
	mov	eax, ecx
	mov	WORD PTR d16$5[rsp], ax

; 465  :     reg.raw8[dest] = mem_->Read8(d16);

	movzx	edx, WORD PTR d16$5[rsp]
	mov	rax, QWORD PTR this$[rsp]
	mov	rcx, QWORD PTR [rax+2112]
	call	?Read8@Memory@gb@emulation@@QEAAEG@Z	; emulation::gb::Memory::Read8
	mov	ecx, 1
	imul	rcx, 1
	mov	rdx, QWORD PTR this$[rsp]
	mov	BYTE PTR [rdx+rcx+2096], al
$LN1@LD:
$LN2@LD:
$LN4@LD:
$LN6@LD:
$LN8@LD:
$LN10@LD:

; 466  : 	}
; 467  : }

	add	rsp, 64					; 00000040H
	pop	rdi
	ret	0
??$LD@$00$0A@$0P@@Cpu@gb@emulation@@AEAAXXZ ENDP	; emulation::gb::Cpu::LD<1,0,15>
_TEXT	ENDS
; Function compile flags: /Odtp /RTCsu
; File d:\personal\projects\gbemu\solution\code\emulation\gb\cpu.cpp
;	COMDAT ??$OR@$00$0A@$01@Cpu@gb@emulation@@AEAAXXZ
_TEXT	SEGMENT
a$ = 36
b$ = 68
this$ = 112
??$OR@$00$0A@$01@Cpu@gb@emulation@@AEAAXXZ PROC		; emulation::gb::Cpu::OR<1,0,2>, COMDAT

; 608  : void Cpu::OR() {

$LN3:
	mov	QWORD PTR [rsp+8], rcx
	push	rdi
	sub	rsp, 96					; 00000060H
	mov	rdi, rsp
	mov	ecx, 24
	mov	eax, -858993460				; ccccccccH
	rep stosd
	mov	rcx, QWORD PTR [rsp+112]

; 609  :   reg.F.raw = 0;

	mov	rax, QWORD PTR this$[rsp]
	mov	BYTE PTR [rax+2096], 0

; 610  :   uint8_t a=0,b=0;

	mov	BYTE PTR a$[rsp], 0
	mov	BYTE PTR b$[rsp], 0

; 611  :   arithmeticMode<dest,src,mode>(a,b);

	lea	r8, QWORD PTR b$[rsp]
	lea	rdx, QWORD PTR a$[rsp]
	mov	rcx, QWORD PTR this$[rsp]
	call	??$arithmeticMode@$00$0A@$01@Cpu@gb@emulation@@AEAAXAEAE0@Z ; emulation::gb::Cpu::arithmeticMode<1,0,2>

; 612  :   reg.raw8[dest] = a | b;

	movzx	eax, BYTE PTR a$[rsp]
	movzx	ecx, BYTE PTR b$[rsp]
	or	eax, ecx
	mov	ecx, 1
	imul	rcx, 1
	mov	rdx, QWORD PTR this$[rsp]
	mov	BYTE PTR [rdx+rcx+2096], al

; 613  :   updateCpuFlagZ(reg.raw8[dest]);

	mov	eax, 1
	imul	rax, 1
	mov	rcx, QWORD PTR this$[rsp]
	movzx	edx, BYTE PTR [rcx+rax+2096]
	mov	rcx, QWORD PTR this$[rsp]
	call	?updateCpuFlagZ@Cpu@gb@emulation@@AEAAXE@Z ; emulation::gb::Cpu::updateCpuFlagZ

; 614  : }

	mov	rcx, rsp
	lea	rdx, OFFSET FLAT:??$OR@$00$0A@$01@Cpu@gb@emulation@@AEAAXXZ$rtcFrameData
	call	_RTC_CheckStackVars
	add	rsp, 96					; 00000060H
	pop	rdi
	ret	0
??$OR@$00$0A@$01@Cpu@gb@emulation@@AEAAXXZ ENDP		; emulation::gb::Cpu::OR<1,0,2>
_TEXT	ENDS
; Function compile flags: /Odtp /RTCsu
; File d:\personal\projects\gbemu\solution\code\emulation\gb\cpu.cpp
;	COMDAT ??$PUSH@$0A@@Cpu@gb@emulation@@AEAAXXZ
_TEXT	SEGMENT
this$ = 48
??$PUSH@$0A@@Cpu@gb@emulation@@AEAAXXZ PROC		; emulation::gb::Cpu::PUSH<0>, COMDAT

; 903  : void Cpu::PUSH() {

$LN3:
	mov	QWORD PTR [rsp+8], rcx
	push	rdi
	sub	rsp, 32					; 00000020H
	mov	rdi, rsp
	mov	ecx, 8
	mov	eax, -858993460				; ccccccccH
	rep stosd
	mov	rcx, QWORD PTR [rsp+48]

; 904  :   simulateSpriteBug();

	mov	rcx, QWORD PTR this$[rsp]
	call	?simulateSpriteBug@Cpu@gb@emulation@@AEAAXXZ ; emulation::gb::Cpu::simulateSpriteBug

; 905  :   push(reg.raw16[src]>>8);

	mov	eax, 2
	imul	rax, 0
	mov	rcx, QWORD PTR this$[rsp]
	movzx	eax, WORD PTR [rcx+rax+2096]
	sar	eax, 8
	movzx	edx, al
	mov	rcx, QWORD PTR this$[rsp]
