; Listing generated by Microsoft (R) Optimizing Compiler Version 17.00.60610.1 

include listing.inc

INCLUDELIB MSVCRTD
INCLUDELIB OLDNAMES

PUBLIC	?_G2@?$_Ratio_multiply2@U?$ratio@$00$0JIJGIA@@std@@U?$ratio@$0JIJGIA@$00@2@@std@@2_JB ; std::_Ratio_multiply2<std::ratio<1,10000000>,std::ratio<10000000,1> >::_G2
PUBLIC	?value@?$_GcdX@$00$0JIJGIA@@std@@2_JB		; std::_GcdX<1,10000000>::value
PUBLIC	?is_signed@?$numeric_limits@I@std@@2_NB		; std::numeric_limits<unsigned int>::is_signed
PUBLIC	?digits@?$numeric_limits@I@std@@2HB		; std::numeric_limits<unsigned int>::digits
PUBLIC	?value@?$_Gcd@$00$0JIJGIA@@std@@2_JB		; std::_Gcd<1,10000000>::value
PUBLIC	?digits10@?$numeric_limits@I@std@@2HB		; std::numeric_limits<unsigned int>::digits10
PUBLIC	?num@?$ratio@$00$0JIJGIA@@std@@2_JB		; std::ratio<1,10000000>::num
PUBLIC	?den@?$ratio@$00$0JIJGIA@@std@@2_JB		; std::ratio<1,10000000>::den
PUBLIC	?is_signed@?$numeric_limits@J@std@@2_NB		; std::numeric_limits<long>::is_signed
PUBLIC	?num@?$ratio@$00$00@std@@2_JB			; std::ratio<1,1>::num
PUBLIC	?digits@?$numeric_limits@J@std@@2HB		; std::numeric_limits<long>::digits
PUBLIC	?den@?$ratio@$00$00@std@@2_JB			; std::ratio<1,1>::den
PUBLIC	?digits10@?$numeric_limits@J@std@@2HB		; std::numeric_limits<long>::digits10
PUBLIC	?is_signed@?$numeric_limits@K@std@@2_NB		; std::numeric_limits<unsigned long>::is_signed
PUBLIC	?value@?$_Sizeof@HU_Nil@std@@U12@U12@U12@U12@U12@U12@@std@@2_KB ; std::_Sizeof<int,std::_Nil,std::_Nil,std::_Nil,std::_Nil,std::_Nil,std::_Nil,std::_Nil>::value
PUBLIC	?digits@?$numeric_limits@K@std@@2HB		; std::numeric_limits<unsigned long>::digits
PUBLIC	?digits10@?$numeric_limits@K@std@@2HB		; std::numeric_limits<unsigned long>::digits10
PUBLIC	?is_signed@?$numeric_limits@_J@std@@2_NB	; std::numeric_limits<__int64>::is_signed
PUBLIC	?digits@?$numeric_limits@_J@std@@2HB		; std::numeric_limits<__int64>::digits
PUBLIC	?digits10@?$numeric_limits@_J@std@@2HB		; std::numeric_limits<__int64>::digits10
PUBLIC	?is_signed@?$numeric_limits@_K@std@@2_NB	; std::numeric_limits<unsigned __int64>::is_signed
PUBLIC	?digits@?$numeric_limits@_K@std@@2HB		; std::numeric_limits<unsigned __int64>::digits
PUBLIC	?is_monotonic@steady_clock@chrono@std@@2_NB	; std::chrono::steady_clock::is_monotonic
PUBLIC	?is_steady@steady_clock@chrono@std@@2_NB	; std::chrono::steady_clock::is_steady
PUBLIC	?digits10@?$numeric_limits@_K@std@@2HB		; std::numeric_limits<unsigned __int64>::digits10
PUBLIC	?digits@?$numeric_limits@M@std@@2HB		; std::numeric_limits<float>::digits
PUBLIC	?digits10@?$numeric_limits@M@std@@2HB		; std::numeric_limits<float>::digits10
PUBLIC	?max_digits10@?$numeric_limits@M@std@@2HB	; std::numeric_limits<float>::max_digits10
PUBLIC	?max_exponent@?$numeric_limits@M@std@@2HB	; std::numeric_limits<float>::max_exponent
PUBLIC	ConcRT_ProviderGuid
PUBLIC	ConcRTEventGuid
PUBLIC	?max_exponent10@?$numeric_limits@M@std@@2HB	; std::numeric_limits<float>::max_exponent10
PUBLIC	SchedulerEventGuid
PUBLIC	ScheduleGroupEventGuid
PUBLIC	ContextEventGuid
PUBLIC	ChoreEventGuid
PUBLIC	?min_exponent@?$numeric_limits@M@std@@2HB	; std::numeric_limits<float>::min_exponent
PUBLIC	VirtualProcessorEventGuid
PUBLIC	LockEventGuid
PUBLIC	ResourceManagerEventGuid
PUBLIC	PPLParallelInvokeEventGuid
PUBLIC	?min_exponent10@?$numeric_limits@M@std@@2HB	; std::numeric_limits<float>::min_exponent10
PUBLIC	PPLParallelForEventGuid
PUBLIC	PPLParallelForeachEventGuid
PUBLIC	AgentEventGuid
PUBLIC	?digits@?$numeric_limits@N@std@@2HB		; std::numeric_limits<double>::digits
PUBLIC	?digits10@?$numeric_limits@N@std@@2HB		; std::numeric_limits<double>::digits10
PUBLIC	?max_digits10@?$numeric_limits@N@std@@2HB	; std::numeric_limits<double>::max_digits10
PUBLIC	?max_exponent@?$numeric_limits@N@std@@2HB	; std::numeric_limits<double>::max_exponent
PUBLIC	?max_exponent10@?$numeric_limits@N@std@@2HB	; std::numeric_limits<double>::max_exponent10
PUBLIC	?min_exponent@?$numeric_limits@N@std@@2HB	; std::numeric_limits<double>::min_exponent
PUBLIC	?min_exponent10@?$numeric_limits@N@std@@2HB	; std::numeric_limits<double>::min_exponent10
PUBLIC	?digits@?$numeric_limits@O@std@@2HB		; std::numeric_limits<long double>::digits
PUBLIC	?digits10@?$numeric_limits@O@std@@2HB		; std::numeric_limits<long double>::digits10
PUBLIC	?max_digits10@?$numeric_limits@O@std@@2HB	; std::numeric_limits<long double>::max_digits10
PUBLIC	?max_exponent@?$numeric_limits@O@std@@2HB	; std::numeric_limits<long double>::max_exponent
PUBLIC	?max_exponent10@?$numeric_limits@O@std@@2HB	; std::numeric_limits<long double>::max_exponent10
PUBLIC	?min_exponent@?$numeric_limits@O@std@@2HB	; std::numeric_limits<long double>::min_exponent
PUBLIC	?min_exponent10@?$numeric_limits@O@std@@2HB	; std::numeric_limits<long double>::min_exponent10
PUBLIC	?value@?$integral_constant@_K$0A@@std@@2_KB	; std::integral_constant<unsigned __int64,0>::value
PUBLIC	?value@?$integral_constant@H$0A@@std@@2HB	; std::integral_constant<int,0>::value
PUBLIC	?value@?$_Abs@$0GE@@std@@2_JB			; std::_Abs<100>::value
PUBLIC	?value@?$_Abs@$0DLJKMKAA@@std@@2_JB		; std::_Abs<1000000000>::value
PUBLIC	?has_denorm@_Num_base@std@@2W4float_denorm_style@2@B ; std::_Num_base::has_denorm
PUBLIC	?has_denorm_loss@_Num_base@std@@2_NB		; std::_Num_base::has_denorm_loss
PUBLIC	?has_infinity@_Num_base@std@@2_NB		; std::_Num_base::has_infinity
PUBLIC	?has_quiet_NaN@_Num_base@std@@2_NB		; std::_Num_base::has_quiet_NaN
PUBLIC	?_STATE_CLEAR@_CancellationTokenRegistration@details@Concurrency@@0JB ; Concurrency::details::_CancellationTokenRegistration::_STATE_CLEAR
PUBLIC	?_STATE_DEFER_DELETE@_CancellationTokenRegistration@details@Concurrency@@0JB ; Concurrency::details::_CancellationTokenRegistration::_STATE_DEFER_DELETE
PUBLIC	?value@?$_GcdX@$0GE@$0A@@std@@2_JB		; std::_GcdX<100,0>::value
PUBLIC	?has_signaling_NaN@_Num_base@std@@2_NB		; std::_Num_base::has_signaling_NaN
PUBLIC	?_STATE_SYNCHRONIZE@_CancellationTokenRegistration@details@Concurrency@@0JB ; Concurrency::details::_CancellationTokenRegistration::_STATE_SYNCHRONIZE
PUBLIC	?is_bounded@_Num_base@std@@2_NB			; std::_Num_base::is_bounded
PUBLIC	?_STATE_CALLED@_CancellationTokenRegistration@details@Concurrency@@0JB ; Concurrency::details::_CancellationTokenRegistration::_STATE_CALLED
PUBLIC	?is_exact@_Num_base@std@@2_NB			; std::_Num_base::is_exact
PUBLIC	?value@?$_GcdX@$0DLJKMKAA@$0GE@@std@@2_JB	; std::_GcdX<1000000000,100>::value
PUBLIC	?is_iec559@_Num_base@std@@2_NB			; std::_Num_base::is_iec559
PUBLIC	?is_integer@_Num_base@std@@2_NB			; std::_Num_base::is_integer
PUBLIC	?is_modulo@_Num_base@std@@2_NB			; std::_Num_base::is_modulo
PUBLIC	?value@?$_GcdX@$0GE@$0DLJKMKAA@@std@@2_JB	; std::_GcdX<100,1000000000>::value
PUBLIC	?is_signed@_Num_base@std@@2_NB			; std::_Num_base::is_signed
PUBLIC	?is_specialized@_Num_base@std@@2_NB		; std::_Num_base::is_specialized
PUBLIC	?value@?$_Gcd@$0GE@$0DLJKMKAA@@std@@2_JB	; std::_Gcd<100,1000000000>::value
PUBLIC	?tinyness_before@_Num_base@std@@2_NB		; std::_Num_base::tinyness_before
PUBLIC	?traps@_Num_base@std@@2_NB			; std::_Num_base::traps
PUBLIC	?round_style@_Num_base@std@@2W4float_round_style@2@B ; std::_Num_base::round_style
PUBLIC	?_G1@?$_Ratio_multiply2@U?$ratio@$0GE@$00@std@@U?$ratio@$00$0DLJKMKAA@@2@@std@@2_JB ; std::_Ratio_multiply2<std::ratio<100,1>,std::ratio<1,1000000000> >::_G1
PUBLIC	?digits@_Num_base@std@@2HB			; std::_Num_base::digits
PUBLIC	?digits10@_Num_base@std@@2HB			; std::_Num_base::digits10
PUBLIC	?max_digits10@_Num_base@std@@2HB		; std::_Num_base::max_digits10
PUBLIC	?value@?$_Abs@$00@std@@2_JB			; std::_Abs<1>::value
PUBLIC	?max_exponent@_Num_base@std@@2HB		; std::_Num_base::max_exponent
PUBLIC	?max_exponent10@_Num_base@std@@2HB		; std::_Num_base::max_exponent10
PUBLIC	?min_exponent@_Num_base@std@@2HB		; std::_Num_base::min_exponent
PUBLIC	?min_exponent10@_Num_base@std@@2HB		; std::_Num_base::min_exponent10
PUBLIC	?value@?$_GcdX@$00$0A@@std@@2_JB		; std::_GcdX<1,0>::value
PUBLIC	?radix@_Num_base@std@@2HB			; std::_Num_base::radix
PUBLIC	?value@?$_GcdX@$00$00@std@@2_JB			; std::_GcdX<1,1>::value
PUBLIC	?value@?$_Gcd@$00$00@std@@2_JB			; std::_Gcd<1,1>::value
PUBLIC	?_G2@?$_Ratio_multiply2@U?$ratio@$0GE@$00@std@@U?$ratio@$00$0DLJKMKAA@@2@@std@@2_JB ; std::_Ratio_multiply2<std::ratio<100,1>,std::ratio<1,1000000000> >::_G2
PUBLIC	?is_bounded@_Num_int_base@std@@2_NB		; std::_Num_int_base::is_bounded
PUBLIC	?is_exact@_Num_int_base@std@@2_NB		; std::_Num_int_base::is_exact
PUBLIC	?is_integer@_Num_int_base@std@@2_NB		; std::_Num_int_base::is_integer
PUBLIC	?is_modulo@_Num_int_base@std@@2_NB		; std::_Num_int_base::is_modulo
PUBLIC	?is_specialized@_Num_int_base@std@@2_NB		; std::_Num_int_base::is_specialized
PUBLIC	?radix@_Num_int_base@std@@2HB			; std::_Num_int_base::radix
PUBLIC	?value@?$_Sizeof@U_Nil@std@@U12@U12@U12@U12@U12@U12@U12@@std@@2_KB ; std::_Sizeof<std::_Nil,std::_Nil,std::_Nil,std::_Nil,std::_Nil,std::_Nil,std::_Nil,std::_Nil>::value
PUBLIC	?has_denorm@_Num_float_base@std@@2W4float_denorm_style@2@B ; std::_Num_float_base::has_denorm
PUBLIC	?has_denorm_loss@_Num_float_base@std@@2_NB	; std::_Num_float_base::has_denorm_loss
PUBLIC	?is_monotonic@system_clock@chrono@std@@2_NB	; std::chrono::system_clock::is_monotonic
PUBLIC	?has_infinity@_Num_float_base@std@@2_NB		; std::_Num_float_base::has_infinity
PUBLIC	?is_steady@system_clock@chrono@std@@2_NB	; std::chrono::system_clock::is_steady
PUBLIC	?has_quiet_NaN@_Num_float_base@std@@2_NB	; std::_Num_float_base::has_quiet_NaN
PUBLIC	?has_signaling_NaN@_Num_float_base@std@@2_NB	; std::_Num_float_base::has_signaling_NaN
PUBLIC	?is_bounded@_Num_float_base@std@@2_NB		; std::_Num_float_base::is_bounded
PUBLIC	?is_exact@_Num_float_base@std@@2_NB		; std::_Num_float_base::is_exact
PUBLIC	?is_iec559@_Num_float_base@std@@2_NB		; std::_Num_float_base::is_iec559
PUBLIC	?is_integer@_Num_float_base@std@@2_NB		; std::_Num_float_base::is_integer
PUBLIC	?is_modulo@_Num_float_base@std@@2_NB		; std::_Num_float_base::is_modulo
PUBLIC	?is_signed@_Num_float_base@std@@2_NB		; std::_Num_float_base::is_signed
PUBLIC	?is_specialized@_Num_float_base@std@@2_NB	; std::_Num_float_base::is_specialized
PUBLIC	?tinyness_before@_Num_float_base@std@@2_NB	; std::_Num_float_base::tinyness_before
PUBLIC	?traps@_Num_float_base@std@@2_NB		; std::_Num_float_base::traps
PUBLIC	?round_style@_Num_float_base@std@@2W4float_round_style@2@B ; std::_Num_float_base::round_style
PUBLIC	?radix@_Num_float_base@std@@2HB			; std::_Num_float_base::radix
PUBLIC	?is_signed@?$numeric_limits@D@std@@2_NB		; std::numeric_limits<char>::is_signed
PUBLIC	?digits@?$numeric_limits@D@std@@2HB		; std::numeric_limits<char>::digits
PUBLIC	?digits10@?$numeric_limits@D@std@@2HB		; std::numeric_limits<char>::digits10
PUBLIC	?is_signed@?$numeric_limits@_W@std@@2_NB	; std::numeric_limits<wchar_t>::is_signed
PUBLIC	?digits@?$numeric_limits@_W@std@@2HB		; std::numeric_limits<wchar_t>::digits
PUBLIC	?value@?$integral_constant@_N$0A@@std@@2_NB	; std::integral_constant<bool,0>::value
PUBLIC	?digits10@?$numeric_limits@_W@std@@2HB		; std::numeric_limits<wchar_t>::digits10
PUBLIC	?value@?$integral_constant@_N$00@std@@2_NB	; std::integral_constant<bool,1>::value
PUBLIC	?is_modulo@?$numeric_limits@_N@std@@2_NB	; std::numeric_limits<bool>::is_modulo
PUBLIC	?is_signed@?$numeric_limits@_N@std@@2_NB	; std::numeric_limits<bool>::is_signed
PUBLIC	?digits@?$numeric_limits@_N@std@@2HB		; std::numeric_limits<bool>::digits
PUBLIC	?digits10@?$numeric_limits@_N@std@@2HB		; std::numeric_limits<bool>::digits10
PUBLIC	?_S_cancelBitsMask@_TaskCollectionBase@details@Concurrency@@1_KB ; Concurrency::details::_TaskCollectionBase::_S_cancelBitsMask
PUBLIC	?_S_cancelNone@_TaskCollectionBase@details@Concurrency@@1_KB ; Concurrency::details::_TaskCollectionBase::_S_cancelNone
PUBLIC	?_S_cancelStarted@_TaskCollectionBase@details@Concurrency@@1_KB ; Concurrency::details::_TaskCollectionBase::_S_cancelStarted
PUBLIC	?_S_cancelDeferredShootdownOwner@_TaskCollectionBase@details@Concurrency@@1_KB ; Concurrency::details::_TaskCollectionBase::_S_cancelDeferredShootdownOwner
PUBLIC	?_S_cancelShotdownOwner@_TaskCollectionBase@details@Concurrency@@1_KB ; Concurrency::details::_TaskCollectionBase::_S_cancelShotdownOwner
PUBLIC	?is_signed@?$numeric_limits@C@std@@2_NB		; std::numeric_limits<signed char>::is_signed
PUBLIC	?_S_nonNull@_TaskCollectionBase@details@Concurrency@@1_KB ; Concurrency::details::_TaskCollectionBase::_S_nonNull
PUBLIC	?digits@?$numeric_limits@C@std@@2HB		; std::numeric_limits<signed char>::digits
PUBLIC	?_S_cancelException@_TaskCollectionBase@details@Concurrency@@1_KB ; Concurrency::details::_TaskCollectionBase::_S_cancelException
PUBLIC	?_S_notInlined@_TaskCollectionBase@details@Concurrency@@1HB ; Concurrency::details::_TaskCollectionBase::_S_notInlined
PUBLIC	?digits10@?$numeric_limits@C@std@@2HB		; std::numeric_limits<signed char>::digits10
PUBLIC	?_S_structured@_TaskCollectionBase@details@Concurrency@@1HB ; Concurrency::details::_TaskCollectionBase::_S_structured
PUBLIC	?_S_localCancel@_TaskCollectionBase@details@Concurrency@@1HB ; Concurrency::details::_TaskCollectionBase::_S_localCancel
PUBLIC	?_S_reserved@_TaskCollectionBase@details@Concurrency@@1HB ; Concurrency::details::_TaskCollectionBase::_S_reserved
PUBLIC	?is_signed@?$numeric_limits@E@std@@2_NB		; std::numeric_limits<unsigned char>::is_signed
PUBLIC	?digits@?$numeric_limits@E@std@@2HB		; std::numeric_limits<unsigned char>::digits
PUBLIC	?digits10@?$numeric_limits@E@std@@2HB		; std::numeric_limits<unsigned char>::digits10
PUBLIC	?is_signed@?$numeric_limits@F@std@@2_NB		; std::numeric_limits<short>::is_signed
PUBLIC	?digits@?$numeric_limits@F@std@@2HB		; std::numeric_limits<short>::digits
PUBLIC	?digits10@?$numeric_limits@F@std@@2HB		; std::numeric_limits<short>::digits10
PUBLIC	?is_signed@?$numeric_limits@G@std@@2_NB		; std::numeric_limits<unsigned short>::is_signed
PUBLIC	?digits@?$numeric_limits@G@std@@2HB		; std::numeric_limits<unsigned short>::digits
PUBLIC	?digits10@?$numeric_limits@G@std@@2HB		; std::numeric_limits<unsigned short>::digits10
PUBLIC	?_G1@?$_Ratio_multiply2@U?$ratio@$00$0JIJGIA@@std@@U?$ratio@$0JIJGIA@$00@2@@std@@2_JB ; std::_Ratio_multiply2<std::ratio<1,10000000>,std::ratio<10000000,1> >::_G1
PUBLIC	?value@?$_Abs@$0JIJGIA@@std@@2_JB		; std::_Abs<10000000>::value
PUBLIC	?is_signed@?$numeric_limits@H@std@@2_NB		; std::numeric_limits<int>::is_signed
PUBLIC	?digits@?$numeric_limits@H@std@@2HB		; std::numeric_limits<int>::digits
PUBLIC	?value@?$_Is_ratio@U?$ratio@$00$0JIJGIA@@std@@@chrono@std@@2_NB ; std::chrono::_Is_ratio<std::ratio<1,10000000> >::value
PUBLIC	?digits10@?$numeric_limits@H@std@@2HB		; std::numeric_limits<int>::digits10
PUBLIC	?value@?$_GcdX@$0JIJGIA@$0A@@std@@2_JB		; std::_GcdX<10000000,0>::value
PUBLIC	?value@?$_GcdX@$0JIJGIA@$0JIJGIA@@std@@2_JB	; std::_GcdX<10000000,10000000>::value
PUBLIC	?value@?$_GcdX@$0JIJGIA@$00@std@@2_JB		; std::_GcdX<10000000,1>::value
PUBLIC	?value@?$_Gcd@$0JIJGIA@$0JIJGIA@@std@@2_JB	; std::_Gcd<10000000,10000000>::value
;	COMDAT ?value@?$_Gcd@$0JIJGIA@$0JIJGIA@@std@@2_JB
CONST	SEGMENT
?value@?$_Gcd@$0JIJGIA@$0JIJGIA@@std@@2_JB DQ 0000000000989680H ; std::_Gcd<10000000,10000000>::value
CONST	ENDS
;	COMDAT ?value@?$_GcdX@$0JIJGIA@$00@std@@2_JB
CONST	SEGMENT
?value@?$_GcdX@$0JIJGIA@$00@std@@2_JB DQ 0000000000000001H ; std::_GcdX<10000000,1>::value
CONST	ENDS
;	COMDAT ?value@?$_GcdX@$0JIJGIA@$0JIJGIA@@std@@2_JB
CONST	SEGMENT
?value@?$_GcdX@$0JIJGIA@$0JIJGIA@@std@@2_JB DQ 0000000000989680H ; std::_GcdX<10000000,10000000>::value
CONST	ENDS
;	COMDAT ?value@?$_GcdX@$0JIJGIA@$0A@@std@@2_JB
CONST	SEGMENT
?value@?$_GcdX@$0JIJGIA@$0A@@std@@2_JB DQ 0000000000989680H ; std::_GcdX<10000000,0>::value
CONST	ENDS
;	COMDAT ?digits10@?$numeric_limits@H@std@@2HB
CONST	SEGMENT
?digits10@?$numeric_limits@H@std@@2HB DD 09H		; std::numeric_limits<int>::digits10
CONST	ENDS
;	COMDAT ?value@?$_Is_ratio@U?$ratio@$00$0JIJGIA@@std@@@chrono@std@@2_NB
CONST	SEGMENT
?value@?$_Is_ratio@U?$ratio@$00$0JIJGIA@@std@@@chrono@std@@2_NB DB 01H ; std::chrono::_Is_ratio<std::ratio<1,10000000> >::value
CONST	ENDS
;	COMDAT ?digits@?$numeric_limits@H@std@@2HB
CONST	SEGMENT
?digits@?$numeric_limits@H@std@@2HB DD 01fH		; std::numeric_limits<int>::digits
CONST	ENDS
;	COMDAT ?is_signed@?$numeric_limits@H@std@@2_NB
CONST	SEGMENT
?is_signed@?$numeric_limits@H@std@@2_NB DB 01H		; std::numeric_limits<int>::is_signed
CONST	ENDS
;	COMDAT ?value@?$_Abs@$0JIJGIA@@std@@2_JB
CONST	SEGMENT
?value@?$_Abs@$0JIJGIA@@std@@2_JB DQ 0000000000989680H	; std::_Abs<10000000>::value
CONST	ENDS
;	COMDAT ?_G1@?$_Ratio_multiply2@U?$ratio@$00$0JIJGIA@@std@@U?$ratio@$0JIJGIA@$00@2@@std@@2_JB
CONST	SEGMENT
?_G1@?$_Ratio_multiply2@U?$ratio@$00$0JIJGIA@@std@@U?$ratio@$0JIJGIA@$00@2@@std@@2_JB DQ 0000000000000001H ; std::_Ratio_multiply2<std::ratio<1,10000000>,std::ratio<10000000,1> >::_G1
CONST	ENDS
;	COMDAT ?digits10@?$numeric_limits@G@std@@2HB
CONST	SEGMENT
?digits10@?$numeric_limits@G@std@@2HB DD 04H		; std::numeric_limits<unsigned short>::digits10
CONST	ENDS
;	COMDAT ?digits@?$numeric_limits@G@std@@2HB
CONST	SEGMENT
?digits@?$numeric_limits@G@std@@2HB DD 010H		; std::numeric_limits<unsigned short>::digits
CONST	ENDS
;	COMDAT ?is_signed@?$numeric_limits@G@std@@2_NB
CONST	SEGMENT
?is_signed@?$numeric_limits@G@std@@2_NB DB 00H		; std::numeric_limits<unsigned short>::is_signed
CONST	ENDS
;	COMDAT ?digits10@?$numeric_limits@F@std@@2HB
CONST	SEGMENT
?digits10@?$numeric_limits@F@std@@2HB DD 04H		; std::numeric_limits<short>::digits10
CONST	ENDS
;	COMDAT ?digits@?$numeric_limits@F@std@@2HB
CONST	SEGMENT
?digits@?$numeric_limits@F@std@@2HB DD 0fH		; std::numeric_limits<short>::digits
CONST	ENDS
;	COMDAT ?is_signed@?$numeric_limits@F@std@@2_NB
CONST	SEGMENT
?is_signed@?$numeric_limits@F@std@@2_NB DB 01H		; std::numeric_limits<short>::is_signed
CONST	ENDS
;	COMDAT ?digits10@?$numeric_limits@E@std@@2HB
CONST	SEGMENT
?digits10@?$numeric_limits@E@std@@2HB DD 02H		; std::numeric_limits<unsigned char>::digits10
CONST	ENDS
;	COMDAT ?digits@?$numeric_limits@E@std@@2HB
CONST	SEGMENT
?digits@?$numeric_limits@E@std@@2HB DD 08H		; std::numeric_limits<unsigned char>::digits
CONST	ENDS
;	COMDAT ?is_signed@?$numeric_limits@E@std@@2_NB
CONST	SEGMENT
?is_signed@?$numeric_limits@E@std@@2_NB DB 00H		; std::numeric_limits<unsigned char>::is_signed
CONST	ENDS
;	COMDAT ?_S_reserved@_TaskCollectionBase@details@Concurrency@@1HB
CONST	SEGMENT
?_S_reserved@_TaskCollectionBase@details@Concurrency@@1HB DD 0cH ; Concurrency::details::_TaskCollectionBase::_S_reserved
CONST	ENDS
;	COMDAT ?_S_localCancel@_TaskCollectionBase@details@Concurrency@@1HB
CONST	SEGMENT
?_S_localCancel@_TaskCollectionBase@details@Concurrency@@1HB DD 02H ; Concurrency::details::_TaskCollectionBase::_S_localCancel
CONST	ENDS
;	COMDAT ?_S_structured@_TaskCollectionBase@details@Concurrency@@1HB
CONST	SEGMENT
?_S_structured@_TaskCollectionBase@details@Concurrency@@1HB DD 01H ; Concurrency::details::_TaskCollectionBase::_S_structured
CONST	ENDS
;	COMDAT ?digits10@?$numeric_limits@C@std@@2HB
CONST	SEGMENT
?digits10@?$numeric_limits@C@std@@2HB DD 02H		; std::numeric_limits<signed char>::digits10
CONST	ENDS
;	COMDAT ?_S_notInlined@_TaskCollectionBase@details@Concurrency@@1HB
CONST	SEGMENT
?_S_notInlined@_TaskCollectionBase@details@Concurrency@@1HB DD 0ffffffffH ; Concurrency::details::_TaskCollectionBase::_S_notInlined
CONST	ENDS
;	COMDAT ?_S_cancelException@_TaskCollectionBase@details@Concurrency@@1_KB
CONST	SEGMENT
?_S_cancelException@_TaskCollectionBase@details@Concurrency@@1_KB DQ 000000000000000cH ; Concurrency::details::_TaskCollectionBase::_S_cancelException
CONST	ENDS
;	COMDAT ?digits@?$numeric_limits@C@std@@2HB
CONST	SEGMENT
?digits@?$numeric_limits@C@std@@2HB DD 07H		; std::numeric_limits<signed char>::digits
CONST	ENDS
;	COMDAT ?_S_nonNull@_TaskCollectionBase@details@Concurrency@@1_KB
CONST	SEGMENT
?_S_nonNull@_TaskCollectionBase@details@Concurrency@@1_KB DQ 0000000000000008H ; Concurrency::details::_TaskCollectionBase::_S_nonNull
CONST	ENDS
;	COMDAT ?is_signed@?$numeric_limits@C@std@@2_NB
CONST	SEGMENT
?is_signed@?$numeric_limits@C@std@@2_NB DB 01H		; std::numeric_limits<signed char>::is_signed
CONST	ENDS
;	COMDAT ?_S_cancelShotdownOwner@_TaskCollectionBase@details@Concurrency@@1_KB
CONST	SEGMENT
?_S_cancelShotdownOwner@_TaskCollectionBase@details@Concurrency@@1_KB DQ 0000000000000003H ; Concurrency::details::_TaskCollectionBase::_S_cancelShotdownOwner
CONST	ENDS
;	COMDAT ?_S_cancelDeferredShootdownOwner@_TaskCollectionBase@details@Concurrency@@1_KB
CONST	SEGMENT
?_S_cancelDeferredShootdownOwner@_TaskCollectionBase@details@Concurrency@@1_KB DQ 0000000000000002H ; Concurrency::details::_TaskCollectionBase::_S_cancelDeferredShootdownOwner
CONST	ENDS
;	COMDAT ?_S_cancelStarted@_TaskCollectionBase@details@Concurrency@@1_KB
CONST	SEGMENT
?_S_cancelStarted@_TaskCollectionBase@details@Concurrency@@1_KB DQ 0000000000000001H ; Concurrency::details::_TaskCollectionBase::_S_cancelStarted
CONST	ENDS
;	COMDAT ?_S_cancelNone@_TaskCollectionBase@details@Concurrency@@1_KB
CONST	SEGMENT
?_S_cancelNone@_TaskCollectionBase@details@Concurrency@@1_KB DQ 0000000000000000H ; Concurrency::details::_TaskCollectionBase::_S_cancelNone
CONST	ENDS
;	COMDAT ?_S_cancelBitsMask@_TaskCollectionBase@details@Concurrency@@1_KB
CONST	SEGMENT
?_S_cancelBitsMask@_TaskCollectionBase@details@Concurrency@@1_KB DQ 0000000000000003H ; Concurrency::details::_TaskCollectionBase::_S_cancelBitsMask
CONST	ENDS
;	COMDAT ?digits10@?$numeric_limits@_N@std@@2HB
CONST	SEGMENT
?digits10@?$numeric_limits@_N@std@@2HB DD 00H		; std::numeric_limits<bool>::digits10
CONST	ENDS
;	COMDAT ?digits@?$numeric_limits@_N@std@@2HB
CONST	SEGMENT
?digits@?$numeric_limits@_N@std@@2HB DD 01H		; std::numeric_limits<bool>::digits
CONST	ENDS
;	COMDAT ?is_signed@?$numeric_limits@_N@std@@2_NB
CONST	SEGMENT
?is_signed@?$numeric_limits@_N@std@@2_NB DB 00H		; std::numeric_limits<bool>::is_signed
CONST	ENDS
;	COMDAT ?is_modulo@?$numeric_limits@_N@std@@2_NB
CONST	SEGMENT
?is_modulo@?$numeric_limits@_N@std@@2_NB DB 00H		; std::numeric_limits<bool>::is_modulo
CONST	ENDS
;	COMDAT ?value@?$integral_constant@_N$00@std@@2_NB
CONST	SEGMENT
?value@?$integral_constant@_N$00@std@@2_NB DB 01H	; std::integral_constant<bool,1>::value
CONST	ENDS
CONST	SEGMENT
$SG122640 DB	'%0.2f Mhz', 00H
	ORG $+6
dutycycletable DB 00H
	DB	00H
	DB	00H
	DB	00H
	DB	01H
	DB	00H
	DB	00H
	DB	00H
	DB	00H
	DB	00H
	DB	00H
	DB	00H
	DB	01H
	DB	01H
	DB	00H
	DB	00H
	DB	00H
	DB	00H
	DB	01H
	DB	01H
	DB	01H
	DB	01H
	DB	00H
	DB	00H
	DB	01H
	DB	01H
	DB	01H
	DB	01H
	DB	00H
	DB	00H
	DB	01H
	DB	01H
CONST	ENDS
;	COMDAT ?digits10@?$numeric_limits@_W@std@@2HB
CONST	SEGMENT
?digits10@?$numeric_limits@_W@std@@2HB DD 04H		; std::numeric_limits<wchar_t>::digits10
CONST	ENDS
;	COMDAT ?value@?$integral_constant@_N$0A@@std@@2_NB
CONST	SEGMENT
?value@?$integral_constant@_N$0A@@std@@2_NB DB 00H	; std::integral_constant<bool,0>::value
CONST	ENDS
;	COMDAT ?digits@?$numeric_limits@_W@std@@2HB
CONST	SEGMENT
?digits@?$numeric_limits@_W@std@@2HB DD 010H		; std::numeric_limits<wchar_t>::digits
CONST	ENDS
;	COMDAT ?is_signed@?$numeric_limits@_W@std@@2_NB
CONST	SEGMENT
?is_signed@?$numeric_limits@_W@std@@2_NB DB 00H		; std::numeric_limits<wchar_t>::is_signed
CONST	ENDS
;	COMDAT ?digits10@?$numeric_limits@D@std@@2HB
CONST	SEGMENT
?digits10@?$numeric_limits@D@std@@2HB DD 02H		; std::numeric_limits<char>::digits10
CONST	ENDS
;	COMDAT ?digits@?$numeric_limits@D@std@@2HB
CONST	SEGMENT
?digits@?$numeric_limits@D@std@@2HB DD 07H		; std::numeric_limits<char>::digits
CONST	ENDS
;	COMDAT ?is_signed@?$numeric_limits@D@std@@2_NB
CONST	SEGMENT
?is_signed@?$numeric_limits@D@std@@2_NB DB 01H		; std::numeric_limits<char>::is_signed
CONST	ENDS
;	COMDAT ?radix@_Num_float_base@std@@2HB
CONST	SEGMENT
?radix@_Num_float_base@std@@2HB DD 02H			; std::_Num_float_base::radix
CONST	ENDS
;	COMDAT ?round_style@_Num_float_base@std@@2W4float_round_style@2@B
CONST	SEGMENT
?round_style@_Num_float_base@std@@2W4float_round_style@2@B DD 01H ; std::_Num_float_base::round_style
CONST	ENDS
;	COMDAT ?traps@_Num_float_base@std@@2_NB
CONST	SEGMENT
?traps@_Num_float_base@std@@2_NB DB 00H			; std::_Num_float_base::traps
CONST	ENDS
;	COMDAT ?tinyness_before@_Num_float_base@std@@2_NB
CONST	SEGMENT
?tinyness_before@_Num_float_base@std@@2_NB DB 01H	; std::_Num_float_base::tinyness_before
CONST	ENDS
;	COMDAT ?is_specialized@_Num_float_base@std@@2_NB
CONST	SEGMENT
?is_specialized@_Num_float_base@std@@2_NB DB 01H	; std::_Num_float_base::is_specialized
CONST	ENDS
;	COMDAT ?is_signed@_Num_float_base@std@@2_NB
CONST	SEGMENT
?is_signed@_Num_float_base@std@@2_NB DB 01H		; std::_Num_float_base::is_signed
CONST	ENDS
;	COMDAT ?is_modulo@_Num_float_base@std@@2_NB
CONST	SEGMENT
?is_modulo@_Num_float_base@std@@2_NB DB 00H		; std::_Num_float_base::is_modulo
CONST	ENDS
;	COMDAT ?is_integer@_Num_float_base@std@@2_NB
CONST	SEGMENT
?is_integer@_Num_float_base@std@@2_NB DB 00H		; std::_Num_float_base::is_integer
CONST	ENDS
;	COMDAT ?is_iec559@_Num_float_base@std@@2_NB
CONST	SEGMENT
?is_iec559@_Num_float_base@std@@2_NB DB 01H		; std::_Num_float_base::is_iec559
CONST	ENDS
;	COMDAT ?is_exact@_Num_float_base@std@@2_NB
CONST	SEGMENT
?is_exact@_Num_float_base@std@@2_NB DB 00H		; std::_Num_float_base::is_exact
CONST	ENDS
;	COMDAT ?is_bounded@_Num_float_base@std@@2_NB
CONST	SEGMENT
?is_bounded@_Num_float_base@std@@2_NB DB 01H		; std::_Num_float_base::is_bounded
CONST	ENDS
;	COMDAT ?has_signaling_NaN@_Num_float_base@std@@2_NB
CONST	SEGMENT
?has_signaling_NaN@_Num_float_base@std@@2_NB DB 01H	; std::_Num_float_base::has_signaling_NaN
CONST	ENDS
;	COMDAT ?has_quiet_NaN@_Num_float_base@std@@2_NB
CONST	SEGMENT
?has_quiet_NaN@_Num_float_base@std@@2_NB DB 01H		; std::_Num_float_base::has_quiet_NaN
CONST	ENDS
;	COMDAT ?is_steady@system_clock@chrono@std@@2_NB
CONST	SEGMENT
?is_steady@system_clock@chrono@std@@2_NB DB 00H		; std::chrono::system_clock::is_steady
CONST	ENDS
;	COMDAT ?has_infinity@_Num_float_base@std@@2_NB
CONST	SEGMENT
?has_infinity@_Num_float_base@std@@2_NB DB 01H		; std::_Num_float_base::has_infinity
CONST	ENDS
;	COMDAT ?is_monotonic@system_clock@chrono@std@@2_NB
CONST	SEGMENT
?is_monotonic@system_clock@chrono@std@@2_NB DB 00H	; std::chrono::system_clock::is_monotonic
CONST	ENDS
;	COMDAT ?has_denorm_loss@_Num_float_base@std@@2_NB
CONST	SEGMENT
?has_denorm_loss@_Num_float_base@std@@2_NB DB 01H	; std::_Num_float_base::has_denorm_loss
CONST	ENDS
;	COMDAT ?has_denorm@_Num_float_base@std@@2W4float_denorm_style@2@B
CONST	SEGMENT
?has_denorm@_Num_float_base@std@@2W4float_denorm_style@2@B DD 01H ; std::_Num_float_base::has_denorm
CONST	ENDS
;	COMDAT ?value@?$_Sizeof@U_Nil@std@@U12@U12@U12@U12@U12@U12@U12@@std@@2_KB
CONST	SEGMENT
?value@?$_Sizeof@U_Nil@std@@U12@U12@U12@U12@U12@U12@U12@@std@@2_KB DQ 0000000000000000H ; std::_Sizeof<std::_Nil,std::_Nil,std::_Nil,std::_Nil,std::_Nil,std::_Nil,std::_Nil,std::_Nil>::value
CONST	ENDS
;	COMDAT ?radix@_Num_int_base@std@@2HB
CONST	SEGMENT
?radix@_Num_int_base@std@@2HB DD 02H			; std::_Num_int_base::radix
CONST	ENDS
;	COMDAT ?is_specialized@_Num_int_base@std@@2_NB
CONST	SEGMENT
?is_specialized@_Num_int_base@std@@2_NB DB 01H		; std::_Num_int_base::is_specialized
CONST	ENDS
;	COMDAT ?is_modulo@_Num_int_base@std@@2_NB
CONST	SEGMENT
?is_modulo@_Num_int_base@std@@2_NB DB 01H		; std::_Num_int_base::is_modulo
CONST	ENDS
;	COMDAT ?is_integer@_Num_int_base@std@@2_NB
CONST	SEGMENT
?is_integer@_Num_int_base@std@@2_NB DB 01H		; std::_Num_int_base::is_integer
CONST	ENDS
;	COMDAT ?is_exact@_Num_int_base@std@@2_NB
CONST	SEGMENT
?is_exact@_Num_int_base@std@@2_NB DB 01H		; std::_Num_int_base::is_exact
CONST	ENDS
;	COMDAT ?is_bounded@_Num_int_base@std@@2_NB
CONST	SEGMENT
?is_bounded@_Num_int_base@std@@2_NB DB 01H		; std::_Num_int_base::is_bounded
CONST	ENDS
;	COMDAT ?_G2@?$_Ratio_multiply2@U?$ratio@$0GE@$00@std@@U?$ratio@$00$0DLJKMKAA@@2@@std@@2_JB
CONST	SEGMENT
?_G2@?$_Ratio_multiply2@U?$ratio@$0GE@$00@std@@U?$ratio@$00$0DLJKMKAA@@2@@std@@2_JB DQ 0000000000000001H ; std::_Ratio_multiply2<std::ratio<100,1>,std::ratio<1,1000000000> >::_G2
CONST	ENDS
;	COMDAT ?value@?$_Gcd@$00$00@std@@2_JB
CONST	SEGMENT
?value@?$_Gcd@$00$00@std@@2_JB DQ 0000000000000001H	; std::_Gcd<1,1>::value
CONST	ENDS
;	COMDAT ?value@?$_GcdX@$00$00@std@@2_JB
CONST	SEGMENT
?value@?$_GcdX@$00$00@std@@2_JB DQ 0000000000000001H	; std::_GcdX<1,1>::value
CONST	ENDS
;	COMDAT ?radix@_Num_base@std@@2HB
CONST	SEGMENT
?radix@_Num_base@std@@2HB DD 00H			; std::_Num_base::radix
CONST	ENDS
;	COMDAT ?value@?$_GcdX@$00$0A@@std@@2_JB
CONST	SEGMENT
?value@?$_GcdX@$00$0A@@std@@2_JB DQ 0000000000000001H	; std::_GcdX<1,0>::value
CONST	ENDS
;	COMDAT ?min_exponent10@_Num_base@std@@2HB
CONST	SEGMENT
?min_exponent10@_Num_base@std@@2HB DD 00H		; std::_Num_base::min_exponent10
CONST	ENDS
;	COMDAT ?min_exponent@_Num_base@std@@2HB
CONST	SEGMENT
?min_exponent@_Num_base@std@@2HB DD 00H			; std::_Num_base::min_exponent
CONST	ENDS
;	COMDAT ?max_exponent10@_Num_base@std@@2HB
CONST	SEGMENT
?max_exponent10@_Num_base@std@@2HB DD 00H		; std::_Num_base::max_exponent10
CONST	ENDS
;	COMDAT ?max_exponent@_Num_base@std@@2HB
CONST	SEGMENT
?max_exponent@_Num_base@std@@2HB DD 00H			; std::_Num_base::max_exponent
CONST	ENDS
;	COMDAT ?value@?$_Abs@$00@std@@2_JB
CONST	SEGMENT
?value@?$_Abs@$00@std@@2_JB DQ 0000000000000001H	; std::_Abs<1>::value
CONST	ENDS
;	COMDAT ?max_digits10@_Num_base@std@@2HB
CONST	SEGMENT
?max_digits10@_Num_base@std@@2HB DD 00H			; std::_Num_base::max_digits10
CONST	ENDS
;	COMDAT ?digits10@_Num_base@std@@2HB
CONST	SEGMENT
?digits10@_Num_base@std@@2HB DD 00H			; std::_Num_base::digits10
CONST	ENDS
;	COMDAT ?digits@_Num_base@std@@2HB
CONST	SEGMENT
?digits@_Num_base@std@@2HB DD 00H			; std::_Num_base::digits
CONST	ENDS
;	COMDAT ?_G1@?$_Ratio_multiply2@U?$ratio@$0GE@$00@std@@U?$ratio@$00$0DLJKMKAA@@2@@std@@2_JB
CONST	SEGMENT
?_G1@?$_Ratio_multiply2@U?$ratio@$0GE@$00@std@@U?$ratio@$00$0DLJKMKAA@@2@@std@@2_JB DQ 0000000000000064H ; std::_Ratio_multiply2<std::ratio<100,1>,std::ratio<1,1000000000> >::_G1
CONST	ENDS
;	COMDAT ?round_style@_Num_base@std@@2W4float_round_style@2@B
CONST	SEGMENT
?round_style@_Num_base@std@@2W4float_round_style@2@B DD 00H ; std::_Num_base::round_style
CONST	ENDS
;	COMDAT ?traps@_Num_base@std@@2_NB
CONST	SEGMENT
?traps@_Num_base@std@@2_NB DB 00H			; std::_Num_base::traps
CONST	ENDS
;	COMDAT ?tinyness_before@_Num_base@std@@2_NB
CONST	SEGMENT
?tinyness_before@_Num_base@std@@2_NB DB 00H		; std::_Num_base::tinyness_before
CONST	ENDS
;	COMDAT ?value@?$_Gcd@$0GE@$0DLJKMKAA@@std@@2_JB
CONST	SEGMENT
?value@?$_Gcd@$0GE@$0DLJKMKAA@@std@@2_JB DQ 0000000000000064H ; std::_Gcd<100,1000000000>::value
CONST	ENDS
;	COMDAT ?is_specialized@_Num_base@std@@2_NB
CONST	SEGMENT
?is_specialized@_Num_base@std@@2_NB DB 00H		; std::_Num_base::is_specialized
CONST	ENDS
;	COMDAT ?is_signed@_Num_base@std@@2_NB
CONST	SEGMENT
?is_signed@_Num_base@std@@2_NB DB 00H			; std::_Num_base::is_signed
CONST	ENDS
;	COMDAT ?value@?$_GcdX@$0GE@$0DLJKMKAA@@std@@2_JB
CONST	SEGMENT
?value@?$_GcdX@$0GE@$0DLJKMKAA@@std@@2_JB DQ 0000000000000064H ; std::_GcdX<100,1000000000>::value
CONST	ENDS
;	COMDAT ?is_modulo@_Num_base@std@@2_NB
CONST	SEGMENT
?is_modulo@_Num_base@std@@2_NB DB 00H			; std::_Num_base::is_modulo
CONST	ENDS
;	COMDAT ?is_integer@_Num_base@std@@2_NB
CONST	SEGMENT
?is_integer@_Num_base@std@@2_NB DB 00H			; std::_Num_base::is_integer
CONST	ENDS
;	COMDAT ?is_iec559@_Num_base@std@@2_NB
CONST	SEGMENT
?is_iec559@_Num_base@std@@2_NB DB 00H			; std::_Num_base::is_iec559
CONST	ENDS
;	COMDAT ?value@?$_GcdX@$0DLJKMKAA@$0GE@@std@@2_JB
CONST	SEGMENT
?value@?$_GcdX@$0DLJKMKAA@$0GE@@std@@2_JB DQ 0000000000000064H ; std::_GcdX<1000000000,100>::value
CONST	ENDS
;	COMDAT ?is_exact@_Num_base@std@@2_NB
CONST	SEGMENT
?is_exact@_Num_base@std@@2_NB DB 00H			; std::_Num_base::is_exact
CONST	ENDS
;	COMDAT ?_STATE_CALLED@_CancellationTokenRegistration@details@Concurrency@@0JB
CONST	SEGMENT
?_STATE_CALLED@_CancellationTokenRegistration@details@Concurrency@@0JB DD 03H ; Concurrency::details::_CancellationTokenRegistration::_STATE_CALLED
CONST	ENDS
;	COMDAT ?is_bounded@_Num_base@std@@2_NB
CONST	SEGMENT
?is_bounded@_Num_base@std@@2_NB DB 00H			; std::_Num_base::is_bounded
CONST	ENDS
;	COMDAT ?_STATE_SYNCHRONIZE@_CancellationTokenRegistration@details@Concurrency@@0JB
CONST	SEGMENT
?_STATE_SYNCHRONIZE@_CancellationTokenRegistration@details@Concurrency@@0JB DD 02H ; Concurrency::details::_CancellationTokenRegistration::_STATE_SYNCHRONIZE
CONST	ENDS
;	COMDAT ?has_signaling_NaN@_Num_base@std@@2_NB
CONST	SEGMENT
?has_signaling_NaN@_Num_base@std@@2_NB DB 00H		; std::_Num_base::has_signaling_NaN
CONST	ENDS
;	COMDAT ?value@?$_GcdX@$0GE@$0A@@std@@2_JB
CONST	SEGMENT
?value@?$_GcdX@$0GE@$0A@@std@@2_JB DQ 0000000000000064H	; std::_GcdX<100,0>::value
CONST	ENDS
;	COMDAT ?_STATE_DEFER_DELETE@_CancellationTokenRegistration@details@Concurrency@@0JB
CONST	SEGMENT
?_STATE_DEFER_DELETE@_CancellationTokenRegistration@details@Concurrency@@0JB DD 01H ; Concurrency::details::_CancellationTokenRegistration::_STATE_DEFER_DELETE
CONST	ENDS
;	COMDAT ?_STATE_CLEAR@_CancellationTokenRegistration@details@Concurrency@@0JB
CONST	SEGMENT
?_STATE_CLEAR@_CancellationTokenRegistration@details@Concurrency@@0JB DD 00H ; Concurrency::details::_CancellationTokenRegistration::_STATE_CLEAR
CONST	ENDS
;	COMDAT ?has_quiet_NaN@_Num_base@std@@2_NB
CONST	SEGMENT
?has_quiet_NaN@_Num_base@std@@2_NB DB 00H		; std::_Num_base::has_quiet_NaN
CONST	ENDS
;	COMDAT ?has_infinity@_Num_base@std@@2_NB
CONST	SEGMENT
?has_infinity@_Num_base@std@@2_NB DB 00H		; std::_Num_base::has_infinity
CONST	ENDS
;	COMDAT ?has_denorm_loss@_Num_base@std@@2_NB
CONST	SEGMENT
?has_denorm_loss@_Num_base@std@@2_NB DB 00H		; std::_Num_base::has_denorm_loss
CONST	ENDS
;	COMDAT ?has_denorm@_Num_base@std@@2W4float_denorm_style@2@B
CONST	SEGMENT
?has_denorm@_Num_base@std@@2W4float_denorm_style@2@B DD 00H ; std::_Num_base::has_denorm
CONST	ENDS
;	COMDAT ?value@?$_Abs@$0DLJKMKAA@@std@@2_JB
CONST	SEGMENT
?value@?$_Abs@$0DLJKMKAA@@std@@2_JB DQ 000000003b9aca00H ; std::_Abs<1000000000>::value
CONST	ENDS
;	COMDAT ?value@?$_Abs@$0GE@@std@@2_JB
CONST	SEGMENT
?value@?$_Abs@$0GE@@std@@2_JB DQ 0000000000000064H	; std::_Abs<100>::value
CONST	ENDS
;	COMDAT ?value@?$integral_constant@H$0A@@std@@2HB
CONST	SEGMENT
?value@?$integral_constant@H$0A@@std@@2HB DD 00H	; std::integral_constant<int,0>::value
CONST	ENDS
;	COMDAT ?value@?$integral_constant@_K$0A@@std@@2_KB
CONST	SEGMENT
?value@?$integral_constant@_K$0A@@std@@2_KB DQ 0000000000000000H ; std::integral_constant<unsigned __int64,0>::value
CONST	ENDS
;	COMDAT ?min_exponent10@?$numeric_limits@O@std@@2HB
CONST	SEGMENT
?min_exponent10@?$numeric_limits@O@std@@2HB DD 0fffffecdH ; std::numeric_limits<long double>::min_exponent10
CONST	ENDS
;	COMDAT ?min_exponent@?$numeric_limits@O@std@@2HB
CONST	SEGMENT
?min_exponent@?$numeric_limits@O@std@@2HB DD 0fffffc03H	; std::numeric_limits<long double>::min_exponent
CONST	ENDS
;	COMDAT ?max_exponent10@?$numeric_limits@O@std@@2HB
CONST	SEGMENT
?max_exponent10@?$numeric_limits@O@std@@2HB DD 0134H	; std::numeric_limits<long double>::max_exponent10
CONST	ENDS
;	COMDAT ?max_exponent@?$numeric_limits@O@std@@2HB
CONST	SEGMENT
?max_exponent@?$numeric_limits@O@std@@2HB DD 0400H	; std::numeric_limits<long double>::max_exponent
CONST	ENDS
;	COMDAT ?max_digits10@?$numeric_limits@O@std@@2HB
CONST	SEGMENT
?max_digits10@?$numeric_limits@O@std@@2HB DD 011H	; std::numeric_limits<long double>::max_digits10
CONST	ENDS
;	COMDAT ?digits10@?$numeric_limits@O@std@@2HB
CONST	SEGMENT
?digits10@?$numeric_limits@O@std@@2HB DD 0fH		; std::numeric_limits<long double>::digits10
CONST	ENDS
;	COMDAT ?digits@?$numeric_limits@O@std@@2HB
CONST	SEGMENT
?digits@?$numeric_limits@O@std@@2HB DD 035H		; std::numeric_limits<long double>::digits
CONST	ENDS
;	COMDAT ?min_exponent10@?$numeric_limits@N@std@@2HB
CONST	SEGMENT
?min_exponent10@?$numeric_limits@N@std@@2HB DD 0fffffecdH ; std::numeric_limits<double>::min_exponent10
CONST	ENDS
;	COMDAT ?min_exponent@?$numeric_limits@N@std@@2HB
CONST	SEGMENT
?min_exponent@?$numeric_limits@N@std@@2HB DD 0fffffc03H	; std::numeric_limits<double>::min_exponent
CONST	ENDS
;	COMDAT ?max_exponent10@?$numeric_limits@N@std@@2HB
CONST	SEGMENT
?max_exponent10@?$numeric_limits@N@std@@2HB DD 0134H	; std::numeric_limits<double>::max_exponent10
CONST	ENDS
;	COMDAT ?max_exponent@?$numeric_limits@N@std@@2HB
CONST	SEGMENT
?max_exponent@?$numeric_limits@N@std@@2HB DD 0400H	; std::numeric_limits<double>::max_exponent
CONST	ENDS
;	COMDAT ?max_digits10@?$numeric_limits@N@std@@2HB
CONST	SEGMENT
?max_digits10@?$numeric_limits@N@std@@2HB DD 011H	; std::numeric_limits<double>::max_digits10
CONST	ENDS
;	COMDAT ?digits10@?$numeric_limits@N@std@@2HB
CONST	SEGMENT
?digits10@?$numeric_limits@N@std@@2HB DD 0fH		; std::numeric_limits<double>::digits10
CONST	ENDS
;	COMDAT ?digits@?$numeric_limits@N@std@@2HB
CONST	SEGMENT
?digits@?$numeric_limits@N@std@@2HB DD 035H		; std::numeric_limits<double>::digits
CONST	ENDS
;	COMDAT AgentEventGuid
CONST	SEGMENT
AgentEventGuid DD 0b9b5b78cH
	DW	0713H
	DW	04898H
	DB	0a2H
	DB	01aH
	DB	0c6H
	DB	079H
	DB	049H
	DB	0dcH
	DB	0edH
	DB	07H
CONST	ENDS
;	COMDAT PPLParallelForeachEventGuid
CONST	SEGMENT
PPLParallelForeachEventGuid DD 05cb7d785H
	DW	09d66H
	DW	0465dH
	DB	0baH
	DB	0e1H
	DB	046H
	DB	011H
	DB	06H
	DB	01bH
	DB	054H
	DB	034H
CONST	ENDS
;	COMDAT PPLParallelForEventGuid
CONST	SEGMENT
PPLParallelForEventGuid DD 031c8da6bH
	DW	06165H
	DW	04042H
	DB	08bH
	DB	092H
	DB	094H
	DB	09eH
	DB	031H
	DB	05fH
	DB	04dH
	DB	084H
CONST	ENDS
;	COMDAT ?min_exponent10@?$numeric_limits@M@std@@2HB
CONST	SEGMENT
?min_exponent10@?$numeric_limits@M@std@@2HB DD 0ffffffdbH ; std::numeric_limits<float>::min_exponent10
CONST	ENDS
;	COMDAT PPLParallelInvokeEventGuid
CONST	SEGMENT
PPLParallelInvokeEventGuid DD 0d1b5b133H
	DW	0ec3dH
	DW	049f4H
	DB	098H
	DB	0a3H
	DB	046H
	DB	04dH
	DB	01aH
	DB	09eH
	DB	046H
	DB	082H
CONST	ENDS
;	COMDAT ResourceManagerEventGuid
CONST	SEGMENT
ResourceManagerEventGuid DD 02718d25bH
	DW	05bf5H
	DW	04479H
	DB	08eH
	DB	088H
	DB	0baH
	DB	0bcH
	DB	064H
	DB	0bdH
	DB	0bfH
	DB	0caH
CONST	ENDS
;	COMDAT LockEventGuid
CONST	SEGMENT
LockEventGuid DD 079a60dc6H
	DW	05fc8H
	DW	04952H
	DB	0a4H
	DB	01cH
	DB	011H
	DB	063H
	DB	0aeH
	DB	0ecH
	DB	05eH
	DB	0b8H
CONST	ENDS
;	COMDAT VirtualProcessorEventGuid
CONST	SEGMENT
VirtualProcessorEventGuid DD 02f27805fH
	DW	01676H
	DW	04eccH
	DB	096H
	DB	0faH
	DB	07eH
	DB	0b0H
	DB	09dH
	DB	044H
	DB	030H
	DB	02fH
CONST	ENDS
;	COMDAT ?min_exponent@?$numeric_limits@M@std@@2HB
CONST	SEGMENT
?min_exponent@?$numeric_limits@M@std@@2HB DD 0ffffff83H	; std::numeric_limits<float>::min_exponent
CONST	ENDS
;	COMDAT ChoreEventGuid
CONST	SEGMENT
ChoreEventGuid DD 07e854ec7H
	DW	0cdc4H
	DW	0405aH
	DB	0b5H
	DB	0b2H
	DB	0aaH
	DB	0f7H
	DB	0c9H
	DB	0e7H
	DB	0d4H
	DB	0cH
CONST	ENDS
;	COMDAT ContextEventGuid
CONST	SEGMENT
ContextEventGuid DD 05727a00fH
	DW	050beH
	DW	04519H
	DB	082H
	DB	056H
	DB	0f7H
	DB	069H
	DB	098H
	DB	071H
	DB	0feH
	DB	0cbH
CONST	ENDS
;	COMDAT ScheduleGroupEventGuid
CONST	SEGMENT
ScheduleGroupEventGuid DD 0e8a3bf1fH
	DW	0a86bH
	DW	04390H
	DB	09cH
	DB	060H
	DB	053H
	DB	090H
	DB	0b9H
	DB	069H
	DB	0d2H
	DB	02cH
CONST	ENDS
;	COMDAT SchedulerEventGuid
CONST	SEGMENT
SchedulerEventGuid DD 0e2091f8aH
	DW	01e0aH
	DW	04731H
	DB	084H
	DB	0a2H
	DB	0dH
	DB	0d5H
	DB	07cH
	DB	08aH
	DB	052H
	DB	061H
CONST	ENDS
;	COMDAT ?max_exponent10@?$numeric_limits@M@std@@2HB
CONST	SEGMENT
?max_exponent10@?$numeric_limits@M@std@@2HB DD 026H	; std::numeric_limits<float>::max_exponent10
CONST	ENDS
;	COMDAT ConcRTEventGuid
CONST	SEGMENT
ConcRTEventGuid DD 072b14a7dH
	DW	0704cH
	DW	0423eH
	DB	092H
	DB	0f8H
	DB	07eH
	DB	06dH
	DB	064H
	DB	0bcH
	DB	0b9H
	DB	02aH
CONST	ENDS
;	COMDAT ConcRT_ProviderGuid
CONST	SEGMENT
ConcRT_ProviderGuid DD 0f7b697a3H
	DW	04db5H
	DW	04d3bH
	DB	0beH
	DB	071H
	DB	0c4H
	DB	0d2H
	DB	084H
	DB	0e6H
	DB	059H
	DB	02fH
CONST	ENDS
;	COMDAT ?max_exponent@?$numeric_limits@M@std@@2HB
CONST	SEGMENT
?max_exponent@?$numeric_limits@M@std@@2HB DD 080H	; std::numeric_limits<float>::max_exponent
CONST	ENDS
;	COMDAT ?max_digits10@?$numeric_limits@M@std@@2HB
CONST	SEGMENT
?max_digits10@?$numeric_limits@M@std@@2HB DD 09H	; std::numeric_limits<float>::max_digits10
CONST	ENDS
;	COMDAT ?digits10@?$numeric_limits@M@std@@2HB
CONST	SEGMENT
?digits10@?$numeric_limits@M@std@@2HB DD 06H		; std::numeric_limits<float>::digits10
CONST	ENDS
;	COMDAT ?digits@?$numeric_limits@M@std@@2HB
CONST	SEGMENT
?digits@?$numeric_limits@M@std@@2HB DD 018H		; std::numeric_limits<float>::digits
CONST	ENDS
;	COMDAT ?digits10@?$numeric_limits@_K@std@@2HB
CONST	SEGMENT
?digits10@?$numeric_limits@_K@std@@2HB DD 013H		; std::numeric_limits<unsigned __int64>::digits10
CONST	ENDS
;	COMDAT ?is_steady@steady_clock@chrono@std@@2_NB
CONST	SEGMENT
?is_steady@steady_clock@chrono@std@@2_NB DB 01H		; std::chrono::steady_clock::is_steady
CONST	ENDS
;	COMDAT ?is_monotonic@steady_clock@chrono@std@@2_NB
CONST	SEGMENT
?is_monotonic@steady_clock@chrono@std@@2_NB DB 01H	; std::chrono::steady_clock::is_monotonic
CONST	ENDS
;	COMDAT ?digits@?$numeric_limits@_K@std@@2HB
CONST	SEGMENT
?digits@?$numeric_limits@_K@std@@2HB DD 040H		; std::numeric_limits<unsigned __int64>::digits
CONST	ENDS
;	COMDAT ?is_signed@?$numeric_limits@_K@std@@2_NB
CONST	SEGMENT
?is_signed@?$numeric_limits@_K@std@@2_NB DB 00H		; std::numeric_limits<unsigned __int64>::is_signed
CONST	ENDS
;	COMDAT ?digits10@?$numeric_limits@_J@std@@2HB
CONST	SEGMENT
?digits10@?$numeric_limits@_J@std@@2HB DD 012H		; std::numeric_limits<__int64>::digits10
CONST	ENDS
;	COMDAT ?digits@?$numeric_limits@_J@std@@2HB
CONST	SEGMENT
?digits@?$numeric_limits@_J@std@@2HB DD 03fH		; std::numeric_limits<__int64>::digits
CONST	ENDS
;	COMDAT ?is_signed@?$numeric_limits@_J@std@@2_NB
CONST	SEGMENT
?is_signed@?$numeric_limits@_J@std@@2_NB DB 01H		; std::numeric_limits<__int64>::is_signed
CONST	ENDS
;	COMDAT ?digits10@?$numeric_limits@K@std@@2HB
CONST	SEGMENT
?digits10@?$numeric_limits@K@std@@2HB DD 09H		; std::numeric_limits<unsigned long>::digits10
CONST	ENDS
;	COMDAT ?digits@?$numeric_limits@K@std@@2HB
CONST	SEGMENT
?digits@?$numeric_limits@K@std@@2HB DD 020H		; std::numeric_limits<unsigned long>::digits
CONST	ENDS
;	COMDAT ?value@?$_Sizeof@HU_Nil@std@@U12@U12@U12@U12@U12@U12@@std@@2_KB
CONST	SEGMENT
?value@?$_Sizeof@HU_Nil@std@@U12@U12@U12@U12@U12@U12@@std@@2_KB DQ 0000000000000001H ; std::_Sizeof<int,std::_Nil,std::_Nil,std::_Nil,std::_Nil,std::_Nil,std::_Nil,std::_Nil>::value
CONST	ENDS
;	COMDAT ?is_signed@?$numeric_limits@K@std@@2_NB
CONST	SEGMENT
?is_signed@?$numeric_limits@K@std@@2_NB DB 00H		; std::numeric_limits<unsigned long>::is_signed
CONST	ENDS
;	COMDAT ?digits10@?$numeric_limits@J@std@@2HB
CONST	SEGMENT
?digits10@?$numeric_limits@J@std@@2HB DD 09H		; std::numeric_limits<long>::digits10
CONST	ENDS
;	COMDAT ?den@?$ratio@$00$00@std@@2_JB
CONST	SEGMENT
?den@?$ratio@$00$00@std@@2_JB DQ 0000000000000001H	; std::ratio<1,1>::den
CONST	ENDS
;	COMDAT ?digits@?$numeric_limits@J@std@@2HB
CONST	SEGMENT
?digits@?$numeric_limits@J@std@@2HB DD 01fH		; std::numeric_limits<long>::digits
CONST	ENDS
;	COMDAT ?num@?$ratio@$00$00@std@@2_JB
CONST	SEGMENT
?num@?$ratio@$00$00@std@@2_JB DQ 0000000000000001H	; std::ratio<1,1>::num
CONST	ENDS
;	COMDAT ?is_signed@?$numeric_limits@J@std@@2_NB
CONST	SEGMENT
?is_signed@?$numeric_limits@J@std@@2_NB DB 01H		; std::numeric_limits<long>::is_signed
CONST	ENDS
;	COMDAT ?den@?$ratio@$00$0JIJGIA@@std@@2_JB
CONST	SEGMENT
?den@?$ratio@$00$0JIJGIA@@std@@2_JB DQ 0000000000989680H ; std::ratio<1,10000000>::den
CONST	ENDS
;	COMDAT ?num@?$ratio@$00$0JIJGIA@@std@@2_JB
CONST	SEGMENT
?num@?$ratio@$00$0JIJGIA@@std@@2_JB DQ 0000000000000001H ; std::ratio<1,10000000>::num
CONST	ENDS
;	COMDAT ?digits10@?$numeric_limits@I@std@@2HB
CONST	SEGMENT
?digits10@?$numeric_limits@I@std@@2HB DD 09H		; std::numeric_limits<unsigned int>::digits10
CONST	ENDS
;	COMDAT ?value@?$_Gcd@$00$0JIJGIA@@std@@2_JB
CONST	SEGMENT
?value@?$_Gcd@$00$0JIJGIA@@std@@2_JB DQ 0000000000000001H ; std::_Gcd<1,10000000>::value
CONST	ENDS
;	COMDAT ?digits@?$numeric_limits@I@std@@2HB
CONST	SEGMENT
?digits@?$numeric_limits@I@std@@2HB DD 020H		; std::numeric_limits<unsigned int>::digits
CONST	ENDS
;	COMDAT ?is_signed@?$numeric_limits@I@std@@2_NB
CONST	SEGMENT
?is_signed@?$numeric_limits@I@std@@2_NB DB 00H		; std::numeric_limits<unsigned int>::is_signed
CONST	ENDS
;	COMDAT ?value@?$_GcdX@$00$0JIJGIA@@std@@2_JB
CONST	SEGMENT
?value@?$_GcdX@$00$0JIJGIA@@std@@2_JB DQ 0000000000000001H ; std::_GcdX<1,10000000>::value
CONST	ENDS
;	COMDAT ?_G2@?$_Ratio_multiply2@U?$ratio@$00$0JIJGIA@@std@@U?$ratio@$0JIJGIA@$00@2@@std@@2_JB
CONST	SEGMENT
?_G2@?$_Ratio_multiply2@U?$ratio@$00$0JIJGIA@@std@@U?$ratio@$0JIJGIA@$00@2@@std@@2_JB DQ 0000000000989680H ; std::_Ratio_multiply2<std::ratio<1,10000000>,std::ratio<10000000,1> >::_G2
CONST	ENDS
PUBLIC	?handle@Window@windows@core@@QEAAPEAUHWND__@@XZ	; core::windows::Window::handle
PUBLIC	??0_Ignore@std@@QEAA@XZ				; std::_Ignore::_Ignore
PUBLIC	??0Options@dialogs@app@@QEAA@XZ			; app::dialogs::Options::Options
PUBLIC	??1Options@dialogs@app@@QEAA@XZ			; app::dialogs::Options::~Options
PUBLIC	?Show@Options@dialogs@app@@QEAAXPEAVWindow@windows@core@@@Z ; app::dialogs::Options::Show
PUBLIC	?OnInit@Options@dialogs@app@@QEAAXPEAUHWND__@@@Z ; app::dialogs::Options::OnInit
PUBLIC	?set_cpu_freq_text@Options@dialogs@app@@IEAAXN@Z ; app::dialogs::Options::set_cpu_freq_text
PUBLIC	?copy_to_volatile@Options@dialogs@app@@IEAAXXZ	; app::dialogs::Options::copy_to_volatile
PUBLIC	?copy_from_volatile@Options@dialogs@app@@IEAAXXZ ; app::dialogs::Options::copy_from_volatile
PUBLIC	?DialogProc@Options@dialogs@app@@KA_JPEAUHWND__@@I_K_J@Z ; app::dialogs::Options::DialogProc
PUBLIC	__real@3eb0c6f7a0b5ed8d
EXTRN	__imp_GetModuleHandleA:PROC
EXTRN	__imp_SendMessageA:PROC
EXTRN	__imp_DialogBoxParamA:PROC
EXTRN	__imp_EndDialog:PROC
EXTRN	__imp_GetDlgItem:PROC
EXTRN	__imp_SetDlgItemTextA:PROC
EXTRN	__imp_SendDlgItemMessageA:PROC
EXTRN	__imp_GetWindowLongPtrA:PROC
EXTRN	__imp_SetWindowLongPtrA:PROC
EXTRN	__imp_sprintf:PROC
EXTRN	_RTC_CheckStackVars:PROC
EXTRN	_RTC_InitBase:PROC
EXTRN	_RTC_Shutdown:PROC
EXTRN	__GSHandlerCheck:PROC
EXTRN	__security_check_cookie:PROC
EXTRN	__security_cookie:QWORD
EXTRN	_fltused:DWORD
_BSS	SEGMENT
piecewise_construct DB 01H DUP (?)
allocator_arg DB 01H DUP (?)
ignore	DB	01H DUP (?)
_Tuple_alloc DB	01H DUP (?)
_BSS	ENDS
;	COMDAT pdata
pdata	SEGMENT
$pdata$?handle@Window@windows@core@@QEAAPEAUHWND__@@XZ DD imagerel $LN3
	DD	imagerel $LN3+20
	DD	imagerel $unwind$?handle@Window@windows@core@@QEAAPEAUHWND__@@XZ
pdata	ENDS
;	COMDAT pdata
pdata	SEGMENT
$pdata$??__Epiecewise_construct@std@@YAXXZ DD imagerel ??__Epiecewise_construct@std@@YAXXZ
	DD	imagerel ??__Epiecewise_construct@std@@YAXXZ+43
	DD	imagerel $unwind$??__Epiecewise_construct@std@@YAXXZ
pdata	ENDS
;	COMDAT pdata
pdata	SEGMENT
$pdata$??__Eallocator_arg@std@@YAXXZ DD imagerel ??__Eallocator_arg@std@@YAXXZ
	DD	imagerel ??__Eallocator_arg@std@@YAXXZ+43
	DD	imagerel $unwind$??__Eallocator_arg@std@@YAXXZ
pdata	ENDS
;	COMDAT pdata
pdata	SEGMENT
$pdata$??0_Ignore@std@@QEAA@XZ DD imagerel $LN3
	DD	imagerel $LN3+13
	DD	imagerel $unwind$??0_Ignore@std@@QEAA@XZ
pdata	ENDS
;	COMDAT pdata
pdata	SEGMENT
$pdata$??__Eignore@std@@YAXXZ DD imagerel ??__Eignore@std@@YAXXZ
	DD	imagerel ??__Eignore@std@@YAXXZ+39
	DD	imagerel $unwind$??__Eignore@std@@YAXXZ
pdata	ENDS
;	COMDAT pdata
pdata	SEGMENT
$pdata$??__E_Tuple_alloc@std@@YAXXZ DD imagerel ??__E_Tuple_alloc@std@@YAXXZ
	DD	imagerel ??__E_Tuple_alloc@std@@YAXXZ+43
	DD	imagerel $unwind$??__E_Tuple_alloc@std@@YAXXZ
pdata	ENDS
pdata	SEGMENT
$pdata$??0Options@dialogs@app@@QEAA@XZ DD imagerel $LN3
	DD	imagerel $LN3+21
	DD	imagerel $unwind$??0Options@dialogs@app@@QEAA@XZ
$pdata$??1Options@dialogs@app@@QEAA@XZ DD imagerel $LN3
	DD	imagerel $LN3+8
	DD	imagerel $unwind$??1Options@dialogs@app@@QEAA@XZ
$pdata$?Show@Options@dialogs@app@@QEAAXPEAVWindow@windows@core@@@Z DD imagerel $LN4
	DD	imagerel $LN4+148
	DD	imagerel $unwind$?Show@Options@dialogs@app@@QEAAXPEAVWindow@windows@core@@@Z
$pdata$?OnInit@Options@dialogs@app@@QEAAXPEAUHWND__@@@Z DD imagerel $LN3
	DD	imagerel $LN3+219
	DD	imagerel $unwind$?OnInit@Options@dialogs@app@@QEAAXPEAUHWND__@@@Z
$pdata$?set_cpu_freq_text@Options@dialogs@app@@IEAAXN@Z DD imagerel $LN3
	DD	imagerel $LN3+159
	DD	imagerel $unwind$?set_cpu_freq_text@Options@dialogs@app@@IEAAXN@Z
$pdata$?copy_to_volatile@Options@dialogs@app@@IEAAXXZ DD imagerel $LN3
	DD	imagerel $LN3+8
	DD	imagerel $unwind$?copy_to_volatile@Options@dialogs@app@@IEAAXXZ
$pdata$?copy_from_volatile@Options@dialogs@app@@IEAAXXZ DD imagerel $LN3
	DD	imagerel $LN3+8
	DD	imagerel $unwind$?copy_from_volatile@Options@dialogs@app@@IEAAXXZ
$pdata$?DialogProc@Options@dialogs@app@@KA_JPEAUHWND__@@I_K_J@Z DD imagerel $LN14
	DD	imagerel $LN14+433
	DD	imagerel $unwind$?DialogProc@Options@dialogs@app@@KA_JPEAUHWND__@@I_K_J@Z
pdata	ENDS
CRT$XCU	SEGMENT
piecewise_construct$initializer$ DQ FLAT:??__Epiecewise_construct@std@@YAXXZ
CRT$XCU	ENDS
;	COMDAT __real@3eb0c6f7a0b5ed8d
CONST	SEGMENT
__real@3eb0c6f7a0b5ed8d DQ 03eb0c6f7a0b5ed8dr	; 1e-006
CONST	ENDS
;	COMDAT rtc$TMZ
rtc$TMZ	SEGMENT
_RTC_Shutdown.rtc$TMZ DQ FLAT:_RTC_Shutdown
rtc$TMZ	ENDS
;	COMDAT rtc$IMZ
rtc$IMZ	SEGMENT
_RTC_InitBase.rtc$IMZ DQ FLAT:_RTC_InitBase
rtc$IMZ	ENDS
CONST	SEGMENT
?set_cpu_freq_text@Options@dialogs@app@@IEAAXN@Z$rtcName$0 DB 073H ; app::dialogs::Options::set_cpu_freq_text
	DB	074H
	DB	072H
	DB	00H
	ORG $+12
?set_cpu_freq_text@Options@dialogs@app@@IEAAXN@Z$rtcVarDesc DD 028H ; app::dialogs::Options::set_cpu_freq_text
	DD	019H
	DQ	FLAT:?set_cpu_freq_text@Options@dialogs@app@@IEAAXN@Z$rtcName$0
	ORG $+48
?set_cpu_freq_text@Options@dialogs@app@@IEAAXN@Z$rtcFrameData DD 01H ; app::dialogs::Options::set_cpu_freq_text
	DD	00H
	DQ	FLAT:?set_cpu_freq_text@Options@dialogs@app@@IEAAXN@Z$rtcVarDesc
CONST	ENDS
xdata	SEGMENT
$unwind$??0Options@dialogs@app@@QEAA@XZ DD 010601H
	DD	07006H
$unwind$??1Options@dialogs@app@@QEAA@XZ DD 010601H
	DD	07006H
$unwind$?Show@Options@dialogs@app@@QEAAXPEAVWindow@windows@core@@@Z DD 022301H
	DD	0700b720fH
$unwind$?OnInit@Options@dialogs@app@@QEAAXPEAUHWND__@@@Z DD 022301H
	DD	0700b720fH
$unwind$?set_cpu_freq_text@Options@dialogs@app@@IEAAXN@Z DD 023619H
	DD	0700cd210H
	DD	imagerel __GSHandlerCheck
	DD	060H
$unwind$?copy_to_volatile@Options@dialogs@app@@IEAAXXZ DD 010601H
	DD	07006H
$unwind$?copy_from_volatile@Options@dialogs@app@@IEAAXXZ DD 010601H
	DD	07006H
$unwind$?DialogProc@Options@dialogs@app@@KA_JPEAUHWND__@@I_K_J@Z DD 022c01H
	DD	070147218H
xdata	ENDS
;	COMDAT xdata
xdata	SEGMENT
$unwind$??__E_Tuple_alloc@std@@YAXXZ DD 021501H
	DD	070021206H
xdata	ENDS
;	COMDAT xdata
xdata	SEGMENT
$unwind$??__Eignore@std@@YAXXZ DD 021501H
	DD	070023206H
xdata	ENDS
;	COMDAT xdata
xdata	SEGMENT
$unwind$??0_Ignore@std@@QEAA@XZ DD 010601H
	DD	07006H
xdata	ENDS
;	COMDAT xdata
xdata	SEGMENT
$unwind$??__Eallocator_arg@std@@YAXXZ DD 021501H
	DD	070021206H
xdata	ENDS
;	COMDAT xdata
xdata	SEGMENT
$unwind$??__Epiecewise_construct@std@@YAXXZ DD 021501H
	DD	070021206H
xdata	ENDS
;	COMDAT xdata
xdata	SEGMENT
$unwind$?handle@Window@windows@core@@QEAAPEAUHWND__@@XZ DD 010601H
	DD	07006H
xdata	ENDS
CRT$XCU	SEGMENT
allocator_arg$initializer$ DQ FLAT:??__Eallocator_arg@std@@YAXXZ
CRT$XCU	ENDS
CRT$XCU	SEGMENT
ignore$initializer$ DQ FLAT:??__Eignore@std@@YAXXZ
CRT$XCU	ENDS
CRT$XCU	SEGMENT
_Tuple_alloc$initializer$ DQ FLAT:??__E_Tuple_alloc@std@@YAXXZ
CRT$XCU	ENDS
; Function compile flags: /Odtp /RTCsu
; File d:\personal\projects\gbemu\solution\code\dialogs\options.cpp
_TEXT	SEGMENT
self$ = 32
slider1$1 = 40
slider_value$2 = 48
a$3 = 56
tv79 = 60
hwndDlg$ = 80
uMsg$ = 88
wParam$ = 96
lParam$ = 104
?DialogProc@Options@dialogs@app@@KA_JPEAUHWND__@@I_K_J@Z PROC ; app::dialogs::Options::DialogProc

; 68   : INT_PTR CALLBACK Options::DialogProc(__in  HWND hwndDlg,__in  UINT uMsg,__in  WPARAM wParam,__in  LPARAM lParam) {

$LN14:
	mov	QWORD PTR [rsp+32], r9
	mov	QWORD PTR [rsp+24], r8
	mov	DWORD PTR [rsp+16], edx
	mov	QWORD PTR [rsp+8], rcx
	push	rdi
	sub	rsp, 64					; 00000040H
	mov	rdi, rsp
	mov	ecx, 16
	mov	eax, -858993460				; ccccccccH
	rep stosd
	mov	rcx, QWORD PTR [rsp+80]

; 69   :   
; 70   :   Options* self = nullptr;

	mov	QWORD PTR self$[rsp], 0

; 71   :   if (uMsg == WM_INITDIALOG) {

	cmp	DWORD PTR uMsg$[rsp], 272		; 00000110H
	jne	SHORT $LN11@DialogProc

; 72   :     SetWindowLongPtr(hwndDlg,DWLP_USER,lParam);

	mov	r8, QWORD PTR lParam$[rsp]
	mov	edx, 16
	mov	rcx, QWORD PTR hwndDlg$[rsp]
	call	QWORD PTR __imp_SetWindowLongPtrA

; 73   :     self = reinterpret_cast<Options*>(lParam);

	mov	rax, QWORD PTR lParam$[rsp]
	mov	QWORD PTR self$[rsp], rax

; 74   :     self->init_ = false;

	mov	rax, QWORD PTR self$[rsp]
	mov	BYTE PTR [rax], 0

; 75   :     return TRUE;

	mov	eax, 1
	jmp	$LN12@DialogProc
$LN11@DialogProc:

; 76   :   }
; 77   :   self = reinterpret_cast<Options*>(GetWindowLongPtr(hwndDlg,DWLP_USER));

	mov	edx, 16
	mov	rcx, QWORD PTR hwndDlg$[rsp]
	call	QWORD PTR __imp_GetWindowLongPtrA
	mov	QWORD PTR self$[rsp], rax

; 78   :   if (self == nullptr)

	cmp	QWORD PTR self$[rsp], 0
	jne	SHORT $LN10@DialogProc

; 79   :     return FALSE;

	xor	eax, eax
	jmp	$LN12@DialogProc
$LN10@DialogProc:

; 80   : 
; 81   :   if (self->init_ == false) {

	mov	rax, QWORD PTR self$[rsp]
	movzx	eax, BYTE PTR [rax]
	test	eax, eax
	jne	SHORT $LN9@DialogProc

; 82   :     self->OnInit(hwndDlg);

	mov	rdx, QWORD PTR hwndDlg$[rsp]
	mov	rcx, QWORD PTR self$[rsp]
	call	?OnInit@Options@dialogs@app@@QEAAXPEAUHWND__@@@Z ; app::dialogs::Options::OnInit

; 83   :     self->init_ = true;

	mov	rax, QWORD PTR self$[rsp]
	mov	BYTE PTR [rax], 1
$LN9@DialogProc:

; 84   :   }
; 85   :   switch (uMsg) {

	mov	eax, DWORD PTR uMsg$[rsp]
	mov	DWORD PTR tv79[rsp], eax
	cmp	DWORD PTR tv79[rsp], 16
	je	SHORT $LN6@DialogProc
	cmp	DWORD PTR tv79[rsp], 273		; 00000111H
	je	SHORT $LN3@DialogProc
	cmp	DWORD PTR tv79[rsp], 276		; 00000114H
	je	SHORT $LN5@DialogProc
	jmp	$LN7@DialogProc
$LN6@DialogProc:

; 86   :   	case WM_CLOSE:
; 87   : 		  EndDialog(hwndDlg,self->create_result);

	mov	rax, QWORD PTR self$[rsp]
	mov	rdx, QWORD PTR [rax+24]
	mov	rcx, QWORD PTR hwndDlg$[rsp]
	call	QWORD PTR __imp_EndDialog

; 88   :       return TRUE;

	mov	eax, 1
	jmp	$LN12@DialogProc
$LN5@DialogProc:

; 89   :     case WM_HSCROLL:{
; 90   :         auto slider1 = GetDlgItem(hwndDlg,IDC_SLIDER1);

	mov	edx, 1001				; 000003e9H
	mov	rcx, QWORD PTR hwndDlg$[rsp]
	call	QWORD PTR __imp_GetDlgItem
	mov	QWORD PTR slider1$1[rsp], rax

; 91   :         if (slider1 == (HWND)lParam) {

	mov	rax, QWORD PTR lParam$[rsp]
	cmp	QWORD PTR slider1$1[rsp], rax
	jne	SHORT $LN4@DialogProc

; 92   :           auto slider_value = SendMessage(slider1,TBM_GETPOS,0,0);

	xor	r9d, r9d
	xor	r8d, r8d
	mov	edx, 1024				; 00000400H
	mov	rcx, QWORD PTR slider1$1[rsp]
	call	QWORD PTR __imp_SendMessageA
	mov	QWORD PTR slider_value$2[rsp], rax
$LN4@DialogProc:

; 93   :         }
; 94   :       int a = 1;

	mov	DWORD PTR a$3[rsp], 1

; 95   :   }
; 96   :       break;

	jmp	SHORT $LN7@DialogProc
$LN3@DialogProc:

; 97   : 
; 98   :     case WM_COMMAND:{
; 99   :       if (LOWORD(wParam) == IDOK) {

	mov	rax, QWORD PTR wParam$[rsp]
	and	rax, 65535				; 0000ffffH
	movzx	eax, ax
	cmp	eax, 1
	jne	SHORT $LN2@DialogProc

; 100  :         self->copy_from_volatile();

	mov	rcx, QWORD PTR self$[rsp]
	call	?copy_from_volatile@Options@dialogs@app@@IEAAXXZ ; app::dialogs::Options::copy_from_volatile

; 101  :         EndDialog(hwndDlg,self->create_result);

	mov	rax, QWORD PTR self$[rsp]
	mov	rdx, QWORD PTR [rax+24]
	mov	rcx, QWORD PTR hwndDlg$[rsp]
	call	QWORD PTR __imp_EndDialog

; 102  :         return true;

	mov	eax, 1
	jmp	SHORT $LN12@DialogProc
$LN2@DialogProc:

; 103  :       }
; 104  :       if (LOWORD(wParam) == IDCANCEL) {

	mov	rax, QWORD PTR wParam$[rsp]
	and	rax, 65535				; 0000ffffH
	movzx	eax, ax
	cmp	eax, 2
	jne	SHORT $LN1@DialogProc

; 105  :         EndDialog(hwndDlg,self->create_result);

	mov	rax, QWORD PTR self$[rsp]
	mov	rdx, QWORD PTR [rax+24]
	mov	rcx, QWORD PTR hwndDlg$[rsp]
	call	QWORD PTR __imp_EndDialog

; 106  :         return true;

	mov	eax, 1
	jmp	SHORT $LN12@DialogProc
$LN1@DialogProc:
$LN7@DialogProc:

; 107  :       }
; 108  :   }
; 109  :       break;
; 110  :   };
; 111  : 
; 112  :   return FALSE;

	xor	eax, eax
$LN12@DialogProc:

; 113  : }

	add	rsp, 64					; 00000040H
	pop	rdi
	ret	0
?DialogProc@Options@dialogs@app@@KA_JPEAUHWND__@@I_K_J@Z ENDP ; app::dialogs::Options::DialogProc
_TEXT	ENDS
; Function compile flags: /Odtp /RTCsu
; File d:\personal\projects\gbemu\solution\code\dialogs\options.cpp
_TEXT	SEGMENT
this$ = 16
?copy_from_volatile@Options@dialogs@app@@IEAAXXZ PROC	; app::dialogs::Options::copy_from_volatile

; 64   : void Options::copy_from_volatile() {

$LN3:
	mov	QWORD PTR [rsp+8], rcx
	push	rdi

; 65   : 
; 66   : }

	pop	rdi
	ret	0
?copy_from_volatile@Options@dialogs@app@@IEAAXXZ ENDP	; app::dialogs::Options::copy_from_volatile
_TEXT	ENDS
; Function compile flags: /Odtp /RTCsu
; File d:\personal\projects\gbemu\solution\code\dialogs\options.cpp
_TEXT	SEGMENT
this$ = 16
?copy_to_volatile@Options@dialogs@app@@IEAAXXZ PROC	; app::dialogs::Options::copy_to_volatile

; 60   : void Options::copy_to_volatile() {

$LN3:
	mov	QWORD PTR [rsp+8], rcx
	push	rdi

; 61   : 
; 62   : }

	pop	rdi
	ret	0
?copy_to_volatile@Options@dialogs@app@@IEAAXXZ ENDP	; app::dialogs::Options::copy_to_volatile
_TEXT	ENDS
; Function compile flags: /Odtp /RTCsu
; File d:\personal\projects\gbemu\solution\code\dialogs\options.cpp
_TEXT	SEGMENT
str$ = 40
__$ArrayPad$ = 96
this$ = 128
cpu_freq$ = 136
?set_cpu_freq_text@Options@dialogs@app@@IEAAXN@Z PROC	; app::dialogs::Options::set_cpu_freq_text

; 54   : void Options::set_cpu_freq_text(double cpu_freq) {

$LN3:
	movsdx	QWORD PTR [rsp+16], xmm1
	mov	QWORD PTR [rsp+8], rcx
	push	rdi
	sub	rsp, 112				; 00000070H
	mov	rdi, rsp
	mov	ecx, 28
	mov	eax, -858993460				; ccccccccH
	rep stosd
	mov	rcx, QWORD PTR [rsp+128]
	mov	rax, QWORD PTR __security_cookie
	xor	rax, rsp
	mov	QWORD PTR __$ArrayPad$[rsp], rax

; 55   :   char str[25];
; 56   :   sprintf(str,"%0.2f Mhz",cpu_freq*0.000001);

	movsdx	xmm0, QWORD PTR cpu_freq$[rsp]
	mulsd	xmm0, QWORD PTR __real@3eb0c6f7a0b5ed8d
	movaps	xmm2, xmm0
	movd	r8, xmm2
	lea	rdx, OFFSET FLAT:$SG122640
	lea	rcx, QWORD PTR str$[rsp]
	call	QWORD PTR __imp_sprintf

; 57   :   SetDlgItemText(handle_,IDC_FREQ_LABEL,str);

	lea	r8, QWORD PTR str$[rsp]
	mov	edx, 1004				; 000003ecH
	mov	rax, QWORD PTR this$[rsp]
	mov	rcx, QWORD PTR [rax+16]
	call	QWORD PTR __imp_SetDlgItemTextA

; 58   : }

	mov	rcx, rsp
	lea	rdx, OFFSET FLAT:?set_cpu_freq_text@Options@dialogs@app@@IEAAXN@Z$rtcFrameData
	call	_RTC_CheckStackVars
	mov	rcx, QWORD PTR __$ArrayPad$[rsp]
	xor	rcx, rsp
	call	__security_check_cookie
	add	rsp, 112				; 00000070H
	pop	rdi
	ret	0
?set_cpu_freq_text@Options@dialogs@app@@IEAAXN@Z ENDP	; app::dialogs::Options::set_cpu_freq_text
_TEXT	ENDS
; Function compile flags: /Odtp /RTCsu
; File d:\personal\projects\gbemu\solution\code\dialogs\options.cpp
_TEXT	SEGMENT
slider1$ = 48
value$ = 56
this$ = 80
hwndDlg$ = 88
?OnInit@Options@dialogs@app@@QEAAXPEAUHWND__@@@Z PROC	; app::dialogs::Options::OnInit

; 37   : void Options::OnInit(HWND hwndDlg) {

$LN3:
	mov	QWORD PTR [rsp+16], rdx
	mov	QWORD PTR [rsp+8], rcx
	push	rdi
	sub	rsp, 64					; 00000040H
	mov	rdi, rsp
	mov	ecx, 16
	mov	eax, -858993460				; ccccccccH
	rep stosd
	mov	rcx, QWORD PTR [rsp+80]

; 38   :   handle_ = hwndDlg;

	mov	rax, QWORD PTR this$[rsp]
	mov	rcx, QWORD PTR hwndDlg$[rsp]
	mov	QWORD PTR [rax+16], rcx

; 39   :   auto slider1 = GetDlgItem(hwndDlg,IDC_SLIDER1);

	mov	edx, 1001				; 000003e9H
	mov	rcx, QWORD PTR hwndDlg$[rsp]
	call	QWORD PTR __imp_GetDlgItem
	mov	QWORD PTR slider1$[rsp], rax

; 40   : 
; 41   :   
; 42   : 
; 43   :   copy_to_volatile();

	mov	rcx, QWORD PTR this$[rsp]
	call	?copy_to_volatile@Options@dialogs@app@@IEAAXXZ ; app::dialogs::Options::copy_to_volatile

; 44   : 
; 45   : //  set_cpu_freq_text(nes_settings_volatile.cpu_freq_hz);
; 46   :   WPARAM value = 0;//convertRange<WPARAM>(CPU_MIN_FREQ,CPU_MAX_FREQ,0.0,100.0,nes_settings_volatile.cpu_freq_hz);

	mov	QWORD PTR value$[rsp], 0

; 47   :   SendDlgItemMessage(handle_,IDC_SLIDER1,TBM_SETRANGEMIN,1,(LPARAM)0);

	mov	QWORD PTR [rsp+32], 0
	mov	r9d, 1
	mov	r8d, 1031				; 00000407H
	mov	edx, 1001				; 000003e9H
	mov	rax, QWORD PTR this$[rsp]
	mov	rcx, QWORD PTR [rax+16]
	call	QWORD PTR __imp_SendDlgItemMessageA

; 48   :   SendDlgItemMessage(handle_,IDC_SLIDER1,TBM_SETRANGEMAX,1,(LPARAM)100);

	mov	QWORD PTR [rsp+32], 100			; 00000064H
	mov	r9d, 1
	mov	r8d, 1032				; 00000408H
	mov	edx, 1001				; 000003e9H
	mov	rax, QWORD PTR this$[rsp]
	mov	rcx, QWORD PTR [rax+16]
	call	QWORD PTR __imp_SendDlgItemMessageA

; 49   :   SendDlgItemMessage(handle_,IDC_SLIDER1,TBM_SETPOS,1,(LPARAM)value);

	mov	rax, QWORD PTR value$[rsp]
	mov	QWORD PTR [rsp+32], rax
	mov	r9d, 1
	mov	r8d, 1029				; 00000405H
	mov	edx, 1001				; 000003e9H
	mov	rax, QWORD PTR this$[rsp]
	mov	rcx, QWORD PTR [rax+16]
	call	QWORD PTR __imp_SendDlgItemMessageA

; 50   : }

	add	rsp, 64					; 00000040H
	pop	rdi
	ret	0
?OnInit@Options@dialogs@app@@QEAAXPEAUHWND__@@@Z ENDP	; app::dialogs::Options::OnInit
_TEXT	ENDS
; Function compile flags: /Odtp /RTCsu
; File d:\personal\projects\gbemu\solution\code\dialogs\options.cpp
_TEXT	SEGMENT
parenthWnd$ = 48
this$ = 80
parent$ = 88
?Show@Options@dialogs@app@@QEAAXPEAVWindow@windows@core@@@Z PROC ; app::dialogs::Options::Show

; 23   : void Options::Show(core::windows::Window* parent) {

$LN4:
	mov	QWORD PTR [rsp+16], rdx
	mov	QWORD PTR [rsp+8], rcx
	push	rdi
	sub	rsp, 64					; 00000040H
	mov	rdi, rsp
	mov	ecx, 16
	mov	eax, -858993460				; ccccccccH
	rep stosd
	mov	rcx, QWORD PTR [rsp+80]

; 24   :   parent_ = parent;

	mov	rax, QWORD PTR this$[rsp]
	mov	rcx, QWORD PTR parent$[rsp]
	mov	QWORD PTR [rax+8], rcx

; 25   :   HWND parenthWnd = nullptr;

	mov	QWORD PTR parenthWnd$[rsp], 0

; 26   :   if (parent_) {

	mov	rax, QWORD PTR this$[rsp]
	cmp	QWORD PTR [rax+8], 0
	je	SHORT $LN1@Show

; 27   :     parenthWnd = parent_->handle();

	mov	rax, QWORD PTR this$[rsp]
	mov	rcx, QWORD PTR [rax+8]
	call	?handle@Window@windows@core@@QEAAPEAUHWND__@@XZ ; core::windows::Window::handle
	mov	QWORD PTR parenthWnd$[rsp], rax
$LN1@Show:

; 28   :   }
; 29   :    
; 30   :   create_result = DialogBoxParam(GetModuleHandle(nullptr),MAKEINTRESOURCE(IDD_OPTIONS),parenthWnd,DialogProc,(LPARAM)this);

	xor	ecx, ecx
	call	QWORD PTR __imp_GetModuleHandleA
	mov	rcx, QWORD PTR this$[rsp]
	mov	QWORD PTR [rsp+32], rcx
	lea	r9, OFFSET FLAT:?DialogProc@Options@dialogs@app@@KA_JPEAUHWND__@@I_K_J@Z ; app::dialogs::Options::DialogProc
	mov	r8, QWORD PTR parenthWnd$[rsp]
	mov	edx, 106				; 0000006aH
	mov	rcx, rax
	call	QWORD PTR __imp_DialogBoxParamA
	mov	rcx, QWORD PTR this$[rsp]
	mov	QWORD PTR [rcx+24], rax

; 31   : 
; 32   : 
; 33   : 
; 34   : 
; 35   : }

	add	rsp, 64					; 00000040H
	pop	rdi
	ret	0
?Show@Options@dialogs@app@@QEAAXPEAVWindow@windows@core@@@Z ENDP ; app::dialogs::Options::Show
_TEXT	ENDS
; Function compile flags: /Odtp /RTCsu
; File d:\personal\projects\gbemu\solution\code\dialogs\options.cpp
_TEXT	SEGMENT
this$ = 16
??1Options@dialogs@app@@QEAA@XZ PROC			; app::dialogs::Options::~Options

; 19   : Options::~Options() {

$LN3:
	mov	QWORD PTR [rsp+8], rcx
	push	rdi

; 20   : 
; 21   : }

	pop	rdi
	ret	0
??1Options@dialogs@app@@QEAA@XZ ENDP			; app::dialogs::Options::~Options
_TEXT	ENDS
; Function compile flags: /Odtp /RTCsu
; File d:\personal\projects\gbemu\solution\code\dialogs\options.cpp
_TEXT	SEGMENT
this$ = 16
??0Options@dialogs@app@@QEAA@XZ PROC			; app::dialogs::Options::Options

; 15   : Options::Options() : init_(false) {

$LN3:
	mov	QWORD PTR [rsp+8], rcx
	push	rdi
	mov	rax, QWORD PTR this$[rsp]
	mov	BYTE PTR [rax], 0

; 16   :   //values.cpu_freq = 1789800.0;
; 17   : }

	mov	rax, QWORD PTR this$[rsp]
	pop	rdi
	ret	0
??0Options@dialogs@app@@QEAA@XZ ENDP			; app::dialogs::Options::Options
_TEXT	ENDS
; Function compile flags: /Odtp /RTCsu
; File c:\program files (x86)\microsoft visual studio 11.0\vc\include\tuple
;	COMDAT ??__E_Tuple_alloc@std@@YAXXZ
text$yc	SEGMENT
$T1 = 0
??__E_Tuple_alloc@std@@YAXXZ PROC			; std::`dynamic initializer for '_Tuple_alloc'', COMDAT

; 137  : const _Tuple_alloc_t _Tuple_alloc = _Tuple_alloc_t();

	push	rdi
	sub	rsp, 16
	mov	rdi, rsp
	mov	ecx, 4
	mov	eax, -858993460				; ccccccccH
	rep stosd
	lea	rax, QWORD PTR $T1[rsp]
	mov	rdi, rax
	xor	eax, eax
	mov	ecx, 1
	rep stosb
	add	rsp, 16
	pop	rdi
	ret	0
??__E_Tuple_alloc@std@@YAXXZ ENDP			; std::`dynamic initializer for '_Tuple_alloc''
text$yc	ENDS
; Function compile flags: /Odtp /RTCsu
; File c:\program files (x86)\microsoft visual studio 11.0\vc\include\tuple
;	COMDAT ??__Eignore@std@@YAXXZ
text$yc	SEGMENT
??__Eignore@std@@YAXXZ PROC				; std::`dynamic initializer for 'ignore'', COMDAT

; 130  : const _Ignore ignore;

	push	rdi
	sub	rsp, 32					; 00000020H
	mov	rdi, rsp
	mov	ecx, 8
	mov	eax, -858993460				; ccccccccH
	rep stosd
	lea	rcx, OFFSET FLAT:ignore
	call	??0_Ignore@std@@QEAA@XZ			; std::_Ignore::_Ignore
	add	rsp, 32					; 00000020H
	pop	rdi
	ret	0
??__Eignore@std@@YAXXZ ENDP				; std::`dynamic initializer for 'ignore''
text$yc	ENDS
; Function compile flags: /Odtp /RTCsu
; File c:\program files (x86)\microsoft visual studio 11.0\vc\include\tuple
;	COMDAT ??0_Ignore@std@@QEAA@XZ
_TEXT	SEGMENT
this$ = 16
??0_Ignore@std@@QEAA@XZ PROC				; std::_Ignore::_Ignore, COMDAT

; 120  : 	_Ignore()

$LN3:
	mov	QWORD PTR [rsp+8], rcx
	push	rdi

; 121  : 		{	// construct
; 122  : 		}

	mov	rax, QWORD PTR this$[rsp]
	pop	rdi
	ret	0
??0_Ignore@std@@QEAA@XZ ENDP				; std::_Ignore::_Ignore
_TEXT	ENDS
; Function compile flags: /Odtp /RTCsu
; File c:\program files (x86)\microsoft visual studio 11.0\vc\include\xutility
;	COMDAT ??__Eallocator_arg@std@@YAXXZ
text$yc	SEGMENT
$T1 = 0
??__Eallocator_arg@std@@YAXXZ PROC			; std::`dynamic initializer for 'allocator_arg'', COMDAT

; 3644 : const allocator_arg_t allocator_arg = allocator_arg_t();

	push	rdi
	sub	rsp, 16
	mov	rdi, rsp
	mov	ecx, 4
	mov	eax, -858993460				; ccccccccH
	rep stosd
	lea	rax, QWORD PTR $T1[rsp]
	mov	rdi, rax
	xor	eax, eax
	mov	ecx, 1
	rep stosb
	add	rsp, 16
	pop	rdi
	ret	0
??__Eallocator_arg@std@@YAXXZ ENDP			; std::`dynamic initializer for 'allocator_arg''
text$yc	ENDS
; Function compile flags: /Odtp /RTCsu
; File c:\program files (x86)\microsoft visual studio 11.0\vc\include\utility
;	COMDAT ??__Epiecewise_construct@std@@YAXXZ
text$yc	SEGMENT
$T1 = 0
??__Epiecewise_construct@std@@YAXXZ PROC		; std::`dynamic initializer for 'piecewise_construct'', COMDAT

; 65   : 	piecewise_construct_t();

	push	rdi
	sub	rsp, 16
	mov	rdi, rsp
	mov	ecx, 4
	mov	eax, -858993460				; ccccccccH
	rep stosd
	lea	rax, QWORD PTR $T1[rsp]
	mov	rdi, rax
	xor	eax, eax
	mov	ecx, 1
	rep stosb
	add	rsp, 16
	pop	rdi
	ret	0
??__Epiecewise_construct@std@@YAXXZ ENDP		; std::`dynamic initializer for 'piecewise_construct''
text$yc	ENDS
; Function compile flags: /Odtp /RTCsu
; File d:\personal\projects\wincore\windows\window.h
;	COMDAT ?handle@Window@windows@core@@QEAAPEAUHWND__@@XZ
_TEXT	SEGMENT
this$ = 16
?handle@Window@windows@core@@QEAAPEAUHWND__@@XZ PROC	; core::windows::Window::handle, COMDAT

; 42   :   HWND handle() { return handle_; }

$LN3:
	mov	QWORD PTR [rsp+8], rcx
	push	rdi
	mov	rax, QWORD PTR this$[rsp]
	mov	rax, QWORD PTR [rax+616]
	pop	rdi
	ret	0
?handle@Window@windows@core@@QEAAPEAUHWND__@@XZ ENDP	; core::windows::Window::handle
_TEXT	ENDS
END
