; Listing generated by Microsoft (R) Optimizing Compiler Version 17.00.60610.1 

	TITLE	C:\Users\Khalid\Documents\GitHub\GBEmu\Solution\Code\emulation\gb\cartridge.cpp
	.686P
	.XMM
	include listing.inc
	.model	flat

INCLUDELIB MSVCRTD
INCLUDELIB OLDNAMES

PUBLIC	?is_signed@?$numeric_limits@_W@std@@2_NB	; std::numeric_limits<wchar_t>::is_signed
PUBLIC	?digits@?$numeric_limits@_W@std@@2HB		; std::numeric_limits<wchar_t>::digits
PUBLIC	?digits10@?$numeric_limits@_W@std@@2HB		; std::numeric_limits<wchar_t>::digits10
PUBLIC	?is_modulo@?$numeric_limits@_N@std@@2_NB	; std::numeric_limits<bool>::is_modulo
PUBLIC	?is_signed@?$numeric_limits@_N@std@@2_NB	; std::numeric_limits<bool>::is_signed
PUBLIC	?digits@?$numeric_limits@_N@std@@2HB		; std::numeric_limits<bool>::digits
PUBLIC	?digits10@?$numeric_limits@_N@std@@2HB		; std::numeric_limits<bool>::digits10
PUBLIC	?is_signed@?$numeric_limits@C@std@@2_NB		; std::numeric_limits<signed char>::is_signed
PUBLIC	?digits@?$numeric_limits@C@std@@2HB		; std::numeric_limits<signed char>::digits
PUBLIC	?digits10@?$numeric_limits@C@std@@2HB		; std::numeric_limits<signed char>::digits10
PUBLIC	?is_signed@?$numeric_limits@E@std@@2_NB		; std::numeric_limits<unsigned char>::is_signed
PUBLIC	?digits@?$numeric_limits@E@std@@2HB		; std::numeric_limits<unsigned char>::digits
PUBLIC	?digits10@?$numeric_limits@E@std@@2HB		; std::numeric_limits<unsigned char>::digits10
PUBLIC	?value@?$integral_constant@I$0A@@std@@2IB	; std::integral_constant<unsigned int,0>::value
PUBLIC	?value@?$_Abs@$0GE@@std@@2_JB			; std::_Abs<100>::value
PUBLIC	?value@?$_Abs@$0DLJKMKAA@@std@@2_JB		; std::_Abs<1000000000>::value
PUBLIC	?is_signed@?$numeric_limits@F@std@@2_NB		; std::numeric_limits<short>::is_signed
PUBLIC	?digits@?$numeric_limits@F@std@@2HB		; std::numeric_limits<short>::digits
PUBLIC	?value@?$integral_constant@_N$0A@@std@@2_NB	; std::integral_constant<bool,0>::value
PUBLIC	?digits10@?$numeric_limits@F@std@@2HB		; std::numeric_limits<short>::digits10
PUBLIC	?value@?$_GcdX@$0GE@$0A@@std@@2_JB		; std::_GcdX<100,0>::value
PUBLIC	?value@?$integral_constant@_N$00@std@@2_NB	; std::integral_constant<bool,1>::value
PUBLIC	?value@?$_GcdX@$0DLJKMKAA@$0GE@@std@@2_JB	; std::_GcdX<1000000000,100>::value
PUBLIC	?_STATE_CLEAR@_CancellationTokenRegistration@details@Concurrency@@0JB ; Concurrency::details::_CancellationTokenRegistration::_STATE_CLEAR
PUBLIC	?_STATE_DEFER_DELETE@_CancellationTokenRegistration@details@Concurrency@@0JB ; Concurrency::details::_CancellationTokenRegistration::_STATE_DEFER_DELETE
PUBLIC	?value@?$_GcdX@$0GE@$0DLJKMKAA@@std@@2_JB	; std::_GcdX<100,1000000000>::value
PUBLIC	?_STATE_SYNCHRONIZE@_CancellationTokenRegistration@details@Concurrency@@0JB ; Concurrency::details::_CancellationTokenRegistration::_STATE_SYNCHRONIZE
PUBLIC	?_STATE_CALLED@_CancellationTokenRegistration@details@Concurrency@@0JB ; Concurrency::details::_CancellationTokenRegistration::_STATE_CALLED
PUBLIC	?value@?$_Gcd@$0GE@$0DLJKMKAA@@std@@2_JB	; std::_Gcd<100,1000000000>::value
PUBLIC	?is_signed@?$numeric_limits@G@std@@2_NB		; std::numeric_limits<unsigned short>::is_signed
PUBLIC	?digits@?$numeric_limits@G@std@@2HB		; std::numeric_limits<unsigned short>::digits
PUBLIC	?_G1@?$_Ratio_multiply2@U?$ratio@$0GE@$00@std@@U?$ratio@$00$0DLJKMKAA@@2@@std@@2_JB ; std::_Ratio_multiply2<std::ratio<100,1>,std::ratio<1,1000000000> >::_G1
PUBLIC	?digits10@?$numeric_limits@G@std@@2HB		; std::numeric_limits<unsigned short>::digits10
PUBLIC	?value@?$_Abs@$00@std@@2_JB			; std::_Abs<1>::value
PUBLIC	?value@?$_GcdX@$00$0A@@std@@2_JB		; std::_GcdX<1,0>::value
PUBLIC	?value@?$_GcdX@$00$00@std@@2_JB			; std::_GcdX<1,1>::value
PUBLIC	?is_signed@?$numeric_limits@H@std@@2_NB		; std::numeric_limits<int>::is_signed
PUBLIC	?digits@?$numeric_limits@H@std@@2HB		; std::numeric_limits<int>::digits
PUBLIC	?value@?$_Gcd@$00$00@std@@2_JB			; std::_Gcd<1,1>::value
PUBLIC	?digits10@?$numeric_limits@H@std@@2HB		; std::numeric_limits<int>::digits10
PUBLIC	?_G2@?$_Ratio_multiply2@U?$ratio@$0GE@$00@std@@U?$ratio@$00$0DLJKMKAA@@2@@std@@2_JB ; std::_Ratio_multiply2<std::ratio<100,1>,std::ratio<1,1000000000> >::_G2
PUBLIC	?is_signed@?$numeric_limits@I@std@@2_NB		; std::numeric_limits<unsigned int>::is_signed
PUBLIC	?digits@?$numeric_limits@I@std@@2HB		; std::numeric_limits<unsigned int>::digits
PUBLIC	?digits10@?$numeric_limits@I@std@@2HB		; std::numeric_limits<unsigned int>::digits10
PUBLIC	?is_monotonic@system_clock@chrono@std@@2_NB	; std::chrono::system_clock::is_monotonic
PUBLIC	?is_steady@system_clock@chrono@std@@2_NB	; std::chrono::system_clock::is_steady
PUBLIC	?is_signed@?$numeric_limits@J@std@@2_NB		; std::numeric_limits<long>::is_signed
PUBLIC	?digits@?$numeric_limits@J@std@@2HB		; std::numeric_limits<long>::digits
PUBLIC	?digits10@?$numeric_limits@J@std@@2HB		; std::numeric_limits<long>::digits10
PUBLIC	?is_signed@?$numeric_limits@K@std@@2_NB		; std::numeric_limits<unsigned long>::is_signed
PUBLIC	?digits@?$numeric_limits@K@std@@2HB		; std::numeric_limits<unsigned long>::digits
PUBLIC	?digits10@?$numeric_limits@K@std@@2HB		; std::numeric_limits<unsigned long>::digits10
PUBLIC	?is_signed@?$numeric_limits@_J@std@@2_NB	; std::numeric_limits<__int64>::is_signed
PUBLIC	?digits@?$numeric_limits@_J@std@@2HB		; std::numeric_limits<__int64>::digits
PUBLIC	?digits10@?$numeric_limits@_J@std@@2HB		; std::numeric_limits<__int64>::digits10
PUBLIC	?value@?$integral_constant@H$0A@@std@@2HB	; std::integral_constant<int,0>::value
PUBLIC	?is_signed@?$numeric_limits@_K@std@@2_NB	; std::numeric_limits<unsigned __int64>::is_signed
PUBLIC	?digits@?$numeric_limits@_K@std@@2HB		; std::numeric_limits<unsigned __int64>::digits
PUBLIC	?digits10@?$numeric_limits@_K@std@@2HB		; std::numeric_limits<unsigned __int64>::digits10
PUBLIC	?digits@?$numeric_limits@M@std@@2HB		; std::numeric_limits<float>::digits
PUBLIC	?digits10@?$numeric_limits@M@std@@2HB		; std::numeric_limits<float>::digits10
PUBLIC	?max_digits10@?$numeric_limits@M@std@@2HB	; std::numeric_limits<float>::max_digits10
PUBLIC	?_S_cancelBitsMask@_TaskCollectionBase@details@Concurrency@@1IB ; Concurrency::details::_TaskCollectionBase::_S_cancelBitsMask
PUBLIC	?max_exponent@?$numeric_limits@M@std@@2HB	; std::numeric_limits<float>::max_exponent
PUBLIC	?_S_cancelNone@_TaskCollectionBase@details@Concurrency@@1IB ; Concurrency::details::_TaskCollectionBase::_S_cancelNone
PUBLIC	?_S_cancelStarted@_TaskCollectionBase@details@Concurrency@@1IB ; Concurrency::details::_TaskCollectionBase::_S_cancelStarted
PUBLIC	?max_exponent10@?$numeric_limits@M@std@@2HB	; std::numeric_limits<float>::max_exponent10
PUBLIC	?_S_cancelDeferredShootdownOwner@_TaskCollectionBase@details@Concurrency@@1IB ; Concurrency::details::_TaskCollectionBase::_S_cancelDeferredShootdownOwner
PUBLIC	?_S_cancelShotdownOwner@_TaskCollectionBase@details@Concurrency@@1IB ; Concurrency::details::_TaskCollectionBase::_S_cancelShotdownOwner
PUBLIC	?min_exponent@?$numeric_limits@M@std@@2HB	; std::numeric_limits<float>::min_exponent
PUBLIC	?_S_nonNull@_TaskCollectionBase@details@Concurrency@@1IB ; Concurrency::details::_TaskCollectionBase::_S_nonNull
PUBLIC	?_S_cancelException@_TaskCollectionBase@details@Concurrency@@1IB ; Concurrency::details::_TaskCollectionBase::_S_cancelException
PUBLIC	?min_exponent10@?$numeric_limits@M@std@@2HB	; std::numeric_limits<float>::min_exponent10
PUBLIC	?_S_notInlined@_TaskCollectionBase@details@Concurrency@@1HB ; Concurrency::details::_TaskCollectionBase::_S_notInlined
PUBLIC	?_S_structured@_TaskCollectionBase@details@Concurrency@@1HB ; Concurrency::details::_TaskCollectionBase::_S_structured
PUBLIC	?_S_localCancel@_TaskCollectionBase@details@Concurrency@@1HB ; Concurrency::details::_TaskCollectionBase::_S_localCancel
PUBLIC	?_S_reserved@_TaskCollectionBase@details@Concurrency@@1HB ; Concurrency::details::_TaskCollectionBase::_S_reserved
PUBLIC	?digits@?$numeric_limits@N@std@@2HB		; std::numeric_limits<double>::digits
PUBLIC	?digits10@?$numeric_limits@N@std@@2HB		; std::numeric_limits<double>::digits10
PUBLIC	?max_digits10@?$numeric_limits@N@std@@2HB	; std::numeric_limits<double>::max_digits10
PUBLIC	?max_exponent@?$numeric_limits@N@std@@2HB	; std::numeric_limits<double>::max_exponent
PUBLIC	?max_exponent10@?$numeric_limits@N@std@@2HB	; std::numeric_limits<double>::max_exponent10
PUBLIC	?min_exponent@?$numeric_limits@N@std@@2HB	; std::numeric_limits<double>::min_exponent
PUBLIC	?min_exponent10@?$numeric_limits@N@std@@2HB	; std::numeric_limits<double>::min_exponent10
PUBLIC	?value@?$_Sizeof@HU_Nil@std@@U12@U12@U12@U12@U12@U12@@std@@2IB ; std::_Sizeof<int,std::_Nil,std::_Nil,std::_Nil,std::_Nil,std::_Nil,std::_Nil,std::_Nil>::value
PUBLIC	?digits@?$numeric_limits@O@std@@2HB		; std::numeric_limits<long double>::digits
PUBLIC	?digits10@?$numeric_limits@O@std@@2HB		; std::numeric_limits<long double>::digits10
PUBLIC	?max_digits10@?$numeric_limits@O@std@@2HB	; std::numeric_limits<long double>::max_digits10
PUBLIC	?max_exponent@?$numeric_limits@O@std@@2HB	; std::numeric_limits<long double>::max_exponent
PUBLIC	?max_exponent10@?$numeric_limits@O@std@@2HB	; std::numeric_limits<long double>::max_exponent10
PUBLIC	?min_exponent@?$numeric_limits@O@std@@2HB	; std::numeric_limits<long double>::min_exponent
PUBLIC	?min_exponent10@?$numeric_limits@O@std@@2HB	; std::numeric_limits<long double>::min_exponent10
PUBLIC	?_G1@?$_Ratio_multiply2@U?$ratio@$00$0JIJGIA@@std@@U?$ratio@$0JIJGIA@$00@2@@std@@2_JB ; std::_Ratio_multiply2<std::ratio<1,10000000>,std::ratio<10000000,1> >::_G1
PUBLIC	?value@?$_Abs@$0JIJGIA@@std@@2_JB		; std::_Abs<10000000>::value
PUBLIC	?value@?$_GcdX@$0JIJGIA@$0A@@std@@2_JB		; std::_GcdX<10000000,0>::value
PUBLIC	?value@?$_GcdX@$0JIJGIA@$0JIJGIA@@std@@2_JB	; std::_GcdX<10000000,10000000>::value
PUBLIC	?value@?$_Gcd@$0JIJGIA@$0JIJGIA@@std@@2_JB	; std::_Gcd<10000000,10000000>::value
PUBLIC	?value@?$_Is_ratio@U?$ratio@$00$0JIJGIA@@std@@@chrono@std@@2_NB ; std::chrono::_Is_ratio<std::ratio<1,10000000> >::value
PUBLIC	?_G2@?$_Ratio_multiply2@U?$ratio@$00$0JIJGIA@@std@@U?$ratio@$0JIJGIA@$00@2@@std@@2_JB ; std::_Ratio_multiply2<std::ratio<1,10000000>,std::ratio<10000000,1> >::_G2
PUBLIC	?value@?$_GcdX@$0JIJGIA@$00@std@@2_JB		; std::_GcdX<10000000,1>::value
PUBLIC	?value@?$_GcdX@$00$0JIJGIA@@std@@2_JB		; std::_GcdX<1,10000000>::value
PUBLIC	?value@?$_Gcd@$00$0JIJGIA@@std@@2_JB		; std::_Gcd<1,10000000>::value
PUBLIC	?value@?$_Sizeof@U_Nil@std@@U12@U12@U12@U12@U12@U12@U12@@std@@2IB ; std::_Sizeof<std::_Nil,std::_Nil,std::_Nil,std::_Nil,std::_Nil,std::_Nil,std::_Nil,std::_Nil>::value
PUBLIC	?num@?$ratio@$00$0JIJGIA@@std@@2_JB		; std::ratio<1,10000000>::num
PUBLIC	?den@?$ratio@$00$0JIJGIA@@std@@2_JB		; std::ratio<1,10000000>::den
PUBLIC	?num@?$ratio@$00$00@std@@2_JB			; std::ratio<1,1>::num
PUBLIC	?den@?$ratio@$00$00@std@@2_JB			; std::ratio<1,1>::den
PUBLIC	?has_denorm@_Num_base@std@@2W4float_denorm_style@2@B ; std::_Num_base::has_denorm
PUBLIC	?has_denorm_loss@_Num_base@std@@2_NB		; std::_Num_base::has_denorm_loss
PUBLIC	?has_infinity@_Num_base@std@@2_NB		; std::_Num_base::has_infinity
PUBLIC	?has_quiet_NaN@_Num_base@std@@2_NB		; std::_Num_base::has_quiet_NaN
PUBLIC	?is_monotonic@steady_clock@chrono@std@@2_NB	; std::chrono::steady_clock::is_monotonic
PUBLIC	?is_steady@steady_clock@chrono@std@@2_NB	; std::chrono::steady_clock::is_steady
PUBLIC	?has_signaling_NaN@_Num_base@std@@2_NB		; std::_Num_base::has_signaling_NaN
PUBLIC	?is_bounded@_Num_base@std@@2_NB			; std::_Num_base::is_bounded
PUBLIC	?is_exact@_Num_base@std@@2_NB			; std::_Num_base::is_exact
PUBLIC	?is_iec559@_Num_base@std@@2_NB			; std::_Num_base::is_iec559
PUBLIC	?is_integer@_Num_base@std@@2_NB			; std::_Num_base::is_integer
PUBLIC	?is_modulo@_Num_base@std@@2_NB			; std::_Num_base::is_modulo
PUBLIC	?is_signed@_Num_base@std@@2_NB			; std::_Num_base::is_signed
PUBLIC	?is_specialized@_Num_base@std@@2_NB		; std::_Num_base::is_specialized
PUBLIC	?tinyness_before@_Num_base@std@@2_NB		; std::_Num_base::tinyness_before
PUBLIC	?traps@_Num_base@std@@2_NB			; std::_Num_base::traps
PUBLIC	?round_style@_Num_base@std@@2W4float_round_style@2@B ; std::_Num_base::round_style
PUBLIC	?digits@_Num_base@std@@2HB			; std::_Num_base::digits
PUBLIC	?digits10@_Num_base@std@@2HB			; std::_Num_base::digits10
PUBLIC	?max_digits10@_Num_base@std@@2HB		; std::_Num_base::max_digits10
PUBLIC	?max_exponent@_Num_base@std@@2HB		; std::_Num_base::max_exponent
PUBLIC	?max_exponent10@_Num_base@std@@2HB		; std::_Num_base::max_exponent10
PUBLIC	?min_exponent@_Num_base@std@@2HB		; std::_Num_base::min_exponent
PUBLIC	?min_exponent10@_Num_base@std@@2HB		; std::_Num_base::min_exponent10
PUBLIC	_ConcRT_ProviderGuid
PUBLIC	_ConcRTEventGuid
PUBLIC	_SchedulerEventGuid
PUBLIC	?radix@_Num_base@std@@2HB			; std::_Num_base::radix
PUBLIC	_ScheduleGroupEventGuid
PUBLIC	_ContextEventGuid
PUBLIC	_ChoreEventGuid
PUBLIC	_VirtualProcessorEventGuid
PUBLIC	_LockEventGuid
PUBLIC	_ResourceManagerEventGuid
PUBLIC	_PPLParallelInvokeEventGuid
PUBLIC	_PPLParallelForEventGuid
PUBLIC	_PPLParallelForeachEventGuid
PUBLIC	_AgentEventGuid
PUBLIC	?is_bounded@_Num_int_base@std@@2_NB		; std::_Num_int_base::is_bounded
PUBLIC	?is_exact@_Num_int_base@std@@2_NB		; std::_Num_int_base::is_exact
PUBLIC	?is_integer@_Num_int_base@std@@2_NB		; std::_Num_int_base::is_integer
PUBLIC	?is_modulo@_Num_int_base@std@@2_NB		; std::_Num_int_base::is_modulo
PUBLIC	?is_specialized@_Num_int_base@std@@2_NB		; std::_Num_int_base::is_specialized
PUBLIC	?radix@_Num_int_base@std@@2HB			; std::_Num_int_base::radix
PUBLIC	?has_denorm@_Num_float_base@std@@2W4float_denorm_style@2@B ; std::_Num_float_base::has_denorm
PUBLIC	?has_denorm_loss@_Num_float_base@std@@2_NB	; std::_Num_float_base::has_denorm_loss
PUBLIC	?has_infinity@_Num_float_base@std@@2_NB		; std::_Num_float_base::has_infinity
PUBLIC	?has_quiet_NaN@_Num_float_base@std@@2_NB	; std::_Num_float_base::has_quiet_NaN
PUBLIC	?has_signaling_NaN@_Num_float_base@std@@2_NB	; std::_Num_float_base::has_signaling_NaN
PUBLIC	?is_bounded@_Num_float_base@std@@2_NB		; std::_Num_float_base::is_bounded
PUBLIC	?is_exact@_Num_float_base@std@@2_NB		; std::_Num_float_base::is_exact
PUBLIC	?is_iec559@_Num_float_base@std@@2_NB		; std::_Num_float_base::is_iec559
PUBLIC	?is_integer@_Num_float_base@std@@2_NB		; std::_Num_float_base::is_integer
PUBLIC	?is_modulo@_Num_float_base@std@@2_NB		; std::_Num_float_base::is_modulo
PUBLIC	?is_signed@_Num_float_base@std@@2_NB		; std::_Num_float_base::is_signed
PUBLIC	?is_specialized@_Num_float_base@std@@2_NB	; std::_Num_float_base::is_specialized
PUBLIC	?tinyness_before@_Num_float_base@std@@2_NB	; std::_Num_float_base::tinyness_before
PUBLIC	?traps@_Num_float_base@std@@2_NB		; std::_Num_float_base::traps
PUBLIC	?round_style@_Num_float_base@std@@2W4float_round_style@2@B ; std::_Num_float_base::round_style
PUBLIC	?radix@_Num_float_base@std@@2HB			; std::_Num_float_base::radix
PUBLIC	?is_signed@?$numeric_limits@D@std@@2_NB		; std::numeric_limits<char>::is_signed
PUBLIC	?digits@?$numeric_limits@D@std@@2HB		; std::numeric_limits<char>::digits
PUBLIC	?digits10@?$numeric_limits@D@std@@2HB		; std::numeric_limits<char>::digits10
;	COMDAT ?digits10@?$numeric_limits@D@std@@2HB
CONST	SEGMENT
?digits10@?$numeric_limits@D@std@@2HB DD 02H		; std::numeric_limits<char>::digits10
CONST	ENDS
;	COMDAT ?digits@?$numeric_limits@D@std@@2HB
CONST	SEGMENT
?digits@?$numeric_limits@D@std@@2HB DD 07H		; std::numeric_limits<char>::digits
CONST	ENDS
;	COMDAT ?is_signed@?$numeric_limits@D@std@@2_NB
CONST	SEGMENT
?is_signed@?$numeric_limits@D@std@@2_NB DB 01H		; std::numeric_limits<char>::is_signed
CONST	ENDS
;	COMDAT ?radix@_Num_float_base@std@@2HB
CONST	SEGMENT
?radix@_Num_float_base@std@@2HB DD 02H			; std::_Num_float_base::radix
CONST	ENDS
;	COMDAT ?round_style@_Num_float_base@std@@2W4float_round_style@2@B
CONST	SEGMENT
?round_style@_Num_float_base@std@@2W4float_round_style@2@B DD 01H ; std::_Num_float_base::round_style
CONST	ENDS
;	COMDAT ?traps@_Num_float_base@std@@2_NB
CONST	SEGMENT
?traps@_Num_float_base@std@@2_NB DB 00H			; std::_Num_float_base::traps
CONST	ENDS
;	COMDAT ?tinyness_before@_Num_float_base@std@@2_NB
CONST	SEGMENT
?tinyness_before@_Num_float_base@std@@2_NB DB 01H	; std::_Num_float_base::tinyness_before
CONST	ENDS
;	COMDAT ?is_specialized@_Num_float_base@std@@2_NB
CONST	SEGMENT
?is_specialized@_Num_float_base@std@@2_NB DB 01H	; std::_Num_float_base::is_specialized
CONST	ENDS
;	COMDAT ?is_signed@_Num_float_base@std@@2_NB
CONST	SEGMENT
?is_signed@_Num_float_base@std@@2_NB DB 01H		; std::_Num_float_base::is_signed
CONST	ENDS
;	COMDAT ?is_modulo@_Num_float_base@std@@2_NB
CONST	SEGMENT
?is_modulo@_Num_float_base@std@@2_NB DB 00H		; std::_Num_float_base::is_modulo
CONST	ENDS
;	COMDAT ?is_integer@_Num_float_base@std@@2_NB
CONST	SEGMENT
?is_integer@_Num_float_base@std@@2_NB DB 00H		; std::_Num_float_base::is_integer
CONST	ENDS
;	COMDAT ?is_iec559@_Num_float_base@std@@2_NB
CONST	SEGMENT
?is_iec559@_Num_float_base@std@@2_NB DB 01H		; std::_Num_float_base::is_iec559
CONST	ENDS
;	COMDAT ?is_exact@_Num_float_base@std@@2_NB
CONST	SEGMENT
?is_exact@_Num_float_base@std@@2_NB DB 00H		; std::_Num_float_base::is_exact
CONST	ENDS
;	COMDAT ?is_bounded@_Num_float_base@std@@2_NB
CONST	SEGMENT
?is_bounded@_Num_float_base@std@@2_NB DB 01H		; std::_Num_float_base::is_bounded
CONST	ENDS
;	COMDAT ?has_signaling_NaN@_Num_float_base@std@@2_NB
CONST	SEGMENT
?has_signaling_NaN@_Num_float_base@std@@2_NB DB 01H	; std::_Num_float_base::has_signaling_NaN
CONST	ENDS
;	COMDAT ?has_quiet_NaN@_Num_float_base@std@@2_NB
CONST	SEGMENT
?has_quiet_NaN@_Num_float_base@std@@2_NB DB 01H		; std::_Num_float_base::has_quiet_NaN
CONST	ENDS
;	COMDAT ?has_infinity@_Num_float_base@std@@2_NB
CONST	SEGMENT
?has_infinity@_Num_float_base@std@@2_NB DB 01H		; std::_Num_float_base::has_infinity
CONST	ENDS
;	COMDAT ?has_denorm_loss@_Num_float_base@std@@2_NB
CONST	SEGMENT
?has_denorm_loss@_Num_float_base@std@@2_NB DB 01H	; std::_Num_float_base::has_denorm_loss
CONST	ENDS
;	COMDAT ?has_denorm@_Num_float_base@std@@2W4float_denorm_style@2@B
CONST	SEGMENT
?has_denorm@_Num_float_base@std@@2W4float_denorm_style@2@B DD 01H ; std::_Num_float_base::has_denorm
CONST	ENDS
;	COMDAT ?radix@_Num_int_base@std@@2HB
CONST	SEGMENT
?radix@_Num_int_base@std@@2HB DD 02H			; std::_Num_int_base::radix
CONST	ENDS
;	COMDAT ?is_specialized@_Num_int_base@std@@2_NB
CONST	SEGMENT
?is_specialized@_Num_int_base@std@@2_NB DB 01H		; std::_Num_int_base::is_specialized
CONST	ENDS
;	COMDAT ?is_modulo@_Num_int_base@std@@2_NB
CONST	SEGMENT
?is_modulo@_Num_int_base@std@@2_NB DB 01H		; std::_Num_int_base::is_modulo
CONST	ENDS
;	COMDAT ?is_integer@_Num_int_base@std@@2_NB
CONST	SEGMENT
?is_integer@_Num_int_base@std@@2_NB DB 01H		; std::_Num_int_base::is_integer
CONST	ENDS
;	COMDAT ?is_exact@_Num_int_base@std@@2_NB
CONST	SEGMENT
?is_exact@_Num_int_base@std@@2_NB DB 01H		; std::_Num_int_base::is_exact
CONST	ENDS
;	COMDAT ?is_bounded@_Num_int_base@std@@2_NB
CONST	SEGMENT
?is_bounded@_Num_int_base@std@@2_NB DB 01H		; std::_Num_int_base::is_bounded
CONST	ENDS
;	COMDAT _AgentEventGuid
CONST	SEGMENT
_AgentEventGuid DD 0b9b5b78cH
	DW	0713H
	DW	04898H
	DB	0a2H
	DB	01aH
	DB	0c6H
	DB	079H
	DB	049H
	DB	0dcH
	DB	0edH
	DB	07H
CONST	ENDS
;	COMDAT _PPLParallelForeachEventGuid
CONST	SEGMENT
_PPLParallelForeachEventGuid DD 05cb7d785H
	DW	09d66H
	DW	0465dH
	DB	0baH
	DB	0e1H
	DB	046H
	DB	011H
	DB	06H
	DB	01bH
	DB	054H
	DB	034H
CONST	ENDS
;	COMDAT _PPLParallelForEventGuid
CONST	SEGMENT
_PPLParallelForEventGuid DD 031c8da6bH
	DW	06165H
	DW	04042H
	DB	08bH
	DB	092H
	DB	094H
	DB	09eH
	DB	031H
	DB	05fH
	DB	04dH
	DB	084H
CONST	ENDS
;	COMDAT _PPLParallelInvokeEventGuid
CONST	SEGMENT
_PPLParallelInvokeEventGuid DD 0d1b5b133H
	DW	0ec3dH
	DW	049f4H
	DB	098H
	DB	0a3H
	DB	046H
	DB	04dH
	DB	01aH
	DB	09eH
	DB	046H
	DB	082H
CONST	ENDS
;	COMDAT _ResourceManagerEventGuid
CONST	SEGMENT
_ResourceManagerEventGuid DD 02718d25bH
	DW	05bf5H
	DW	04479H
	DB	08eH
	DB	088H
	DB	0baH
	DB	0bcH
	DB	064H
	DB	0bdH
	DB	0bfH
	DB	0caH
CONST	ENDS
;	COMDAT _LockEventGuid
CONST	SEGMENT
_LockEventGuid DD 079a60dc6H
	DW	05fc8H
	DW	04952H
	DB	0a4H
	DB	01cH
	DB	011H
	DB	063H
	DB	0aeH
	DB	0ecH
	DB	05eH
	DB	0b8H
CONST	ENDS
;	COMDAT _VirtualProcessorEventGuid
CONST	SEGMENT
_VirtualProcessorEventGuid DD 02f27805fH
	DW	01676H
	DW	04eccH
	DB	096H
	DB	0faH
	DB	07eH
	DB	0b0H
	DB	09dH
	DB	044H
	DB	030H
	DB	02fH
CONST	ENDS
;	COMDAT _ChoreEventGuid
CONST	SEGMENT
_ChoreEventGuid DD 07e854ec7H
	DW	0cdc4H
	DW	0405aH
	DB	0b5H
	DB	0b2H
	DB	0aaH
	DB	0f7H
	DB	0c9H
	DB	0e7H
	DB	0d4H
	DB	0cH
CONST	ENDS
;	COMDAT _ContextEventGuid
CONST	SEGMENT
_ContextEventGuid DD 05727a00fH
	DW	050beH
	DW	04519H
	DB	082H
	DB	056H
	DB	0f7H
	DB	069H
	DB	098H
	DB	071H
	DB	0feH
	DB	0cbH
CONST	ENDS
;	COMDAT _ScheduleGroupEventGuid
CONST	SEGMENT
_ScheduleGroupEventGuid DD 0e8a3bf1fH
	DW	0a86bH
	DW	04390H
	DB	09cH
	DB	060H
	DB	053H
	DB	090H
	DB	0b9H
	DB	069H
	DB	0d2H
	DB	02cH
CONST	ENDS
;	COMDAT ?radix@_Num_base@std@@2HB
CONST	SEGMENT
?radix@_Num_base@std@@2HB DD 00H			; std::_Num_base::radix
CONST	ENDS
;	COMDAT _SchedulerEventGuid
CONST	SEGMENT
_SchedulerEventGuid DD 0e2091f8aH
	DW	01e0aH
	DW	04731H
	DB	084H
	DB	0a2H
	DB	0dH
	DB	0d5H
	DB	07cH
	DB	08aH
	DB	052H
	DB	061H
CONST	ENDS
;	COMDAT _ConcRTEventGuid
CONST	SEGMENT
_ConcRTEventGuid DD 072b14a7dH
	DW	0704cH
	DW	0423eH
	DB	092H
	DB	0f8H
	DB	07eH
	DB	06dH
	DB	064H
	DB	0bcH
	DB	0b9H
	DB	02aH
CONST	ENDS
;	COMDAT _ConcRT_ProviderGuid
CONST	SEGMENT
_ConcRT_ProviderGuid DD 0f7b697a3H
	DW	04db5H
	DW	04d3bH
	DB	0beH
	DB	071H
	DB	0c4H
	DB	0d2H
	DB	084H
	DB	0e6H
	DB	059H
	DB	02fH
CONST	ENDS
;	COMDAT ?min_exponent10@_Num_base@std@@2HB
CONST	SEGMENT
?min_exponent10@_Num_base@std@@2HB DD 00H		; std::_Num_base::min_exponent10
CONST	ENDS
;	COMDAT ?min_exponent@_Num_base@std@@2HB
CONST	SEGMENT
?min_exponent@_Num_base@std@@2HB DD 00H			; std::_Num_base::min_exponent
CONST	ENDS
;	COMDAT ?max_exponent10@_Num_base@std@@2HB
CONST	SEGMENT
?max_exponent10@_Num_base@std@@2HB DD 00H		; std::_Num_base::max_exponent10
CONST	ENDS
;	COMDAT ?max_exponent@_Num_base@std@@2HB
CONST	SEGMENT
?max_exponent@_Num_base@std@@2HB DD 00H			; std::_Num_base::max_exponent
CONST	ENDS
;	COMDAT ?max_digits10@_Num_base@std@@2HB
CONST	SEGMENT
?max_digits10@_Num_base@std@@2HB DD 00H			; std::_Num_base::max_digits10
CONST	ENDS
;	COMDAT ?digits10@_Num_base@std@@2HB
CONST	SEGMENT
?digits10@_Num_base@std@@2HB DD 00H			; std::_Num_base::digits10
CONST	ENDS
;	COMDAT ?digits@_Num_base@std@@2HB
CONST	SEGMENT
?digits@_Num_base@std@@2HB DD 00H			; std::_Num_base::digits
CONST	ENDS
;	COMDAT ?round_style@_Num_base@std@@2W4float_round_style@2@B
CONST	SEGMENT
?round_style@_Num_base@std@@2W4float_round_style@2@B DD 00H ; std::_Num_base::round_style
CONST	ENDS
;	COMDAT ?traps@_Num_base@std@@2_NB
CONST	SEGMENT
?traps@_Num_base@std@@2_NB DB 00H			; std::_Num_base::traps
CONST	ENDS
;	COMDAT ?tinyness_before@_Num_base@std@@2_NB
CONST	SEGMENT
?tinyness_before@_Num_base@std@@2_NB DB 00H		; std::_Num_base::tinyness_before
CONST	ENDS
;	COMDAT ?is_specialized@_Num_base@std@@2_NB
CONST	SEGMENT
?is_specialized@_Num_base@std@@2_NB DB 00H		; std::_Num_base::is_specialized
CONST	ENDS
;	COMDAT ?is_signed@_Num_base@std@@2_NB
CONST	SEGMENT
?is_signed@_Num_base@std@@2_NB DB 00H			; std::_Num_base::is_signed
CONST	ENDS
;	COMDAT ?is_modulo@_Num_base@std@@2_NB
CONST	SEGMENT
?is_modulo@_Num_base@std@@2_NB DB 00H			; std::_Num_base::is_modulo
CONST	ENDS
;	COMDAT ?is_integer@_Num_base@std@@2_NB
CONST	SEGMENT
?is_integer@_Num_base@std@@2_NB DB 00H			; std::_Num_base::is_integer
CONST	ENDS
;	COMDAT ?is_iec559@_Num_base@std@@2_NB
CONST	SEGMENT
?is_iec559@_Num_base@std@@2_NB DB 00H			; std::_Num_base::is_iec559
CONST	ENDS
;	COMDAT ?is_exact@_Num_base@std@@2_NB
CONST	SEGMENT
?is_exact@_Num_base@std@@2_NB DB 00H			; std::_Num_base::is_exact
CONST	ENDS
;	COMDAT ?is_bounded@_Num_base@std@@2_NB
CONST	SEGMENT
?is_bounded@_Num_base@std@@2_NB DB 00H			; std::_Num_base::is_bounded
CONST	ENDS
;	COMDAT ?has_signaling_NaN@_Num_base@std@@2_NB
CONST	SEGMENT
?has_signaling_NaN@_Num_base@std@@2_NB DB 00H		; std::_Num_base::has_signaling_NaN
CONST	ENDS
;	COMDAT ?is_steady@steady_clock@chrono@std@@2_NB
CONST	SEGMENT
?is_steady@steady_clock@chrono@std@@2_NB DB 01H		; std::chrono::steady_clock::is_steady
CONST	ENDS
;	COMDAT ?is_monotonic@steady_clock@chrono@std@@2_NB
CONST	SEGMENT
?is_monotonic@steady_clock@chrono@std@@2_NB DB 01H	; std::chrono::steady_clock::is_monotonic
CONST	ENDS
;	COMDAT ?has_quiet_NaN@_Num_base@std@@2_NB
CONST	SEGMENT
?has_quiet_NaN@_Num_base@std@@2_NB DB 00H		; std::_Num_base::has_quiet_NaN
CONST	ENDS
;	COMDAT ?has_infinity@_Num_base@std@@2_NB
CONST	SEGMENT
?has_infinity@_Num_base@std@@2_NB DB 00H		; std::_Num_base::has_infinity
CONST	ENDS
;	COMDAT ?has_denorm_loss@_Num_base@std@@2_NB
CONST	SEGMENT
?has_denorm_loss@_Num_base@std@@2_NB DB 00H		; std::_Num_base::has_denorm_loss
CONST	ENDS
;	COMDAT ?has_denorm@_Num_base@std@@2W4float_denorm_style@2@B
CONST	SEGMENT
?has_denorm@_Num_base@std@@2W4float_denorm_style@2@B DD 00H ; std::_Num_base::has_denorm
CONST	ENDS
;	COMDAT ?den@?$ratio@$00$00@std@@2_JB
CONST	SEGMENT
?den@?$ratio@$00$00@std@@2_JB DQ 0000000000000001H	; std::ratio<1,1>::den
CONST	ENDS
;	COMDAT ?num@?$ratio@$00$00@std@@2_JB
CONST	SEGMENT
?num@?$ratio@$00$00@std@@2_JB DQ 0000000000000001H	; std::ratio<1,1>::num
CONST	ENDS
;	COMDAT ?den@?$ratio@$00$0JIJGIA@@std@@2_JB
CONST	SEGMENT
?den@?$ratio@$00$0JIJGIA@@std@@2_JB DQ 0000000000989680H ; std::ratio<1,10000000>::den
CONST	ENDS
;	COMDAT ?num@?$ratio@$00$0JIJGIA@@std@@2_JB
CONST	SEGMENT
?num@?$ratio@$00$0JIJGIA@@std@@2_JB DQ 0000000000000001H ; std::ratio<1,10000000>::num
CONST	ENDS
;	COMDAT ?value@?$_Sizeof@U_Nil@std@@U12@U12@U12@U12@U12@U12@U12@@std@@2IB
CONST	SEGMENT
?value@?$_Sizeof@U_Nil@std@@U12@U12@U12@U12@U12@U12@U12@@std@@2IB DD 00H ; std::_Sizeof<std::_Nil,std::_Nil,std::_Nil,std::_Nil,std::_Nil,std::_Nil,std::_Nil,std::_Nil>::value
CONST	ENDS
;	COMDAT ?value@?$_Gcd@$00$0JIJGIA@@std@@2_JB
CONST	SEGMENT
?value@?$_Gcd@$00$0JIJGIA@@std@@2_JB DQ 0000000000000001H ; std::_Gcd<1,10000000>::value
CONST	ENDS
;	COMDAT ?value@?$_GcdX@$00$0JIJGIA@@std@@2_JB
CONST	SEGMENT
?value@?$_GcdX@$00$0JIJGIA@@std@@2_JB DQ 0000000000000001H ; std::_GcdX<1,10000000>::value
CONST	ENDS
;	COMDAT ?value@?$_GcdX@$0JIJGIA@$00@std@@2_JB
CONST	SEGMENT
?value@?$_GcdX@$0JIJGIA@$00@std@@2_JB DQ 0000000000000001H ; std::_GcdX<10000000,1>::value
CONST	ENDS
;	COMDAT ?_G2@?$_Ratio_multiply2@U?$ratio@$00$0JIJGIA@@std@@U?$ratio@$0JIJGIA@$00@2@@std@@2_JB
CONST	SEGMENT
?_G2@?$_Ratio_multiply2@U?$ratio@$00$0JIJGIA@@std@@U?$ratio@$0JIJGIA@$00@2@@std@@2_JB DQ 0000000000989680H ; std::_Ratio_multiply2<std::ratio<1,10000000>,std::ratio<10000000,1> >::_G2
CONST	ENDS
;	COMDAT ?value@?$_Is_ratio@U?$ratio@$00$0JIJGIA@@std@@@chrono@std@@2_NB
CONST	SEGMENT
?value@?$_Is_ratio@U?$ratio@$00$0JIJGIA@@std@@@chrono@std@@2_NB DB 01H ; std::chrono::_Is_ratio<std::ratio<1,10000000> >::value
CONST	ENDS
;	COMDAT ?value@?$_Gcd@$0JIJGIA@$0JIJGIA@@std@@2_JB
CONST	SEGMENT
?value@?$_Gcd@$0JIJGIA@$0JIJGIA@@std@@2_JB DQ 0000000000989680H ; std::_Gcd<10000000,10000000>::value
CONST	ENDS
;	COMDAT ?value@?$_GcdX@$0JIJGIA@$0JIJGIA@@std@@2_JB
CONST	SEGMENT
?value@?$_GcdX@$0JIJGIA@$0JIJGIA@@std@@2_JB DQ 0000000000989680H ; std::_GcdX<10000000,10000000>::value
CONST	ENDS
;	COMDAT ?value@?$_GcdX@$0JIJGIA@$0A@@std@@2_JB
CONST	SEGMENT
?value@?$_GcdX@$0JIJGIA@$0A@@std@@2_JB DQ 0000000000989680H ; std::_GcdX<10000000,0>::value
CONST	ENDS
;	COMDAT ?value@?$_Abs@$0JIJGIA@@std@@2_JB
CONST	SEGMENT
?value@?$_Abs@$0JIJGIA@@std@@2_JB DQ 0000000000989680H	; std::_Abs<10000000>::value
CONST	ENDS
;	COMDAT ?_G1@?$_Ratio_multiply2@U?$ratio@$00$0JIJGIA@@std@@U?$ratio@$0JIJGIA@$00@2@@std@@2_JB
CONST	SEGMENT
?_G1@?$_Ratio_multiply2@U?$ratio@$00$0JIJGIA@@std@@U?$ratio@$0JIJGIA@$00@2@@std@@2_JB DQ 0000000000000001H ; std::_Ratio_multiply2<std::ratio<1,10000000>,std::ratio<10000000,1> >::_G1
CONST	ENDS
;	COMDAT ?min_exponent10@?$numeric_limits@O@std@@2HB
CONST	SEGMENT
?min_exponent10@?$numeric_limits@O@std@@2HB DD 0fffffecdH ; std::numeric_limits<long double>::min_exponent10
CONST	ENDS
;	COMDAT ?min_exponent@?$numeric_limits@O@std@@2HB
CONST	SEGMENT
?min_exponent@?$numeric_limits@O@std@@2HB DD 0fffffc03H	; std::numeric_limits<long double>::min_exponent
CONST	ENDS
;	COMDAT ?max_exponent10@?$numeric_limits@O@std@@2HB
CONST	SEGMENT
?max_exponent10@?$numeric_limits@O@std@@2HB DD 0134H	; std::numeric_limits<long double>::max_exponent10
CONST	ENDS
;	COMDAT ?max_exponent@?$numeric_limits@O@std@@2HB
CONST	SEGMENT
?max_exponent@?$numeric_limits@O@std@@2HB DD 0400H	; std::numeric_limits<long double>::max_exponent
CONST	ENDS
;	COMDAT ?max_digits10@?$numeric_limits@O@std@@2HB
CONST	SEGMENT
?max_digits10@?$numeric_limits@O@std@@2HB DD 011H	; std::numeric_limits<long double>::max_digits10
CONST	ENDS
;	COMDAT ?digits10@?$numeric_limits@O@std@@2HB
CONST	SEGMENT
?digits10@?$numeric_limits@O@std@@2HB DD 0fH		; std::numeric_limits<long double>::digits10
CONST	ENDS
;	COMDAT ?digits@?$numeric_limits@O@std@@2HB
CONST	SEGMENT
?digits@?$numeric_limits@O@std@@2HB DD 035H		; std::numeric_limits<long double>::digits
CONST	ENDS
;	COMDAT ?value@?$_Sizeof@HU_Nil@std@@U12@U12@U12@U12@U12@U12@@std@@2IB
CONST	SEGMENT
?value@?$_Sizeof@HU_Nil@std@@U12@U12@U12@U12@U12@U12@@std@@2IB DD 01H ; std::_Sizeof<int,std::_Nil,std::_Nil,std::_Nil,std::_Nil,std::_Nil,std::_Nil,std::_Nil>::value
CONST	ENDS
;	COMDAT ?min_exponent10@?$numeric_limits@N@std@@2HB
CONST	SEGMENT
?min_exponent10@?$numeric_limits@N@std@@2HB DD 0fffffecdH ; std::numeric_limits<double>::min_exponent10
CONST	ENDS
;	COMDAT ?min_exponent@?$numeric_limits@N@std@@2HB
CONST	SEGMENT
?min_exponent@?$numeric_limits@N@std@@2HB DD 0fffffc03H	; std::numeric_limits<double>::min_exponent
CONST	ENDS
;	COMDAT ?max_exponent10@?$numeric_limits@N@std@@2HB
CONST	SEGMENT
?max_exponent10@?$numeric_limits@N@std@@2HB DD 0134H	; std::numeric_limits<double>::max_exponent10
CONST	ENDS
;	COMDAT ?max_exponent@?$numeric_limits@N@std@@2HB
CONST	SEGMENT
?max_exponent@?$numeric_limits@N@std@@2HB DD 0400H	; std::numeric_limits<double>::max_exponent
CONST	ENDS
;	COMDAT ?max_digits10@?$numeric_limits@N@std@@2HB
CONST	SEGMENT
?max_digits10@?$numeric_limits@N@std@@2HB DD 011H	; std::numeric_limits<double>::max_digits10
CONST	ENDS
;	COMDAT ?digits10@?$numeric_limits@N@std@@2HB
CONST	SEGMENT
?digits10@?$numeric_limits@N@std@@2HB DD 0fH		; std::numeric_limits<double>::digits10
CONST	ENDS
;	COMDAT ?digits@?$numeric_limits@N@std@@2HB
CONST	SEGMENT
?digits@?$numeric_limits@N@std@@2HB DD 035H		; std::numeric_limits<double>::digits
CONST	ENDS
;	COMDAT ?_S_reserved@_TaskCollectionBase@details@Concurrency@@1HB
CONST	SEGMENT
?_S_reserved@_TaskCollectionBase@details@Concurrency@@1HB DD 0cH ; Concurrency::details::_TaskCollectionBase::_S_reserved
CONST	ENDS
;	COMDAT ?_S_localCancel@_TaskCollectionBase@details@Concurrency@@1HB
CONST	SEGMENT
?_S_localCancel@_TaskCollectionBase@details@Concurrency@@1HB DD 02H ; Concurrency::details::_TaskCollectionBase::_S_localCancel
CONST	ENDS
;	COMDAT ?_S_structured@_TaskCollectionBase@details@Concurrency@@1HB
CONST	SEGMENT
?_S_structured@_TaskCollectionBase@details@Concurrency@@1HB DD 01H ; Concurrency::details::_TaskCollectionBase::_S_structured
CONST	ENDS
;	COMDAT ?_S_notInlined@_TaskCollectionBase@details@Concurrency@@1HB
CONST	SEGMENT
?_S_notInlined@_TaskCollectionBase@details@Concurrency@@1HB DD 0ffffffffH ; Concurrency::details::_TaskCollectionBase::_S_notInlined
CONST	ENDS
;	COMDAT ?min_exponent10@?$numeric_limits@M@std@@2HB
CONST	SEGMENT
?min_exponent10@?$numeric_limits@M@std@@2HB DD 0ffffffdbH ; std::numeric_limits<float>::min_exponent10
CONST	ENDS
;	COMDAT ?_S_cancelException@_TaskCollectionBase@details@Concurrency@@1IB
CONST	SEGMENT
?_S_cancelException@_TaskCollectionBase@details@Concurrency@@1IB DD 0cH ; Concurrency::details::_TaskCollectionBase::_S_cancelException
CONST	ENDS
;	COMDAT ?_S_nonNull@_TaskCollectionBase@details@Concurrency@@1IB
CONST	SEGMENT
?_S_nonNull@_TaskCollectionBase@details@Concurrency@@1IB DD 08H ; Concurrency::details::_TaskCollectionBase::_S_nonNull
CONST	ENDS
;	COMDAT ?min_exponent@?$numeric_limits@M@std@@2HB
CONST	SEGMENT
?min_exponent@?$numeric_limits@M@std@@2HB DD 0ffffff83H	; std::numeric_limits<float>::min_exponent
CONST	ENDS
;	COMDAT ?_S_cancelShotdownOwner@_TaskCollectionBase@details@Concurrency@@1IB
CONST	SEGMENT
?_S_cancelShotdownOwner@_TaskCollectionBase@details@Concurrency@@1IB DD 03H ; Concurrency::details::_TaskCollectionBase::_S_cancelShotdownOwner
CONST	ENDS
;	COMDAT ?_S_cancelDeferredShootdownOwner@_TaskCollectionBase@details@Concurrency@@1IB
CONST	SEGMENT
?_S_cancelDeferredShootdownOwner@_TaskCollectionBase@details@Concurrency@@1IB DD 02H ; Concurrency::details::_TaskCollectionBase::_S_cancelDeferredShootdownOwner
CONST	ENDS
;	COMDAT ?max_exponent10@?$numeric_limits@M@std@@2HB
CONST	SEGMENT
?max_exponent10@?$numeric_limits@M@std@@2HB DD 026H	; std::numeric_limits<float>::max_exponent10
CONST	ENDS
;	COMDAT ?_S_cancelStarted@_TaskCollectionBase@details@Concurrency@@1IB
CONST	SEGMENT
?_S_cancelStarted@_TaskCollectionBase@details@Concurrency@@1IB DD 01H ; Concurrency::details::_TaskCollectionBase::_S_cancelStarted
CONST	ENDS
;	COMDAT ?_S_cancelNone@_TaskCollectionBase@details@Concurrency@@1IB
CONST	SEGMENT
?_S_cancelNone@_TaskCollectionBase@details@Concurrency@@1IB DD 00H ; Concurrency::details::_TaskCollectionBase::_S_cancelNone
CONST	ENDS
;	COMDAT ?max_exponent@?$numeric_limits@M@std@@2HB
CONST	SEGMENT
?max_exponent@?$numeric_limits@M@std@@2HB DD 080H	; std::numeric_limits<float>::max_exponent
CONST	ENDS
;	COMDAT ?_S_cancelBitsMask@_TaskCollectionBase@details@Concurrency@@1IB
CONST	SEGMENT
?_S_cancelBitsMask@_TaskCollectionBase@details@Concurrency@@1IB DD 03H ; Concurrency::details::_TaskCollectionBase::_S_cancelBitsMask
CONST	ENDS
;	COMDAT ?max_digits10@?$numeric_limits@M@std@@2HB
CONST	SEGMENT
?max_digits10@?$numeric_limits@M@std@@2HB DD 09H	; std::numeric_limits<float>::max_digits10
CONST	ENDS
;	COMDAT ?digits10@?$numeric_limits@M@std@@2HB
CONST	SEGMENT
?digits10@?$numeric_limits@M@std@@2HB DD 06H		; std::numeric_limits<float>::digits10
CONST	ENDS
;	COMDAT ?digits@?$numeric_limits@M@std@@2HB
CONST	SEGMENT
?digits@?$numeric_limits@M@std@@2HB DD 018H		; std::numeric_limits<float>::digits
CONST	ENDS
;	COMDAT ?digits10@?$numeric_limits@_K@std@@2HB
CONST	SEGMENT
?digits10@?$numeric_limits@_K@std@@2HB DD 013H		; std::numeric_limits<unsigned __int64>::digits10
CONST	ENDS
;	COMDAT ?digits@?$numeric_limits@_K@std@@2HB
CONST	SEGMENT
?digits@?$numeric_limits@_K@std@@2HB DD 040H		; std::numeric_limits<unsigned __int64>::digits
CONST	ENDS
;	COMDAT ?is_signed@?$numeric_limits@_K@std@@2_NB
CONST	SEGMENT
?is_signed@?$numeric_limits@_K@std@@2_NB DB 00H		; std::numeric_limits<unsigned __int64>::is_signed
CONST	ENDS
;	COMDAT ?value@?$integral_constant@H$0A@@std@@2HB
CONST	SEGMENT
?value@?$integral_constant@H$0A@@std@@2HB DD 00H	; std::integral_constant<int,0>::value
CONST	ENDS
;	COMDAT ?digits10@?$numeric_limits@_J@std@@2HB
CONST	SEGMENT
?digits10@?$numeric_limits@_J@std@@2HB DD 012H		; std::numeric_limits<__int64>::digits10
CONST	ENDS
;	COMDAT ?digits@?$numeric_limits@_J@std@@2HB
CONST	SEGMENT
?digits@?$numeric_limits@_J@std@@2HB DD 03fH		; std::numeric_limits<__int64>::digits
CONST	ENDS
;	COMDAT ?is_signed@?$numeric_limits@_J@std@@2_NB
CONST	SEGMENT
?is_signed@?$numeric_limits@_J@std@@2_NB DB 01H		; std::numeric_limits<__int64>::is_signed
CONST	ENDS
;	COMDAT ?digits10@?$numeric_limits@K@std@@2HB
CONST	SEGMENT
?digits10@?$numeric_limits@K@std@@2HB DD 09H		; std::numeric_limits<unsigned long>::digits10
CONST	ENDS
;	COMDAT ?digits@?$numeric_limits@K@std@@2HB
CONST	SEGMENT
?digits@?$numeric_limits@K@std@@2HB DD 020H		; std::numeric_limits<unsigned long>::digits
CONST	ENDS
;	COMDAT ?is_signed@?$numeric_limits@K@std@@2_NB
CONST	SEGMENT
?is_signed@?$numeric_limits@K@std@@2_NB DB 00H		; std::numeric_limits<unsigned long>::is_signed
CONST	ENDS
;	COMDAT ?digits10@?$numeric_limits@J@std@@2HB
CONST	SEGMENT
?digits10@?$numeric_limits@J@std@@2HB DD 09H		; std::numeric_limits<long>::digits10
CONST	ENDS
;	COMDAT ?digits@?$numeric_limits@J@std@@2HB
CONST	SEGMENT
?digits@?$numeric_limits@J@std@@2HB DD 01fH		; std::numeric_limits<long>::digits
CONST	ENDS
;	COMDAT ?is_signed@?$numeric_limits@J@std@@2_NB
CONST	SEGMENT
?is_signed@?$numeric_limits@J@std@@2_NB DB 01H		; std::numeric_limits<long>::is_signed
CONST	ENDS
;	COMDAT ?is_steady@system_clock@chrono@std@@2_NB
CONST	SEGMENT
?is_steady@system_clock@chrono@std@@2_NB DB 00H		; std::chrono::system_clock::is_steady
CONST	ENDS
;	COMDAT ?is_monotonic@system_clock@chrono@std@@2_NB
CONST	SEGMENT
?is_monotonic@system_clock@chrono@std@@2_NB DB 00H	; std::chrono::system_clock::is_monotonic
CONST	ENDS
;	COMDAT ?digits10@?$numeric_limits@I@std@@2HB
CONST	SEGMENT
?digits10@?$numeric_limits@I@std@@2HB DD 09H		; std::numeric_limits<unsigned int>::digits10
CONST	ENDS
;	COMDAT ?digits@?$numeric_limits@I@std@@2HB
CONST	SEGMENT
?digits@?$numeric_limits@I@std@@2HB DD 020H		; std::numeric_limits<unsigned int>::digits
CONST	ENDS
;	COMDAT ?is_signed@?$numeric_limits@I@std@@2_NB
CONST	SEGMENT
?is_signed@?$numeric_limits@I@std@@2_NB DB 00H		; std::numeric_limits<unsigned int>::is_signed
CONST	ENDS
;	COMDAT ?_G2@?$_Ratio_multiply2@U?$ratio@$0GE@$00@std@@U?$ratio@$00$0DLJKMKAA@@2@@std@@2_JB
CONST	SEGMENT
?_G2@?$_Ratio_multiply2@U?$ratio@$0GE@$00@std@@U?$ratio@$00$0DLJKMKAA@@2@@std@@2_JB DQ 0000000000000001H ; std::_Ratio_multiply2<std::ratio<100,1>,std::ratio<1,1000000000> >::_G2
CONST	ENDS
;	COMDAT ?digits10@?$numeric_limits@H@std@@2HB
CONST	SEGMENT
?digits10@?$numeric_limits@H@std@@2HB DD 09H		; std::numeric_limits<int>::digits10
CONST	ENDS
;	COMDAT ?value@?$_Gcd@$00$00@std@@2_JB
CONST	SEGMENT
?value@?$_Gcd@$00$00@std@@2_JB DQ 0000000000000001H	; std::_Gcd<1,1>::value
CONST	ENDS
;	COMDAT ?digits@?$numeric_limits@H@std@@2HB
CONST	SEGMENT
?digits@?$numeric_limits@H@std@@2HB DD 01fH		; std::numeric_limits<int>::digits
CONST	ENDS
;	COMDAT ?is_signed@?$numeric_limits@H@std@@2_NB
CONST	SEGMENT
?is_signed@?$numeric_limits@H@std@@2_NB DB 01H		; std::numeric_limits<int>::is_signed
CONST	ENDS
;	COMDAT ?value@?$_GcdX@$00$00@std@@2_JB
CONST	SEGMENT
?value@?$_GcdX@$00$00@std@@2_JB DQ 0000000000000001H	; std::_GcdX<1,1>::value
CONST	ENDS
;	COMDAT ?value@?$_GcdX@$00$0A@@std@@2_JB
CONST	SEGMENT
?value@?$_GcdX@$00$0A@@std@@2_JB DQ 0000000000000001H	; std::_GcdX<1,0>::value
CONST	ENDS
;	COMDAT ?value@?$_Abs@$00@std@@2_JB
CONST	SEGMENT
?value@?$_Abs@$00@std@@2_JB DQ 0000000000000001H	; std::_Abs<1>::value
CONST	ENDS
;	COMDAT ?digits10@?$numeric_limits@G@std@@2HB
CONST	SEGMENT
?digits10@?$numeric_limits@G@std@@2HB DD 04H		; std::numeric_limits<unsigned short>::digits10
CONST	ENDS
;	COMDAT ?_G1@?$_Ratio_multiply2@U?$ratio@$0GE@$00@std@@U?$ratio@$00$0DLJKMKAA@@2@@std@@2_JB
CONST	SEGMENT
?_G1@?$_Ratio_multiply2@U?$ratio@$0GE@$00@std@@U?$ratio@$00$0DLJKMKAA@@2@@std@@2_JB DQ 0000000000000064H ; std::_Ratio_multiply2<std::ratio<100,1>,std::ratio<1,1000000000> >::_G1
CONST	ENDS
;	COMDAT ?digits@?$numeric_limits@G@std@@2HB
CONST	SEGMENT
?digits@?$numeric_limits@G@std@@2HB DD 010H		; std::numeric_limits<unsigned short>::digits
CONST	ENDS
;	COMDAT ?is_signed@?$numeric_limits@G@std@@2_NB
CONST	SEGMENT
?is_signed@?$numeric_limits@G@std@@2_NB DB 00H		; std::numeric_limits<unsigned short>::is_signed
CONST	ENDS
;	COMDAT ?value@?$_Gcd@$0GE@$0DLJKMKAA@@std@@2_JB
CONST	SEGMENT
?value@?$_Gcd@$0GE@$0DLJKMKAA@@std@@2_JB DQ 0000000000000064H ; std::_Gcd<100,1000000000>::value
CONST	ENDS
;	COMDAT ?_STATE_CALLED@_CancellationTokenRegistration@details@Concurrency@@0JB
CONST	SEGMENT
?_STATE_CALLED@_CancellationTokenRegistration@details@Concurrency@@0JB DD 03H ; Concurrency::details::_CancellationTokenRegistration::_STATE_CALLED
CONST	ENDS
;	COMDAT ?_STATE_SYNCHRONIZE@_CancellationTokenRegistration@details@Concurrency@@0JB
CONST	SEGMENT
?_STATE_SYNCHRONIZE@_CancellationTokenRegistration@details@Concurrency@@0JB DD 02H ; Concurrency::details::_CancellationTokenRegistration::_STATE_SYNCHRONIZE
CONST	ENDS
;	COMDAT ?value@?$_GcdX@$0GE@$0DLJKMKAA@@std@@2_JB
CONST	SEGMENT
?value@?$_GcdX@$0GE@$0DLJKMKAA@@std@@2_JB DQ 0000000000000064H ; std::_GcdX<100,1000000000>::value
CONST	ENDS
;	COMDAT ?_STATE_DEFER_DELETE@_CancellationTokenRegistration@details@Concurrency@@0JB
CONST	SEGMENT
?_STATE_DEFER_DELETE@_CancellationTokenRegistration@details@Concurrency@@0JB DD 01H ; Concurrency::details::_CancellationTokenRegistration::_STATE_DEFER_DELETE
CONST	ENDS
;	COMDAT ?_STATE_CLEAR@_CancellationTokenRegistration@details@Concurrency@@0JB
CONST	SEGMENT
?_STATE_CLEAR@_CancellationTokenRegistration@details@Concurrency@@0JB DD 00H ; Concurrency::details::_CancellationTokenRegistration::_STATE_CLEAR
CONST	ENDS
;	COMDAT ?value@?$_GcdX@$0DLJKMKAA@$0GE@@std@@2_JB
CONST	SEGMENT
?value@?$_GcdX@$0DLJKMKAA@$0GE@@std@@2_JB DQ 0000000000000064H ; std::_GcdX<1000000000,100>::value
CONST	ENDS
;	COMDAT ?value@?$integral_constant@_N$00@std@@2_NB
CONST	SEGMENT
?value@?$integral_constant@_N$00@std@@2_NB DB 01H	; std::integral_constant<bool,1>::value
CONST	ENDS
;	COMDAT ?value@?$_GcdX@$0GE@$0A@@std@@2_JB
CONST	SEGMENT
?value@?$_GcdX@$0GE@$0A@@std@@2_JB DQ 0000000000000064H	; std::_GcdX<100,0>::value
CONST	ENDS
;	COMDAT ?digits10@?$numeric_limits@F@std@@2HB
CONST	SEGMENT
?digits10@?$numeric_limits@F@std@@2HB DD 04H		; std::numeric_limits<short>::digits10
CONST	ENDS
;	COMDAT ?value@?$integral_constant@_N$0A@@std@@2_NB
CONST	SEGMENT
?value@?$integral_constant@_N$0A@@std@@2_NB DB 00H	; std::integral_constant<bool,0>::value
CONST	ENDS
;	COMDAT ?digits@?$numeric_limits@F@std@@2HB
CONST	SEGMENT
?digits@?$numeric_limits@F@std@@2HB DD 0fH		; std::numeric_limits<short>::digits
CONST	ENDS
;	COMDAT ?is_signed@?$numeric_limits@F@std@@2_NB
CONST	SEGMENT
?is_signed@?$numeric_limits@F@std@@2_NB DB 01H		; std::numeric_limits<short>::is_signed
CONST	ENDS
;	COMDAT ?value@?$_Abs@$0DLJKMKAA@@std@@2_JB
CONST	SEGMENT
?value@?$_Abs@$0DLJKMKAA@@std@@2_JB DQ 000000003b9aca00H ; std::_Abs<1000000000>::value
CONST	ENDS
;	COMDAT ?value@?$_Abs@$0GE@@std@@2_JB
CONST	SEGMENT
?value@?$_Abs@$0GE@@std@@2_JB DQ 0000000000000064H	; std::_Abs<100>::value
CONST	ENDS
;	COMDAT ?value@?$integral_constant@I$0A@@std@@2IB
CONST	SEGMENT
?value@?$integral_constant@I$0A@@std@@2IB DD 00H	; std::integral_constant<unsigned int,0>::value
CONST	ENDS
;	COMDAT ?digits10@?$numeric_limits@E@std@@2HB
CONST	SEGMENT
?digits10@?$numeric_limits@E@std@@2HB DD 02H		; std::numeric_limits<unsigned char>::digits10
CONST	ENDS
;	COMDAT ?digits@?$numeric_limits@E@std@@2HB
CONST	SEGMENT
?digits@?$numeric_limits@E@std@@2HB DD 08H		; std::numeric_limits<unsigned char>::digits
CONST	ENDS
;	COMDAT ?is_signed@?$numeric_limits@E@std@@2_NB
CONST	SEGMENT
?is_signed@?$numeric_limits@E@std@@2_NB DB 00H		; std::numeric_limits<unsigned char>::is_signed
CONST	ENDS
;	COMDAT ?digits10@?$numeric_limits@C@std@@2HB
CONST	SEGMENT
?digits10@?$numeric_limits@C@std@@2HB DD 02H		; std::numeric_limits<signed char>::digits10
CONST	ENDS
;	COMDAT ?digits@?$numeric_limits@C@std@@2HB
CONST	SEGMENT
?digits@?$numeric_limits@C@std@@2HB DD 07H		; std::numeric_limits<signed char>::digits
CONST	ENDS
;	COMDAT ?is_signed@?$numeric_limits@C@std@@2_NB
CONST	SEGMENT
?is_signed@?$numeric_limits@C@std@@2_NB DB 01H		; std::numeric_limits<signed char>::is_signed
CONST	ENDS
;	COMDAT ?digits10@?$numeric_limits@_N@std@@2HB
CONST	SEGMENT
?digits10@?$numeric_limits@_N@std@@2HB DD 00H		; std::numeric_limits<bool>::digits10
CONST	ENDS
;	COMDAT ?digits@?$numeric_limits@_N@std@@2HB
CONST	SEGMENT
?digits@?$numeric_limits@_N@std@@2HB DD 01H		; std::numeric_limits<bool>::digits
CONST	ENDS
;	COMDAT ?is_signed@?$numeric_limits@_N@std@@2_NB
CONST	SEGMENT
?is_signed@?$numeric_limits@_N@std@@2_NB DB 00H		; std::numeric_limits<bool>::is_signed
CONST	ENDS
;	COMDAT ?is_modulo@?$numeric_limits@_N@std@@2_NB
CONST	SEGMENT
?is_modulo@?$numeric_limits@_N@std@@2_NB DB 00H		; std::numeric_limits<bool>::is_modulo
CONST	ENDS
CONST	SEGMENT
_dutycycletable DB 00H
	DB	00H
	DB	00H
	DB	00H
	DB	01H
	DB	00H
	DB	00H
	DB	00H
	DB	00H
	DB	00H
	DB	00H
	DB	00H
	DB	01H
	DB	01H
	DB	00H
	DB	00H
	DB	00H
	DB	00H
	DB	01H
	DB	01H
	DB	01H
	DB	01H
	DB	00H
	DB	00H
	DB	01H
	DB	01H
	DB	01H
	DB	01H
	DB	00H
	DB	00H
	DB	01H
	DB	01H
$SG154033 DB	'Code\emulation\gb\cartridge.cpp', 00H
$SG154042 DB	'Code\emulation\gb\cartridge.cpp', 00H
$SG154046 DB	'Code\emulation\gb\cartridge.cpp', 00H
$SG154050 DB	'Code\emulation\gb\cartridge.cpp', 00H
$SG154054 DB	'Code\emulation\gb\cartridge.cpp', 00H
$SG154073 DB	'%s%s.ram', 00H
	ORG $+3
$SG154079 DB	'%s%s.ram', 00H
	ORG $+3
$SG154081 DB	'wb', 00H
CONST	ENDS
;	COMDAT ?digits10@?$numeric_limits@_W@std@@2HB
CONST	SEGMENT
?digits10@?$numeric_limits@_W@std@@2HB DD 04H		; std::numeric_limits<wchar_t>::digits10
CONST	ENDS
;	COMDAT ?digits@?$numeric_limits@_W@std@@2HB
CONST	SEGMENT
?digits@?$numeric_limits@_W@std@@2HB DD 010H		; std::numeric_limits<wchar_t>::digits
CONST	ENDS
;	COMDAT ?is_signed@?$numeric_limits@_W@std@@2_NB
CONST	SEGMENT
?is_signed@?$numeric_limits@_W@std@@2_NB DB 00H		; std::numeric_limits<wchar_t>::is_signed
CONST	ENDS
PUBLIC	??0_Ignore@std@@QAE@XZ				; std::_Ignore::_Ignore
PUBLIC	?Initialize@Component@gb@emulation@@UAEXPAVEmu@23@@Z ; emulation::gb::Component::Initialize
PUBLIC	?rom_size_bytes@CartridgeHeader@gb@emulation@@QAEIXZ ; emulation::gb::CartridgeHeader::rom_size_bytes
PUBLIC	?ram_size_bytes@CartridgeHeader@gb@emulation@@QAEIXZ ; emulation::gb::CartridgeHeader::ram_size_bytes
PUBLIC	?Initialize@Cartridge@gb@emulation@@UAEXPAVEmu@23@@Z ; emulation::gb::Cartridge::Initialize
PUBLIC	?Deinitialize@Cartridge@gb@emulation@@UAEXXZ	; emulation::gb::Cartridge::Deinitialize
PUBLIC	?LoadFile@Cartridge@gb@emulation@@QAEXPBDPAUCartridgeHeader@23@@Z ; emulation::gb::Cartridge::LoadFile
PUBLIC	?LoadRam@Cartridge@gb@emulation@@QAEXXZ		; emulation::gb::Cartridge::LoadRam
PUBLIC	?SaveRam@Cartridge@gb@emulation@@QAEXXZ		; emulation::gb::Cartridge::SaveRam
PUBLIC	?rom@Cartridge@gb@emulation@@QAEPBEXZ		; emulation::gb::Cartridge::rom
PUBLIC	?Read@Cartridge@gb@emulation@@QAEEG@Z		; emulation::gb::Cartridge::Read
PUBLIC	?Write@Cartridge@gb@emulation@@QAEXGE@Z		; emulation::gb::Cartridge::Write
PUBLIC	?Initialize@MemoryBankController@gb@emulation@@UAEXPAVCartridge@23@@Z ; emulation::gb::MemoryBankController::Initialize
PUBLIC	?Deinitialize@MemoryBankController@gb@emulation@@UAEXXZ ; emulation::gb::MemoryBankController::Deinitialize
PUBLIC	?Tick@MemoryBankController@gb@emulation@@UAEXXZ	; emulation::gb::MemoryBankController::Tick
PUBLIC	?eram@MemoryBankController@gb@emulation@@QAEPAEXZ ; emulation::gb::MemoryBankController::eram
PUBLIC	??0MemoryBankController@gb@emulation@@QAE@XZ	; emulation::gb::MemoryBankController::MemoryBankController
PUBLIC	??$SafeDeleteArray@E@@YAXPAPAE@Z		; SafeDeleteArray<unsigned char>
PUBLIC	?cartridge@Emu@gb@emulation@@QAEPAVCartridge@23@XZ ; emulation::gb::Emu::cartridge
PUBLIC	?memory@Emu@gb@emulation@@QAEPAVMemory@23@XZ	; emulation::gb::Emu::memory
PUBLIC	?Deinitialize@MBCNone@gb@emulation@@UAEXXZ	; emulation::gb::MBCNone::Deinitialize
PUBLIC	?Read@MBCNone@gb@emulation@@UAEEG@Z		; emulation::gb::MBCNone::Read
PUBLIC	?Write@MBCNone@gb@emulation@@UAEXGE@Z		; emulation::gb::MBCNone::Write
PUBLIC	??0MBCNone@gb@emulation@@QAE@XZ			; emulation::gb::MBCNone::MBCNone
PUBLIC	?Initialize@MBC1@gb@emulation@@UAEXPAVCartridge@23@@Z ; emulation::gb::MBC1::Initialize
PUBLIC	?Deinitialize@MBC1@gb@emulation@@UAEXXZ		; emulation::gb::MBC1::Deinitialize
PUBLIC	?Read@MBC1@gb@emulation@@UAEEG@Z		; emulation::gb::MBC1::Read
PUBLIC	?Write@MBC1@gb@emulation@@UAEXGE@Z		; emulation::gb::MBC1::Write
PUBLIC	??0MBC1@gb@emulation@@QAE@XZ			; emulation::gb::MBC1::MBC1
PUBLIC	?Initialize@MBC3@gb@emulation@@UAEXPAVCartridge@23@@Z ; emulation::gb::MBC3::Initialize
PUBLIC	?Deinitialize@MBC3@gb@emulation@@UAEXXZ		; emulation::gb::MBC3::Deinitialize
PUBLIC	?Read@MBC3@gb@emulation@@UAEEG@Z		; emulation::gb::MBC3::Read
PUBLIC	?Write@MBC3@gb@emulation@@UAEXGE@Z		; emulation::gb::MBC3::Write
PUBLIC	?Tick@MBC3@gb@emulation@@UAEXXZ			; emulation::gb::MBC3::Tick
PUBLIC	??0MBC3@gb@emulation@@QAE@XZ			; emulation::gb::MBC3::MBC3
PUBLIC	?Initialize@MBC5@gb@emulation@@UAEXPAVCartridge@23@@Z ; emulation::gb::MBC5::Initialize
PUBLIC	?Deinitialize@MBC5@gb@emulation@@UAEXXZ		; emulation::gb::MBC5::Deinitialize
PUBLIC	?Read@MBC5@gb@emulation@@UAEEG@Z		; emulation::gb::MBC5::Read
PUBLIC	?Write@MBC5@gb@emulation@@UAEXGE@Z		; emulation::gb::MBC5::Write
PUBLIC	??0MBC5@gb@emulation@@QAE@XZ			; emulation::gb::MBC5::MBC5
PUBLIC	??$SafeDelete@VMemoryBankController@gb@emulation@@@@YAXPAPAVMemoryBankController@gb@emulation@@@Z ; SafeDelete<emulation::gb::MemoryBankController>
PUBLIC	??_7MemoryBankController@gb@emulation@@6B@	; emulation::gb::MemoryBankController::`vftable'
PUBLIC	??_C@_0EO@OHMNHGO@c?3?2users?2khalid?2documents?2github@ ; `string'
PUBLIC	??_7MBCNone@gb@emulation@@6B@			; emulation::gb::MBCNone::`vftable'
PUBLIC	??_7MBC1@gb@emulation@@6B@			; emulation::gb::MBC1::`vftable'
PUBLIC	??_7MBC3@gb@emulation@@6B@			; emulation::gb::MBC3::`vftable'
PUBLIC	??_7MBC5@gb@emulation@@6B@			; emulation::gb::MBC5::`vftable'
PUBLIC	??_R4MemoryBankController@gb@emulation@@6B@	; emulation::gb::MemoryBankController::`RTTI Complete Object Locator'
PUBLIC	??_R0?AVMemoryBankController@gb@emulation@@@8	; emulation::gb::MemoryBankController `RTTI Type Descriptor'
PUBLIC	??_R3MemoryBankController@gb@emulation@@8	; emulation::gb::MemoryBankController::`RTTI Class Hierarchy Descriptor'
PUBLIC	??_R2MemoryBankController@gb@emulation@@8	; emulation::gb::MemoryBankController::`RTTI Base Class Array'
PUBLIC	??_R1A@?0A@EA@MemoryBankController@gb@emulation@@8 ; emulation::gb::MemoryBankController::`RTTI Base Class Descriptor at (0,-1,0,64)'
PUBLIC	??_R4MBCNone@gb@emulation@@6B@			; emulation::gb::MBCNone::`RTTI Complete Object Locator'
PUBLIC	??_R0?AVMBCNone@gb@emulation@@@8		; emulation::gb::MBCNone `RTTI Type Descriptor'
PUBLIC	??_R3MBCNone@gb@emulation@@8			; emulation::gb::MBCNone::`RTTI Class Hierarchy Descriptor'
PUBLIC	??_R2MBCNone@gb@emulation@@8			; emulation::gb::MBCNone::`RTTI Base Class Array'
PUBLIC	??_R1A@?0A@EA@MBCNone@gb@emulation@@8		; emulation::gb::MBCNone::`RTTI Base Class Descriptor at (0,-1,0,64)'
PUBLIC	??_R4MBC1@gb@emulation@@6B@			; emulation::gb::MBC1::`RTTI Complete Object Locator'
PUBLIC	??_R0?AVMBC1@gb@emulation@@@8			; emulation::gb::MBC1 `RTTI Type Descriptor'
PUBLIC	??_R3MBC1@gb@emulation@@8			; emulation::gb::MBC1::`RTTI Class Hierarchy Descriptor'
PUBLIC	??_R2MBC1@gb@emulation@@8			; emulation::gb::MBC1::`RTTI Base Class Array'
PUBLIC	??_R1A@?0A@EA@MBC1@gb@emulation@@8		; emulation::gb::MBC1::`RTTI Base Class Descriptor at (0,-1,0,64)'
PUBLIC	??_R4MBC3@gb@emulation@@6B@			; emulation::gb::MBC3::`RTTI Complete Object Locator'
PUBLIC	??_R0?AVMBC3@gb@emulation@@@8			; emulation::gb::MBC3 `RTTI Type Descriptor'
PUBLIC	??_R3MBC3@gb@emulation@@8			; emulation::gb::MBC3::`RTTI Class Hierarchy Descriptor'
PUBLIC	??_R2MBC3@gb@emulation@@8			; emulation::gb::MBC3::`RTTI Base Class Array'
PUBLIC	??_R1A@?0A@EA@MBC3@gb@emulation@@8		; emulation::gb::MBC3::`RTTI Base Class Descriptor at (0,-1,0,64)'
PUBLIC	??_R4MBC5@gb@emulation@@6B@			; emulation::gb::MBC5::`RTTI Complete Object Locator'
PUBLIC	??_R0?AVMBC5@gb@emulation@@@8			; emulation::gb::MBC5 `RTTI Type Descriptor'
PUBLIC	??_R3MBC5@gb@emulation@@8			; emulation::gb::MBC5::`RTTI Class Hierarchy Descriptor'
PUBLIC	??_R2MBC5@gb@emulation@@8			; emulation::gb::MBC5::`RTTI Base Class Array'
PUBLIC	??_R1A@?0A@EA@MBC5@gb@emulation@@8		; emulation::gb::MBC5::`RTTI Base Class Descriptor at (0,-1,0,64)'
EXTRN	__purecall:PROC
EXTRN	??3@YAXPAX@Z:PROC				; operator delete
EXTRN	_memcpy:PROC
EXTRN	_memset:PROC
EXTRN	_strcpy:PROC
EXTRN	__imp__strncpy:PROC
EXTRN	__imp__strrchr:PROC
EXTRN	__imp__DebugBreak@0:PROC
EXTRN	??_V@YAXPAX@Z:PROC				; operator delete[]
EXTRN	__imp__fclose:PROC
EXTRN	__imp__fopen:PROC
EXTRN	__imp__fwrite:PROC
EXTRN	__imp__sprintf:PROC
EXTRN	??2@YAPAXIHPBDH@Z:PROC				; operator new
EXTRN	??_U@YAPAXIHPBDH@Z:PROC				; operator new[]
EXTRN	?ReadWholeFileBinary@io@core@@YAXPBDPAPAEAAI@Z:PROC ; core::io::ReadWholeFileBinary
EXTRN	?DestroyFileBuffer@io@core@@YAXPAPAE@Z:PROC	; core::io::DestroyFileBuffer
EXTRN	?Stop@Emu@gb@emulation@@QAEXXZ:PROC		; emulation::gb::Emu::Stop
EXTRN	?Reset@Emu@gb@emulation@@QAEXXZ:PROC		; emulation::gb::Emu::Reset
EXTRN	@_RTC_CheckStackVars@8:PROC
EXTRN	@__security_check_cookie@4:PROC
EXTRN	__RTC_CheckEsp:PROC
EXTRN	__RTC_InitBase:PROC
EXTRN	__RTC_Shutdown:PROC
EXTRN	??_7type_info@@6B@:QWORD			; type_info::`vftable'
EXTRN	___security_cookie:DWORD
_BSS	SEGMENT
_piecewise_construct DB 01H DUP (?)
_allocator_arg DB 01H DUP (?)
_ignore	DB	01H DUP (?)
__Tuple_alloc DB 01H DUP (?)
_BSS	ENDS
CRT$XCU	SEGMENT
_piecewise_construct$initializer$ DD FLAT:??__Epiecewise_construct@std@@YAXXZ
CRT$XCU	ENDS
;	COMDAT rtc$TMZ
rtc$TMZ	SEGMENT
__RTC_Shutdown.rtc$TMZ DD FLAT:__RTC_Shutdown
rtc$TMZ	ENDS
;	COMDAT rtc$IMZ
rtc$IMZ	SEGMENT
__RTC_InitBase.rtc$IMZ DD FLAT:__RTC_InitBase
rtc$IMZ	ENDS
;	COMDAT ??_R1A@?0A@EA@MBC5@gb@emulation@@8
rdata$r	SEGMENT
??_R1A@?0A@EA@MBC5@gb@emulation@@8 DD FLAT:??_R0?AVMBC5@gb@emulation@@@8 ; emulation::gb::MBC5::`RTTI Base Class Descriptor at (0,-1,0,64)'
	DD	01H
	DD	00H
	DD	0ffffffffH
	DD	00H
	DD	040H
	DD	FLAT:??_R3MBC5@gb@emulation@@8
rdata$r	ENDS
;	COMDAT ??_R2MBC5@gb@emulation@@8
rdata$r	SEGMENT
??_R2MBC5@gb@emulation@@8 DD FLAT:??_R1A@?0A@EA@MBC5@gb@emulation@@8 ; emulation::gb::MBC5::`RTTI Base Class Array'
	DD	FLAT:??_R1A@?0A@EA@MemoryBankController@gb@emulation@@8
rdata$r	ENDS
;	COMDAT ??_R3MBC5@gb@emulation@@8
rdata$r	SEGMENT
??_R3MBC5@gb@emulation@@8 DD 00H			; emulation::gb::MBC5::`RTTI Class Hierarchy Descriptor'
	DD	00H
	DD	02H
	DD	FLAT:??_R2MBC5@gb@emulation@@8
rdata$r	ENDS
;	COMDAT ??_R0?AVMBC5@gb@emulation@@@8
_DATA	SEGMENT
??_R0?AVMBC5@gb@emulation@@@8 DD FLAT:??_7type_info@@6B@ ; emulation::gb::MBC5 `RTTI Type Descriptor'
	DD	00H
	DB	'.?AVMBC5@gb@emulation@@', 00H
_DATA	ENDS
;	COMDAT ??_R4MBC5@gb@emulation@@6B@
rdata$r	SEGMENT
??_R4MBC5@gb@emulation@@6B@ DD 00H			; emulation::gb::MBC5::`RTTI Complete Object Locator'
	DD	00H
	DD	00H
	DD	FLAT:??_R0?AVMBC5@gb@emulation@@@8
	DD	FLAT:??_R3MBC5@gb@emulation@@8
rdata$r	ENDS
;	COMDAT ??_R1A@?0A@EA@MBC3@gb@emulation@@8
rdata$r	SEGMENT
??_R1A@?0A@EA@MBC3@gb@emulation@@8 DD FLAT:??_R0?AVMBC3@gb@emulation@@@8 ; emulation::gb::MBC3::`RTTI Base Class Descriptor at (0,-1,0,64)'
	DD	01H
	DD	00H
	DD	0ffffffffH
	DD	00H
	DD	040H
	DD	FLAT:??_R3MBC3@gb@emulation@@8
rdata$r	ENDS
;	COMDAT ??_R2MBC3@gb@emulation@@8
rdata$r	SEGMENT
??_R2MBC3@gb@emulation@@8 DD FLAT:??_R1A@?0A@EA@MBC3@gb@emulation@@8 ; emulation::gb::MBC3::`RTTI Base Class Array'
	DD	FLAT:??_R1A@?0A@EA@MemoryBankController@gb@emulation@@8
rdata$r	ENDS
;	COMDAT ??_R3MBC3@gb@emulation@@8
rdata$r	SEGMENT
??_R3MBC3@gb@emulation@@8 DD 00H			; emulation::gb::MBC3::`RTTI Class Hierarchy Descriptor'
	DD	00H
	DD	02H
	DD	FLAT:??_R2MBC3@gb@emulation@@8
rdata$r	ENDS
;	COMDAT ??_R0?AVMBC3@gb@emulation@@@8
_DATA	SEGMENT
??_R0?AVMBC3@gb@emulation@@@8 DD FLAT:??_7type_info@@6B@ ; emulation::gb::MBC3 `RTTI Type Descriptor'
	DD	00H
	DB	'.?AVMBC3@gb@emulation@@', 00H
_DATA	ENDS
;	COMDAT ??_R4MBC3@gb@emulation@@6B@
rdata$r	SEGMENT
??_R4MBC3@gb@emulation@@6B@ DD 00H			; emulation::gb::MBC3::`RTTI Complete Object Locator'
	DD	00H
	DD	00H
	DD	FLAT:??_R0?AVMBC3@gb@emulation@@@8
	DD	FLAT:??_R3MBC3@gb@emulation@@8
rdata$r	ENDS
;	COMDAT ??_R1A@?0A@EA@MBC1@gb@emulation@@8
rdata$r	SEGMENT
??_R1A@?0A@EA@MBC1@gb@emulation@@8 DD FLAT:??_R0?AVMBC1@gb@emulation@@@8 ; emulation::gb::MBC1::`RTTI Base Class Descriptor at (0,-1,0,64)'
	DD	01H
	DD	00H
	DD	0ffffffffH
	DD	00H
	DD	040H
	DD	FLAT:??_R3MBC1@gb@emulation@@8
rdata$r	ENDS
;	COMDAT ??_R2MBC1@gb@emulation@@8
rdata$r	SEGMENT
??_R2MBC1@gb@emulation@@8 DD FLAT:??_R1A@?0A@EA@MBC1@gb@emulation@@8 ; emulation::gb::MBC1::`RTTI Base Class Array'
	DD	FLAT:??_R1A@?0A@EA@MemoryBankController@gb@emulation@@8
rdata$r	ENDS
;	COMDAT ??_R3MBC1@gb@emulation@@8
rdata$r	SEGMENT
??_R3MBC1@gb@emulation@@8 DD 00H			; emulation::gb::MBC1::`RTTI Class Hierarchy Descriptor'
	DD	00H
	DD	02H
	DD	FLAT:??_R2MBC1@gb@emulation@@8
rdata$r	ENDS
;	COMDAT ??_R0?AVMBC1@gb@emulation@@@8
_DATA	SEGMENT
??_R0?AVMBC1@gb@emulation@@@8 DD FLAT:??_7type_info@@6B@ ; emulation::gb::MBC1 `RTTI Type Descriptor'
	DD	00H
	DB	'.?AVMBC1@gb@emulation@@', 00H
_DATA	ENDS
;	COMDAT ??_R4MBC1@gb@emulation@@6B@
rdata$r	SEGMENT
??_R4MBC1@gb@emulation@@6B@ DD 00H			; emulation::gb::MBC1::`RTTI Complete Object Locator'
	DD	00H
	DD	00H
	DD	FLAT:??_R0?AVMBC1@gb@emulation@@@8
	DD	FLAT:??_R3MBC1@gb@emulation@@8
rdata$r	ENDS
;	COMDAT ??_R1A@?0A@EA@MBCNone@gb@emulation@@8
rdata$r	SEGMENT
??_R1A@?0A@EA@MBCNone@gb@emulation@@8 DD FLAT:??_R0?AVMBCNone@gb@emulation@@@8 ; emulation::gb::MBCNone::`RTTI Base Class Descriptor at (0,-1,0,64)'
	DD	01H
	DD	00H
	DD	0ffffffffH
	DD	00H
	DD	040H
	DD	FLAT:??_R3MBCNone@gb@emulation@@8
rdata$r	ENDS
;	COMDAT ??_R2MBCNone@gb@emulation@@8
rdata$r	SEGMENT
??_R2MBCNone@gb@emulation@@8 DD FLAT:??_R1A@?0A@EA@MBCNone@gb@emulation@@8 ; emulation::gb::MBCNone::`RTTI Base Class Array'
	DD	FLAT:??_R1A@?0A@EA@MemoryBankController@gb@emulation@@8
rdata$r	ENDS
;	COMDAT ??_R3MBCNone@gb@emulation@@8
rdata$r	SEGMENT
??_R3MBCNone@gb@emulation@@8 DD 00H			; emulation::gb::MBCNone::`RTTI Class Hierarchy Descriptor'
	DD	00H
	DD	02H
	DD	FLAT:??_R2MBCNone@gb@emulation@@8
rdata$r	ENDS
;	COMDAT ??_R0?AVMBCNone@gb@emulation@@@8
_DATA	SEGMENT
??_R0?AVMBCNone@gb@emulation@@@8 DD FLAT:??_7type_info@@6B@ ; emulation::gb::MBCNone `RTTI Type Descriptor'
	DD	00H
	DB	'.?AVMBCNone@gb@emulation@@', 00H
_DATA	ENDS
;	COMDAT ??_R4MBCNone@gb@emulation@@6B@
rdata$r	SEGMENT
??_R4MBCNone@gb@emulation@@6B@ DD 00H			; emulation::gb::MBCNone::`RTTI Complete Object Locator'
	DD	00H
	DD	00H
	DD	FLAT:??_R0?AVMBCNone@gb@emulation@@@8
	DD	FLAT:??_R3MBCNone@gb@emulation@@8
rdata$r	ENDS
;	COMDAT ??_R1A@?0A@EA@MemoryBankController@gb@emulation@@8
rdata$r	SEGMENT
??_R1A@?0A@EA@MemoryBankController@gb@emulation@@8 DD FLAT:??_R0?AVMemoryBankController@gb@emulation@@@8 ; emulation::gb::MemoryBankController::`RTTI Base Class Descriptor at (0,-1,0,64)'
	DD	00H
	DD	00H
	DD	0ffffffffH
	DD	00H
	DD	040H
	DD	FLAT:??_R3MemoryBankController@gb@emulation@@8
rdata$r	ENDS
;	COMDAT ??_R2MemoryBankController@gb@emulation@@8
rdata$r	SEGMENT
??_R2MemoryBankController@gb@emulation@@8 DD FLAT:??_R1A@?0A@EA@MemoryBankController@gb@emulation@@8 ; emulation::gb::MemoryBankController::`RTTI Base Class Array'
rdata$r	ENDS
;	COMDAT ??_R3MemoryBankController@gb@emulation@@8
rdata$r	SEGMENT
??_R3MemoryBankController@gb@emulation@@8 DD 00H	; emulation::gb::MemoryBankController::`RTTI Class Hierarchy Descriptor'
	DD	00H
	DD	01H
	DD	FLAT:??_R2MemoryBankController@gb@emulation@@8
rdata$r	ENDS
;	COMDAT ??_R0?AVMemoryBankController@gb@emulation@@@8
_DATA	SEGMENT
??_R0?AVMemoryBankController@gb@emulation@@@8 DD FLAT:??_7type_info@@6B@ ; emulation::gb::MemoryBankController `RTTI Type Descriptor'
	DD	00H
	DB	'.?AVMemoryBankController@gb@emulation@@', 00H
_DATA	ENDS
;	COMDAT ??_R4MemoryBankController@gb@emulation@@6B@
rdata$r	SEGMENT
??_R4MemoryBankController@gb@emulation@@6B@ DD 00H	; emulation::gb::MemoryBankController::`RTTI Complete Object Locator'
	DD	00H
	DD	00H
	DD	FLAT:??_R0?AVMemoryBankController@gb@emulation@@@8
	DD	FLAT:??_R3MemoryBankController@gb@emulation@@8
rdata$r	ENDS
;	COMDAT ??_7MBC5@gb@emulation@@6B@
CONST	SEGMENT
??_7MBC5@gb@emulation@@6B@ DD FLAT:??_R4MBC5@gb@emulation@@6B@ ; emulation::gb::MBC5::`vftable'
	DD	FLAT:?Initialize@MBC5@gb@emulation@@UAEXPAVCartridge@23@@Z
	DD	FLAT:?Deinitialize@MBC5@gb@emulation@@UAEXXZ
	DD	FLAT:?Read@MBC5@gb@emulation@@UAEEG@Z
	DD	FLAT:?Write@MBC5@gb@emulation@@UAEXGE@Z
	DD	FLAT:?Tick@MemoryBankController@gb@emulation@@UAEXXZ
CONST	ENDS
;	COMDAT ??_7MBC3@gb@emulation@@6B@
CONST	SEGMENT
??_7MBC3@gb@emulation@@6B@ DD FLAT:??_R4MBC3@gb@emulation@@6B@ ; emulation::gb::MBC3::`vftable'
	DD	FLAT:?Initialize@MBC3@gb@emulation@@UAEXPAVCartridge@23@@Z
	DD	FLAT:?Deinitialize@MBC3@gb@emulation@@UAEXXZ
	DD	FLAT:?Read@MBC3@gb@emulation@@UAEEG@Z
	DD	FLAT:?Write@MBC3@gb@emulation@@UAEXGE@Z
	DD	FLAT:?Tick@MBC3@gb@emulation@@UAEXXZ
CONST	ENDS
;	COMDAT ??_7MBC1@gb@emulation@@6B@
CONST	SEGMENT
??_7MBC1@gb@emulation@@6B@ DD FLAT:??_R4MBC1@gb@emulation@@6B@ ; emulation::gb::MBC1::`vftable'
	DD	FLAT:?Initialize@MBC1@gb@emulation@@UAEXPAVCartridge@23@@Z
	DD	FLAT:?Deinitialize@MBC1@gb@emulation@@UAEXXZ
	DD	FLAT:?Read@MBC1@gb@emulation@@UAEEG@Z
	DD	FLAT:?Write@MBC1@gb@emulation@@UAEXGE@Z
	DD	FLAT:?Tick@MemoryBankController@gb@emulation@@UAEXXZ
CONST	ENDS
;	COMDAT ??_7MBCNone@gb@emulation@@6B@
CONST	SEGMENT
??_7MBCNone@gb@emulation@@6B@ DD FLAT:??_R4MBCNone@gb@emulation@@6B@ ; emulation::gb::MBCNone::`vftable'
	DD	FLAT:?Initialize@MemoryBankController@gb@emulation@@UAEXPAVCartridge@23@@Z
	DD	FLAT:?Deinitialize@MBCNone@gb@emulation@@UAEXXZ
	DD	FLAT:?Read@MBCNone@gb@emulation@@UAEEG@Z
	DD	FLAT:?Write@MBCNone@gb@emulation@@UAEXGE@Z
	DD	FLAT:?Tick@MemoryBankController@gb@emulation@@UAEXXZ
CONST	ENDS
;	COMDAT ??_C@_0EO@OHMNHGO@c?3?2users?2khalid?2documents?2github@
CONST	SEGMENT
??_C@_0EO@OHMNHGO@c?3?2users?2khalid?2documents?2github@ DB 'c:\users\kha'
	DB	'lid\documents\github\gbemu\solution\code\emulation\gb\cartrid'
	DB	'ge.h', 00H					; `string'
CONST	ENDS
;	COMDAT ??_7MemoryBankController@gb@emulation@@6B@
CONST	SEGMENT
??_7MemoryBankController@gb@emulation@@6B@ DD FLAT:??_R4MemoryBankController@gb@emulation@@6B@ ; emulation::gb::MemoryBankController::`vftable'
	DD	FLAT:?Initialize@MemoryBankController@gb@emulation@@UAEXPAVCartridge@23@@Z
	DD	FLAT:?Deinitialize@MemoryBankController@gb@emulation@@UAEXXZ
	DD	FLAT:__purecall
	DD	FLAT:__purecall
	DD	FLAT:?Tick@MemoryBankController@gb@emulation@@UAEXXZ
CONST	ENDS
CRT$XCU	SEGMENT
_allocator_arg$initializer$ DD FLAT:??__Eallocator_arg@std@@YAXXZ
CRT$XCU	ENDS
CRT$XCU	SEGMENT
_ignore$initializer$ DD FLAT:??__Eignore@std@@YAXXZ
CRT$XCU	ENDS
CRT$XCU	SEGMENT
__Tuple_alloc$initializer$ DD FLAT:??__E_Tuple_alloc@std@@YAXXZ
CRT$XCU	ENDS
; Function compile flags: /Odtp /RTCsu
; File c:\users\khalid\documents\github\wincore\types.h
;	COMDAT ??$SafeDelete@VMemoryBankController@gb@emulation@@@@YAXPAPAVMemoryBankController@gb@emulation@@@Z
_TEXT	SEGMENT
$T1 = -4						; size = 4
_ppInterfaceToDelete$ = 8				; size = 4
??$SafeDelete@VMemoryBankController@gb@emulation@@@@YAXPAPAVMemoryBankController@gb@emulation@@@Z PROC ; SafeDelete<emulation::gb::MemoryBankController>, COMDAT

; 37   : inline void SafeDelete(Interface **ppInterfaceToDelete) {

	push	ebp
	mov	ebp, esp
	push	ecx
	mov	DWORD PTR [ebp-4], -858993460		; ccccccccH

; 38   :     if (*ppInterfaceToDelete != NULL) {

	mov	eax, DWORD PTR _ppInterfaceToDelete$[ebp]
	cmp	DWORD PTR [eax], 0
	je	SHORT $LN2@SafeDelete

; 39   :         delete (*ppInterfaceToDelete);

	mov	ecx, DWORD PTR _ppInterfaceToDelete$[ebp]
	mov	edx, DWORD PTR [ecx]
	mov	DWORD PTR $T1[ebp], edx
	mov	eax, DWORD PTR $T1[ebp]
	push	eax
	call	??3@YAXPAX@Z				; operator delete
	add	esp, 4

; 40   :         (*ppInterfaceToDelete) = NULL;

	mov	ecx, DWORD PTR _ppInterfaceToDelete$[ebp]
	mov	DWORD PTR [ecx], 0
$LN2@SafeDelete:

; 41   :     }
; 42   : }

	add	esp, 4
	cmp	ebp, esp
	call	__RTC_CheckEsp
	mov	esp, ebp
	pop	ebp
	ret	0
??$SafeDelete@VMemoryBankController@gb@emulation@@@@YAXPAPAVMemoryBankController@gb@emulation@@@Z ENDP ; SafeDelete<emulation::gb::MemoryBankController>
_TEXT	ENDS
; Function compile flags: /Odtp /RTCsu
;	COMDAT ??0MBC5@gb@emulation@@QAE@XZ
_TEXT	SEGMENT
_this$ = -4						; size = 4
??0MBC5@gb@emulation@@QAE@XZ PROC			; emulation::gb::MBC5::MBC5, COMDAT
; _this$ = ecx
	push	ebp
	mov	ebp, esp
	push	ecx
	mov	DWORD PTR [ebp-4], -858993460		; ccccccccH
	mov	DWORD PTR _this$[ebp], ecx
	mov	ecx, DWORD PTR _this$[ebp]
	call	??0MemoryBankController@gb@emulation@@QAE@XZ
	mov	eax, DWORD PTR _this$[ebp]
	mov	DWORD PTR [eax], OFFSET ??_7MBC5@gb@emulation@@6B@
	mov	eax, DWORD PTR _this$[ebp]
	add	esp, 4
	cmp	ebp, esp
	call	__RTC_CheckEsp
	mov	esp, ebp
	pop	ebp
	ret	0
??0MBC5@gb@emulation@@QAE@XZ ENDP			; emulation::gb::MBC5::MBC5
_TEXT	ENDS
; Function compile flags: /Odtp /RTCsu
; File c:\users\khalid\documents\github\gbemu\solution\code\emulation\gb\mbc.h
;	COMDAT ?Write@MBC5@gb@emulation@@UAEXGE@Z
_TEXT	SEGMENT
_this$ = -4						; size = 4
_address$ = 8						; size = 2
_data$ = 12						; size = 1
?Write@MBC5@gb@emulation@@UAEXGE@Z PROC			; emulation::gb::MBC5::Write, COMDAT
; _this$ = ecx

; 223  :   void Write(uint16_t address, uint8_t data) {

	push	ebp
	mov	ebp, esp
	push	ecx
	mov	DWORD PTR [ebp-4], -858993460		; ccccccccH
	mov	DWORD PTR _this$[ebp], ecx

; 224  :    if (address >= 0x0000 && address <= 0x1FFF) {

	movzx	eax, WORD PTR _address$[ebp]
	test	eax, eax
	jl	SHORT $LN12@Write
	movzx	ecx, WORD PTR _address$[ebp]
	cmp	ecx, 8191				; 00001fffH
	jg	SHORT $LN12@Write

; 225  : 	    eram_enable = data;

	mov	edx, DWORD PTR _this$[ebp]
	mov	al, BYTE PTR _data$[ebp]
	mov	BYTE PTR [edx+12], al
	jmp	$LN13@Write
$LN12@Write:

; 226  : 	  } else if (address >= 0x2000 && address <= 0x2FFF) {

	movzx	ecx, WORD PTR _address$[ebp]
	cmp	ecx, 8192				; 00002000H
	jl	SHORT $LN10@Write
	movzx	edx, WORD PTR _address$[ebp]
	cmp	edx, 12287				; 00002fffH
	jg	SHORT $LN10@Write

; 227  :       rom_bank_number = (rom_bank_number&0xFF00)|data;

	mov	eax, DWORD PTR _this$[ebp]
	movzx	ecx, WORD PTR [eax+16]
	and	ecx, 65280				; 0000ff00H
	movzx	edx, BYTE PTR _data$[ebp]
	or	ecx, edx
	mov	eax, DWORD PTR _this$[ebp]
	mov	WORD PTR [eax+16], cx
	jmp	$LN13@Write
$LN10@Write:

; 228  :     } else if (address >= 0x3000 && address <= 0x3FFF) {

	movzx	ecx, WORD PTR _address$[ebp]
	cmp	ecx, 12288				; 00003000H
	jl	SHORT $LN8@Write
	movzx	edx, WORD PTR _address$[ebp]
	cmp	edx, 16383				; 00003fffH
	jg	SHORT $LN8@Write

; 229  :       rom_bank_number = ((data&0x1)<<8)|(rom_bank_number&0xFF);

	movzx	eax, BYTE PTR _data$[ebp]
	and	eax, 1
	shl	eax, 8
	mov	ecx, DWORD PTR _this$[ebp]
	movzx	edx, WORD PTR [ecx+16]
	and	edx, 255				; 000000ffH
	or	eax, edx
	mov	ecx, DWORD PTR _this$[ebp]
	mov	WORD PTR [ecx+16], ax
	jmp	SHORT $LN13@Write
$LN8@Write:

; 230  :     }else if (address >= 0x4000 && address <= 0x5FFF) {

	movzx	edx, WORD PTR _address$[ebp]
	cmp	edx, 16384				; 00004000H
	jl	SHORT $LN6@Write
	movzx	eax, WORD PTR _address$[ebp]
	cmp	eax, 24575				; 00005fffH
	jg	SHORT $LN6@Write

; 231  : 
; 232  :         ram_bank_number = data&0xF;

	movzx	ecx, BYTE PTR _data$[ebp]
	and	ecx, 15					; 0000000fH
	mov	edx, DWORD PTR _this$[ebp]
	mov	BYTE PTR [edx+18], cl
	jmp	SHORT $LN13@Write
$LN6@Write:

; 233  :       
; 234  :     } else if (address >= 0x6000 && address <= 0x7FFF) {

	movzx	eax, WORD PTR _address$[ebp]
	cmp	eax, 24576				; 00006000H
	jl	SHORT $LN4@Write
	movzx	ecx, WORD PTR _address$[ebp]
	cmp	ecx, 32767				; 00007fffH
	jg	SHORT $LN4@Write
	jmp	SHORT $LN13@Write
$LN4@Write:

; 235  :      
; 236  : 
; 237  :     } else if (address >= 0xA000 && address <= 0xBFFF) {

	movzx	edx, WORD PTR _address$[ebp]
	cmp	edx, 40960				; 0000a000H
	jl	SHORT $LN13@Write
	movzx	eax, WORD PTR _address$[ebp]
	cmp	eax, 49151				; 0000bfffH
	jg	SHORT $LN13@Write

; 238  :       if ((eram_enable&0x0A)==0x0A)

	mov	ecx, DWORD PTR _this$[ebp]
	movzx	edx, BYTE PTR [ecx+12]
	and	edx, 10					; 0000000aH
	cmp	edx, 10					; 0000000aH
	jne	SHORT $LN13@Write

; 239  :         eram_[address&0x1FFF] = data;

	movzx	eax, WORD PTR _address$[ebp]
	and	eax, 8191				; 00001fffH
	mov	ecx, DWORD PTR _this$[ebp]
	mov	edx, DWORD PTR [ecx+8]
	mov	cl, BYTE PTR _data$[ebp]
	mov	BYTE PTR [edx+eax], cl
$LN13@Write:

; 240  : 	  }
; 241  :   }

	mov	esp, ebp
	pop	ebp
	ret	8
?Write@MBC5@gb@emulation@@UAEXGE@Z ENDP			; emulation::gb::MBC5::Write
_TEXT	ENDS
; Function compile flags: /Odtp /RTCsu
; File c:\users\khalid\documents\github\gbemu\solution\code\emulation\gb\mbc.h
;	COMDAT ?Read@MBC5@gb@emulation@@UAEEG@Z
_TEXT	SEGMENT
_this$ = -4						; size = 4
_address$ = 8						; size = 2
?Read@MBC5@gb@emulation@@UAEEG@Z PROC			; emulation::gb::MBC5::Read, COMDAT
; _this$ = ecx

; 210  :   uint8_t Read(uint16_t address) {

	push	ebp
	mov	ebp, esp
	push	ecx
	mov	DWORD PTR [ebp-4], -858993460		; ccccccccH
	mov	DWORD PTR _this$[ebp], ecx

; 211  :     if (address >= 0x0000 && address <= 0x3FFF) {

	movzx	eax, WORD PTR _address$[ebp]
	test	eax, eax
	jl	SHORT $LN7@Read
	movzx	ecx, WORD PTR _address$[ebp]
	cmp	ecx, 16383				; 00003fffH
	jg	SHORT $LN7@Read

; 212  : 	    return cartridge->rom()[address];

	mov	edx, DWORD PTR _this$[ebp]
	mov	ecx, DWORD PTR [edx+4]
	call	?rom@Cartridge@gb@emulation@@QAEPBEXZ	; emulation::gb::Cartridge::rom
	movzx	ecx, WORD PTR _address$[ebp]
	mov	al, BYTE PTR [eax+ecx]
	jmp	$LN8@Read
	jmp	$LN6@Read
$LN7@Read:

; 213  : 	  } else if (address >= 0x4000 && address <= 0x7FFF) {

	movzx	edx, WORD PTR _address$[ebp]
	cmp	edx, 16384				; 00004000H
	jl	SHORT $LN5@Read
	movzx	eax, WORD PTR _address$[ebp]
	cmp	eax, 32767				; 00007fffH
	jg	SHORT $LN5@Read

; 214  :       return cartridge->rom()[address+0x4000*(rom_bank_number-1)];

	mov	ecx, DWORD PTR _this$[ebp]
	mov	ecx, DWORD PTR [ecx+4]
	call	?rom@Cartridge@gb@emulation@@QAEPBEXZ	; emulation::gb::Cartridge::rom
	movzx	edx, WORD PTR _address$[ebp]
	mov	ecx, DWORD PTR _this$[ebp]
	movzx	ecx, WORD PTR [ecx+16]
	sub	ecx, 1
	shl	ecx, 14					; 0000000eH
	add	edx, ecx
	mov	al, BYTE PTR [eax+edx]
	jmp	SHORT $LN8@Read
	jmp	SHORT $LN6@Read
$LN5@Read:

; 215  :     } else if (address >= 0xA000 && address <= 0xBFFF) {

	movzx	edx, WORD PTR _address$[ebp]
	cmp	edx, 40960				; 0000a000H
	jl	SHORT $LN6@Read
	movzx	eax, WORD PTR _address$[ebp]
	cmp	eax, 49151				; 0000bfffH
	jg	SHORT $LN6@Read

; 216  :       if ((eram_enable&0x0A)==0x0A)

	mov	ecx, DWORD PTR _this$[ebp]
	movzx	edx, BYTE PTR [ecx+12]
	and	edx, 10					; 0000000aH
	cmp	edx, 10					; 0000000aH
	jne	SHORT $LN2@Read

; 217  :         return eram_[(address&0x1FFF)+(0x2000*ram_bank_number)];

	movzx	eax, WORD PTR _address$[ebp]
	and	eax, 8191				; 00001fffH
	mov	ecx, DWORD PTR _this$[ebp]
	movzx	edx, BYTE PTR [ecx+18]
	shl	edx, 13					; 0000000dH
	add	eax, edx
	mov	ecx, DWORD PTR _this$[ebp]
	mov	edx, DWORD PTR [ecx+8]
	mov	al, BYTE PTR [edx+eax]
	jmp	SHORT $LN8@Read

; 218  :       else

	jmp	SHORT $LN6@Read
$LN2@Read:

; 219  :         return 0;

	xor	al, al
	jmp	SHORT $LN8@Read
$LN6@Read:

; 220  :     }
; 221  :     return 0;

	xor	al, al
$LN8@Read:

; 222  :   }

	add	esp, 4
	cmp	ebp, esp
	call	__RTC_CheckEsp
	mov	esp, ebp
	pop	ebp
	ret	4
?Read@MBC5@gb@emulation@@UAEEG@Z ENDP			; emulation::gb::MBC5::Read
_TEXT	ENDS
; Function compile flags: /Odtp /RTCsu
; File c:\users\khalid\documents\github\gbemu\solution\code\emulation\gb\mbc.h
;	COMDAT ?Deinitialize@MBC5@gb@emulation@@UAEXXZ
_TEXT	SEGMENT
_this$ = -4						; size = 4
?Deinitialize@MBC5@gb@emulation@@UAEXXZ PROC		; emulation::gb::MBC5::Deinitialize, COMDAT
; _this$ = ecx

; 207  :   void Deinitialize() {

	push	ebp
	mov	ebp, esp
	push	ecx
	mov	DWORD PTR [ebp-4], -858993460		; ccccccccH
	mov	DWORD PTR _this$[ebp], ecx

; 208  :     MemoryBankController::Deinitialize();

	mov	ecx, DWORD PTR _this$[ebp]
	call	?Deinitialize@MemoryBankController@gb@emulation@@UAEXXZ ; emulation::gb::MemoryBankController::Deinitialize

; 209  :   }

	add	esp, 4
	cmp	ebp, esp
	call	__RTC_CheckEsp
	mov	esp, ebp
	pop	ebp
	ret	0
?Deinitialize@MBC5@gb@emulation@@UAEXXZ ENDP		; emulation::gb::MBC5::Deinitialize
_TEXT	ENDS
; Function compile flags: /Odtp /RTCsu
; File c:\users\khalid\documents\github\gbemu\solution\code\emulation\gb\mbc.h
;	COMDAT ?Initialize@MBC5@gb@emulation@@UAEXPAVCartridge@23@@Z
_TEXT	SEGMENT
_this$ = -4						; size = 4
_cartridge$ = 8						; size = 4
?Initialize@MBC5@gb@emulation@@UAEXPAVCartridge@23@@Z PROC ; emulation::gb::MBC5::Initialize, COMDAT
; _this$ = ecx

; 199  :   void Initialize(Cartridge* cartridge) {

	push	ebp
	mov	ebp, esp
	push	ecx
	mov	DWORD PTR [ebp-4], -858993460		; ccccccccH
	mov	DWORD PTR _this$[ebp], ecx

; 200  :     MemoryBankController::Initialize(cartridge);

	mov	eax, DWORD PTR _cartridge$[ebp]
	push	eax
	mov	ecx, DWORD PTR _this$[ebp]
	call	?Initialize@MemoryBankController@gb@emulation@@UAEXPAVCartridge@23@@Z ; emulation::gb::MemoryBankController::Initialize

; 201  :     eram_enable = 0;

	mov	ecx, DWORD PTR _this$[ebp]
	mov	BYTE PTR [ecx+12], 0

; 202  :     eram_enable = 0;

	mov	edx, DWORD PTR _this$[ebp]
	mov	BYTE PTR [edx+12], 0

; 203  :     rom_bank_number = 0;

	xor	eax, eax
	mov	ecx, DWORD PTR _this$[ebp]
	mov	WORD PTR [ecx+16], ax

; 204  :     ram_bank_number = 0;

	mov	edx, DWORD PTR _this$[ebp]
	mov	BYTE PTR [edx+18], 0

; 205  : 
; 206  :   }

	add	esp, 4
	cmp	ebp, esp
	call	__RTC_CheckEsp
	mov	esp, ebp
	pop	ebp
	ret	4
?Initialize@MBC5@gb@emulation@@UAEXPAVCartridge@23@@Z ENDP ; emulation::gb::MBC5::Initialize
_TEXT	ENDS
; Function compile flags: /Odtp /RTCsu
;	COMDAT ??0MBC3@gb@emulation@@QAE@XZ
_TEXT	SEGMENT
_this$ = -4						; size = 4
??0MBC3@gb@emulation@@QAE@XZ PROC			; emulation::gb::MBC3::MBC3, COMDAT
; _this$ = ecx
	push	ebp
	mov	ebp, esp
	push	ecx
	mov	DWORD PTR [ebp-4], -858993460		; ccccccccH
	mov	DWORD PTR _this$[ebp], ecx
	mov	ecx, DWORD PTR _this$[ebp]
	call	??0MemoryBankController@gb@emulation@@QAE@XZ
	mov	eax, DWORD PTR _this$[ebp]
	mov	DWORD PTR [eax], OFFSET ??_7MBC3@gb@emulation@@6B@
	mov	eax, DWORD PTR _this$[ebp]
	add	esp, 4
	cmp	ebp, esp
	call	__RTC_CheckEsp
	mov	esp, ebp
	pop	ebp
	ret	0
??0MBC3@gb@emulation@@QAE@XZ ENDP			; emulation::gb::MBC3::MBC3
_TEXT	ENDS
; Function compile flags: /Odtp /RTCsu
; File c:\users\khalid\documents\github\gbemu\solution\code\emulation\gb\mbc.h
;	COMDAT ?Tick@MBC3@gb@emulation@@UAEXXZ
_TEXT	SEGMENT
tv145 = -12						; size = 1
tv136 = -11						; size = 1
tv95 = -10						; size = 1
tv86 = -9						; size = 1
tv71 = -8						; size = 2
tv66 = -5						; size = 1
_this$ = -4						; size = 4
?Tick@MBC3@gb@emulation@@UAEXXZ PROC			; emulation::gb::MBC3::Tick, COMDAT
; _this$ = ecx

; 161  :   void Tick() {

	push	ebp
	mov	ebp, esp
	sub	esp, 12					; 0000000cH
	mov	DWORD PTR [ebp-12], -858993460		; ccccccccH
	mov	DWORD PTR [ebp-8], -858993460		; ccccccccH
	mov	DWORD PTR [ebp-4], -858993460		; ccccccccH
	mov	DWORD PTR _this$[ebp], ecx

; 162  :     if (++counter1 == 128) { //32768Hz, for original gameboy

	mov	eax, DWORD PTR _this$[ebp]
	mov	cl, BYTE PTR [eax+26]
	add	cl, 1
	mov	BYTE PTR tv66[ebp], cl
	mov	edx, DWORD PTR _this$[ebp]
	mov	al, BYTE PTR tv66[ebp]
	mov	BYTE PTR [edx+26], al
	movzx	ecx, BYTE PTR tv66[ebp]
	cmp	ecx, 128				; 00000080H
	jne	$LN10@Tick

; 163  :       if (++counter2 == 32768) {

	mov	edx, DWORD PTR _this$[ebp]
	mov	ax, WORD PTR [edx+28]
	add	ax, 1
	mov	WORD PTR tv71[ebp], ax
	mov	ecx, DWORD PTR _this$[ebp]
	mov	dx, WORD PTR tv71[ebp]
	mov	WORD PTR [ecx+28], dx
	movzx	eax, WORD PTR tv71[ebp]
	cmp	eax, 32768				; 00008000H
	jne	$LN8@Tick

; 164  :         if (rtc[4]&0x40) return;//halt

	mov	ecx, 1
	shl	ecx, 2
	mov	edx, DWORD PTR _this$[ebp]
	movzx	eax, BYTE PTR [edx+ecx+19]
	and	eax, 64					; 00000040H
	je	SHORT $LN7@Tick
	jmp	$LN10@Tick
$LN7@Tick:

; 165  :         if (++rtc[0] == 60) { //sec

	mov	ecx, 1
	imul	ecx, 0
	mov	edx, DWORD PTR _this$[ebp]
	mov	al, BYTE PTR [edx+ecx+19]
	add	al, 1
	mov	BYTE PTR tv86[ebp], al
	mov	ecx, 1
	imul	ecx, 0
	mov	edx, DWORD PTR _this$[ebp]
	mov	al, BYTE PTR tv86[ebp]
	mov	BYTE PTR [edx+ecx+19], al
	movzx	ecx, BYTE PTR tv86[ebp]
	cmp	ecx, 60					; 0000003cH
	jne	$LN6@Tick

; 166  :           if (++rtc[1] == 60) { //min

	mov	edx, 1
	shl	edx, 0
	mov	eax, DWORD PTR _this$[ebp]
	mov	cl, BYTE PTR [eax+edx+19]
	add	cl, 1
	mov	BYTE PTR tv95[ebp], cl
	mov	edx, 1
	shl	edx, 0
	mov	eax, DWORD PTR _this$[ebp]
	mov	cl, BYTE PTR tv95[ebp]
	mov	BYTE PTR [eax+edx+19], cl
	movzx	edx, BYTE PTR tv95[ebp]
	cmp	edx, 60					; 0000003cH
	jne	$LN5@Tick

; 167  :             if (++rtc[2] == 24) { //hour

	mov	eax, 1
	shl	eax, 1
	mov	ecx, DWORD PTR _this$[ebp]
	mov	dl, BYTE PTR [ecx+eax+19]
	add	dl, 1
	mov	BYTE PTR tv136[ebp], dl
	mov	eax, 1
	shl	eax, 1
	mov	ecx, DWORD PTR _this$[ebp]
	mov	dl, BYTE PTR tv136[ebp]
	mov	BYTE PTR [ecx+eax+19], dl
	movzx	eax, BYTE PTR tv136[ebp]
	cmp	eax, 24					; 00000018H
	jne	$LN4@Tick

; 168  :               if (++rtc[3] == 0xFF) { //day

	mov	ecx, 1
	imul	ecx, 3
	mov	edx, DWORD PTR _this$[ebp]
	mov	al, BYTE PTR [edx+ecx+19]
	add	al, 1
	mov	BYTE PTR tv145[ebp], al
	mov	ecx, 1
	imul	ecx, 3
	mov	edx, DWORD PTR _this$[ebp]
	mov	al, BYTE PTR tv145[ebp]
	mov	BYTE PTR [edx+ecx+19], al
	movzx	ecx, BYTE PTR tv145[ebp]
	cmp	ecx, 255				; 000000ffH
	jne	SHORT $LN3@Tick

; 169  :                 if (rtc[4]&1)

	mov	edx, 1
	shl	edx, 2
	mov	eax, DWORD PTR _this$[ebp]
	movzx	ecx, BYTE PTR [eax+edx+19]
	and	ecx, 1
	je	SHORT $LN2@Tick

; 170  :                   rtc[4] |= 0x80;

	mov	edx, 1
	shl	edx, 2
	mov	eax, DWORD PTR _this$[ebp]
	movzx	ecx, BYTE PTR [eax+edx+19]
	or	ecx, 128				; 00000080H
	mov	edx, 1
	shl	edx, 2
	mov	eax, DWORD PTR _this$[ebp]
	mov	BYTE PTR [eax+edx+19], cl

; 171  :                 else

	jmp	SHORT $LN1@Tick
$LN2@Tick:

; 172  :                   rtc[4] |= 1;

	mov	ecx, 1
	shl	ecx, 2
	mov	edx, DWORD PTR _this$[ebp]
	movzx	eax, BYTE PTR [edx+ecx+19]
	or	eax, 1
	mov	ecx, 1
	shl	ecx, 2
	mov	edx, DWORD PTR _this$[ebp]
	mov	BYTE PTR [edx+ecx+19], al
$LN1@Tick:

; 173  :                 rtc[3] = 0;

	mov	eax, 1
	imul	eax, 3
	mov	ecx, DWORD PTR _this$[ebp]
	mov	BYTE PTR [ecx+eax+19], 0
$LN3@Tick:

; 174  :               }
; 175  :               rtc[2] = 0;

	mov	edx, 1
	shl	edx, 1
	mov	eax, DWORD PTR _this$[ebp]
	mov	BYTE PTR [eax+edx+19], 0
$LN4@Tick:

; 176  :             }
; 177  :             rtc[1] = 0;

	mov	ecx, 1
	shl	ecx, 0
	mov	edx, DWORD PTR _this$[ebp]
	mov	BYTE PTR [edx+ecx+19], 0
$LN5@Tick:

; 178  :           }
; 179  :           rtc[0] = 0;

	mov	eax, 1
	imul	eax, 0
	mov	ecx, DWORD PTR _this$[ebp]
	mov	BYTE PTR [ecx+eax+19], 0
$LN6@Tick:

; 180  :         }
; 181  :         counter2 =0 ;

	xor	edx, edx
	mov	eax, DWORD PTR _this$[ebp]
	mov	WORD PTR [eax+28], dx
$LN8@Tick:

; 182  :       }
; 183  :       counter1 = 0;

	mov	ecx, DWORD PTR _this$[ebp]
	mov	BYTE PTR [ecx+26], 0
$LN10@Tick:

; 184  :     }
; 185  :   }

	mov	esp, ebp
	pop	ebp
	ret	0
?Tick@MBC3@gb@emulation@@UAEXXZ ENDP			; emulation::gb::MBC3::Tick
_TEXT	ENDS
; Function compile flags: /Odtp /RTCsu
; File c:\users\khalid\documents\github\gbemu\solution\code\emulation\gb\mbc.h
;	COMDAT ?Write@MBC3@gb@emulation@@UAEXGE@Z
_TEXT	SEGMENT
_this$ = -4						; size = 4
_address$ = 8						; size = 2
_data$ = 12						; size = 1
?Write@MBC3@gb@emulation@@UAEXGE@Z PROC			; emulation::gb::MBC3::Write, COMDAT
; _this$ = ecx

; 134  :   void Write(uint16_t address, uint8_t data) {

	push	ebp
	mov	ebp, esp
	push	ecx
	mov	DWORD PTR [ebp-4], -858993460		; ccccccccH
	mov	DWORD PTR _this$[ebp], ecx

; 135  :    if (address >= 0x0000 && address <= 0x1FFF) {

	movzx	eax, WORD PTR _address$[ebp]
	test	eax, eax
	jl	SHORT $LN15@Write
	movzx	ecx, WORD PTR _address$[ebp]
	cmp	ecx, 8191				; 00001fffH
	jg	SHORT $LN15@Write

; 136  : 	    eram_enable = data;

	mov	edx, DWORD PTR _this$[ebp]
	mov	al, BYTE PTR _data$[ebp]
	mov	BYTE PTR [edx+12], al

; 137  :       rtc_enable = data;

	mov	ecx, DWORD PTR _this$[ebp]
	mov	dl, BYTE PTR _data$[ebp]
	mov	BYTE PTR [ecx+24], dl
	jmp	$LN16@Write
$LN15@Write:

; 138  : 	  } else if (address >= 0x2000 && address <= 0x3FFF) {

	movzx	eax, WORD PTR _address$[ebp]
	cmp	eax, 8192				; 00002000H
	jl	SHORT $LN13@Write
	movzx	ecx, WORD PTR _address$[ebp]
	cmp	ecx, 16383				; 00003fffH
	jg	SHORT $LN13@Write

; 139  :       rom_bank_number = data&0x7F;

	movzx	edx, BYTE PTR _data$[ebp]
	and	edx, 127				; 0000007fH
	mov	eax, DWORD PTR _this$[ebp]
	mov	BYTE PTR [eax+16], dl

; 140  :       if (rom_bank_number == 0)

	mov	ecx, DWORD PTR _this$[ebp]
	movzx	edx, BYTE PTR [ecx+16]
	test	edx, edx
	jne	SHORT $LN12@Write

; 141  :         rom_bank_number = 1;

	mov	eax, DWORD PTR _this$[ebp]
	mov	BYTE PTR [eax+16], 1
$LN12@Write:

; 142  :     } else if (address >= 0x4000 && address <= 0x5FFF) {

	jmp	$LN16@Write
$LN13@Write:
	movzx	ecx, WORD PTR _address$[ebp]
	cmp	ecx, 16384				; 00004000H
	jl	SHORT $LN10@Write
	movzx	edx, WORD PTR _address$[ebp]
	cmp	edx, 24575				; 00005fffH
	jg	SHORT $LN10@Write

; 143  :       if (data>=0&&data<=3) {

	movzx	eax, BYTE PTR _data$[ebp]
	test	eax, eax
	jl	SHORT $LN9@Write
	movzx	ecx, BYTE PTR _data$[ebp]
	cmp	ecx, 3
	jg	SHORT $LN9@Write

; 144  :         mode = 0;

	mov	edx, DWORD PTR _this$[ebp]
	mov	BYTE PTR [edx+17], 0

; 145  :         ram_bank_number = data;

	mov	eax, DWORD PTR _this$[ebp]
	mov	cl, BYTE PTR _data$[ebp]
	mov	BYTE PTR [eax+18], cl
	jmp	SHORT $LN8@Write
$LN9@Write:

; 146  :       } else if (data>=0x08&&data<=0x0C) {

	movzx	edx, BYTE PTR _data$[ebp]
	cmp	edx, 8
	jl	SHORT $LN8@Write
	movzx	eax, BYTE PTR _data$[ebp]
	cmp	eax, 12					; 0000000cH
	jg	SHORT $LN8@Write

; 147  :         mode = 1;

	mov	ecx, DWORD PTR _this$[ebp]
	mov	BYTE PTR [ecx+17], 1

; 148  :         rtc_select = data-0x08;

	movzx	edx, BYTE PTR _data$[ebp]
	sub	edx, 8
	mov	eax, DWORD PTR _this$[ebp]
	mov	BYTE PTR [eax+25], dl
$LN8@Write:

; 149  :       }

	jmp	$LN16@Write
$LN10@Write:

; 150  :     } else if (address >= 0x6000 && address <= 0x7FFF) {

	movzx	ecx, WORD PTR _address$[ebp]
	cmp	ecx, 24576				; 00006000H
	jl	SHORT $LN5@Write
	movzx	edx, WORD PTR _address$[ebp]
	cmp	edx, 32767				; 00007fffH
	jg	SHORT $LN5@Write
	jmp	SHORT $LN16@Write
$LN5@Write:

; 151  :       
; 152  : 
; 153  :     } else if (address >= 0xA000 && address <= 0xBFFF) {

	movzx	eax, WORD PTR _address$[ebp]
	cmp	eax, 40960				; 0000a000H
	jl	SHORT $LN16@Write
	movzx	ecx, WORD PTR _address$[ebp]
	cmp	ecx, 49151				; 0000bfffH
	jg	SHORT $LN16@Write

; 154  :       if ((eram_enable&0x0A)==0x0A&&mode==0)

	mov	edx, DWORD PTR _this$[ebp]
	movzx	eax, BYTE PTR [edx+12]
	and	eax, 10					; 0000000aH
	cmp	eax, 10					; 0000000aH
	jne	SHORT $LN2@Write
	mov	ecx, DWORD PTR _this$[ebp]
	movzx	edx, BYTE PTR [ecx+17]
	test	edx, edx
	jne	SHORT $LN2@Write

; 155  :         eram_[address&0x1FFF] = data;

	movzx	eax, WORD PTR _address$[ebp]
	and	eax, 8191				; 00001fffH
	mov	ecx, DWORD PTR _this$[ebp]
	mov	edx, DWORD PTR [ecx+8]
	mov	cl, BYTE PTR _data$[ebp]
	mov	BYTE PTR [edx+eax], cl
$LN2@Write:

; 156  :       
; 157  :       if ((rtc_enable&0x0A)==0x0A&&mode==1)

	mov	edx, DWORD PTR _this$[ebp]
	movzx	eax, BYTE PTR [edx+24]
	and	eax, 10					; 0000000aH
	cmp	eax, 10					; 0000000aH
	jne	SHORT $LN16@Write
	mov	ecx, DWORD PTR _this$[ebp]
	movzx	edx, BYTE PTR [ecx+17]
	cmp	edx, 1
	jne	SHORT $LN16@Write

; 158  :         rtc[rtc_select] = data;

	mov	eax, DWORD PTR _this$[ebp]
	movzx	ecx, BYTE PTR [eax+25]
	mov	edx, DWORD PTR _this$[ebp]
	mov	al, BYTE PTR _data$[ebp]
	mov	BYTE PTR [edx+ecx+19], al
$LN16@Write:

; 159  : 	  }
; 160  :   }

	mov	esp, ebp
	pop	ebp
	ret	8
?Write@MBC3@gb@emulation@@UAEXGE@Z ENDP			; emulation::gb::MBC3::Write
_TEXT	ENDS
; Function compile flags: /Odtp /RTCsu
; File c:\users\khalid\documents\github\gbemu\solution\code\emulation\gb\mbc.h
;	COMDAT ?Read@MBC3@gb@emulation@@UAEEG@Z
_TEXT	SEGMENT
_this$ = -4						; size = 4
_address$ = 8						; size = 2
?Read@MBC3@gb@emulation@@UAEEG@Z PROC			; emulation::gb::MBC3::Read, COMDAT
; _this$ = ecx

; 116  :   uint8_t Read(uint16_t address) {

	push	ebp
	mov	ebp, esp
	push	ecx
	mov	DWORD PTR [ebp-4], -858993460		; ccccccccH
	mov	DWORD PTR _this$[ebp], ecx

; 117  :     if (address >= 0x0000 && address <= 0x3FFF) {

	movzx	eax, WORD PTR _address$[ebp]
	test	eax, eax
	jl	SHORT $LN7@Read
	movzx	ecx, WORD PTR _address$[ebp]
	cmp	ecx, 16383				; 00003fffH
	jg	SHORT $LN7@Read

; 118  : 	    return cartridge->rom()[address];

	mov	edx, DWORD PTR _this$[ebp]
	mov	ecx, DWORD PTR [edx+4]
	call	?rom@Cartridge@gb@emulation@@QAEPBEXZ	; emulation::gb::Cartridge::rom
	movzx	ecx, WORD PTR _address$[ebp]
	mov	al, BYTE PTR [eax+ecx]
	jmp	$LN8@Read
	jmp	$LN6@Read
$LN7@Read:

; 119  : 	  } else if (address >= 0x4000 && address <= 0x7FFF) {

	movzx	edx, WORD PTR _address$[ebp]
	cmp	edx, 16384				; 00004000H
	jl	SHORT $LN5@Read
	movzx	eax, WORD PTR _address$[ebp]
	cmp	eax, 32767				; 00007fffH
	jg	SHORT $LN5@Read

; 120  :       return cartridge->rom()[address+0x4000*(rom_bank_number-1)];

	mov	ecx, DWORD PTR _this$[ebp]
	mov	ecx, DWORD PTR [ecx+4]
	call	?rom@Cartridge@gb@emulation@@QAEPBEXZ	; emulation::gb::Cartridge::rom
	movzx	edx, WORD PTR _address$[ebp]
	mov	ecx, DWORD PTR _this$[ebp]
	movzx	ecx, BYTE PTR [ecx+16]
	sub	ecx, 1
	shl	ecx, 14					; 0000000eH
	add	edx, ecx
	mov	al, BYTE PTR [eax+edx]
	jmp	$LN8@Read
	jmp	$LN6@Read
$LN5@Read:

; 121  :     } else if (address >= 0xA000 && address <= 0xBFFF) {

	movzx	edx, WORD PTR _address$[ebp]
	cmp	edx, 40960				; 0000a000H
	jl	SHORT $LN6@Read
	movzx	eax, WORD PTR _address$[ebp]
	cmp	eax, 49151				; 0000bfffH
	jg	SHORT $LN6@Read

; 122  : 
; 123  : 
; 124  :       if ((eram_enable&0x0A)==0x0A&&mode==0)

	mov	ecx, DWORD PTR _this$[ebp]
	movzx	edx, BYTE PTR [ecx+12]
	and	edx, 10					; 0000000aH
	cmp	edx, 10					; 0000000aH
	jne	SHORT $LN2@Read
	mov	eax, DWORD PTR _this$[ebp]
	movzx	ecx, BYTE PTR [eax+17]
	test	ecx, ecx
	jne	SHORT $LN2@Read

; 125  :         return eram_[(address&0x1FFF)+(0x2000*ram_bank_number*mode)];

	movzx	edx, WORD PTR _address$[ebp]
	and	edx, 8191				; 00001fffH
	mov	eax, DWORD PTR _this$[ebp]
	movzx	ecx, BYTE PTR [eax+18]
	shl	ecx, 13					; 0000000dH
	mov	eax, DWORD PTR _this$[ebp]
	movzx	eax, BYTE PTR [eax+17]
	imul	ecx, eax
	add	edx, ecx
	mov	ecx, DWORD PTR _this$[ebp]
	mov	eax, DWORD PTR [ecx+8]
	mov	al, BYTE PTR [eax+edx]
	jmp	SHORT $LN8@Read
$LN2@Read:

; 126  :       
; 127  :       if ((rtc_enable&0x0A)==0x0A&&mode==1)

	mov	ecx, DWORD PTR _this$[ebp]
	movzx	edx, BYTE PTR [ecx+24]
	and	edx, 10					; 0000000aH
	cmp	edx, 10					; 0000000aH
	jne	SHORT $LN1@Read
	mov	eax, DWORD PTR _this$[ebp]
	movzx	ecx, BYTE PTR [eax+17]
	cmp	ecx, 1
	jne	SHORT $LN1@Read

; 128  :         return rtc[rtc_select];

	mov	edx, DWORD PTR _this$[ebp]
	movzx	eax, BYTE PTR [edx+25]
	mov	ecx, DWORD PTR _this$[ebp]
	mov	al, BYTE PTR [ecx+eax+19]
	jmp	SHORT $LN8@Read
$LN1@Read:

; 129  : 
; 130  :       return 0;

	xor	al, al
	jmp	SHORT $LN8@Read
$LN6@Read:

; 131  :     }
; 132  :     return 0;

	xor	al, al
$LN8@Read:

; 133  :   }

	add	esp, 4
	cmp	ebp, esp
	call	__RTC_CheckEsp
	mov	esp, ebp
	pop	ebp
	ret	4
?Read@MBC3@gb@emulation@@UAEEG@Z ENDP			; emulation::gb::MBC3::Read
_TEXT	ENDS
; Function compile flags: /Odtp /RTCsu
; File c:\users\khalid\documents\github\gbemu\solution\code\emulation\gb\mbc.h
;	COMDAT ?Deinitialize@MBC3@gb@emulation@@UAEXXZ
_TEXT	SEGMENT
_this$ = -4						; size = 4
?Deinitialize@MBC3@gb@emulation@@UAEXXZ PROC		; emulation::gb::MBC3::Deinitialize, COMDAT
; _this$ = ecx

; 113  :   void Deinitialize() {

	push	ebp
	mov	ebp, esp
	push	ecx
	mov	DWORD PTR [ebp-4], -858993460		; ccccccccH
	mov	DWORD PTR _this$[ebp], ecx

; 114  :     MemoryBankController::Deinitialize();

	mov	ecx, DWORD PTR _this$[ebp]
	call	?Deinitialize@MemoryBankController@gb@emulation@@UAEXXZ ; emulation::gb::MemoryBankController::Deinitialize

; 115  :   }

	add	esp, 4
	cmp	ebp, esp
	call	__RTC_CheckEsp
	mov	esp, ebp
	pop	ebp
	ret	0
?Deinitialize@MBC3@gb@emulation@@UAEXXZ ENDP		; emulation::gb::MBC3::Deinitialize
_TEXT	ENDS
; Function compile flags: /Odtp /RTCsu
; File c:\users\khalid\documents\github\gbemu\solution\code\emulation\gb\mbc.h
;	COMDAT ?Initialize@MBC3@gb@emulation@@UAEXPAVCartridge@23@@Z
_TEXT	SEGMENT
_this$ = -4						; size = 4
_cartridge$ = 8						; size = 4
?Initialize@MBC3@gb@emulation@@UAEXPAVCartridge@23@@Z PROC ; emulation::gb::MBC3::Initialize, COMDAT
; _this$ = ecx

; 100  :   void Initialize(Cartridge* cartridge) {

	push	ebp
	mov	ebp, esp
	push	ecx
	mov	DWORD PTR [ebp-4], -858993460		; ccccccccH
	mov	DWORD PTR _this$[ebp], ecx

; 101  :     MemoryBankController::Initialize(cartridge);

	mov	eax, DWORD PTR _cartridge$[ebp]
	push	eax
	mov	ecx, DWORD PTR _this$[ebp]
	call	?Initialize@MemoryBankController@gb@emulation@@UAEXPAVCartridge@23@@Z ; emulation::gb::MemoryBankController::Initialize

; 102  :     eram_enable = 0;

	mov	ecx, DWORD PTR _this$[ebp]
	mov	BYTE PTR [ecx+12], 0

; 103  :     eram_enable = 0;

	mov	edx, DWORD PTR _this$[ebp]
	mov	BYTE PTR [edx+12], 0

; 104  :     rom_bank_number = 1;

	mov	eax, DWORD PTR _this$[ebp]
	mov	BYTE PTR [eax+16], 1

; 105  :     ram_bank_number = 0;

	mov	ecx, DWORD PTR _this$[ebp]
	mov	BYTE PTR [ecx+18], 0

; 106  :     mode = 0;

	mov	edx, DWORD PTR _this$[ebp]
	mov	BYTE PTR [edx+17], 0

; 107  :     rtc_enable = 0;

	mov	eax, DWORD PTR _this$[ebp]
	mov	BYTE PTR [eax+24], 0

; 108  :     rtc_select = 0;

	mov	ecx, DWORD PTR _this$[ebp]
	mov	BYTE PTR [ecx+25], 0

; 109  :     counter1 = 0;

	mov	edx, DWORD PTR _this$[ebp]
	mov	BYTE PTR [edx+26], 0

; 110  :     counter2 = 0;

	xor	eax, eax
	mov	ecx, DWORD PTR _this$[ebp]
	mov	WORD PTR [ecx+28], ax

; 111  :     memset(rtc,0,sizeof(rtc));

	push	5
	push	0
	mov	edx, DWORD PTR _this$[ebp]
	add	edx, 19					; 00000013H
	push	edx
	call	_memset
	add	esp, 12					; 0000000cH

; 112  :   }

	add	esp, 4
	cmp	ebp, esp
	call	__RTC_CheckEsp
	mov	esp, ebp
	pop	ebp
	ret	4
?Initialize@MBC3@gb@emulation@@UAEXPAVCartridge@23@@Z ENDP ; emulation::gb::MBC3::Initialize
_TEXT	ENDS
; Function compile flags: /Odtp /RTCsu
;	COMDAT ??0MBC1@gb@emulation@@QAE@XZ
_TEXT	SEGMENT
_this$ = -4						; size = 4
??0MBC1@gb@emulation@@QAE@XZ PROC			; emulation::gb::MBC1::MBC1, COMDAT
; _this$ = ecx
	push	ebp
	mov	ebp, esp
	push	ecx
	mov	DWORD PTR [ebp-4], -858993460		; ccccccccH
	mov	DWORD PTR _this$[ebp], ecx
	mov	ecx, DWORD PTR _this$[ebp]
	call	??0MemoryBankController@gb@emulation@@QAE@XZ
	mov	eax, DWORD PTR _this$[ebp]
	mov	DWORD PTR [eax], OFFSET ??_7MBC1@gb@emulation@@6B@
	mov	eax, DWORD PTR _this$[ebp]
	add	esp, 4
	cmp	ebp, esp
	call	__RTC_CheckEsp
	mov	esp, ebp
	pop	ebp
	ret	0
??0MBC1@gb@emulation@@QAE@XZ ENDP			; emulation::gb::MBC1::MBC1
_TEXT	ENDS
; Function compile flags: /Odtp /RTCsu
; File c:\users\khalid\documents\github\gbemu\solution\code\emulation\gb\mbc.h
;	COMDAT ?Write@MBC1@gb@emulation@@UAEXGE@Z
_TEXT	SEGMENT
_this$ = -4						; size = 4
_address$ = 8						; size = 2
_data$ = 12						; size = 1
?Write@MBC1@gb@emulation@@UAEXGE@Z PROC			; emulation::gb::MBC1::Write, COMDAT
; _this$ = ecx

; 70   :   void Write(uint16_t address, uint8_t data) {

	push	ebp
	mov	ebp, esp
	push	ecx
	mov	DWORD PTR [ebp-4], -858993460		; ccccccccH
	mov	DWORD PTR _this$[ebp], ecx

; 71   :    if (address >= 0x0000 && address <= 0x1FFF) {

	movzx	eax, WORD PTR _address$[ebp]
	test	eax, eax
	jl	SHORT $LN13@Write
	movzx	ecx, WORD PTR _address$[ebp]
	cmp	ecx, 8191				; 00001fffH
	jg	SHORT $LN13@Write

; 72   : 	    eram_enable = data;

	mov	edx, DWORD PTR _this$[ebp]
	mov	al, BYTE PTR _data$[ebp]
	mov	BYTE PTR [edx+12], al
	jmp	$LN14@Write
$LN13@Write:

; 73   : 	  } else if (address >= 0x2000 && address <= 0x3FFF) {

	movzx	ecx, WORD PTR _address$[ebp]
	cmp	ecx, 8192				; 00002000H
	jl	SHORT $LN11@Write
	movzx	edx, WORD PTR _address$[ebp]
	cmp	edx, 16383				; 00003fffH
	jg	SHORT $LN11@Write

; 74   :       rom_bank_number = data&0x1F;

	movzx	eax, BYTE PTR _data$[ebp]
	and	eax, 31					; 0000001fH
	mov	ecx, DWORD PTR _this$[ebp]
	mov	BYTE PTR [ecx+16], al

; 75   :       if (rom_bank_number == 0)

	mov	edx, DWORD PTR _this$[ebp]
	movzx	eax, BYTE PTR [edx+16]
	test	eax, eax
	jne	SHORT $LN10@Write

; 76   :         rom_bank_number = 1;

	mov	ecx, DWORD PTR _this$[ebp]
	mov	BYTE PTR [ecx+16], 1
$LN10@Write:

; 77   :     } else if (address >= 0x4000 && address <= 0x5FFF) {

	jmp	$LN14@Write
$LN11@Write:
	movzx	edx, WORD PTR _address$[ebp]
	cmp	edx, 16384				; 00004000H
	jl	SHORT $LN8@Write
	movzx	eax, WORD PTR _address$[ebp]
	cmp	eax, 24575				; 00005fffH
	jg	SHORT $LN8@Write

; 78   :       if (mode==0) {

	mov	ecx, DWORD PTR _this$[ebp]
	movzx	edx, BYTE PTR [ecx+17]
	test	edx, edx
	jne	SHORT $LN7@Write

; 79   :         rom_bank_number |= (data&0x3)<<5;

	movzx	eax, BYTE PTR _data$[ebp]
	and	eax, 3
	shl	eax, 5
	mov	ecx, DWORD PTR _this$[ebp]
	movzx	edx, BYTE PTR [ecx+16]
	or	edx, eax
	mov	eax, DWORD PTR _this$[ebp]
	mov	BYTE PTR [eax+16], dl

; 80   :         //ram_bank_number = 0;
; 81   :       } else {

	jmp	SHORT $LN6@Write
$LN7@Write:

; 82   :         //rom_bank_number &= 0x1F;
; 83   :         ram_bank_number = data&3;

	movzx	ecx, BYTE PTR _data$[ebp]
	and	ecx, 3
	mov	edx, DWORD PTR _this$[ebp]
	mov	BYTE PTR [edx+18], cl
$LN6@Write:

; 84   :       }

	jmp	SHORT $LN14@Write
$LN8@Write:

; 85   :     } else if (address >= 0x6000 && address <= 0x7FFF) {

	movzx	eax, WORD PTR _address$[ebp]
	cmp	eax, 24576				; 00006000H
	jl	SHORT $LN4@Write
	movzx	ecx, WORD PTR _address$[ebp]
	cmp	ecx, 32767				; 00007fffH
	jg	SHORT $LN4@Write

; 86   :        mode = data&1;

	movzx	edx, BYTE PTR _data$[ebp]
	and	edx, 1
	mov	eax, DWORD PTR _this$[ebp]
	mov	BYTE PTR [eax+17], dl
	jmp	SHORT $LN14@Write
$LN4@Write:

; 87   : 
; 88   :     } else if (address >= 0xA000 && address <= 0xBFFF) {

	movzx	ecx, WORD PTR _address$[ebp]
	cmp	ecx, 40960				; 0000a000H
	jl	SHORT $LN14@Write
	movzx	edx, WORD PTR _address$[ebp]
	cmp	edx, 49151				; 0000bfffH
	jg	SHORT $LN14@Write

; 89   :       if ((eram_enable&0x0A)==0x0A)

	mov	eax, DWORD PTR _this$[ebp]
	movzx	ecx, BYTE PTR [eax+12]
	and	ecx, 10					; 0000000aH
	cmp	ecx, 10					; 0000000aH
	jne	SHORT $LN14@Write

; 90   :         eram_[address&0x1FFF] = data;

	movzx	edx, WORD PTR _address$[ebp]
	and	edx, 8191				; 00001fffH
	mov	eax, DWORD PTR _this$[ebp]
	mov	ecx, DWORD PTR [eax+8]
	mov	al, BYTE PTR _data$[ebp]
	mov	BYTE PTR [ecx+edx], al
$LN14@Write:

; 91   : 	  }
; 92   :   }

	mov	esp, ebp
	pop	ebp
	ret	8
?Write@MBC1@gb@emulation@@UAEXGE@Z ENDP			; emulation::gb::MBC1::Write
_TEXT	ENDS
; Function compile flags: /Odtp /RTCsu
; File c:\users\khalid\documents\github\gbemu\solution\code\emulation\gb\mbc.h
;	COMDAT ?Read@MBC1@gb@emulation@@UAEEG@Z
_TEXT	SEGMENT
_this$ = -4						; size = 4
_address$ = 8						; size = 2
?Read@MBC1@gb@emulation@@UAEEG@Z PROC			; emulation::gb::MBC1::Read, COMDAT
; _this$ = ecx

; 57   :   uint8_t Read(uint16_t address) {

	push	ebp
	mov	ebp, esp
	push	ecx
	mov	DWORD PTR [ebp-4], -858993460		; ccccccccH
	mov	DWORD PTR _this$[ebp], ecx

; 58   :     if (address >= 0x0000 && address <= 0x3FFF) {

	movzx	eax, WORD PTR _address$[ebp]
	test	eax, eax
	jl	SHORT $LN7@Read
	movzx	ecx, WORD PTR _address$[ebp]
	cmp	ecx, 16383				; 00003fffH
	jg	SHORT $LN7@Read

; 59   : 	    return cartridge->rom()[address];

	mov	edx, DWORD PTR _this$[ebp]
	mov	ecx, DWORD PTR [edx+4]
	call	?rom@Cartridge@gb@emulation@@QAEPBEXZ	; emulation::gb::Cartridge::rom
	movzx	ecx, WORD PTR _address$[ebp]
	mov	al, BYTE PTR [eax+ecx]
	jmp	$LN8@Read
	jmp	$LN6@Read
$LN7@Read:

; 60   : 	  } else if (address >= 0x4000 && address <= 0x7FFF) {

	movzx	edx, WORD PTR _address$[ebp]
	cmp	edx, 16384				; 00004000H
	jl	SHORT $LN5@Read
	movzx	eax, WORD PTR _address$[ebp]
	cmp	eax, 32767				; 00007fffH
	jg	SHORT $LN5@Read

; 61   :       return cartridge->rom()[address+0x4000*(rom_bank_number-1)];

	mov	ecx, DWORD PTR _this$[ebp]
	mov	ecx, DWORD PTR [ecx+4]
	call	?rom@Cartridge@gb@emulation@@QAEPBEXZ	; emulation::gb::Cartridge::rom
	movzx	edx, WORD PTR _address$[ebp]
	mov	ecx, DWORD PTR _this$[ebp]
	movzx	ecx, BYTE PTR [ecx+16]
	sub	ecx, 1
	shl	ecx, 14					; 0000000eH
	add	edx, ecx
	mov	al, BYTE PTR [eax+edx]
	jmp	SHORT $LN8@Read
	jmp	SHORT $LN6@Read
$LN5@Read:

; 62   :     } else if (address >= 0xA000 && address <= 0xBFFF) {

	movzx	edx, WORD PTR _address$[ebp]
	cmp	edx, 40960				; 0000a000H
	jl	SHORT $LN6@Read
	movzx	eax, WORD PTR _address$[ebp]
	cmp	eax, 49151				; 0000bfffH
	jg	SHORT $LN6@Read

; 63   :       if ((eram_enable&0x0A)==0x0A)

	mov	ecx, DWORD PTR _this$[ebp]
	movzx	edx, BYTE PTR [ecx+12]
	and	edx, 10					; 0000000aH
	cmp	edx, 10					; 0000000aH
	jne	SHORT $LN2@Read

; 64   :         return eram_[(address&0x1FFF)+(0x2000*ram_bank_number*mode)];

	movzx	eax, WORD PTR _address$[ebp]
	and	eax, 8191				; 00001fffH
	mov	ecx, DWORD PTR _this$[ebp]
	movzx	edx, BYTE PTR [ecx+18]
	shl	edx, 13					; 0000000dH
	mov	ecx, DWORD PTR _this$[ebp]
	movzx	ecx, BYTE PTR [ecx+17]
	imul	edx, ecx
	add	eax, edx
	mov	edx, DWORD PTR _this$[ebp]
	mov	ecx, DWORD PTR [edx+8]
	mov	al, BYTE PTR [ecx+eax]
	jmp	SHORT $LN8@Read

; 65   :       else

	jmp	SHORT $LN6@Read
$LN2@Read:

; 66   :         return 0;

	xor	al, al
	jmp	SHORT $LN8@Read
$LN6@Read:

; 67   :     }
; 68   :     return 0;

	xor	al, al
$LN8@Read:

; 69   :   }

	add	esp, 4
	cmp	ebp, esp
	call	__RTC_CheckEsp
	mov	esp, ebp
	pop	ebp
	ret	4
?Read@MBC1@gb@emulation@@UAEEG@Z ENDP			; emulation::gb::MBC1::Read
_TEXT	ENDS
; Function compile flags: /Odtp /RTCsu
; File c:\users\khalid\documents\github\gbemu\solution\code\emulation\gb\mbc.h
;	COMDAT ?Deinitialize@MBC1@gb@emulation@@UAEXXZ
_TEXT	SEGMENT
_this$ = -4						; size = 4
?Deinitialize@MBC1@gb@emulation@@UAEXXZ PROC		; emulation::gb::MBC1::Deinitialize, COMDAT
; _this$ = ecx

; 54   :   void Deinitialize() {

	push	ebp
	mov	ebp, esp
	push	ecx
	mov	DWORD PTR [ebp-4], -858993460		; ccccccccH
	mov	DWORD PTR _this$[ebp], ecx

; 55   :     MemoryBankController::Deinitialize();

	mov	ecx, DWORD PTR _this$[ebp]
	call	?Deinitialize@MemoryBankController@gb@emulation@@UAEXXZ ; emulation::gb::MemoryBankController::Deinitialize

; 56   :   }

	add	esp, 4
	cmp	ebp, esp
	call	__RTC_CheckEsp
	mov	esp, ebp
	pop	ebp
	ret	0
?Deinitialize@MBC1@gb@emulation@@UAEXXZ ENDP		; emulation::gb::MBC1::Deinitialize
_TEXT	ENDS
; Function compile flags: /Odtp /RTCsu
; File c:\users\khalid\documents\github\gbemu\solution\code\emulation\gb\mbc.h
;	COMDAT ?Initialize@MBC1@gb@emulation@@UAEXPAVCartridge@23@@Z
_TEXT	SEGMENT
_this$ = -4						; size = 4
_cartridge$ = 8						; size = 4
?Initialize@MBC1@gb@emulation@@UAEXPAVCartridge@23@@Z PROC ; emulation::gb::MBC1::Initialize, COMDAT
; _this$ = ecx

; 46   :   void Initialize(Cartridge* cartridge) {

	push	ebp
	mov	ebp, esp
	push	ecx
	mov	DWORD PTR [ebp-4], -858993460		; ccccccccH
	mov	DWORD PTR _this$[ebp], ecx

; 47   :     MemoryBankController::Initialize(cartridge);

	mov	eax, DWORD PTR _cartridge$[ebp]
	push	eax
	mov	ecx, DWORD PTR _this$[ebp]
	call	?Initialize@MemoryBankController@gb@emulation@@UAEXPAVCartridge@23@@Z ; emulation::gb::MemoryBankController::Initialize

; 48   :     eram_enable = 0;

	mov	ecx, DWORD PTR _this$[ebp]
	mov	BYTE PTR [ecx+12], 0

; 49   :     eram_enable = 0;

	mov	edx, DWORD PTR _this$[ebp]
	mov	BYTE PTR [edx+12], 0

; 50   :     rom_bank_number = 1;

	mov	eax, DWORD PTR _this$[ebp]
	mov	BYTE PTR [eax+16], 1

; 51   :     ram_bank_number = 0;

	mov	ecx, DWORD PTR _this$[ebp]
	mov	BYTE PTR [ecx+18], 0

; 52   :     mode = 0;

	mov	edx, DWORD PTR _this$[ebp]
	mov	BYTE PTR [edx+17], 0

; 53   :   }

	add	esp, 4
	cmp	ebp, esp
	call	__RTC_CheckEsp
	mov	esp, ebp
	pop	ebp
	ret	4
?Initialize@MBC1@gb@emulation@@UAEXPAVCartridge@23@@Z ENDP ; emulation::gb::MBC1::Initialize
_TEXT	ENDS
; Function compile flags: /Odtp /RTCsu
;	COMDAT ??0MBCNone@gb@emulation@@QAE@XZ
_TEXT	SEGMENT
_this$ = -4						; size = 4
??0MBCNone@gb@emulation@@QAE@XZ PROC			; emulation::gb::MBCNone::MBCNone, COMDAT
; _this$ = ecx
	push	ebp
	mov	ebp, esp
	push	ecx
	mov	DWORD PTR [ebp-4], -858993460		; ccccccccH
	mov	DWORD PTR _this$[ebp], ecx
	mov	ecx, DWORD PTR _this$[ebp]
	call	??0MemoryBankController@gb@emulation@@QAE@XZ
	mov	eax, DWORD PTR _this$[ebp]
	mov	DWORD PTR [eax], OFFSET ??_7MBCNone@gb@emulation@@6B@
	mov	eax, DWORD PTR _this$[ebp]
	add	esp, 4
	cmp	ebp, esp
	call	__RTC_CheckEsp
	mov	esp, ebp
	pop	ebp
	ret	0
??0MBCNone@gb@emulation@@QAE@XZ ENDP			; emulation::gb::MBCNone::MBCNone
_TEXT	ENDS
; Function compile flags: /Odtp /RTCsu
; File c:\users\khalid\documents\github\gbemu\solution\code\emulation\gb\mbc.h
;	COMDAT ?Write@MBCNone@gb@emulation@@UAEXGE@Z
_TEXT	SEGMENT
_a$ = -8						; size = 4
_this$ = -4						; size = 4
_address$ = 8						; size = 2
_data$ = 12						; size = 1
?Write@MBCNone@gb@emulation@@UAEXGE@Z PROC		; emulation::gb::MBCNone::Write, COMDAT
; _this$ = ecx

; 39   :   void Write(uint16_t address, uint8_t data) {

	push	ebp
	mov	ebp, esp
	sub	esp, 8
	mov	DWORD PTR [ebp-8], -858993460		; ccccccccH
	mov	DWORD PTR [ebp-4], -858993460		; ccccccccH
	mov	DWORD PTR _this$[ebp], ecx

; 40   :     int a = 1;

	mov	DWORD PTR _a$[ebp], 1

; 41   :   }

	mov	esp, ebp
	pop	ebp
	ret	8
?Write@MBCNone@gb@emulation@@UAEXGE@Z ENDP		; emulation::gb::MBCNone::Write
_TEXT	ENDS
; Function compile flags: /Odtp /RTCsu
; File c:\users\khalid\documents\github\gbemu\solution\code\emulation\gb\mbc.h
;	COMDAT ?Read@MBCNone@gb@emulation@@UAEEG@Z
_TEXT	SEGMENT
_this$ = -4						; size = 4
_address$ = 8						; size = 2
?Read@MBCNone@gb@emulation@@UAEEG@Z PROC		; emulation::gb::MBCNone::Read, COMDAT
; _this$ = ecx

; 29   :   uint8_t Read(uint16_t address) {

	push	ebp
	mov	ebp, esp
	push	ecx
	mov	DWORD PTR [ebp-4], -858993460		; ccccccccH
	mov	DWORD PTR _this$[ebp], ecx

; 30   :       if (address >= 0x0000 && address <= 0x3FFF) {

	movzx	eax, WORD PTR _address$[ebp]
	test	eax, eax
	jl	SHORT $LN5@Read
	movzx	ecx, WORD PTR _address$[ebp]
	cmp	ecx, 16383				; 00003fffH
	jg	SHORT $LN5@Read

; 31   : 	    return cartridge->rom()[address];

	mov	edx, DWORD PTR _this$[ebp]
	mov	ecx, DWORD PTR [edx+4]
	call	?rom@Cartridge@gb@emulation@@QAEPBEXZ	; emulation::gb::Cartridge::rom
	movzx	ecx, WORD PTR _address$[ebp]
	mov	al, BYTE PTR [eax+ecx]
	jmp	SHORT $LN6@Read
	jmp	SHORT $LN4@Read
$LN5@Read:

; 32   : 	  } else if (address >= 0x4000 && address <= 0x7FFF) {

	movzx	edx, WORD PTR _address$[ebp]
	cmp	edx, 16384				; 00004000H
	jl	SHORT $LN3@Read
	movzx	eax, WORD PTR _address$[ebp]
	cmp	eax, 32767				; 00007fffH
	jg	SHORT $LN3@Read

; 33   :       return cartridge->rom()[address];

	mov	ecx, DWORD PTR _this$[ebp]
	mov	ecx, DWORD PTR [ecx+4]
	call	?rom@Cartridge@gb@emulation@@QAEPBEXZ	; emulation::gb::Cartridge::rom
	movzx	edx, WORD PTR _address$[ebp]
	mov	al, BYTE PTR [eax+edx]
	jmp	SHORT $LN6@Read
	jmp	SHORT $LN4@Read
$LN3@Read:

; 34   :     } else if (address >= 0xA000 && address <= 0xBFFF) {

	movzx	eax, WORD PTR _address$[ebp]
	cmp	eax, 40960				; 0000a000H
	jl	SHORT $LN4@Read
	movzx	ecx, WORD PTR _address$[ebp]
	cmp	ecx, 49151				; 0000bfffH
	jg	SHORT $LN4@Read

; 35   :       return 0;

	xor	al, al
	jmp	SHORT $LN6@Read
$LN4@Read:

; 36   : 	  }
; 37   :     return 0;

	xor	al, al
$LN6@Read:

; 38   :   }

	add	esp, 4
	cmp	ebp, esp
	call	__RTC_CheckEsp
	mov	esp, ebp
	pop	ebp
	ret	4
?Read@MBCNone@gb@emulation@@UAEEG@Z ENDP		; emulation::gb::MBCNone::Read
_TEXT	ENDS
; Function compile flags: /Odtp /RTCsu
; File c:\users\khalid\documents\github\gbemu\solution\code\emulation\gb\mbc.h
;	COMDAT ?Deinitialize@MBCNone@gb@emulation@@UAEXXZ
_TEXT	SEGMENT
_this$ = -4						; size = 4
?Deinitialize@MBCNone@gb@emulation@@UAEXXZ PROC		; emulation::gb::MBCNone::Deinitialize, COMDAT
; _this$ = ecx

; 26   :   void Deinitialize() {

	push	ebp
	mov	ebp, esp
	push	ecx
	mov	DWORD PTR [ebp-4], -858993460		; ccccccccH
	mov	DWORD PTR _this$[ebp], ecx

; 27   :     MemoryBankController::Deinitialize();

	mov	ecx, DWORD PTR _this$[ebp]
	call	?Deinitialize@MemoryBankController@gb@emulation@@UAEXXZ ; emulation::gb::MemoryBankController::Deinitialize

; 28   :   }

	add	esp, 4
	cmp	ebp, esp
	call	__RTC_CheckEsp
	mov	esp, ebp
	pop	ebp
	ret	0
?Deinitialize@MBCNone@gb@emulation@@UAEXXZ ENDP		; emulation::gb::MBCNone::Deinitialize
_TEXT	ENDS
; Function compile flags: /Odtp /RTCsu
; File c:\users\khalid\documents\github\gbemu\solution\code\emulation\gb\emu.h
;	COMDAT ?memory@Emu@gb@emulation@@QAEPAVMemory@23@XZ
_TEXT	SEGMENT
_this$ = -4						; size = 4
?memory@Emu@gb@emulation@@QAEPAVMemory@23@XZ PROC	; emulation::gb::Emu::memory, COMDAT
; _this$ = ecx

; 43   :   Memory* memory() { return &memory_; }

	push	ebp
	mov	ebp, esp
	push	ecx
	mov	DWORD PTR [ebp-4], -858993460		; ccccccccH
	mov	DWORD PTR _this$[ebp], ecx
	mov	eax, DWORD PTR _this$[ebp]
	add	eax, 2504				; 000009c8H
	mov	esp, ebp
	pop	ebp
	ret	0
?memory@Emu@gb@emulation@@QAEPAVMemory@23@XZ ENDP	; emulation::gb::Emu::memory
_TEXT	ENDS
; Function compile flags: /Odtp /RTCsu
; File c:\users\khalid\documents\github\gbemu\solution\code\emulation\gb\emu.h
;	COMDAT ?cartridge@Emu@gb@emulation@@QAEPAVCartridge@23@XZ
_TEXT	SEGMENT
_this$ = -4						; size = 4
?cartridge@Emu@gb@emulation@@QAEPAVCartridge@23@XZ PROC	; emulation::gb::Emu::cartridge, COMDAT
; _this$ = ecx

; 41   :   Cartridge* cartridge() { return &cartridge_; }

	push	ebp
	mov	ebp, esp
	push	ecx
	mov	DWORD PTR [ebp-4], -858993460		; ccccccccH
	mov	DWORD PTR _this$[ebp], ecx
	mov	eax, DWORD PTR _this$[ebp]
	add	eax, 112				; 00000070H
	mov	esp, ebp
	pop	ebp
	ret	0
?cartridge@Emu@gb@emulation@@QAEPAVCartridge@23@XZ ENDP	; emulation::gb::Emu::cartridge
_TEXT	ENDS
; Function compile flags: /Odtp /RTCsu
; File c:\users\khalid\documents\github\wincore\types.h
;	COMDAT ??$SafeDeleteArray@E@@YAXPAPAE@Z
_TEXT	SEGMENT
$T1 = -4						; size = 4
_ppInterfaceToDelete$ = 8				; size = 4
??$SafeDeleteArray@E@@YAXPAPAE@Z PROC			; SafeDeleteArray<unsigned char>, COMDAT

; 45   : inline void SafeDeleteArray(Interface **ppInterfaceToDelete) {

	push	ebp
	mov	ebp, esp
	push	ecx
	mov	DWORD PTR [ebp-4], -858993460		; ccccccccH

; 46   :     if (*ppInterfaceToDelete != NULL) {

	mov	eax, DWORD PTR _ppInterfaceToDelete$[ebp]
	cmp	DWORD PTR [eax], 0
	je	SHORT $LN2@SafeDelete

; 47   :         delete [] (*ppInterfaceToDelete);

	mov	ecx, DWORD PTR _ppInterfaceToDelete$[ebp]
	mov	edx, DWORD PTR [ecx]
	mov	DWORD PTR $T1[ebp], edx
	mov	eax, DWORD PTR $T1[ebp]
	push	eax
	call	??_V@YAXPAX@Z				; operator delete[]
	add	esp, 4

; 48   :         (*ppInterfaceToDelete) = NULL;

	mov	ecx, DWORD PTR _ppInterfaceToDelete$[ebp]
	mov	DWORD PTR [ecx], 0
$LN2@SafeDelete:

; 49   :     }
; 50   : }

	add	esp, 4
	cmp	ebp, esp
	call	__RTC_CheckEsp
	mov	esp, ebp
	pop	ebp
	ret	0
??$SafeDeleteArray@E@@YAXPAPAE@Z ENDP			; SafeDeleteArray<unsigned char>
_TEXT	ENDS
; Function compile flags: /Odtp /RTCsu
;	COMDAT ??0MemoryBankController@gb@emulation@@QAE@XZ
_TEXT	SEGMENT
_this$ = -4						; size = 4
??0MemoryBankController@gb@emulation@@QAE@XZ PROC	; emulation::gb::MemoryBankController::MemoryBankController, COMDAT
; _this$ = ecx
	push	ebp
	mov	ebp, esp
	push	ecx
	mov	DWORD PTR [ebp-4], -858993460		; ccccccccH
	mov	DWORD PTR _this$[ebp], ecx
	mov	eax, DWORD PTR _this$[ebp]
	mov	DWORD PTR [eax], OFFSET ??_7MemoryBankController@gb@emulation@@6B@
	mov	eax, DWORD PTR _this$[ebp]
	mov	esp, ebp
	pop	ebp
	ret	0
??0MemoryBankController@gb@emulation@@QAE@XZ ENDP	; emulation::gb::MemoryBankController::MemoryBankController
_TEXT	ENDS
; Function compile flags: /Odtp /RTCsu
; File c:\users\khalid\documents\github\gbemu\solution\code\emulation\gb\cartridge.h
;	COMDAT ?eram@MemoryBankController@gb@emulation@@QAEPAEXZ
_TEXT	SEGMENT
_this$ = -4						; size = 4
?eram@MemoryBankController@gb@emulation@@QAEPAEXZ PROC	; emulation::gb::MemoryBankController::eram, COMDAT
; _this$ = ecx

; 133  :   uint8_t* eram() { return eram_; }

	push	ebp
	mov	ebp, esp
	push	ecx
	mov	DWORD PTR [ebp-4], -858993460		; ccccccccH
	mov	DWORD PTR _this$[ebp], ecx
	mov	eax, DWORD PTR _this$[ebp]
	mov	eax, DWORD PTR [eax+8]
	mov	esp, ebp
	pop	ebp
	ret	0
?eram@MemoryBankController@gb@emulation@@QAEPAEXZ ENDP	; emulation::gb::MemoryBankController::eram
_TEXT	ENDS
; Function compile flags: /Odtp /RTCsu
; File c:\users\khalid\documents\github\gbemu\solution\code\emulation\gb\cartridge.h
;	COMDAT ?Tick@MemoryBankController@gb@emulation@@UAEXXZ
_TEXT	SEGMENT
_this$ = -4						; size = 4
?Tick@MemoryBankController@gb@emulation@@UAEXXZ PROC	; emulation::gb::MemoryBankController::Tick, COMDAT
; _this$ = ecx

; 132  :   virtual void Tick() { }

	push	ebp
	mov	ebp, esp
	push	ecx
	mov	DWORD PTR [ebp-4], -858993460		; ccccccccH
	mov	DWORD PTR _this$[ebp], ecx
	mov	esp, ebp
	pop	ebp
	ret	0
?Tick@MemoryBankController@gb@emulation@@UAEXXZ ENDP	; emulation::gb::MemoryBankController::Tick
_TEXT	ENDS
; Function compile flags: /Odtp /RTCsu
; File c:\users\khalid\documents\github\gbemu\solution\code\emulation\gb\cartridge.h
;	COMDAT ?Deinitialize@MemoryBankController@gb@emulation@@UAEXXZ
_TEXT	SEGMENT
_this$ = -4						; size = 4
?Deinitialize@MemoryBankController@gb@emulation@@UAEXXZ PROC ; emulation::gb::MemoryBankController::Deinitialize, COMDAT
; _this$ = ecx

; 127  :   virtual void Deinitialize() {

	push	ebp
	mov	ebp, esp
	push	ecx
	mov	DWORD PTR [ebp-4], -858993460		; ccccccccH
	mov	DWORD PTR _this$[ebp], ecx

; 128  :      SafeDeleteArray(&eram_); 

	mov	eax, DWORD PTR _this$[ebp]
	add	eax, 8
	push	eax
	call	??$SafeDeleteArray@E@@YAXPAPAE@Z	; SafeDeleteArray<unsigned char>
	add	esp, 4

; 129  :   };

	add	esp, 4
	cmp	ebp, esp
	call	__RTC_CheckEsp
	mov	esp, ebp
	pop	ebp
	ret	0
?Deinitialize@MemoryBankController@gb@emulation@@UAEXXZ ENDP ; emulation::gb::MemoryBankController::Deinitialize
_TEXT	ENDS
; Function compile flags: /Odtp /RTCsu
; File c:\users\khalid\documents\github\gbemu\solution\code\emulation\gb\cartridge.h
;	COMDAT ?Initialize@MemoryBankController@gb@emulation@@UAEXPAVCartridge@23@@Z
_TEXT	SEGMENT
tv68 = -20						; size = 4
$T1 = -16						; size = 4
$T2 = -12						; size = 4
$T3 = -8						; size = 4
_this$ = -4						; size = 4
_cartridge$ = 8						; size = 4
?Initialize@MemoryBankController@gb@emulation@@UAEXPAVCartridge@23@@Z PROC ; emulation::gb::MemoryBankController::Initialize, COMDAT
; _this$ = ecx

; 118  :   virtual void Initialize(Cartridge* cartridge) {

	push	ebp
	mov	ebp, esp
	sub	esp, 20					; 00000014H
	mov	eax, -858993460				; ccccccccH
	mov	DWORD PTR [ebp-20], eax
	mov	DWORD PTR [ebp-16], eax
	mov	DWORD PTR [ebp-12], eax
	mov	DWORD PTR [ebp-8], eax
	mov	DWORD PTR [ebp-4], eax
	mov	DWORD PTR _this$[ebp], ecx

; 119  :     this->cartridge = cartridge;

	mov	eax, DWORD PTR _this$[ebp]
	mov	ecx, DWORD PTR _cartridge$[ebp]
	mov	DWORD PTR [eax+4], ecx

; 120  :     switch (cartridge->header->ram_size) {

	mov	edx, DWORD PTR _cartridge$[ebp]
	mov	eax, DWORD PTR [edx+8]
	movzx	ecx, BYTE PTR [eax+73]
	mov	DWORD PTR tv68[ebp], ecx
	cmp	DWORD PTR tv68[ebp], 3
	ja	$LN7@Initialize
	mov	edx, DWORD PTR tv68[ebp]
	jmp	DWORD PTR $LN9@Initialize[edx*4]
$LN4@Initialize:

; 121  :       case 0 : eram_ = nullptr; break;

	mov	eax, DWORD PTR _this$[ebp]
	mov	DWORD PTR [eax+8], 0
	jmp	SHORT $LN7@Initialize
$LN3@Initialize:

; 122  :       case 1 : eram_ = new uint8_t[2048]; break;

	push	122					; 0000007aH
	push	OFFSET ??_C@_0EO@OHMNHGO@c?3?2users?2khalid?2documents?2github@
	push	1
	push	2048					; 00000800H
	call	??_U@YAPAXIHPBDH@Z			; operator new[]
	add	esp, 16					; 00000010H
	mov	DWORD PTR $T3[ebp], eax
	mov	ecx, DWORD PTR _this$[ebp]
	mov	edx, DWORD PTR $T3[ebp]
	mov	DWORD PTR [ecx+8], edx
	jmp	SHORT $LN7@Initialize
$LN2@Initialize:

; 123  :       case 2 : eram_ = new uint8_t[0x2000]; break;

	push	123					; 0000007bH
	push	OFFSET ??_C@_0EO@OHMNHGO@c?3?2users?2khalid?2documents?2github@
	push	1
	push	8192					; 00002000H
	call	??_U@YAPAXIHPBDH@Z			; operator new[]
	add	esp, 16					; 00000010H
	mov	DWORD PTR $T2[ebp], eax
	mov	eax, DWORD PTR _this$[ebp]
	mov	ecx, DWORD PTR $T2[ebp]
	mov	DWORD PTR [eax+8], ecx
	jmp	SHORT $LN7@Initialize
$LN1@Initialize:

; 124  :       case 3 : eram_ = new uint8_t[0x8000]; break;

	push	124					; 0000007cH
	push	OFFSET ??_C@_0EO@OHMNHGO@c?3?2users?2khalid?2documents?2github@
	push	1
	push	32768					; 00008000H
	call	??_U@YAPAXIHPBDH@Z			; operator new[]
	add	esp, 16					; 00000010H
	mov	DWORD PTR $T1[ebp], eax
	mov	edx, DWORD PTR _this$[ebp]
	mov	eax, DWORD PTR $T1[ebp]
	mov	DWORD PTR [edx+8], eax
$LN7@Initialize:

; 125  :     }
; 126  :   }

	add	esp, 20					; 00000014H
	cmp	ebp, esp
	call	__RTC_CheckEsp
	mov	esp, ebp
	pop	ebp
	ret	4
	npad	3
$LN9@Initialize:
	DD	$LN4@Initialize
	DD	$LN3@Initialize
	DD	$LN2@Initialize
	DD	$LN1@Initialize
?Initialize@MemoryBankController@gb@emulation@@UAEXPAVCartridge@23@@Z ENDP ; emulation::gb::MemoryBankController::Initialize
_TEXT	ENDS
; Function compile flags: /Odtp /RTCsu
; File c:\users\khalid\documents\github\gbemu\solution\code\emulation\gb\cartridge.cpp
_TEXT	SEGMENT
_this$ = -4						; size = 4
_address$ = 8						; size = 2
_data$ = 12						; size = 1
?Write@Cartridge@gb@emulation@@QAEXGE@Z PROC		; emulation::gb::Cartridge::Write
; _this$ = ecx

; 119  : void Cartridge::Write(uint16_t address, uint8_t data) {

	push	ebp
	mov	ebp, esp
	push	ecx
	push	esi
	mov	DWORD PTR [ebp-4], -858993460		; ccccccccH
	mov	DWORD PTR _this$[ebp], ecx

; 120  :   mbc->Write(address,data);

	mov	esi, esp
	movzx	eax, BYTE PTR _data$[ebp]
	push	eax
	movzx	ecx, WORD PTR _address$[ebp]
	push	ecx
	mov	edx, DWORD PTR _this$[ebp]
	mov	eax, DWORD PTR [edx+12]
	mov	ecx, DWORD PTR _this$[ebp]
	mov	edx, DWORD PTR [eax]
	mov	ecx, DWORD PTR [ecx+12]
	mov	eax, DWORD PTR [edx+12]
	call	eax
	cmp	esi, esp
	call	__RTC_CheckEsp

; 121  : }

	pop	esi
	add	esp, 4
	cmp	ebp, esp
	call	__RTC_CheckEsp
	mov	esp, ebp
	pop	ebp
	ret	8
?Write@Cartridge@gb@emulation@@QAEXGE@Z ENDP		; emulation::gb::Cartridge::Write
_TEXT	ENDS
; Function compile flags: /Odtp /RTCsu
; File c:\users\khalid\documents\github\gbemu\solution\code\emulation\gb\cartridge.cpp
_TEXT	SEGMENT
_this$ = -4						; size = 4
_address$ = 8						; size = 2
?Read@Cartridge@gb@emulation@@QAEEG@Z PROC		; emulation::gb::Cartridge::Read
; _this$ = ecx

; 115  : uint8_t Cartridge::Read(uint16_t address) {

	push	ebp
	mov	ebp, esp
	push	ecx
	push	esi
	mov	DWORD PTR [ebp-4], -858993460		; ccccccccH
	mov	DWORD PTR _this$[ebp], ecx

; 116  :   return mbc->Read(address);

	mov	esi, esp
	movzx	eax, WORD PTR _address$[ebp]
	push	eax
	mov	ecx, DWORD PTR _this$[ebp]
	mov	edx, DWORD PTR [ecx+12]
	mov	eax, DWORD PTR _this$[ebp]
	mov	edx, DWORD PTR [edx]
	mov	ecx, DWORD PTR [eax+12]
	mov	eax, DWORD PTR [edx+8]
	call	eax
	cmp	esi, esp
	call	__RTC_CheckEsp

; 117  : }

	pop	esi
	add	esp, 4
	cmp	ebp, esp
	call	__RTC_CheckEsp
	mov	esp, ebp
	pop	ebp
	ret	4
?Read@Cartridge@gb@emulation@@QAEEG@Z ENDP		; emulation::gb::Cartridge::Read
_TEXT	ENDS
; Function compile flags: /Odtp /RTCsu
; File c:\users\khalid\documents\github\gbemu\solution\code\emulation\gb\cartridge.h
;	COMDAT ?rom@Cartridge@gb@emulation@@QAEPBEXZ
_TEXT	SEGMENT
_this$ = -4						; size = 4
?rom@Cartridge@gb@emulation@@QAEPBEXZ PROC		; emulation::gb::Cartridge::rom, COMDAT
; _this$ = ecx

; 104  :   const uint8_t* rom() { return rom_; }

	push	ebp
	mov	ebp, esp
	push	ecx
	mov	DWORD PTR [ebp-4], -858993460		; ccccccccH
	mov	DWORD PTR _this$[ebp], ecx
	mov	eax, DWORD PTR _this$[ebp]
	mov	eax, DWORD PTR [eax+16]
	mov	esp, ebp
	pop	ebp
	ret	0
?rom@Cartridge@gb@emulation@@QAEPBEXZ ENDP		; emulation::gb::Cartridge::rom
_TEXT	ENDS
; Function compile flags: /Odtp /RTCsu
; File c:\users\khalid\documents\github\gbemu\solution\code\emulation\gb\cartridge.cpp
_TEXT	SEGMENT
_fp$ = -1300						; size = 4
_filename$ = -1292					; size = 1280
_this$ = -8						; size = 4
__$ArrayPad$ = -4					; size = 4
?SaveRam@Cartridge@gb@emulation@@QAEXXZ PROC		; emulation::gb::Cartridge::SaveRam
; _this$ = ecx

; 107  : void Cartridge::SaveRam() {

	push	ebp
	mov	ebp, esp
	sub	esp, 1300				; 00000514H
	push	esi
	push	edi
	push	ecx
	lea	edi, DWORD PTR [ebp-1300]
	mov	ecx, 325				; 00000145H
	mov	eax, -858993460				; ccccccccH
	rep stosd
	pop	ecx
	mov	eax, DWORD PTR ___security_cookie
	xor	eax, ebp
	mov	DWORD PTR __$ArrayPad$[ebp], eax
	mov	DWORD PTR _this$[ebp], ecx

; 108  :   char filename[256*5];
; 109  :   sprintf(filename,"%s%s.ram",cartridge_path,cartridge_filename);

	mov	eax, DWORD PTR _this$[ebp]
	add	eax, 20					; 00000014H
	mov	esi, esp
	push	eax
	mov	ecx, DWORD PTR _this$[ebp]
	add	ecx, 276				; 00000114H
	push	ecx
	push	OFFSET $SG154079
	lea	edx, DWORD PTR _filename$[ebp]
	push	edx
	call	DWORD PTR __imp__sprintf
	add	esp, 16					; 00000010H
	cmp	esi, esp
	call	__RTC_CheckEsp

; 110  :   FILE* fp = fopen(filename,"wb");

	mov	esi, esp
	push	OFFSET $SG154081
	lea	eax, DWORD PTR _filename$[ebp]
	push	eax
	call	DWORD PTR __imp__fopen
	add	esp, 8
	cmp	esi, esp
	call	__RTC_CheckEsp
	mov	DWORD PTR _fp$[ebp], eax

; 111  :   fwrite(mbc->eram(),1,header->ram_size_bytes(),fp);

	mov	esi, esp
	mov	ecx, DWORD PTR _fp$[ebp]
	push	ecx
	mov	edx, DWORD PTR _this$[ebp]
	mov	ecx, DWORD PTR [edx+8]
	call	?ram_size_bytes@CartridgeHeader@gb@emulation@@QAEIXZ ; emulation::gb::CartridgeHeader::ram_size_bytes
	push	eax
	push	1
	mov	eax, DWORD PTR _this$[ebp]
	mov	ecx, DWORD PTR [eax+12]
	call	?eram@MemoryBankController@gb@emulation@@QAEPAEXZ ; emulation::gb::MemoryBankController::eram
	push	eax
	call	DWORD PTR __imp__fwrite
	add	esp, 16					; 00000010H
	cmp	esi, esp
	call	__RTC_CheckEsp

; 112  :   fclose(fp);

	mov	esi, esp
	mov	ecx, DWORD PTR _fp$[ebp]
	push	ecx
	call	DWORD PTR __imp__fclose
	add	esp, 4
	cmp	esi, esp
	call	__RTC_CheckEsp

; 113  : }

	push	edx
	mov	ecx, ebp
	push	eax
	lea	edx, DWORD PTR $LN5@SaveRam
	call	@_RTC_CheckStackVars@8
	pop	eax
	pop	edx
	pop	edi
	pop	esi
	mov	ecx, DWORD PTR __$ArrayPad$[ebp]
	xor	ecx, ebp
	call	@__security_check_cookie@4
	add	esp, 1300				; 00000514H
	cmp	ebp, esp
	call	__RTC_CheckEsp
	mov	esp, ebp
	pop	ebp
	ret	0
	npad	3
$LN5@SaveRam:
	DD	1
	DD	$LN4@SaveRam
$LN4@SaveRam:
	DD	-1292					; fffffaf4H
	DD	1280					; 00000500H
	DD	$LN3@SaveRam
$LN3@SaveRam:
	DB	102					; 00000066H
	DB	105					; 00000069H
	DB	108					; 0000006cH
	DB	101					; 00000065H
	DB	110					; 0000006eH
	DB	97					; 00000061H
	DB	109					; 0000006dH
	DB	101					; 00000065H
	DB	0
?SaveRam@Cartridge@gb@emulation@@QAEXXZ ENDP		; emulation::gb::Cartridge::SaveRam
_TEXT	ENDS
; Function compile flags: /Odtp /RTCsu
; File c:\users\khalid\documents\github\gbemu\solution\code\emulation\gb\cartridge.cpp
_TEXT	SEGMENT
_filename$ = -1316					; size = 1280
_length$ = -28						; size = 4
_data$ = -16						; size = 4
_this$ = -8						; size = 4
__$ArrayPad$ = -4					; size = 4
?LoadRam@Cartridge@gb@emulation@@QAEXXZ PROC		; emulation::gb::Cartridge::LoadRam
; _this$ = ecx

; 97   : void Cartridge::LoadRam() {

	push	ebp
	mov	ebp, esp
	sub	esp, 1320				; 00000528H
	push	esi
	push	edi
	push	ecx
	lea	edi, DWORD PTR [ebp-1320]
	mov	ecx, 330				; 0000014aH
	mov	eax, -858993460				; ccccccccH
	rep stosd
	pop	ecx
	mov	eax, DWORD PTR ___security_cookie
	xor	eax, ebp
	mov	DWORD PTR __$ArrayPad$[ebp], eax
	mov	DWORD PTR _this$[ebp], ecx

; 98   :   uint8_t* data=nullptr;

	mov	DWORD PTR _data$[ebp], 0

; 99   :   size_t length;
; 100  :   char filename[256*5];
; 101  :   sprintf(filename,"%s%s.ram",cartridge_path,cartridge_filename);

	mov	eax, DWORD PTR _this$[ebp]
	add	eax, 20					; 00000014H
	mov	esi, esp
	push	eax
	mov	ecx, DWORD PTR _this$[ebp]
	add	ecx, 276				; 00000114H
	push	ecx
	push	OFFSET $SG154073
	lea	edx, DWORD PTR _filename$[ebp]
	push	edx
	call	DWORD PTR __imp__sprintf
	add	esp, 16					; 00000010H
	cmp	esi, esp
	call	__RTC_CheckEsp

; 102  :   core::io::ReadWholeFileBinary(filename,&data,length);

	lea	eax, DWORD PTR _length$[ebp]
	push	eax
	lea	ecx, DWORD PTR _data$[ebp]
	push	ecx
	lea	edx, DWORD PTR _filename$[ebp]
	push	edx
	call	?ReadWholeFileBinary@io@core@@YAXPBDPAPAEAAI@Z ; core::io::ReadWholeFileBinary
	add	esp, 12					; 0000000cH

; 103  :   if (data)

	cmp	DWORD PTR _data$[ebp], 0
	je	SHORT $LN2@LoadRam

; 104  :     memcpy(mbc->eram(),data,length);

	mov	eax, DWORD PTR _length$[ebp]
	push	eax
	mov	ecx, DWORD PTR _data$[ebp]
	push	ecx
	mov	edx, DWORD PTR _this$[ebp]
	mov	ecx, DWORD PTR [edx+12]
	call	?eram@MemoryBankController@gb@emulation@@QAEPAEXZ ; emulation::gb::MemoryBankController::eram
	push	eax
	call	_memcpy
	add	esp, 12					; 0000000cH
$LN2@LoadRam:

; 105  : }

	push	edx
	mov	ecx, ebp
	push	eax
	lea	edx, DWORD PTR $LN8@LoadRam
	call	@_RTC_CheckStackVars@8
	pop	eax
	pop	edx
	pop	edi
	pop	esi
	mov	ecx, DWORD PTR __$ArrayPad$[ebp]
	xor	ecx, ebp
	call	@__security_check_cookie@4
	add	esp, 1320				; 00000528H
	cmp	ebp, esp
	call	__RTC_CheckEsp
	mov	esp, ebp
	pop	ebp
	ret	0
	npad	3
$LN8@LoadRam:
	DD	3
	DD	$LN7@LoadRam
$LN7@LoadRam:
	DD	-16					; fffffff0H
	DD	4
	DD	$LN4@LoadRam
	DD	-28					; ffffffe4H
	DD	4
	DD	$LN5@LoadRam
	DD	-1316					; fffffadcH
	DD	1280					; 00000500H
	DD	$LN6@LoadRam
$LN6@LoadRam:
	DB	102					; 00000066H
	DB	105					; 00000069H
	DB	108					; 0000006cH
	DB	101					; 00000065H
	DB	110					; 0000006eH
	DB	97					; 00000061H
	DB	109					; 0000006dH
	DB	101					; 00000065H
	DB	0
$LN5@LoadRam:
	DB	108					; 0000006cH
	DB	101					; 00000065H
	DB	110					; 0000006eH
	DB	103					; 00000067H
	DB	116					; 00000074H
	DB	104					; 00000068H
	DB	0
$LN4@LoadRam:
	DB	100					; 00000064H
	DB	97					; 00000061H
	DB	116					; 00000074H
	DB	97					; 00000061H
	DB	0
?LoadRam@Cartridge@gb@emulation@@QAEXXZ ENDP		; emulation::gb::Cartridge::LoadRam
_TEXT	ENDS
; Function compile flags: /Odtp /RTCsu
; File c:\users\khalid\documents\github\gbemu\solution\code\emulation\gb\cartridge.cpp
_TEXT	SEGMENT
tv206 = -76						; size = 4
tv192 = -72						; size = 4
tv178 = -68						; size = 4
tv164 = -64						; size = 4
tv151 = -60						; size = 4
$T1 = -56						; size = 4
$T2 = -52						; size = 4
$T3 = -48						; size = 4
$T4 = -44						; size = 4
$T5 = -40						; size = 4
$T6 = -36						; size = 4
_a$ = -32						; size = 4
_length$ = -24						; size = 4
_data$ = -12						; size = 4
_this$ = -4						; size = 4
_filename$ = 8						; size = 4
_header$ = 12						; size = 4
?LoadFile@Cartridge@gb@emulation@@QAEXPBDPAUCartridgeHeader@23@@Z PROC ; emulation::gb::Cartridge::LoadFile
; _this$ = ecx

; 40   : void Cartridge::LoadFile(const char* filename, CartridgeHeader* header) {

	push	ebp
	mov	ebp, esp
	sub	esp, 76					; 0000004cH
	push	esi
	push	edi
	push	ecx
	lea	edi, DWORD PTR [ebp-76]
	mov	ecx, 19					; 00000013H
	mov	eax, -858993460				; ccccccccH
	rep stosd
	pop	ecx
	mov	DWORD PTR _this$[ebp], ecx

; 41   :   emu_->Stop();

	mov	eax, DWORD PTR _this$[ebp]
	mov	ecx, DWORD PTR [eax+4]
	call	?Stop@Emu@gb@emulation@@QAEXXZ		; emulation::gb::Emu::Stop

; 42   :   emu_->Reset();

	mov	ecx, DWORD PTR _this$[ebp]
	mov	ecx, DWORD PTR [ecx+4]
	call	?Reset@Emu@gb@emulation@@QAEXXZ		; emulation::gb::Emu::Reset

; 43   : 	SafeDeleteArray(&rom_);

	mov	edx, DWORD PTR _this$[ebp]
	add	edx, 16					; 00000010H
	push	edx
	call	??$SafeDeleteArray@E@@YAXPAPAE@Z	; SafeDeleteArray<unsigned char>
	add	esp, 4

; 44   :   if (mbc) {

	mov	eax, DWORD PTR _this$[ebp]
	cmp	DWORD PTR [eax+12], 0
	je	SHORT $LN9@LoadFile

; 45   :     mbc->Deinitialize();

	mov	ecx, DWORD PTR _this$[ebp]
	mov	edx, DWORD PTR [ecx+12]
	mov	eax, DWORD PTR _this$[ebp]
	mov	edx, DWORD PTR [edx]
	mov	esi, esp
	mov	ecx, DWORD PTR [eax+12]
	mov	eax, DWORD PTR [edx+4]
	call	eax
	cmp	esi, esp
	call	__RTC_CheckEsp

; 46   : 		delete mbc;

	mov	ecx, DWORD PTR _this$[ebp]
	mov	edx, DWORD PTR [ecx+12]
	mov	DWORD PTR $T6[ebp], edx
	mov	eax, DWORD PTR $T6[ebp]
	push	eax
	call	??3@YAXPAX@Z				; operator delete
	add	esp, 4
$LN9@LoadFile:

; 47   : 	}
; 48   :   uint8_t* data;
; 49   :   size_t length;
; 50   :   core::io::ReadWholeFileBinary(filename,&data,length);

	lea	ecx, DWORD PTR _length$[ebp]
	push	ecx
	lea	edx, DWORD PTR _data$[ebp]
	push	edx
	mov	eax, DWORD PTR _filename$[ebp]
	push	eax
	call	?ReadWholeFileBinary@io@core@@YAXPBDPAPAEAAI@Z ; core::io::ReadWholeFileBinary
	add	esp, 12					; 0000000cH

; 51   :   memcpy(header,data+0x100,0x50);

	push	80					; 00000050H
	mov	ecx, DWORD PTR _data$[ebp]
	add	ecx, 256				; 00000100H
	push	ecx
	mov	edx, DWORD PTR _header$[ebp]
	push	edx
	call	_memcpy
	add	esp, 12					; 0000000cH

; 52   :   if (header->rom_size_bytes() == 0) {

	mov	ecx, DWORD PTR _header$[ebp]
	call	?rom_size_bytes@CartridgeHeader@gb@emulation@@QAEIXZ ; emulation::gb::CartridgeHeader::rom_size_bytes
	test	eax, eax
	jne	SHORT $LN8@LoadFile

; 53   :     //report error
; 54   :     return;

	jmp	$LN10@LoadFile
$LN8@LoadFile:

; 55   :   }
; 56   :   rom_ = new uint8_t[header->rom_size_bytes()];

	push	56					; 00000038H
	push	OFFSET $SG154033
	push	1
	mov	ecx, DWORD PTR _header$[ebp]
	call	?rom_size_bytes@CartridgeHeader@gb@emulation@@QAEIXZ ; emulation::gb::CartridgeHeader::rom_size_bytes
	push	eax
	call	??_U@YAPAXIHPBDH@Z			; operator new[]
	add	esp, 16					; 00000010H
	mov	DWORD PTR $T5[ebp], eax
	mov	eax, DWORD PTR _this$[ebp]
	mov	ecx, DWORD PTR $T5[ebp]
	mov	DWORD PTR [eax+16], ecx

; 57   :   memcpy(rom_,data,header->rom_size_bytes());

	mov	ecx, DWORD PTR _header$[ebp]
	call	?rom_size_bytes@CartridgeHeader@gb@emulation@@QAEIXZ ; emulation::gb::CartridgeHeader::rom_size_bytes
	push	eax
	mov	edx, DWORD PTR _data$[ebp]
	push	edx
	mov	eax, DWORD PTR _this$[ebp]
	mov	ecx, DWORD PTR [eax+16]
	push	ecx
	call	_memcpy
	add	esp, 12					; 0000000cH

; 58   :   this->header = (CartridgeHeader*)&rom_[0x100];

	mov	edx, 1
	shl	edx, 8
	mov	eax, DWORD PTR _this$[ebp]
	add	edx, DWORD PTR [eax+16]
	mov	ecx, DWORD PTR _this$[ebp]
	mov	DWORD PTR [ecx+8], edx

; 59   : 
; 60   :   switch (header->cartridge_type) {

	mov	edx, DWORD PTR _header$[ebp]
	movzx	eax, BYTE PTR [edx+71]
	mov	DWORD PTR tv151[ebp], eax
	cmp	DWORD PTR tv151[ebp], 26		; 0000001aH
	ja	$LN1@LoadFile
	mov	ecx, DWORD PTR tv151[ebp]
	movzx	edx, BYTE PTR $LN20@LoadFile[ecx]
	jmp	DWORD PTR $LN25@LoadFile[edx*4]
$LN5@LoadFile:

; 61   :     case 0:
; 62   :       mbc = new MBCNone();

	push	62					; 0000003eH
	push	OFFSET $SG154042
	push	1
	push	16					; 00000010H
	call	??2@YAPAXIHPBDH@Z			; operator new
	add	esp, 16					; 00000010H
	mov	DWORD PTR $T4[ebp], eax
	cmp	DWORD PTR $T4[ebp], 0
	je	SHORT $LN12@LoadFile
	mov	ecx, DWORD PTR $T4[ebp]
	call	??0MBCNone@gb@emulation@@QAE@XZ
	mov	DWORD PTR tv164[ebp], eax
	jmp	SHORT $LN13@LoadFile
$LN12@LoadFile:
	mov	DWORD PTR tv164[ebp], 0
$LN13@LoadFile:
	mov	eax, DWORD PTR _this$[ebp]
	mov	ecx, DWORD PTR tv164[ebp]
	mov	DWORD PTR [eax+12], ecx

; 63   :       break;

	jmp	$LN6@LoadFile
$LN4@LoadFile:

; 64   :     case 1:
; 65   :     case 2:
; 66   :     case 3:
; 67   :       mbc = new MBC1();

	push	67					; 00000043H
	push	OFFSET $SG154046
	push	1
	push	20					; 00000014H
	call	??2@YAPAXIHPBDH@Z			; operator new
	add	esp, 16					; 00000010H
	mov	DWORD PTR $T3[ebp], eax
	cmp	DWORD PTR $T3[ebp], 0
	je	SHORT $LN14@LoadFile
	mov	ecx, DWORD PTR $T3[ebp]
	call	??0MBC1@gb@emulation@@QAE@XZ
	mov	DWORD PTR tv178[ebp], eax
	jmp	SHORT $LN15@LoadFile
$LN14@LoadFile:
	mov	DWORD PTR tv178[ebp], 0
$LN15@LoadFile:
	mov	edx, DWORD PTR _this$[ebp]
	mov	eax, DWORD PTR tv178[ebp]
	mov	DWORD PTR [edx+12], eax

; 68   :       break;

	jmp	$LN6@LoadFile
$LN3@LoadFile:

; 69   :     case 0x0F:
; 70   :     case 0x10:
; 71   :     case 0x11:
; 72   :     case 0x12:
; 73   :     case 0x13:
; 74   :       mbc = new MBC3();

	push	74					; 0000004aH
	push	OFFSET $SG154050
	push	1
	push	32					; 00000020H
	call	??2@YAPAXIHPBDH@Z			; operator new
	add	esp, 16					; 00000010H
	mov	DWORD PTR $T2[ebp], eax
	cmp	DWORD PTR $T2[ebp], 0
	je	SHORT $LN16@LoadFile
	mov	ecx, DWORD PTR $T2[ebp]
	call	??0MBC3@gb@emulation@@QAE@XZ
	mov	DWORD PTR tv192[ebp], eax
	jmp	SHORT $LN17@LoadFile
$LN16@LoadFile:
	mov	DWORD PTR tv192[ebp], 0
$LN17@LoadFile:
	mov	ecx, DWORD PTR _this$[ebp]
	mov	edx, DWORD PTR tv192[ebp]
	mov	DWORD PTR [ecx+12], edx

; 75   :       break;

	jmp	SHORT $LN6@LoadFile
$LN2@LoadFile:

; 76   :     case 0x1A:
; 77   :       mbc = new MBC5();

	push	77					; 0000004dH
	push	OFFSET $SG154054
	push	1
	push	20					; 00000014H
	call	??2@YAPAXIHPBDH@Z			; operator new
	add	esp, 16					; 00000010H
	mov	DWORD PTR $T1[ebp], eax
	cmp	DWORD PTR $T1[ebp], 0
	je	SHORT $LN18@LoadFile
	mov	ecx, DWORD PTR $T1[ebp]
	call	??0MBC5@gb@emulation@@QAE@XZ
	mov	DWORD PTR tv206[ebp], eax
	jmp	SHORT $LN19@LoadFile
$LN18@LoadFile:
	mov	DWORD PTR tv206[ebp], 0
$LN19@LoadFile:
	mov	eax, DWORD PTR _this$[ebp]
	mov	ecx, DWORD PTR tv206[ebp]
	mov	DWORD PTR [eax+12], ecx

; 78   :       break;

	jmp	SHORT $LN6@LoadFile
$LN1@LoadFile:

; 79   :     default:
; 80   :       DebugBreak();

	mov	esi, esp
	call	DWORD PTR __imp__DebugBreak@0
	cmp	esi, esp
	call	__RTC_CheckEsp
$LN6@LoadFile:

; 81   :   }
; 82   : 
; 83   :   mbc->Initialize(this);

	mov	esi, esp
	mov	edx, DWORD PTR _this$[ebp]
	push	edx
	mov	eax, DWORD PTR _this$[ebp]
	mov	ecx, DWORD PTR [eax+12]
	mov	edx, DWORD PTR _this$[ebp]
	mov	eax, DWORD PTR [ecx]
	mov	ecx, DWORD PTR [edx+12]
	mov	edx, DWORD PTR [eax]
	call	edx
	cmp	esi, esp
	call	__RTC_CheckEsp

; 84   : 
; 85   :   const char* a = strrchr(filename,'\\');

	mov	esi, esp
	push	92					; 0000005cH
	mov	eax, DWORD PTR _filename$[ebp]
	push	eax
	call	DWORD PTR __imp__strrchr
	add	esp, 8
	cmp	esi, esp
	call	__RTC_CheckEsp
	mov	DWORD PTR _a$[ebp], eax

; 86   :   memset(cartridge_path,0,sizeof(cartridge_path));

	push	1024					; 00000400H
	push	0
	mov	ecx, DWORD PTR _this$[ebp]
	add	ecx, 276				; 00000114H
	push	ecx
	call	_memset
	add	esp, 12					; 0000000cH

; 87   :   strncpy(cartridge_path,filename,a-filename+1);

	mov	edx, DWORD PTR _a$[ebp]
	sub	edx, DWORD PTR _filename$[ebp]
	add	edx, 1
	mov	esi, esp
	push	edx
	mov	eax, DWORD PTR _filename$[ebp]
	push	eax
	mov	ecx, DWORD PTR _this$[ebp]
	add	ecx, 276				; 00000114H
	push	ecx
	call	DWORD PTR __imp__strncpy
	add	esp, 12					; 0000000cH
	cmp	esi, esp
	call	__RTC_CheckEsp

; 88   :   cartridge_path[a-filename+1] = '\0';

	mov	edx, DWORD PTR _a$[ebp]
	sub	edx, DWORD PTR _filename$[ebp]
	mov	eax, DWORD PTR _this$[ebp]
	mov	BYTE PTR [eax+edx+277], 0

; 89   :   strcpy(cartridge_filename,a+1);

	mov	ecx, DWORD PTR _a$[ebp]
	add	ecx, 1
	push	ecx
	mov	edx, DWORD PTR _this$[ebp]
	add	edx, 20					; 00000014H
	push	edx
	call	_strcpy
	add	esp, 8

; 90   : 
; 91   :   LoadRam();

	mov	ecx, DWORD PTR _this$[ebp]
	call	?LoadRam@Cartridge@gb@emulation@@QAEXXZ	; emulation::gb::Cartridge::LoadRam

; 92   :   core::io::DestroyFileBuffer(&data);

	lea	eax, DWORD PTR _data$[ebp]
	push	eax
	call	?DestroyFileBuffer@io@core@@YAXPAPAE@Z	; core::io::DestroyFileBuffer
	add	esp, 4

; 93   :   emu_->memory()->rom_ = emu_->cartridge()->rom();

	mov	ecx, DWORD PTR _this$[ebp]
	mov	ecx, DWORD PTR [ecx+4]
	call	?cartridge@Emu@gb@emulation@@QAEPAVCartridge@23@XZ ; emulation::gb::Emu::cartridge
	mov	ecx, eax
	call	?rom@Cartridge@gb@emulation@@QAEPBEXZ	; emulation::gb::Cartridge::rom
	mov	esi, eax
	mov	edx, DWORD PTR _this$[ebp]
	mov	ecx, DWORD PTR [edx+4]
	call	?memory@Emu@gb@emulation@@QAEPAVMemory@23@XZ ; emulation::gb::Emu::memory
	mov	DWORD PTR [eax+8], esi
$LN10@LoadFile:

; 94   :   
; 95   : }

	push	edx
	mov	ecx, ebp
	push	eax
	lea	edx, DWORD PTR $LN24@LoadFile
	call	@_RTC_CheckStackVars@8
	pop	eax
	pop	edx
	pop	edi
	pop	esi
	add	esp, 76					; 0000004cH
	cmp	ebp, esp
	call	__RTC_CheckEsp
	mov	esp, ebp
	pop	ebp
	ret	8
	npad	3
$LN24@LoadFile:
	DD	2
	DD	$LN23@LoadFile
$LN23@LoadFile:
	DD	-12					; fffffff4H
	DD	4
	DD	$LN21@LoadFile
	DD	-24					; ffffffe8H
	DD	4
	DD	$LN22@LoadFile
$LN22@LoadFile:
	DB	108					; 0000006cH
	DB	101					; 00000065H
	DB	110					; 0000006eH
	DB	103					; 00000067H
	DB	116					; 00000074H
	DB	104					; 00000068H
	DB	0
$LN21@LoadFile:
	DB	100					; 00000064H
	DB	97					; 00000061H
	DB	116					; 00000074H
	DB	97					; 00000061H
	DB	0
$LN25@LoadFile:
	DD	$LN5@LoadFile
	DD	$LN4@LoadFile
	DD	$LN3@LoadFile
	DD	$LN2@LoadFile
	DD	$LN1@LoadFile
$LN20@LoadFile:
	DB	0
	DB	1
	DB	1
	DB	1
	DB	4
	DB	4
	DB	4
	DB	4
	DB	4
	DB	4
	DB	4
	DB	4
	DB	4
	DB	4
	DB	4
	DB	2
	DB	2
	DB	2
	DB	2
	DB	2
	DB	4
	DB	4
	DB	4
	DB	4
	DB	4
	DB	4
	DB	3
?LoadFile@Cartridge@gb@emulation@@QAEXPBDPAUCartridgeHeader@23@@Z ENDP ; emulation::gb::Cartridge::LoadFile
_TEXT	ENDS
; Function compile flags: /Odtp /RTCsu
; File c:\users\khalid\documents\github\gbemu\solution\code\emulation\gb\cartridge.cpp
_TEXT	SEGMENT
_this$ = -4						; size = 4
?Deinitialize@Cartridge@gb@emulation@@UAEXXZ PROC	; emulation::gb::Cartridge::Deinitialize
; _this$ = ecx

; 31   : void Cartridge::Deinitialize() {

	push	ebp
	mov	ebp, esp
	push	ecx
	push	esi
	mov	DWORD PTR [ebp-4], -858993460		; ccccccccH
	mov	DWORD PTR _this$[ebp], ecx

; 32   :   if (mbc) {

	mov	eax, DWORD PTR _this$[ebp]
	cmp	DWORD PTR [eax+12], 0
	je	SHORT $LN1@Deinitiali

; 33   :     SaveRam();

	mov	ecx, DWORD PTR _this$[ebp]
	call	?SaveRam@Cartridge@gb@emulation@@QAEXXZ	; emulation::gb::Cartridge::SaveRam

; 34   :     mbc->Deinitialize();

	mov	ecx, DWORD PTR _this$[ebp]
	mov	edx, DWORD PTR [ecx+12]
	mov	eax, DWORD PTR _this$[ebp]
	mov	edx, DWORD PTR [edx]
	mov	esi, esp
	mov	ecx, DWORD PTR [eax+12]
	mov	eax, DWORD PTR [edx+4]
	call	eax
	cmp	esi, esp
	call	__RTC_CheckEsp
$LN1@Deinitiali:

; 35   :   }
; 36   :   SafeDelete(&mbc);

	mov	ecx, DWORD PTR _this$[ebp]
	add	ecx, 12					; 0000000cH
	push	ecx
	call	??$SafeDelete@VMemoryBankController@gb@emulation@@@@YAXPAPAVMemoryBankController@gb@emulation@@@Z ; SafeDelete<emulation::gb::MemoryBankController>
	add	esp, 4

; 37   :   core::io::DestroyFileBuffer(&rom_);

	mov	edx, DWORD PTR _this$[ebp]
	add	edx, 16					; 00000010H
	push	edx
	call	?DestroyFileBuffer@io@core@@YAXPAPAE@Z	; core::io::DestroyFileBuffer
	add	esp, 4

; 38   : }

	pop	esi
	add	esp, 4
	cmp	ebp, esp
	call	__RTC_CheckEsp
	mov	esp, ebp
	pop	ebp
	ret	0
?Deinitialize@Cartridge@gb@emulation@@UAEXXZ ENDP	; emulation::gb::Cartridge::Deinitialize
_TEXT	ENDS
; Function compile flags: /Odtp /RTCsu
; File c:\users\khalid\documents\github\gbemu\solution\code\emulation\gb\cartridge.cpp
_TEXT	SEGMENT
_this$ = -4						; size = 4
_emu$ = 8						; size = 4
?Initialize@Cartridge@gb@emulation@@UAEXPAVEmu@23@@Z PROC ; emulation::gb::Cartridge::Initialize
; _this$ = ecx

; 25   : void Cartridge::Initialize(Emu* emu) {

	push	ebp
	mov	ebp, esp
	push	ecx
	mov	DWORD PTR [ebp-4], -858993460		; ccccccccH
	mov	DWORD PTR _this$[ebp], ecx

; 26   :   Component::Initialize(emu);

	mov	eax, DWORD PTR _emu$[ebp]
	push	eax
	mov	ecx, DWORD PTR _this$[ebp]
	call	?Initialize@Component@gb@emulation@@UAEXPAVEmu@23@@Z ; emulation::gb::Component::Initialize

; 27   :   rom_ = nullptr;

	mov	ecx, DWORD PTR _this$[ebp]
	mov	DWORD PTR [ecx+16], 0

; 28   :   mbc = nullptr;

	mov	edx, DWORD PTR _this$[ebp]
	mov	DWORD PTR [edx+12], 0

; 29   : }

	add	esp, 4
	cmp	ebp, esp
	call	__RTC_CheckEsp
	mov	esp, ebp
	pop	ebp
	ret	4
?Initialize@Cartridge@gb@emulation@@UAEXPAVEmu@23@@Z ENDP ; emulation::gb::Cartridge::Initialize
_TEXT	ENDS
; Function compile flags: /Odtp /RTCsu
; File c:\users\khalid\documents\github\gbemu\solution\code\emulation\gb\cartridge.h
;	COMDAT ?ram_size_bytes@CartridgeHeader@gb@emulation@@QAEIXZ
_TEXT	SEGMENT
tv66 = -8						; size = 4
_this$ = -4						; size = 4
?ram_size_bytes@CartridgeHeader@gb@emulation@@QAEIXZ PROC ; emulation::gb::CartridgeHeader::ram_size_bytes, COMDAT
; _this$ = ecx

; 82   :   uint32_t ram_size_bytes() {

	push	ebp
	mov	ebp, esp
	sub	esp, 8
	mov	DWORD PTR [ebp-8], -858993460		; ccccccccH
	mov	DWORD PTR [ebp-4], -858993460		; ccccccccH
	mov	DWORD PTR _this$[ebp], ecx

; 83   :     switch (ram_size) {

	mov	eax, DWORD PTR _this$[ebp]
	movzx	ecx, BYTE PTR [eax+73]
	mov	DWORD PTR tv66[ebp], ecx
	cmp	DWORD PTR tv66[ebp], 3
	ja	SHORT $LN8@ram_size_b
	mov	edx, DWORD PTR tv66[ebp]
	jmp	DWORD PTR $LN12@ram_size_b[edx*4]
$LN7@ram_size_b:

; 84   :       case 0: if (cartridge_type==5 || cartridge_type==6) return 256; else return 0;

	mov	eax, DWORD PTR _this$[ebp]
	movzx	ecx, BYTE PTR [eax+71]
	cmp	ecx, 5
	je	SHORT $LN5@ram_size_b
	mov	edx, DWORD PTR _this$[ebp]
	movzx	eax, BYTE PTR [edx+71]
	cmp	eax, 6
	jne	SHORT $LN6@ram_size_b
$LN5@ram_size_b:
	mov	eax, 256				; 00000100H
	jmp	SHORT $LN10@ram_size_b
	jmp	SHORT $LN3@ram_size_b
$LN6@ram_size_b:
	xor	eax, eax
	jmp	SHORT $LN10@ram_size_b
$LN3@ram_size_b:

; 85   :       case 1:return 2*1024;

	mov	eax, 2048				; 00000800H
	jmp	SHORT $LN10@ram_size_b
$LN2@ram_size_b:

; 86   :       case 2:return 8*1024;

	mov	eax, 8192				; 00002000H
	jmp	SHORT $LN10@ram_size_b
$LN1@ram_size_b:

; 87   :       case 3:return 32*1024;

	mov	eax, 32768				; 00008000H
	jmp	SHORT $LN10@ram_size_b
$LN8@ram_size_b:

; 88   :     }
; 89   :     return 0;

	xor	eax, eax
$LN10@ram_size_b:

; 90   :   }

	mov	esp, ebp
	pop	ebp
	ret	0
	npad	3
$LN12@ram_size_b:
	DD	$LN7@ram_size_b
	DD	$LN3@ram_size_b
	DD	$LN2@ram_size_b
	DD	$LN1@ram_size_b
?ram_size_bytes@CartridgeHeader@gb@emulation@@QAEIXZ ENDP ; emulation::gb::CartridgeHeader::ram_size_bytes
_TEXT	ENDS
; Function compile flags: /Odtp /RTCsu
; File c:\users\khalid\documents\github\gbemu\solution\code\emulation\gb\cartridge.h
;	COMDAT ?rom_size_bytes@CartridgeHeader@gb@emulation@@QAEIXZ
_TEXT	SEGMENT
tv72 = -8						; size = 4
_this$ = -4						; size = 4
?rom_size_bytes@CartridgeHeader@gb@emulation@@QAEIXZ PROC ; emulation::gb::CartridgeHeader::rom_size_bytes, COMDAT
; _this$ = ecx

; 69   :   uint32_t rom_size_bytes() {

	push	ebp
	mov	ebp, esp
	sub	esp, 8
	mov	DWORD PTR [ebp-8], -858993460		; ccccccccH
	mov	DWORD PTR [ebp-4], -858993460		; ccccccccH
	mov	DWORD PTR _this$[ebp], ecx

; 70   :     if (rom_size < 10){

	mov	eax, DWORD PTR _this$[ebp]
	movzx	ecx, BYTE PTR [eax+72]
	cmp	ecx, 10					; 0000000aH
	jge	SHORT $LN7@rom_size_b

; 71   :       return 0x8000 << rom_size;

	mov	edx, DWORD PTR _this$[ebp]
	movzx	ecx, BYTE PTR [edx+72]
	mov	eax, 32768				; 00008000H
	shl	eax, cl
	jmp	SHORT $LN8@rom_size_b

; 72   :     } else {

	jmp	SHORT $LN6@rom_size_b
$LN7@rom_size_b:

; 73   :       switch (rom_size) {

	mov	eax, DWORD PTR _this$[ebp]
	mov	cl, BYTE PTR [eax+72]
	mov	BYTE PTR tv72[ebp], cl
	cmp	BYTE PTR tv72[ebp], 82			; 00000052H
	je	SHORT $LN3@rom_size_b
	cmp	BYTE PTR tv72[ebp], 83			; 00000053H
	je	SHORT $LN2@rom_size_b
	cmp	BYTE PTR tv72[ebp], 84			; 00000054H
	je	SHORT $LN1@rom_size_b
	jmp	SHORT $LN6@rom_size_b
$LN3@rom_size_b:

; 74   :         case 0x52:return 0x120000;

	mov	eax, 1179648				; 00120000H
	jmp	SHORT $LN8@rom_size_b
$LN2@rom_size_b:

; 75   :         case 0x53:return 0x140000;

	mov	eax, 1310720				; 00140000H
	jmp	SHORT $LN8@rom_size_b
$LN1@rom_size_b:

; 76   :         case 0x54:return 0x180000;

	mov	eax, 1572864				; 00180000H
	jmp	SHORT $LN8@rom_size_b
$LN6@rom_size_b:

; 77   :       }
; 78   :     }
; 79   :     return 0;

	xor	eax, eax
$LN8@rom_size_b:

; 80   :   }

	mov	esp, ebp
	pop	ebp
	ret	0
?rom_size_bytes@CartridgeHeader@gb@emulation@@QAEIXZ ENDP ; emulation::gb::CartridgeHeader::rom_size_bytes
_TEXT	ENDS
; Function compile flags: /Odtp /RTCsu
; File c:\users\khalid\documents\github\gbemu\solution\code\emulation\gb\gb.h
;	COMDAT ?Initialize@Component@gb@emulation@@UAEXPAVEmu@23@@Z
_TEXT	SEGMENT
_this$ = -4						; size = 4
_emu$ = 8						; size = 4
?Initialize@Component@gb@emulation@@UAEXPAVEmu@23@@Z PROC ; emulation::gb::Component::Initialize, COMDAT
; _this$ = ecx

; 47   :   virtual void Initialize(Emu* emu) {

	push	ebp
	mov	ebp, esp
	push	ecx
	mov	DWORD PTR [ebp-4], -858993460		; ccccccccH
	mov	DWORD PTR _this$[ebp], ecx

; 48   :     emu_ = emu;

	mov	eax, DWORD PTR _this$[ebp]
	mov	ecx, DWORD PTR _emu$[ebp]
	mov	DWORD PTR [eax+4], ecx

; 49   :   }

	mov	esp, ebp
	pop	ebp
	ret	4
?Initialize@Component@gb@emulation@@UAEXPAVEmu@23@@Z ENDP ; emulation::gb::Component::Initialize
_TEXT	ENDS
; Function compile flags: /Odtp /RTCsu
; File c:\program files (x86)\microsoft visual studio 11.0\vc\include\tuple
;	COMDAT ??__E_Tuple_alloc@std@@YAXXZ
text$yc	SEGMENT
$T1 = -1						; size = 1
??__E_Tuple_alloc@std@@YAXXZ PROC			; std::`dynamic initializer for '_Tuple_alloc'', COMDAT

; 137  : const _Tuple_alloc_t _Tuple_alloc = _Tuple_alloc_t();

	push	ebp
	mov	ebp, esp
	push	ecx
	mov	DWORD PTR [ebp-4], -858993460		; ccccccccH
	xor	eax, eax
	mov	BYTE PTR $T1[ebp], al
	mov	esp, ebp
	pop	ebp
	ret	0
??__E_Tuple_alloc@std@@YAXXZ ENDP			; std::`dynamic initializer for '_Tuple_alloc''
text$yc	ENDS
; Function compile flags: /Odtp /RTCsu
; File c:\program files (x86)\microsoft visual studio 11.0\vc\include\tuple
;	COMDAT ??__Eignore@std@@YAXXZ
text$yc	SEGMENT
??__Eignore@std@@YAXXZ PROC				; std::`dynamic initializer for 'ignore'', COMDAT

; 130  : const _Ignore ignore;

	push	ebp
	mov	ebp, esp
	mov	ecx, OFFSET _ignore
	call	??0_Ignore@std@@QAE@XZ			; std::_Ignore::_Ignore
	cmp	ebp, esp
	call	__RTC_CheckEsp
	pop	ebp
	ret	0
??__Eignore@std@@YAXXZ ENDP				; std::`dynamic initializer for 'ignore''
text$yc	ENDS
; Function compile flags: /Odtp /RTCsu
; File c:\program files (x86)\microsoft visual studio 11.0\vc\include\tuple
;	COMDAT ??0_Ignore@std@@QAE@XZ
_TEXT	SEGMENT
_this$ = -4						; size = 4
??0_Ignore@std@@QAE@XZ PROC				; std::_Ignore::_Ignore, COMDAT
; _this$ = ecx

; 120  : 	_Ignore()

	push	ebp
	mov	ebp, esp
	push	ecx
	mov	DWORD PTR [ebp-4], -858993460		; ccccccccH
	mov	DWORD PTR _this$[ebp], ecx

; 121  : 		{	// construct
; 122  : 		}

	mov	eax, DWORD PTR _this$[ebp]
	mov	esp, ebp
	pop	ebp
	ret	0
??0_Ignore@std@@QAE@XZ ENDP				; std::_Ignore::_Ignore
_TEXT	ENDS
; Function compile flags: /Odtp /RTCsu
; File c:\program files (x86)\microsoft visual studio 11.0\vc\include\xutility
;	COMDAT ??__Eallocator_arg@std@@YAXXZ
text$yc	SEGMENT
$T1 = -1						; size = 1
??__Eallocator_arg@std@@YAXXZ PROC			; std::`dynamic initializer for 'allocator_arg'', COMDAT

; 3644 : const allocator_arg_t allocator_arg = allocator_arg_t();

	push	ebp
	mov	ebp, esp
	push	ecx
	mov	DWORD PTR [ebp-4], -858993460		; ccccccccH
	xor	eax, eax
	mov	BYTE PTR $T1[ebp], al
	mov	esp, ebp
	pop	ebp
	ret	0
??__Eallocator_arg@std@@YAXXZ ENDP			; std::`dynamic initializer for 'allocator_arg''
text$yc	ENDS
; Function compile flags: /Odtp /RTCsu
; File c:\program files (x86)\microsoft visual studio 11.0\vc\include\utility
;	COMDAT ??__Epiecewise_construct@std@@YAXXZ
text$yc	SEGMENT
$T1 = -1						; size = 1
??__Epiecewise_construct@std@@YAXXZ PROC		; std::`dynamic initializer for 'piecewise_construct'', COMDAT

; 65   : 	piecewise_construct_t();

	push	ebp
	mov	ebp, esp
	push	ecx
	mov	DWORD PTR [ebp-4], -858993460		; ccccccccH
	xor	eax, eax
	mov	BYTE PTR $T1[ebp], al
	mov	esp, ebp
	pop	ebp
	ret	0
??__Epiecewise_construct@std@@YAXXZ ENDP		; std::`dynamic initializer for 'piecewise_construct''
text$yc	ENDS
END
