; Listing generated by Microsoft (R) Optimizing Compiler Version 17.00.60610.1 

	TITLE	D:\Personal\Projects\GBEmu\Solution\Code\emulation\gb\cpu.cpp
	.686P
	.XMM
	include listing.inc
	.model	flat

INCLUDELIB MSVCRTD
INCLUDELIB OLDNAMES

PUBLIC	?is_signed@?$numeric_limits@_W@std@@2_NB	; std::numeric_limits<wchar_t>::is_signed
PUBLIC	?digits@?$numeric_limits@_W@std@@2HB		; std::numeric_limits<wchar_t>::digits
PUBLIC	?digits10@?$numeric_limits@_W@std@@2HB		; std::numeric_limits<wchar_t>::digits10
PUBLIC	?is_modulo@?$numeric_limits@_N@std@@2_NB	; std::numeric_limits<bool>::is_modulo
PUBLIC	?is_signed@?$numeric_limits@_N@std@@2_NB	; std::numeric_limits<bool>::is_signed
PUBLIC	?digits@?$numeric_limits@_N@std@@2HB		; std::numeric_limits<bool>::digits
PUBLIC	?digits10@?$numeric_limits@_N@std@@2HB		; std::numeric_limits<bool>::digits10
PUBLIC	?is_signed@?$numeric_limits@C@std@@2_NB		; std::numeric_limits<signed char>::is_signed
PUBLIC	?digits@?$numeric_limits@C@std@@2HB		; std::numeric_limits<signed char>::digits
PUBLIC	?digits10@?$numeric_limits@C@std@@2HB		; std::numeric_limits<signed char>::digits10
PUBLIC	?is_signed@?$numeric_limits@E@std@@2_NB		; std::numeric_limits<unsigned char>::is_signed
PUBLIC	?digits@?$numeric_limits@E@std@@2HB		; std::numeric_limits<unsigned char>::digits
PUBLIC	?digits10@?$numeric_limits@E@std@@2HB		; std::numeric_limits<unsigned char>::digits10
PUBLIC	?value@?$integral_constant@I$0A@@std@@2IB	; std::integral_constant<unsigned int,0>::value
PUBLIC	?value@?$_Abs@$0GE@@std@@2_JB			; std::_Abs<100>::value
PUBLIC	?value@?$_Abs@$0DLJKMKAA@@std@@2_JB		; std::_Abs<1000000000>::value
PUBLIC	?is_signed@?$numeric_limits@F@std@@2_NB		; std::numeric_limits<short>::is_signed
PUBLIC	?digits@?$numeric_limits@F@std@@2HB		; std::numeric_limits<short>::digits
PUBLIC	?value@?$integral_constant@_N$0A@@std@@2_NB	; std::integral_constant<bool,0>::value
PUBLIC	?digits10@?$numeric_limits@F@std@@2HB		; std::numeric_limits<short>::digits10
PUBLIC	?value@?$_GcdX@$0GE@$0A@@std@@2_JB		; std::_GcdX<100,0>::value
PUBLIC	?value@?$integral_constant@_N$00@std@@2_NB	; std::integral_constant<bool,1>::value
PUBLIC	?value@?$_GcdX@$0DLJKMKAA@$0GE@@std@@2_JB	; std::_GcdX<1000000000,100>::value
PUBLIC	?_STATE_CLEAR@_CancellationTokenRegistration@details@Concurrency@@0JB ; Concurrency::details::_CancellationTokenRegistration::_STATE_CLEAR
PUBLIC	?_STATE_DEFER_DELETE@_CancellationTokenRegistration@details@Concurrency@@0JB ; Concurrency::details::_CancellationTokenRegistration::_STATE_DEFER_DELETE
PUBLIC	?value@?$_GcdX@$0GE@$0DLJKMKAA@@std@@2_JB	; std::_GcdX<100,1000000000>::value
PUBLIC	?_STATE_SYNCHRONIZE@_CancellationTokenRegistration@details@Concurrency@@0JB ; Concurrency::details::_CancellationTokenRegistration::_STATE_SYNCHRONIZE
PUBLIC	?_STATE_CALLED@_CancellationTokenRegistration@details@Concurrency@@0JB ; Concurrency::details::_CancellationTokenRegistration::_STATE_CALLED
PUBLIC	?value@?$_Gcd@$0GE@$0DLJKMKAA@@std@@2_JB	; std::_Gcd<100,1000000000>::value
PUBLIC	?is_signed@?$numeric_limits@G@std@@2_NB		; std::numeric_limits<unsigned short>::is_signed
PUBLIC	?digits@?$numeric_limits@G@std@@2HB		; std::numeric_limits<unsigned short>::digits
PUBLIC	?_G1@?$_Ratio_multiply2@U?$ratio@$0GE@$00@std@@U?$ratio@$00$0DLJKMKAA@@2@@std@@2_JB ; std::_Ratio_multiply2<std::ratio<100,1>,std::ratio<1,1000000000> >::_G1
PUBLIC	?digits10@?$numeric_limits@G@std@@2HB		; std::numeric_limits<unsigned short>::digits10
PUBLIC	?value@?$_Abs@$00@std@@2_JB			; std::_Abs<1>::value
PUBLIC	?value@?$_GcdX@$00$0A@@std@@2_JB		; std::_GcdX<1,0>::value
PUBLIC	?value@?$_GcdX@$00$00@std@@2_JB			; std::_GcdX<1,1>::value
PUBLIC	?is_signed@?$numeric_limits@H@std@@2_NB		; std::numeric_limits<int>::is_signed
PUBLIC	?digits@?$numeric_limits@H@std@@2HB		; std::numeric_limits<int>::digits
PUBLIC	?value@?$_Gcd@$00$00@std@@2_JB			; std::_Gcd<1,1>::value
PUBLIC	?digits10@?$numeric_limits@H@std@@2HB		; std::numeric_limits<int>::digits10
PUBLIC	?_G2@?$_Ratio_multiply2@U?$ratio@$0GE@$00@std@@U?$ratio@$00$0DLJKMKAA@@2@@std@@2_JB ; std::_Ratio_multiply2<std::ratio<100,1>,std::ratio<1,1000000000> >::_G2
PUBLIC	?is_signed@?$numeric_limits@I@std@@2_NB		; std::numeric_limits<unsigned int>::is_signed
PUBLIC	?digits@?$numeric_limits@I@std@@2HB		; std::numeric_limits<unsigned int>::digits
PUBLIC	?digits10@?$numeric_limits@I@std@@2HB		; std::numeric_limits<unsigned int>::digits10
PUBLIC	?is_monotonic@system_clock@chrono@std@@2_NB	; std::chrono::system_clock::is_monotonic
PUBLIC	?is_steady@system_clock@chrono@std@@2_NB	; std::chrono::system_clock::is_steady
PUBLIC	?is_signed@?$numeric_limits@J@std@@2_NB		; std::numeric_limits<long>::is_signed
PUBLIC	?digits@?$numeric_limits@J@std@@2HB		; std::numeric_limits<long>::digits
PUBLIC	?digits10@?$numeric_limits@J@std@@2HB		; std::numeric_limits<long>::digits10
PUBLIC	?is_signed@?$numeric_limits@K@std@@2_NB		; std::numeric_limits<unsigned long>::is_signed
PUBLIC	?digits@?$numeric_limits@K@std@@2HB		; std::numeric_limits<unsigned long>::digits
PUBLIC	?digits10@?$numeric_limits@K@std@@2HB		; std::numeric_limits<unsigned long>::digits10
PUBLIC	?is_signed@?$numeric_limits@_J@std@@2_NB	; std::numeric_limits<__int64>::is_signed
PUBLIC	?digits@?$numeric_limits@_J@std@@2HB		; std::numeric_limits<__int64>::digits
PUBLIC	?digits10@?$numeric_limits@_J@std@@2HB		; std::numeric_limits<__int64>::digits10
PUBLIC	?value@?$integral_constant@H$0A@@std@@2HB	; std::integral_constant<int,0>::value
PUBLIC	?is_signed@?$numeric_limits@_K@std@@2_NB	; std::numeric_limits<unsigned __int64>::is_signed
PUBLIC	?digits@?$numeric_limits@_K@std@@2HB		; std::numeric_limits<unsigned __int64>::digits
PUBLIC	?digits10@?$numeric_limits@_K@std@@2HB		; std::numeric_limits<unsigned __int64>::digits10
PUBLIC	?digits@?$numeric_limits@M@std@@2HB		; std::numeric_limits<float>::digits
PUBLIC	?digits10@?$numeric_limits@M@std@@2HB		; std::numeric_limits<float>::digits10
PUBLIC	?max_digits10@?$numeric_limits@M@std@@2HB	; std::numeric_limits<float>::max_digits10
PUBLIC	?_S_cancelBitsMask@_TaskCollectionBase@details@Concurrency@@1IB ; Concurrency::details::_TaskCollectionBase::_S_cancelBitsMask
PUBLIC	?max_exponent@?$numeric_limits@M@std@@2HB	; std::numeric_limits<float>::max_exponent
PUBLIC	?_S_cancelNone@_TaskCollectionBase@details@Concurrency@@1IB ; Concurrency::details::_TaskCollectionBase::_S_cancelNone
PUBLIC	?_S_cancelStarted@_TaskCollectionBase@details@Concurrency@@1IB ; Concurrency::details::_TaskCollectionBase::_S_cancelStarted
PUBLIC	?max_exponent10@?$numeric_limits@M@std@@2HB	; std::numeric_limits<float>::max_exponent10
PUBLIC	?_S_cancelDeferredShootdownOwner@_TaskCollectionBase@details@Concurrency@@1IB ; Concurrency::details::_TaskCollectionBase::_S_cancelDeferredShootdownOwner
PUBLIC	?_S_cancelShotdownOwner@_TaskCollectionBase@details@Concurrency@@1IB ; Concurrency::details::_TaskCollectionBase::_S_cancelShotdownOwner
PUBLIC	?min_exponent@?$numeric_limits@M@std@@2HB	; std::numeric_limits<float>::min_exponent
PUBLIC	?_S_nonNull@_TaskCollectionBase@details@Concurrency@@1IB ; Concurrency::details::_TaskCollectionBase::_S_nonNull
PUBLIC	?_S_cancelException@_TaskCollectionBase@details@Concurrency@@1IB ; Concurrency::details::_TaskCollectionBase::_S_cancelException
PUBLIC	?min_exponent10@?$numeric_limits@M@std@@2HB	; std::numeric_limits<float>::min_exponent10
PUBLIC	?_S_notInlined@_TaskCollectionBase@details@Concurrency@@1HB ; Concurrency::details::_TaskCollectionBase::_S_notInlined
PUBLIC	?_S_structured@_TaskCollectionBase@details@Concurrency@@1HB ; Concurrency::details::_TaskCollectionBase::_S_structured
PUBLIC	?_S_localCancel@_TaskCollectionBase@details@Concurrency@@1HB ; Concurrency::details::_TaskCollectionBase::_S_localCancel
PUBLIC	?_S_reserved@_TaskCollectionBase@details@Concurrency@@1HB ; Concurrency::details::_TaskCollectionBase::_S_reserved
PUBLIC	?digits@?$numeric_limits@N@std@@2HB		; std::numeric_limits<double>::digits
PUBLIC	?digits10@?$numeric_limits@N@std@@2HB		; std::numeric_limits<double>::digits10
PUBLIC	?max_digits10@?$numeric_limits@N@std@@2HB	; std::numeric_limits<double>::max_digits10
PUBLIC	?max_exponent@?$numeric_limits@N@std@@2HB	; std::numeric_limits<double>::max_exponent
PUBLIC	?max_exponent10@?$numeric_limits@N@std@@2HB	; std::numeric_limits<double>::max_exponent10
PUBLIC	?min_exponent@?$numeric_limits@N@std@@2HB	; std::numeric_limits<double>::min_exponent
PUBLIC	?min_exponent10@?$numeric_limits@N@std@@2HB	; std::numeric_limits<double>::min_exponent10
PUBLIC	?value@?$_Sizeof@HU_Nil@std@@U12@U12@U12@U12@U12@U12@@std@@2IB ; std::_Sizeof<int,std::_Nil,std::_Nil,std::_Nil,std::_Nil,std::_Nil,std::_Nil,std::_Nil>::value
PUBLIC	?digits@?$numeric_limits@O@std@@2HB		; std::numeric_limits<long double>::digits
PUBLIC	?digits10@?$numeric_limits@O@std@@2HB		; std::numeric_limits<long double>::digits10
PUBLIC	?max_digits10@?$numeric_limits@O@std@@2HB	; std::numeric_limits<long double>::max_digits10
PUBLIC	?max_exponent@?$numeric_limits@O@std@@2HB	; std::numeric_limits<long double>::max_exponent
PUBLIC	?max_exponent10@?$numeric_limits@O@std@@2HB	; std::numeric_limits<long double>::max_exponent10
PUBLIC	?min_exponent@?$numeric_limits@O@std@@2HB	; std::numeric_limits<long double>::min_exponent
PUBLIC	?min_exponent10@?$numeric_limits@O@std@@2HB	; std::numeric_limits<long double>::min_exponent10
PUBLIC	?_G1@?$_Ratio_multiply2@U?$ratio@$00$0JIJGIA@@std@@U?$ratio@$0JIJGIA@$00@2@@std@@2_JB ; std::_Ratio_multiply2<std::ratio<1,10000000>,std::ratio<10000000,1> >::_G1
PUBLIC	?value@?$_Abs@$0JIJGIA@@std@@2_JB		; std::_Abs<10000000>::value
PUBLIC	?value@?$_GcdX@$0JIJGIA@$0A@@std@@2_JB		; std::_GcdX<10000000,0>::value
PUBLIC	?value@?$_GcdX@$0JIJGIA@$0JIJGIA@@std@@2_JB	; std::_GcdX<10000000,10000000>::value
PUBLIC	?value@?$_Gcd@$0JIJGIA@$0JIJGIA@@std@@2_JB	; std::_Gcd<10000000,10000000>::value
PUBLIC	?_G2@?$_Ratio_multiply2@U?$ratio@$00$0JIJGIA@@std@@U?$ratio@$0JIJGIA@$00@2@@std@@2_JB ; std::_Ratio_multiply2<std::ratio<1,10000000>,std::ratio<10000000,1> >::_G2
PUBLIC	?value@?$_Sizeof@U_Nil@std@@U12@U12@U12@U12@U12@U12@U12@@std@@2IB ; std::_Sizeof<std::_Nil,std::_Nil,std::_Nil,std::_Nil,std::_Nil,std::_Nil,std::_Nil,std::_Nil>::value
PUBLIC	?num@?$ratio@$00$00@std@@2_JB			; std::ratio<1,1>::num
PUBLIC	?den@?$ratio@$00$00@std@@2_JB			; std::ratio<1,1>::den
PUBLIC	?has_denorm@_Num_base@std@@2W4float_denorm_style@2@B ; std::_Num_base::has_denorm
PUBLIC	?has_denorm_loss@_Num_base@std@@2_NB		; std::_Num_base::has_denorm_loss
PUBLIC	?has_infinity@_Num_base@std@@2_NB		; std::_Num_base::has_infinity
PUBLIC	?has_quiet_NaN@_Num_base@std@@2_NB		; std::_Num_base::has_quiet_NaN
PUBLIC	?is_monotonic@steady_clock@chrono@std@@2_NB	; std::chrono::steady_clock::is_monotonic
PUBLIC	?is_steady@steady_clock@chrono@std@@2_NB	; std::chrono::steady_clock::is_steady
PUBLIC	?has_signaling_NaN@_Num_base@std@@2_NB		; std::_Num_base::has_signaling_NaN
PUBLIC	?is_bounded@_Num_base@std@@2_NB			; std::_Num_base::is_bounded
PUBLIC	?is_exact@_Num_base@std@@2_NB			; std::_Num_base::is_exact
PUBLIC	?is_iec559@_Num_base@std@@2_NB			; std::_Num_base::is_iec559
PUBLIC	?is_integer@_Num_base@std@@2_NB			; std::_Num_base::is_integer
PUBLIC	?is_modulo@_Num_base@std@@2_NB			; std::_Num_base::is_modulo
PUBLIC	?is_signed@_Num_base@std@@2_NB			; std::_Num_base::is_signed
PUBLIC	?is_specialized@_Num_base@std@@2_NB		; std::_Num_base::is_specialized
PUBLIC	?tinyness_before@_Num_base@std@@2_NB		; std::_Num_base::tinyness_before
PUBLIC	?traps@_Num_base@std@@2_NB			; std::_Num_base::traps
PUBLIC	?round_style@_Num_base@std@@2W4float_round_style@2@B ; std::_Num_base::round_style
PUBLIC	?digits@_Num_base@std@@2HB			; std::_Num_base::digits
PUBLIC	?digits10@_Num_base@std@@2HB			; std::_Num_base::digits10
PUBLIC	?max_digits10@_Num_base@std@@2HB		; std::_Num_base::max_digits10
PUBLIC	?max_exponent@_Num_base@std@@2HB		; std::_Num_base::max_exponent
PUBLIC	?max_exponent10@_Num_base@std@@2HB		; std::_Num_base::max_exponent10
PUBLIC	?min_exponent@_Num_base@std@@2HB		; std::_Num_base::min_exponent
PUBLIC	?min_exponent10@_Num_base@std@@2HB		; std::_Num_base::min_exponent10
PUBLIC	_ConcRT_ProviderGuid
PUBLIC	_ConcRTEventGuid
PUBLIC	_SchedulerEventGuid
PUBLIC	?radix@_Num_base@std@@2HB			; std::_Num_base::radix
PUBLIC	_ScheduleGroupEventGuid
PUBLIC	_ContextEventGuid
PUBLIC	_ChoreEventGuid
PUBLIC	_VirtualProcessorEventGuid
PUBLIC	_LockEventGuid
PUBLIC	_ResourceManagerEventGuid
PUBLIC	_PPLParallelInvokeEventGuid
PUBLIC	_PPLParallelForEventGuid
PUBLIC	_PPLParallelForeachEventGuid
PUBLIC	_AgentEventGuid
PUBLIC	?is_bounded@_Num_int_base@std@@2_NB		; std::_Num_int_base::is_bounded
PUBLIC	?is_exact@_Num_int_base@std@@2_NB		; std::_Num_int_base::is_exact
PUBLIC	?is_integer@_Num_int_base@std@@2_NB		; std::_Num_int_base::is_integer
PUBLIC	?value@?$_Is_ratio@U?$ratio@$00$0JIJGIA@@std@@@chrono@std@@2_NB ; std::chrono::_Is_ratio<std::ratio<1,10000000> >::value
PUBLIC	?is_modulo@_Num_int_base@std@@2_NB		; std::_Num_int_base::is_modulo
PUBLIC	?is_specialized@_Num_int_base@std@@2_NB		; std::_Num_int_base::is_specialized
PUBLIC	?radix@_Num_int_base@std@@2HB			; std::_Num_int_base::radix
PUBLIC	?has_denorm@_Num_float_base@std@@2W4float_denorm_style@2@B ; std::_Num_float_base::has_denorm
PUBLIC	?value@?$_GcdX@$0JIJGIA@$00@std@@2_JB		; std::_GcdX<10000000,1>::value
PUBLIC	?has_denorm_loss@_Num_float_base@std@@2_NB	; std::_Num_float_base::has_denorm_loss
PUBLIC	?has_infinity@_Num_float_base@std@@2_NB		; std::_Num_float_base::has_infinity
PUBLIC	?has_quiet_NaN@_Num_float_base@std@@2_NB	; std::_Num_float_base::has_quiet_NaN
PUBLIC	?value@?$_GcdX@$00$0JIJGIA@@std@@2_JB		; std::_GcdX<1,10000000>::value
PUBLIC	?has_signaling_NaN@_Num_float_base@std@@2_NB	; std::_Num_float_base::has_signaling_NaN
PUBLIC	?is_bounded@_Num_float_base@std@@2_NB		; std::_Num_float_base::is_bounded
PUBLIC	?value@?$_Gcd@$00$0JIJGIA@@std@@2_JB		; std::_Gcd<1,10000000>::value
PUBLIC	?is_exact@_Num_float_base@std@@2_NB		; std::_Num_float_base::is_exact
PUBLIC	?is_iec559@_Num_float_base@std@@2_NB		; std::_Num_float_base::is_iec559
PUBLIC	?is_integer@_Num_float_base@std@@2_NB		; std::_Num_float_base::is_integer
PUBLIC	?num@?$ratio@$00$0JIJGIA@@std@@2_JB		; std::ratio<1,10000000>::num
PUBLIC	?is_modulo@_Num_float_base@std@@2_NB		; std::_Num_float_base::is_modulo
PUBLIC	?den@?$ratio@$00$0JIJGIA@@std@@2_JB		; std::ratio<1,10000000>::den
PUBLIC	?is_signed@_Num_float_base@std@@2_NB		; std::_Num_float_base::is_signed
PUBLIC	?is_specialized@_Num_float_base@std@@2_NB	; std::_Num_float_base::is_specialized
PUBLIC	?tinyness_before@_Num_float_base@std@@2_NB	; std::_Num_float_base::tinyness_before
PUBLIC	?traps@_Num_float_base@std@@2_NB		; std::_Num_float_base::traps
PUBLIC	?round_style@_Num_float_base@std@@2W4float_round_style@2@B ; std::_Num_float_base::round_style
PUBLIC	?radix@_Num_float_base@std@@2HB			; std::_Num_float_base::radix
PUBLIC	?is_signed@?$numeric_limits@D@std@@2_NB		; std::numeric_limits<char>::is_signed
PUBLIC	?digits@?$numeric_limits@D@std@@2HB		; std::numeric_limits<char>::digits
PUBLIC	?digits10@?$numeric_limits@D@std@@2HB		; std::numeric_limits<char>::digits10
;	COMDAT ?digits10@?$numeric_limits@D@std@@2HB
CONST	SEGMENT
?digits10@?$numeric_limits@D@std@@2HB DD 02H		; std::numeric_limits<char>::digits10
CONST	ENDS
;	COMDAT ?digits@?$numeric_limits@D@std@@2HB
CONST	SEGMENT
?digits@?$numeric_limits@D@std@@2HB DD 07H		; std::numeric_limits<char>::digits
CONST	ENDS
;	COMDAT ?is_signed@?$numeric_limits@D@std@@2_NB
CONST	SEGMENT
?is_signed@?$numeric_limits@D@std@@2_NB DB 01H		; std::numeric_limits<char>::is_signed
CONST	ENDS
;	COMDAT ?radix@_Num_float_base@std@@2HB
CONST	SEGMENT
?radix@_Num_float_base@std@@2HB DD 02H			; std::_Num_float_base::radix
CONST	ENDS
;	COMDAT ?round_style@_Num_float_base@std@@2W4float_round_style@2@B
CONST	SEGMENT
?round_style@_Num_float_base@std@@2W4float_round_style@2@B DD 01H ; std::_Num_float_base::round_style
CONST	ENDS
;	COMDAT ?traps@_Num_float_base@std@@2_NB
CONST	SEGMENT
?traps@_Num_float_base@std@@2_NB DB 00H			; std::_Num_float_base::traps
CONST	ENDS
;	COMDAT ?tinyness_before@_Num_float_base@std@@2_NB
CONST	SEGMENT
?tinyness_before@_Num_float_base@std@@2_NB DB 01H	; std::_Num_float_base::tinyness_before
CONST	ENDS
;	COMDAT ?is_specialized@_Num_float_base@std@@2_NB
CONST	SEGMENT
?is_specialized@_Num_float_base@std@@2_NB DB 01H	; std::_Num_float_base::is_specialized
CONST	ENDS
;	COMDAT ?is_signed@_Num_float_base@std@@2_NB
CONST	SEGMENT
?is_signed@_Num_float_base@std@@2_NB DB 01H		; std::_Num_float_base::is_signed
CONST	ENDS
;	COMDAT ?den@?$ratio@$00$0JIJGIA@@std@@2_JB
CONST	SEGMENT
?den@?$ratio@$00$0JIJGIA@@std@@2_JB DQ 0000000000989680H ; std::ratio<1,10000000>::den
CONST	ENDS
;	COMDAT ?is_modulo@_Num_float_base@std@@2_NB
CONST	SEGMENT
?is_modulo@_Num_float_base@std@@2_NB DB 00H		; std::_Num_float_base::is_modulo
CONST	ENDS
;	COMDAT ?num@?$ratio@$00$0JIJGIA@@std@@2_JB
CONST	SEGMENT
?num@?$ratio@$00$0JIJGIA@@std@@2_JB DQ 0000000000000001H ; std::ratio<1,10000000>::num
CONST	ENDS
;	COMDAT ?is_integer@_Num_float_base@std@@2_NB
CONST	SEGMENT
?is_integer@_Num_float_base@std@@2_NB DB 00H		; std::_Num_float_base::is_integer
CONST	ENDS
;	COMDAT ?is_iec559@_Num_float_base@std@@2_NB
CONST	SEGMENT
?is_iec559@_Num_float_base@std@@2_NB DB 01H		; std::_Num_float_base::is_iec559
CONST	ENDS
;	COMDAT ?is_exact@_Num_float_base@std@@2_NB
CONST	SEGMENT
?is_exact@_Num_float_base@std@@2_NB DB 00H		; std::_Num_float_base::is_exact
CONST	ENDS
;	COMDAT ?value@?$_Gcd@$00$0JIJGIA@@std@@2_JB
CONST	SEGMENT
?value@?$_Gcd@$00$0JIJGIA@@std@@2_JB DQ 0000000000000001H ; std::_Gcd<1,10000000>::value
CONST	ENDS
;	COMDAT ?is_bounded@_Num_float_base@std@@2_NB
CONST	SEGMENT
?is_bounded@_Num_float_base@std@@2_NB DB 01H		; std::_Num_float_base::is_bounded
CONST	ENDS
;	COMDAT ?has_signaling_NaN@_Num_float_base@std@@2_NB
CONST	SEGMENT
?has_signaling_NaN@_Num_float_base@std@@2_NB DB 01H	; std::_Num_float_base::has_signaling_NaN
CONST	ENDS
;	COMDAT ?value@?$_GcdX@$00$0JIJGIA@@std@@2_JB
CONST	SEGMENT
?value@?$_GcdX@$00$0JIJGIA@@std@@2_JB DQ 0000000000000001H ; std::_GcdX<1,10000000>::value
CONST	ENDS
;	COMDAT ?has_quiet_NaN@_Num_float_base@std@@2_NB
CONST	SEGMENT
?has_quiet_NaN@_Num_float_base@std@@2_NB DB 01H		; std::_Num_float_base::has_quiet_NaN
CONST	ENDS
;	COMDAT ?has_infinity@_Num_float_base@std@@2_NB
CONST	SEGMENT
?has_infinity@_Num_float_base@std@@2_NB DB 01H		; std::_Num_float_base::has_infinity
CONST	ENDS
;	COMDAT ?has_denorm_loss@_Num_float_base@std@@2_NB
CONST	SEGMENT
?has_denorm_loss@_Num_float_base@std@@2_NB DB 01H	; std::_Num_float_base::has_denorm_loss
CONST	ENDS
;	COMDAT ?value@?$_GcdX@$0JIJGIA@$00@std@@2_JB
CONST	SEGMENT
?value@?$_GcdX@$0JIJGIA@$00@std@@2_JB DQ 0000000000000001H ; std::_GcdX<10000000,1>::value
CONST	ENDS
;	COMDAT ?has_denorm@_Num_float_base@std@@2W4float_denorm_style@2@B
CONST	SEGMENT
?has_denorm@_Num_float_base@std@@2W4float_denorm_style@2@B DD 01H ; std::_Num_float_base::has_denorm
CONST	ENDS
;	COMDAT ?radix@_Num_int_base@std@@2HB
CONST	SEGMENT
?radix@_Num_int_base@std@@2HB DD 02H			; std::_Num_int_base::radix
CONST	ENDS
;	COMDAT ?is_specialized@_Num_int_base@std@@2_NB
CONST	SEGMENT
?is_specialized@_Num_int_base@std@@2_NB DB 01H		; std::_Num_int_base::is_specialized
CONST	ENDS
;	COMDAT ?is_modulo@_Num_int_base@std@@2_NB
CONST	SEGMENT
?is_modulo@_Num_int_base@std@@2_NB DB 01H		; std::_Num_int_base::is_modulo
CONST	ENDS
;	COMDAT ?value@?$_Is_ratio@U?$ratio@$00$0JIJGIA@@std@@@chrono@std@@2_NB
CONST	SEGMENT
?value@?$_Is_ratio@U?$ratio@$00$0JIJGIA@@std@@@chrono@std@@2_NB DB 01H ; std::chrono::_Is_ratio<std::ratio<1,10000000> >::value
CONST	ENDS
;	COMDAT ?is_integer@_Num_int_base@std@@2_NB
CONST	SEGMENT
?is_integer@_Num_int_base@std@@2_NB DB 01H		; std::_Num_int_base::is_integer
CONST	ENDS
;	COMDAT ?is_exact@_Num_int_base@std@@2_NB
CONST	SEGMENT
?is_exact@_Num_int_base@std@@2_NB DB 01H		; std::_Num_int_base::is_exact
CONST	ENDS
;	COMDAT ?is_bounded@_Num_int_base@std@@2_NB
CONST	SEGMENT
?is_bounded@_Num_int_base@std@@2_NB DB 01H		; std::_Num_int_base::is_bounded
CONST	ENDS
;	COMDAT _AgentEventGuid
CONST	SEGMENT
_AgentEventGuid DD 0b9b5b78cH
	DW	0713H
	DW	04898H
	DB	0a2H
	DB	01aH
	DB	0c6H
	DB	079H
	DB	049H
	DB	0dcH
	DB	0edH
	DB	07H
CONST	ENDS
;	COMDAT _PPLParallelForeachEventGuid
CONST	SEGMENT
_PPLParallelForeachEventGuid DD 05cb7d785H
	DW	09d66H
	DW	0465dH
	DB	0baH
	DB	0e1H
	DB	046H
	DB	011H
	DB	06H
	DB	01bH
	DB	054H
	DB	034H
CONST	ENDS
;	COMDAT _PPLParallelForEventGuid
CONST	SEGMENT
_PPLParallelForEventGuid DD 031c8da6bH
	DW	06165H
	DW	04042H
	DB	08bH
	DB	092H
	DB	094H
	DB	09eH
	DB	031H
	DB	05fH
	DB	04dH
	DB	084H
CONST	ENDS
;	COMDAT _PPLParallelInvokeEventGuid
CONST	SEGMENT
_PPLParallelInvokeEventGuid DD 0d1b5b133H
	DW	0ec3dH
	DW	049f4H
	DB	098H
	DB	0a3H
	DB	046H
	DB	04dH
	DB	01aH
	DB	09eH
	DB	046H
	DB	082H
CONST	ENDS
;	COMDAT _ResourceManagerEventGuid
CONST	SEGMENT
_ResourceManagerEventGuid DD 02718d25bH
	DW	05bf5H
	DW	04479H
	DB	08eH
	DB	088H
	DB	0baH
	DB	0bcH
	DB	064H
	DB	0bdH
	DB	0bfH
	DB	0caH
CONST	ENDS
;	COMDAT _LockEventGuid
CONST	SEGMENT
_LockEventGuid DD 079a60dc6H
	DW	05fc8H
	DW	04952H
	DB	0a4H
	DB	01cH
	DB	011H
	DB	063H
	DB	0aeH
	DB	0ecH
	DB	05eH
	DB	0b8H
CONST	ENDS
;	COMDAT _VirtualProcessorEventGuid
CONST	SEGMENT
_VirtualProcessorEventGuid DD 02f27805fH
	DW	01676H
	DW	04eccH
	DB	096H
	DB	0faH
	DB	07eH
	DB	0b0H
	DB	09dH
	DB	044H
	DB	030H
	DB	02fH
CONST	ENDS
;	COMDAT _ChoreEventGuid
CONST	SEGMENT
_ChoreEventGuid DD 07e854ec7H
	DW	0cdc4H
	DW	0405aH
	DB	0b5H
	DB	0b2H
	DB	0aaH
	DB	0f7H
	DB	0c9H
	DB	0e7H
	DB	0d4H
	DB	0cH
CONST	ENDS
;	COMDAT _ContextEventGuid
CONST	SEGMENT
_ContextEventGuid DD 05727a00fH
	DW	050beH
	DW	04519H
	DB	082H
	DB	056H
	DB	0f7H
	DB	069H
	DB	098H
	DB	071H
	DB	0feH
	DB	0cbH
CONST	ENDS
;	COMDAT _ScheduleGroupEventGuid
CONST	SEGMENT
_ScheduleGroupEventGuid DD 0e8a3bf1fH
	DW	0a86bH
	DW	04390H
	DB	09cH
	DB	060H
	DB	053H
	DB	090H
	DB	0b9H
	DB	069H
	DB	0d2H
	DB	02cH
CONST	ENDS
;	COMDAT ?radix@_Num_base@std@@2HB
CONST	SEGMENT
?radix@_Num_base@std@@2HB DD 00H			; std::_Num_base::radix
CONST	ENDS
;	COMDAT _SchedulerEventGuid
CONST	SEGMENT
_SchedulerEventGuid DD 0e2091f8aH
	DW	01e0aH
	DW	04731H
	DB	084H
	DB	0a2H
	DB	0dH
	DB	0d5H
	DB	07cH
	DB	08aH
	DB	052H
	DB	061H
CONST	ENDS
;	COMDAT _ConcRTEventGuid
CONST	SEGMENT
_ConcRTEventGuid DD 072b14a7dH
	DW	0704cH
	DW	0423eH
	DB	092H
	DB	0f8H
	DB	07eH
	DB	06dH
	DB	064H
	DB	0bcH
	DB	0b9H
	DB	02aH
CONST	ENDS
;	COMDAT _ConcRT_ProviderGuid
CONST	SEGMENT
_ConcRT_ProviderGuid DD 0f7b697a3H
	DW	04db5H
	DW	04d3bH
	DB	0beH
	DB	071H
	DB	0c4H
	DB	0d2H
	DB	084H
	DB	0e6H
	DB	059H
	DB	02fH
CONST	ENDS
;	COMDAT ?min_exponent10@_Num_base@std@@2HB
CONST	SEGMENT
?min_exponent10@_Num_base@std@@2HB DD 00H		; std::_Num_base::min_exponent10
CONST	ENDS
;	COMDAT ?min_exponent@_Num_base@std@@2HB
CONST	SEGMENT
?min_exponent@_Num_base@std@@2HB DD 00H			; std::_Num_base::min_exponent
CONST	ENDS
;	COMDAT ?max_exponent10@_Num_base@std@@2HB
CONST	SEGMENT
?max_exponent10@_Num_base@std@@2HB DD 00H		; std::_Num_base::max_exponent10
CONST	ENDS
;	COMDAT ?max_exponent@_Num_base@std@@2HB
CONST	SEGMENT
?max_exponent@_Num_base@std@@2HB DD 00H			; std::_Num_base::max_exponent
CONST	ENDS
;	COMDAT ?max_digits10@_Num_base@std@@2HB
CONST	SEGMENT
?max_digits10@_Num_base@std@@2HB DD 00H			; std::_Num_base::max_digits10
CONST	ENDS
;	COMDAT ?digits10@_Num_base@std@@2HB
CONST	SEGMENT
?digits10@_Num_base@std@@2HB DD 00H			; std::_Num_base::digits10
CONST	ENDS
;	COMDAT ?digits@_Num_base@std@@2HB
CONST	SEGMENT
?digits@_Num_base@std@@2HB DD 00H			; std::_Num_base::digits
CONST	ENDS
;	COMDAT ?round_style@_Num_base@std@@2W4float_round_style@2@B
CONST	SEGMENT
?round_style@_Num_base@std@@2W4float_round_style@2@B DD 00H ; std::_Num_base::round_style
CONST	ENDS
;	COMDAT ?traps@_Num_base@std@@2_NB
CONST	SEGMENT
?traps@_Num_base@std@@2_NB DB 00H			; std::_Num_base::traps
CONST	ENDS
;	COMDAT ?tinyness_before@_Num_base@std@@2_NB
CONST	SEGMENT
?tinyness_before@_Num_base@std@@2_NB DB 00H		; std::_Num_base::tinyness_before
CONST	ENDS
;	COMDAT ?is_specialized@_Num_base@std@@2_NB
CONST	SEGMENT
?is_specialized@_Num_base@std@@2_NB DB 00H		; std::_Num_base::is_specialized
CONST	ENDS
;	COMDAT ?is_signed@_Num_base@std@@2_NB
CONST	SEGMENT
?is_signed@_Num_base@std@@2_NB DB 00H			; std::_Num_base::is_signed
CONST	ENDS
;	COMDAT ?is_modulo@_Num_base@std@@2_NB
CONST	SEGMENT
?is_modulo@_Num_base@std@@2_NB DB 00H			; std::_Num_base::is_modulo
CONST	ENDS
;	COMDAT ?is_integer@_Num_base@std@@2_NB
CONST	SEGMENT
?is_integer@_Num_base@std@@2_NB DB 00H			; std::_Num_base::is_integer
CONST	ENDS
;	COMDAT ?is_iec559@_Num_base@std@@2_NB
CONST	SEGMENT
?is_iec559@_Num_base@std@@2_NB DB 00H			; std::_Num_base::is_iec559
CONST	ENDS
;	COMDAT ?is_exact@_Num_base@std@@2_NB
CONST	SEGMENT
?is_exact@_Num_base@std@@2_NB DB 00H			; std::_Num_base::is_exact
CONST	ENDS
;	COMDAT ?is_bounded@_Num_base@std@@2_NB
CONST	SEGMENT
?is_bounded@_Num_base@std@@2_NB DB 00H			; std::_Num_base::is_bounded
CONST	ENDS
;	COMDAT ?has_signaling_NaN@_Num_base@std@@2_NB
CONST	SEGMENT
?has_signaling_NaN@_Num_base@std@@2_NB DB 00H		; std::_Num_base::has_signaling_NaN
CONST	ENDS
;	COMDAT ?is_steady@steady_clock@chrono@std@@2_NB
CONST	SEGMENT
?is_steady@steady_clock@chrono@std@@2_NB DB 01H		; std::chrono::steady_clock::is_steady
CONST	ENDS
;	COMDAT ?is_monotonic@steady_clock@chrono@std@@2_NB
CONST	SEGMENT
?is_monotonic@steady_clock@chrono@std@@2_NB DB 01H	; std::chrono::steady_clock::is_monotonic
CONST	ENDS
;	COMDAT ?has_quiet_NaN@_Num_base@std@@2_NB
CONST	SEGMENT
?has_quiet_NaN@_Num_base@std@@2_NB DB 00H		; std::_Num_base::has_quiet_NaN
CONST	ENDS
;	COMDAT ?has_infinity@_Num_base@std@@2_NB
CONST	SEGMENT
?has_infinity@_Num_base@std@@2_NB DB 00H		; std::_Num_base::has_infinity
CONST	ENDS
;	COMDAT ?has_denorm_loss@_Num_base@std@@2_NB
CONST	SEGMENT
?has_denorm_loss@_Num_base@std@@2_NB DB 00H		; std::_Num_base::has_denorm_loss
CONST	ENDS
;	COMDAT ?has_denorm@_Num_base@std@@2W4float_denorm_style@2@B
CONST	SEGMENT
?has_denorm@_Num_base@std@@2W4float_denorm_style@2@B DD 00H ; std::_Num_base::has_denorm
CONST	ENDS
;	COMDAT ?den@?$ratio@$00$00@std@@2_JB
CONST	SEGMENT
?den@?$ratio@$00$00@std@@2_JB DQ 0000000000000001H	; std::ratio<1,1>::den
CONST	ENDS
;	COMDAT ?num@?$ratio@$00$00@std@@2_JB
CONST	SEGMENT
?num@?$ratio@$00$00@std@@2_JB DQ 0000000000000001H	; std::ratio<1,1>::num
CONST	ENDS
;	COMDAT ?value@?$_Sizeof@U_Nil@std@@U12@U12@U12@U12@U12@U12@U12@@std@@2IB
CONST	SEGMENT
?value@?$_Sizeof@U_Nil@std@@U12@U12@U12@U12@U12@U12@U12@@std@@2IB DD 00H ; std::_Sizeof<std::_Nil,std::_Nil,std::_Nil,std::_Nil,std::_Nil,std::_Nil,std::_Nil,std::_Nil>::value
CONST	ENDS
;	COMDAT ?_G2@?$_Ratio_multiply2@U?$ratio@$00$0JIJGIA@@std@@U?$ratio@$0JIJGIA@$00@2@@std@@2_JB
CONST	SEGMENT
?_G2@?$_Ratio_multiply2@U?$ratio@$00$0JIJGIA@@std@@U?$ratio@$0JIJGIA@$00@2@@std@@2_JB DQ 0000000000989680H ; std::_Ratio_multiply2<std::ratio<1,10000000>,std::ratio<10000000,1> >::_G2
CONST	ENDS
;	COMDAT ?value@?$_Gcd@$0JIJGIA@$0JIJGIA@@std@@2_JB
CONST	SEGMENT
?value@?$_Gcd@$0JIJGIA@$0JIJGIA@@std@@2_JB DQ 0000000000989680H ; std::_Gcd<10000000,10000000>::value
CONST	ENDS
;	COMDAT ?value@?$_GcdX@$0JIJGIA@$0JIJGIA@@std@@2_JB
CONST	SEGMENT
?value@?$_GcdX@$0JIJGIA@$0JIJGIA@@std@@2_JB DQ 0000000000989680H ; std::_GcdX<10000000,10000000>::value
CONST	ENDS
;	COMDAT ?value@?$_GcdX@$0JIJGIA@$0A@@std@@2_JB
CONST	SEGMENT
?value@?$_GcdX@$0JIJGIA@$0A@@std@@2_JB DQ 0000000000989680H ; std::_GcdX<10000000,0>::value
CONST	ENDS
;	COMDAT ?value@?$_Abs@$0JIJGIA@@std@@2_JB
CONST	SEGMENT
?value@?$_Abs@$0JIJGIA@@std@@2_JB DQ 0000000000989680H	; std::_Abs<10000000>::value
CONST	ENDS
;	COMDAT ?_G1@?$_Ratio_multiply2@U?$ratio@$00$0JIJGIA@@std@@U?$ratio@$0JIJGIA@$00@2@@std@@2_JB
CONST	SEGMENT
?_G1@?$_Ratio_multiply2@U?$ratio@$00$0JIJGIA@@std@@U?$ratio@$0JIJGIA@$00@2@@std@@2_JB DQ 0000000000000001H ; std::_Ratio_multiply2<std::ratio<1,10000000>,std::ratio<10000000,1> >::_G1
CONST	ENDS
;	COMDAT ?min_exponent10@?$numeric_limits@O@std@@2HB
CONST	SEGMENT
?min_exponent10@?$numeric_limits@O@std@@2HB DD 0fffffecdH ; std::numeric_limits<long double>::min_exponent10
CONST	ENDS
;	COMDAT ?min_exponent@?$numeric_limits@O@std@@2HB
CONST	SEGMENT
?min_exponent@?$numeric_limits@O@std@@2HB DD 0fffffc03H	; std::numeric_limits<long double>::min_exponent
CONST	ENDS
;	COMDAT ?max_exponent10@?$numeric_limits@O@std@@2HB
CONST	SEGMENT
?max_exponent10@?$numeric_limits@O@std@@2HB DD 0134H	; std::numeric_limits<long double>::max_exponent10
CONST	ENDS
;	COMDAT ?max_exponent@?$numeric_limits@O@std@@2HB
CONST	SEGMENT
?max_exponent@?$numeric_limits@O@std@@2HB DD 0400H	; std::numeric_limits<long double>::max_exponent
CONST	ENDS
;	COMDAT ?max_digits10@?$numeric_limits@O@std@@2HB
CONST	SEGMENT
?max_digits10@?$numeric_limits@O@std@@2HB DD 011H	; std::numeric_limits<long double>::max_digits10
CONST	ENDS
;	COMDAT ?digits10@?$numeric_limits@O@std@@2HB
CONST	SEGMENT
?digits10@?$numeric_limits@O@std@@2HB DD 0fH		; std::numeric_limits<long double>::digits10
CONST	ENDS
;	COMDAT ?digits@?$numeric_limits@O@std@@2HB
CONST	SEGMENT
?digits@?$numeric_limits@O@std@@2HB DD 035H		; std::numeric_limits<long double>::digits
CONST	ENDS
;	COMDAT ?value@?$_Sizeof@HU_Nil@std@@U12@U12@U12@U12@U12@U12@@std@@2IB
CONST	SEGMENT
?value@?$_Sizeof@HU_Nil@std@@U12@U12@U12@U12@U12@U12@@std@@2IB DD 01H ; std::_Sizeof<int,std::_Nil,std::_Nil,std::_Nil,std::_Nil,std::_Nil,std::_Nil,std::_Nil>::value
CONST	ENDS
;	COMDAT ?min_exponent10@?$numeric_limits@N@std@@2HB
CONST	SEGMENT
?min_exponent10@?$numeric_limits@N@std@@2HB DD 0fffffecdH ; std::numeric_limits<double>::min_exponent10
CONST	ENDS
;	COMDAT ?min_exponent@?$numeric_limits@N@std@@2HB
CONST	SEGMENT
?min_exponent@?$numeric_limits@N@std@@2HB DD 0fffffc03H	; std::numeric_limits<double>::min_exponent
CONST	ENDS
;	COMDAT ?max_exponent10@?$numeric_limits@N@std@@2HB
CONST	SEGMENT
?max_exponent10@?$numeric_limits@N@std@@2HB DD 0134H	; std::numeric_limits<double>::max_exponent10
CONST	ENDS
;	COMDAT ?max_exponent@?$numeric_limits@N@std@@2HB
CONST	SEGMENT
?max_exponent@?$numeric_limits@N@std@@2HB DD 0400H	; std::numeric_limits<double>::max_exponent
CONST	ENDS
;	COMDAT ?max_digits10@?$numeric_limits@N@std@@2HB
CONST	SEGMENT
?max_digits10@?$numeric_limits@N@std@@2HB DD 011H	; std::numeric_limits<double>::max_digits10
CONST	ENDS
;	COMDAT ?digits10@?$numeric_limits@N@std@@2HB
CONST	SEGMENT
?digits10@?$numeric_limits@N@std@@2HB DD 0fH		; std::numeric_limits<double>::digits10
CONST	ENDS
;	COMDAT ?digits@?$numeric_limits@N@std@@2HB
CONST	SEGMENT
?digits@?$numeric_limits@N@std@@2HB DD 035H		; std::numeric_limits<double>::digits
CONST	ENDS
;	COMDAT ?_S_reserved@_TaskCollectionBase@details@Concurrency@@1HB
CONST	SEGMENT
?_S_reserved@_TaskCollectionBase@details@Concurrency@@1HB DD 0cH ; Concurrency::details::_TaskCollectionBase::_S_reserved
CONST	ENDS
;	COMDAT ?_S_localCancel@_TaskCollectionBase@details@Concurrency@@1HB
CONST	SEGMENT
?_S_localCancel@_TaskCollectionBase@details@Concurrency@@1HB DD 02H ; Concurrency::details::_TaskCollectionBase::_S_localCancel
CONST	ENDS
;	COMDAT ?_S_structured@_TaskCollectionBase@details@Concurrency@@1HB
CONST	SEGMENT
?_S_structured@_TaskCollectionBase@details@Concurrency@@1HB DD 01H ; Concurrency::details::_TaskCollectionBase::_S_structured
CONST	ENDS
;	COMDAT ?_S_notInlined@_TaskCollectionBase@details@Concurrency@@1HB
CONST	SEGMENT
?_S_notInlined@_TaskCollectionBase@details@Concurrency@@1HB DD 0ffffffffH ; Concurrency::details::_TaskCollectionBase::_S_notInlined
CONST	ENDS
;	COMDAT ?min_exponent10@?$numeric_limits@M@std@@2HB
CONST	SEGMENT
?min_exponent10@?$numeric_limits@M@std@@2HB DD 0ffffffdbH ; std::numeric_limits<float>::min_exponent10
CONST	ENDS
;	COMDAT ?_S_cancelException@_TaskCollectionBase@details@Concurrency@@1IB
CONST	SEGMENT
?_S_cancelException@_TaskCollectionBase@details@Concurrency@@1IB DD 0cH ; Concurrency::details::_TaskCollectionBase::_S_cancelException
CONST	ENDS
;	COMDAT ?_S_nonNull@_TaskCollectionBase@details@Concurrency@@1IB
CONST	SEGMENT
?_S_nonNull@_TaskCollectionBase@details@Concurrency@@1IB DD 08H ; Concurrency::details::_TaskCollectionBase::_S_nonNull
CONST	ENDS
;	COMDAT ?min_exponent@?$numeric_limits@M@std@@2HB
CONST	SEGMENT
?min_exponent@?$numeric_limits@M@std@@2HB DD 0ffffff83H	; std::numeric_limits<float>::min_exponent
CONST	ENDS
;	COMDAT ?_S_cancelShotdownOwner@_TaskCollectionBase@details@Concurrency@@1IB
CONST	SEGMENT
?_S_cancelShotdownOwner@_TaskCollectionBase@details@Concurrency@@1IB DD 03H ; Concurrency::details::_TaskCollectionBase::_S_cancelShotdownOwner
CONST	ENDS
;	COMDAT ?_S_cancelDeferredShootdownOwner@_TaskCollectionBase@details@Concurrency@@1IB
CONST	SEGMENT
?_S_cancelDeferredShootdownOwner@_TaskCollectionBase@details@Concurrency@@1IB DD 02H ; Concurrency::details::_TaskCollectionBase::_S_cancelDeferredShootdownOwner
CONST	ENDS
;	COMDAT ?max_exponent10@?$numeric_limits@M@std@@2HB
CONST	SEGMENT
?max_exponent10@?$numeric_limits@M@std@@2HB DD 026H	; std::numeric_limits<float>::max_exponent10
CONST	ENDS
;	COMDAT ?_S_cancelStarted@_TaskCollectionBase@details@Concurrency@@1IB
CONST	SEGMENT
?_S_cancelStarted@_TaskCollectionBase@details@Concurrency@@1IB DD 01H ; Concurrency::details::_TaskCollectionBase::_S_cancelStarted
CONST	ENDS
;	COMDAT ?_S_cancelNone@_TaskCollectionBase@details@Concurrency@@1IB
CONST	SEGMENT
?_S_cancelNone@_TaskCollectionBase@details@Concurrency@@1IB DD 00H ; Concurrency::details::_TaskCollectionBase::_S_cancelNone
CONST	ENDS
;	COMDAT ?max_exponent@?$numeric_limits@M@std@@2HB
CONST	SEGMENT
?max_exponent@?$numeric_limits@M@std@@2HB DD 080H	; std::numeric_limits<float>::max_exponent
CONST	ENDS
;	COMDAT ?_S_cancelBitsMask@_TaskCollectionBase@details@Concurrency@@1IB
CONST	SEGMENT
?_S_cancelBitsMask@_TaskCollectionBase@details@Concurrency@@1IB DD 03H ; Concurrency::details::_TaskCollectionBase::_S_cancelBitsMask
CONST	ENDS
;	COMDAT ?max_digits10@?$numeric_limits@M@std@@2HB
CONST	SEGMENT
?max_digits10@?$numeric_limits@M@std@@2HB DD 09H	; std::numeric_limits<float>::max_digits10
CONST	ENDS
;	COMDAT ?digits10@?$numeric_limits@M@std@@2HB
CONST	SEGMENT
?digits10@?$numeric_limits@M@std@@2HB DD 06H		; std::numeric_limits<float>::digits10
CONST	ENDS
;	COMDAT ?digits@?$numeric_limits@M@std@@2HB
CONST	SEGMENT
?digits@?$numeric_limits@M@std@@2HB DD 018H		; std::numeric_limits<float>::digits
CONST	ENDS
;	COMDAT ?digits10@?$numeric_limits@_K@std@@2HB
CONST	SEGMENT
?digits10@?$numeric_limits@_K@std@@2HB DD 013H		; std::numeric_limits<unsigned __int64>::digits10
CONST	ENDS
;	COMDAT ?digits@?$numeric_limits@_K@std@@2HB
CONST	SEGMENT
?digits@?$numeric_limits@_K@std@@2HB DD 040H		; std::numeric_limits<unsigned __int64>::digits
CONST	ENDS
;	COMDAT ?is_signed@?$numeric_limits@_K@std@@2_NB
CONST	SEGMENT
?is_signed@?$numeric_limits@_K@std@@2_NB DB 00H		; std::numeric_limits<unsigned __int64>::is_signed
CONST	ENDS
;	COMDAT ?value@?$integral_constant@H$0A@@std@@2HB
CONST	SEGMENT
?value@?$integral_constant@H$0A@@std@@2HB DD 00H	; std::integral_constant<int,0>::value
CONST	ENDS
CONST	SEGMENT
_reg_index DD	03H
	DD	02H
	DD	05H
	DD	04H
	DD	07H
	DD	06H
	DD	07H
	DD	01H
_dutycycletable DB 00H
	DB	00H
	DB	00H
	DB	00H
	DB	01H
	DB	00H
	DB	00H
	DB	00H
	DB	00H
	DB	00H
	DB	00H
	DB	00H
	DB	01H
	DB	01H
	DB	00H
	DB	00H
	DB	00H
	DB	00H
	DB	01H
	DB	01H
	DB	01H
	DB	01H
	DB	00H
	DB	00H
	DB	01H
	DB	01H
	DB	01H
	DB	01H
	DB	00H
	DB	00H
	DB	01H
	DB	01H
CONST	ENDS
;	COMDAT ?digits10@?$numeric_limits@_J@std@@2HB
CONST	SEGMENT
?digits10@?$numeric_limits@_J@std@@2HB DD 012H		; std::numeric_limits<__int64>::digits10
CONST	ENDS
;	COMDAT ?digits@?$numeric_limits@_J@std@@2HB
CONST	SEGMENT
?digits@?$numeric_limits@_J@std@@2HB DD 03fH		; std::numeric_limits<__int64>::digits
CONST	ENDS
;	COMDAT ?is_signed@?$numeric_limits@_J@std@@2_NB
CONST	SEGMENT
?is_signed@?$numeric_limits@_J@std@@2_NB DB 01H		; std::numeric_limits<__int64>::is_signed
CONST	ENDS
;	COMDAT ?digits10@?$numeric_limits@K@std@@2HB
CONST	SEGMENT
?digits10@?$numeric_limits@K@std@@2HB DD 09H		; std::numeric_limits<unsigned long>::digits10
CONST	ENDS
;	COMDAT ?digits@?$numeric_limits@K@std@@2HB
CONST	SEGMENT
?digits@?$numeric_limits@K@std@@2HB DD 020H		; std::numeric_limits<unsigned long>::digits
CONST	ENDS
;	COMDAT ?is_signed@?$numeric_limits@K@std@@2_NB
CONST	SEGMENT
?is_signed@?$numeric_limits@K@std@@2_NB DB 00H		; std::numeric_limits<unsigned long>::is_signed
CONST	ENDS
;	COMDAT ?digits10@?$numeric_limits@J@std@@2HB
CONST	SEGMENT
?digits10@?$numeric_limits@J@std@@2HB DD 09H		; std::numeric_limits<long>::digits10
CONST	ENDS
;	COMDAT ?digits@?$numeric_limits@J@std@@2HB
CONST	SEGMENT
?digits@?$numeric_limits@J@std@@2HB DD 01fH		; std::numeric_limits<long>::digits
CONST	ENDS
;	COMDAT ?is_signed@?$numeric_limits@J@std@@2_NB
CONST	SEGMENT
?is_signed@?$numeric_limits@J@std@@2_NB DB 01H		; std::numeric_limits<long>::is_signed
CONST	ENDS
;	COMDAT ?is_steady@system_clock@chrono@std@@2_NB
CONST	SEGMENT
?is_steady@system_clock@chrono@std@@2_NB DB 00H		; std::chrono::system_clock::is_steady
CONST	ENDS
;	COMDAT ?is_monotonic@system_clock@chrono@std@@2_NB
CONST	SEGMENT
?is_monotonic@system_clock@chrono@std@@2_NB DB 00H	; std::chrono::system_clock::is_monotonic
CONST	ENDS
;	COMDAT ?digits10@?$numeric_limits@I@std@@2HB
CONST	SEGMENT
?digits10@?$numeric_limits@I@std@@2HB DD 09H		; std::numeric_limits<unsigned int>::digits10
CONST	ENDS
;	COMDAT ?digits@?$numeric_limits@I@std@@2HB
CONST	SEGMENT
?digits@?$numeric_limits@I@std@@2HB DD 020H		; std::numeric_limits<unsigned int>::digits
CONST	ENDS
;	COMDAT ?is_signed@?$numeric_limits@I@std@@2_NB
CONST	SEGMENT
?is_signed@?$numeric_limits@I@std@@2_NB DB 00H		; std::numeric_limits<unsigned int>::is_signed
CONST	ENDS
;	COMDAT ?_G2@?$_Ratio_multiply2@U?$ratio@$0GE@$00@std@@U?$ratio@$00$0DLJKMKAA@@2@@std@@2_JB
CONST	SEGMENT
?_G2@?$_Ratio_multiply2@U?$ratio@$0GE@$00@std@@U?$ratio@$00$0DLJKMKAA@@2@@std@@2_JB DQ 0000000000000001H ; std::_Ratio_multiply2<std::ratio<100,1>,std::ratio<1,1000000000> >::_G2
CONST	ENDS
;	COMDAT ?digits10@?$numeric_limits@H@std@@2HB
CONST	SEGMENT
?digits10@?$numeric_limits@H@std@@2HB DD 09H		; std::numeric_limits<int>::digits10
CONST	ENDS
;	COMDAT ?value@?$_Gcd@$00$00@std@@2_JB
CONST	SEGMENT
?value@?$_Gcd@$00$00@std@@2_JB DQ 0000000000000001H	; std::_Gcd<1,1>::value
CONST	ENDS
;	COMDAT ?digits@?$numeric_limits@H@std@@2HB
CONST	SEGMENT
?digits@?$numeric_limits@H@std@@2HB DD 01fH		; std::numeric_limits<int>::digits
CONST	ENDS
;	COMDAT ?is_signed@?$numeric_limits@H@std@@2_NB
CONST	SEGMENT
?is_signed@?$numeric_limits@H@std@@2_NB DB 01H		; std::numeric_limits<int>::is_signed
CONST	ENDS
;	COMDAT ?value@?$_GcdX@$00$00@std@@2_JB
CONST	SEGMENT
?value@?$_GcdX@$00$00@std@@2_JB DQ 0000000000000001H	; std::_GcdX<1,1>::value
CONST	ENDS
;	COMDAT ?value@?$_GcdX@$00$0A@@std@@2_JB
CONST	SEGMENT
?value@?$_GcdX@$00$0A@@std@@2_JB DQ 0000000000000001H	; std::_GcdX<1,0>::value
CONST	ENDS
;	COMDAT ?value@?$_Abs@$00@std@@2_JB
CONST	SEGMENT
?value@?$_Abs@$00@std@@2_JB DQ 0000000000000001H	; std::_Abs<1>::value
CONST	ENDS
;	COMDAT ?digits10@?$numeric_limits@G@std@@2HB
CONST	SEGMENT
?digits10@?$numeric_limits@G@std@@2HB DD 04H		; std::numeric_limits<unsigned short>::digits10
CONST	ENDS
;	COMDAT ?_G1@?$_Ratio_multiply2@U?$ratio@$0GE@$00@std@@U?$ratio@$00$0DLJKMKAA@@2@@std@@2_JB
CONST	SEGMENT
?_G1@?$_Ratio_multiply2@U?$ratio@$0GE@$00@std@@U?$ratio@$00$0DLJKMKAA@@2@@std@@2_JB DQ 0000000000000064H ; std::_Ratio_multiply2<std::ratio<100,1>,std::ratio<1,1000000000> >::_G1
CONST	ENDS
;	COMDAT ?digits@?$numeric_limits@G@std@@2HB
CONST	SEGMENT
?digits@?$numeric_limits@G@std@@2HB DD 010H		; std::numeric_limits<unsigned short>::digits
CONST	ENDS
;	COMDAT ?is_signed@?$numeric_limits@G@std@@2_NB
CONST	SEGMENT
?is_signed@?$numeric_limits@G@std@@2_NB DB 00H		; std::numeric_limits<unsigned short>::is_signed
CONST	ENDS
;	COMDAT ?value@?$_Gcd@$0GE@$0DLJKMKAA@@std@@2_JB
CONST	SEGMENT
?value@?$_Gcd@$0GE@$0DLJKMKAA@@std@@2_JB DQ 0000000000000064H ; std::_Gcd<100,1000000000>::value
CONST	ENDS
;	COMDAT ?_STATE_CALLED@_CancellationTokenRegistration@details@Concurrency@@0JB
CONST	SEGMENT
?_STATE_CALLED@_CancellationTokenRegistration@details@Concurrency@@0JB DD 03H ; Concurrency::details::_CancellationTokenRegistration::_STATE_CALLED
CONST	ENDS
;	COMDAT ?_STATE_SYNCHRONIZE@_CancellationTokenRegistration@details@Concurrency@@0JB
CONST	SEGMENT
?_STATE_SYNCHRONIZE@_CancellationTokenRegistration@details@Concurrency@@0JB DD 02H ; Concurrency::details::_CancellationTokenRegistration::_STATE_SYNCHRONIZE
CONST	ENDS
;	COMDAT ?value@?$_GcdX@$0GE@$0DLJKMKAA@@std@@2_JB
CONST	SEGMENT
?value@?$_GcdX@$0GE@$0DLJKMKAA@@std@@2_JB DQ 0000000000000064H ; std::_GcdX<100,1000000000>::value
CONST	ENDS
;	COMDAT ?_STATE_DEFER_DELETE@_CancellationTokenRegistration@details@Concurrency@@0JB
CONST	SEGMENT
?_STATE_DEFER_DELETE@_CancellationTokenRegistration@details@Concurrency@@0JB DD 01H ; Concurrency::details::_CancellationTokenRegistration::_STATE_DEFER_DELETE
CONST	ENDS
;	COMDAT ?_STATE_CLEAR@_CancellationTokenRegistration@details@Concurrency@@0JB
CONST	SEGMENT
?_STATE_CLEAR@_CancellationTokenRegistration@details@Concurrency@@0JB DD 00H ; Concurrency::details::_CancellationTokenRegistration::_STATE_CLEAR
CONST	ENDS
;	COMDAT ?value@?$_GcdX@$0DLJKMKAA@$0GE@@std@@2_JB
CONST	SEGMENT
?value@?$_GcdX@$0DLJKMKAA@$0GE@@std@@2_JB DQ 0000000000000064H ; std::_GcdX<1000000000,100>::value
CONST	ENDS
;	COMDAT ?value@?$integral_constant@_N$00@std@@2_NB
CONST	SEGMENT
?value@?$integral_constant@_N$00@std@@2_NB DB 01H	; std::integral_constant<bool,1>::value
CONST	ENDS
;	COMDAT ?value@?$_GcdX@$0GE@$0A@@std@@2_JB
CONST	SEGMENT
?value@?$_GcdX@$0GE@$0A@@std@@2_JB DQ 0000000000000064H	; std::_GcdX<100,0>::value
CONST	ENDS
;	COMDAT ?digits10@?$numeric_limits@F@std@@2HB
CONST	SEGMENT
?digits10@?$numeric_limits@F@std@@2HB DD 04H		; std::numeric_limits<short>::digits10
CONST	ENDS
;	COMDAT ?value@?$integral_constant@_N$0A@@std@@2_NB
CONST	SEGMENT
?value@?$integral_constant@_N$0A@@std@@2_NB DB 00H	; std::integral_constant<bool,0>::value
CONST	ENDS
;	COMDAT ?digits@?$numeric_limits@F@std@@2HB
CONST	SEGMENT
?digits@?$numeric_limits@F@std@@2HB DD 0fH		; std::numeric_limits<short>::digits
CONST	ENDS
;	COMDAT ?is_signed@?$numeric_limits@F@std@@2_NB
CONST	SEGMENT
?is_signed@?$numeric_limits@F@std@@2_NB DB 01H		; std::numeric_limits<short>::is_signed
CONST	ENDS
;	COMDAT ?value@?$_Abs@$0DLJKMKAA@@std@@2_JB
CONST	SEGMENT
?value@?$_Abs@$0DLJKMKAA@@std@@2_JB DQ 000000003b9aca00H ; std::_Abs<1000000000>::value
CONST	ENDS
;	COMDAT ?value@?$_Abs@$0GE@@std@@2_JB
CONST	SEGMENT
?value@?$_Abs@$0GE@@std@@2_JB DQ 0000000000000064H	; std::_Abs<100>::value
CONST	ENDS
;	COMDAT ?value@?$integral_constant@I$0A@@std@@2IB
CONST	SEGMENT
?value@?$integral_constant@I$0A@@std@@2IB DD 00H	; std::integral_constant<unsigned int,0>::value
CONST	ENDS
;	COMDAT ?digits10@?$numeric_limits@E@std@@2HB
CONST	SEGMENT
?digits10@?$numeric_limits@E@std@@2HB DD 02H		; std::numeric_limits<unsigned char>::digits10
CONST	ENDS
;	COMDAT ?digits@?$numeric_limits@E@std@@2HB
CONST	SEGMENT
?digits@?$numeric_limits@E@std@@2HB DD 08H		; std::numeric_limits<unsigned char>::digits
CONST	ENDS
;	COMDAT ?is_signed@?$numeric_limits@E@std@@2_NB
CONST	SEGMENT
?is_signed@?$numeric_limits@E@std@@2_NB DB 00H		; std::numeric_limits<unsigned char>::is_signed
CONST	ENDS
;	COMDAT ?digits10@?$numeric_limits@C@std@@2HB
CONST	SEGMENT
?digits10@?$numeric_limits@C@std@@2HB DD 02H		; std::numeric_limits<signed char>::digits10
CONST	ENDS
;	COMDAT ?digits@?$numeric_limits@C@std@@2HB
CONST	SEGMENT
?digits@?$numeric_limits@C@std@@2HB DD 07H		; std::numeric_limits<signed char>::digits
CONST	ENDS
;	COMDAT ?is_signed@?$numeric_limits@C@std@@2_NB
CONST	SEGMENT
?is_signed@?$numeric_limits@C@std@@2_NB DB 01H		; std::numeric_limits<signed char>::is_signed
CONST	ENDS
;	COMDAT ?digits10@?$numeric_limits@_N@std@@2HB
CONST	SEGMENT
?digits10@?$numeric_limits@_N@std@@2HB DD 00H		; std::numeric_limits<bool>::digits10
CONST	ENDS
;	COMDAT ?digits@?$numeric_limits@_N@std@@2HB
CONST	SEGMENT
?digits@?$numeric_limits@_N@std@@2HB DD 01H		; std::numeric_limits<bool>::digits
CONST	ENDS
;	COMDAT ?is_signed@?$numeric_limits@_N@std@@2_NB
CONST	SEGMENT
?is_signed@?$numeric_limits@_N@std@@2_NB DB 00H		; std::numeric_limits<bool>::is_signed
CONST	ENDS
;	COMDAT ?is_modulo@?$numeric_limits@_N@std@@2_NB
CONST	SEGMENT
?is_modulo@?$numeric_limits@_N@std@@2_NB DB 00H		; std::numeric_limits<bool>::is_modulo
CONST	ENDS
;	COMDAT ?digits10@?$numeric_limits@_W@std@@2HB
CONST	SEGMENT
?digits10@?$numeric_limits@_W@std@@2HB DD 04H		; std::numeric_limits<wchar_t>::digits10
CONST	ENDS
;	COMDAT ?digits@?$numeric_limits@_W@std@@2HB
CONST	SEGMENT
?digits@?$numeric_limits@_W@std@@2HB DD 010H		; std::numeric_limits<wchar_t>::digits
CONST	ENDS
;	COMDAT ?is_signed@?$numeric_limits@_W@std@@2_NB
CONST	SEGMENT
?is_signed@?$numeric_limits@_W@std@@2_NB DB 00H		; std::numeric_limits<wchar_t>::is_signed
CONST	ENDS
PUBLIC	??0_Ignore@std@@QAE@XZ				; std::_Ignore::_Ignore
PUBLIC	?Initialize@Component@gb@emulation@@UAEXPAVEmu@23@@Z ; emulation::gb::Component::Initialize
PUBLIC	?Deinitialize@Component@gb@emulation@@UAEXXZ	; emulation::gb::Component::Deinitialize
PUBLIC	?Reset@Component@gb@emulation@@UAEXXZ		; emulation::gb::Component::Reset
PUBLIC	??0Component@gb@emulation@@QAE@XZ		; emulation::gb::Component::Component
PUBLIC	?interrupt_enable@Memory@gb@emulation@@QAEAAEXZ	; emulation::gb::Memory::interrupt_enable
PUBLIC	?interrupt_flag@Memory@gb@emulation@@QAEAAEXZ	; emulation::gb::Memory::interrupt_flag
PUBLIC	?lcdc@LCDDriver@gb@emulation@@QAEABTLCDControlRegister@23@XZ ; emulation::gb::LCDDriver::lcdc
PUBLIC	??0Cpu@gb@emulation@@QAE@XZ			; emulation::gb::Cpu::Cpu
PUBLIC	??1Cpu@gb@emulation@@QAE@XZ			; emulation::gb::Cpu::~Cpu
PUBLIC	?Initialize@Cpu@gb@emulation@@UAEXPAVEmu@23@@Z	; emulation::gb::Cpu::Initialize
PUBLIC	?Deinitialize@Cpu@gb@emulation@@UAEXXZ		; emulation::gb::Cpu::Deinitialize
PUBLIC	?Reset@Cpu@gb@emulation@@UAEXXZ			; emulation::gb::Cpu::Reset
PUBLIC	?Tick@Cpu@gb@emulation@@QAEXXZ			; emulation::gb::Cpu::Tick
PUBLIC	?Step@Cpu@gb@emulation@@QAEXN@Z			; emulation::gb::Cpu::Step
PUBLIC	?simulateSpriteBug@Cpu@gb@emulation@@AAEXXZ	; emulation::gb::Cpu::simulateSpriteBug
PUBLIC	?updateCpuFlagC@Cpu@gb@emulation@@AAEXEEH@Z	; emulation::gb::Cpu::updateCpuFlagC
PUBLIC	?updateCpuFlagH@Cpu@gb@emulation@@AAEXEEH@Z	; emulation::gb::Cpu::updateCpuFlagH
PUBLIC	?updateCpuFlagZ@Cpu@gb@emulation@@AAEXE@Z	; emulation::gb::Cpu::updateCpuFlagZ
PUBLIC	?push@Cpu@gb@emulation@@AAEXE@Z			; emulation::gb::Cpu::push
PUBLIC	?pop@Cpu@gb@emulation@@AAEEXZ			; emulation::gb::Cpu::pop
PUBLIC	?pushPC@Cpu@gb@emulation@@AAEXXZ		; emulation::gb::Cpu::pushPC
PUBLIC	?NOP@Cpu@gb@emulation@@AAEXXZ			; emulation::gb::Cpu::NOP
PUBLIC	?ILLEGAL@Cpu@gb@emulation@@AAEXXZ		; emulation::gb::Cpu::ILLEGAL
PUBLIC	?RST@Cpu@gb@emulation@@AAEXXZ			; emulation::gb::Cpu::RST
PUBLIC	?LDSPHL@Cpu@gb@emulation@@AAEXXZ		; emulation::gb::Cpu::LDSPHL
PUBLIC	?LDHLSPr8@Cpu@gb@emulation@@AAEXXZ		; emulation::gb::Cpu::LDHLSPr8
PUBLIC	?LDa16SP@Cpu@gb@emulation@@AAEXXZ		; emulation::gb::Cpu::LDa16SP
PUBLIC	?ADD_SPr8@Cpu@gb@emulation@@AAEXXZ		; emulation::gb::Cpu::ADD_SPr8
PUBLIC	?SCF@Cpu@gb@emulation@@AAEXXZ			; emulation::gb::Cpu::SCF
PUBLIC	?CCF@Cpu@gb@emulation@@AAEXXZ			; emulation::gb::Cpu::CCF
PUBLIC	?HALT@Cpu@gb@emulation@@AAEXXZ			; emulation::gb::Cpu::HALT
PUBLIC	?STOP@Cpu@gb@emulation@@AAEXXZ			; emulation::gb::Cpu::STOP
PUBLIC	?CPL@Cpu@gb@emulation@@AAEXXZ			; emulation::gb::Cpu::CPL
PUBLIC	?PREFIX_CB@Cpu@gb@emulation@@AAEXXZ		; emulation::gb::Cpu::PREFIX_CB
PUBLIC	?JR@Cpu@gb@emulation@@AAEXXZ			; emulation::gb::Cpu::JR
PUBLIC	?JP@Cpu@gb@emulation@@AAEXXZ			; emulation::gb::Cpu::JP
PUBLIC	?JP_HL@Cpu@gb@emulation@@AAEXXZ			; emulation::gb::Cpu::JP_HL
PUBLIC	?CALL@Cpu@gb@emulation@@AAEXXZ			; emulation::gb::Cpu::CALL
PUBLIC	?RET@Cpu@gb@emulation@@AAEXXZ			; emulation::gb::Cpu::RET
PUBLIC	?RLCA@Cpu@gb@emulation@@AAEXXZ			; emulation::gb::Cpu::RLCA
PUBLIC	?RRCA@Cpu@gb@emulation@@AAEXXZ			; emulation::gb::Cpu::RRCA
PUBLIC	?RLA@Cpu@gb@emulation@@AAEXXZ			; emulation::gb::Cpu::RLA
PUBLIC	?RRA@Cpu@gb@emulation@@AAEXXZ			; emulation::gb::Cpu::RRA
PUBLIC	?CP@Cpu@gb@emulation@@AAEXEE@Z			; emulation::gb::Cpu::CP
PUBLIC	?CP_d8@Cpu@gb@emulation@@AAEXXZ			; emulation::gb::Cpu::CP_d8
PUBLIC	?CP_HL@Cpu@gb@emulation@@AAEXXZ			; emulation::gb::Cpu::CP_HL
PUBLIC	?DI@Cpu@gb@emulation@@AAEXXZ			; emulation::gb::Cpu::DI
PUBLIC	?EI@Cpu@gb@emulation@@AAEXXZ			; emulation::gb::Cpu::EI
PUBLIC	?RETI@Cpu@gb@emulation@@AAEXXZ			; emulation::gb::Cpu::RETI
PUBLIC	?DAA@Cpu@gb@emulation@@AAEXXZ			; emulation::gb::Cpu::DAA
PUBLIC	?cartridge@Emu@gb@emulation@@QAEPAVCartridge@23@XZ ; emulation::gb::Emu::cartridge
PUBLIC	?memory@Emu@gb@emulation@@QAEPAVMemory@23@XZ	; emulation::gb::Emu::memory
PUBLIC	?lcd_driver@Emu@gb@emulation@@QAEPAVLCDDriver@23@XZ ; emulation::gb::Emu::lcd_driver
PUBLIC	?sc@Emu@gb@emulation@@QAEPAVSoundController@23@XZ ; emulation::gb::Emu::sc
PUBLIC	?timer@Emu@gb@emulation@@QAEPAVTimer@23@XZ	; emulation::gb::Emu::timer
PUBLIC	??$LDrd16@$00@Cpu@gb@emulation@@AAEXXZ		; emulation::gb::Cpu::LDrd16<1>
PUBLIC	??$LD$rr@$00$00@Cpu@gb@emulation@@AAEXXZ	; emulation::gb::Cpu::LD$rr<1,1>
PUBLIC	??$INC_16bit@$00@Cpu@gb@emulation@@AAEXXZ	; emulation::gb::Cpu::INC_16bit<1>
PUBLIC	??$INC_8bit@$02$0A@@Cpu@gb@emulation@@AAEXXZ	; emulation::gb::Cpu::INC_8bit<3,0>
PUBLIC	??$DEC_8bit@$02$0A@@Cpu@gb@emulation@@AAEXXZ	; emulation::gb::Cpu::DEC_8bit<3,0>
PUBLIC	??$LD@$02$0A@$09@Cpu@gb@emulation@@AAEXXZ	; emulation::gb::Cpu::LD<3,0,10>
PUBLIC	??$ADD_16bit@$02$00@Cpu@gb@emulation@@AAEXXZ	; emulation::gb::Cpu::ADD_16bit<3,1>
PUBLIC	??$LDr$r@$00$00@Cpu@gb@emulation@@AAEXXZ	; emulation::gb::Cpu::LDr$r<1,1>
PUBLIC	??$DEC_16bit@$00@Cpu@gb@emulation@@AAEXXZ	; emulation::gb::Cpu::DEC_16bit<1>
PUBLIC	??$INC_8bit@$01$0A@@Cpu@gb@emulation@@AAEXXZ	; emulation::gb::Cpu::INC_8bit<2,0>
PUBLIC	??$DEC_8bit@$01$0A@@Cpu@gb@emulation@@AAEXXZ	; emulation::gb::Cpu::DEC_8bit<2,0>
PUBLIC	??$LD@$01$0A@$09@Cpu@gb@emulation@@AAEXXZ	; emulation::gb::Cpu::LD<2,0,10>
PUBLIC	??$LDrd16@$01@Cpu@gb@emulation@@AAEXXZ		; emulation::gb::Cpu::LDrd16<2>
PUBLIC	??$LD$rr@$01$00@Cpu@gb@emulation@@AAEXXZ	; emulation::gb::Cpu::LD$rr<2,1>
PUBLIC	??$INC_16bit@$01@Cpu@gb@emulation@@AAEXXZ	; emulation::gb::Cpu::INC_16bit<2>
PUBLIC	??$INC_8bit@$04$0A@@Cpu@gb@emulation@@AAEXXZ	; emulation::gb::Cpu::INC_8bit<5,0>
PUBLIC	??$DEC_8bit@$04$0A@@Cpu@gb@emulation@@AAEXXZ	; emulation::gb::Cpu::DEC_8bit<5,0>
PUBLIC	??$LD@$04$0A@$09@Cpu@gb@emulation@@AAEXXZ	; emulation::gb::Cpu::LD<5,0,10>
PUBLIC	??$ADD_16bit@$02$01@Cpu@gb@emulation@@AAEXXZ	; emulation::gb::Cpu::ADD_16bit<3,2>
PUBLIC	??$LDr$r@$00$01@Cpu@gb@emulation@@AAEXXZ	; emulation::gb::Cpu::LDr$r<1,2>
PUBLIC	??$DEC_16bit@$01@Cpu@gb@emulation@@AAEXXZ	; emulation::gb::Cpu::DEC_16bit<2>
PUBLIC	??$INC_8bit@$03$0A@@Cpu@gb@emulation@@AAEXXZ	; emulation::gb::Cpu::INC_8bit<4,0>
PUBLIC	??$DEC_8bit@$03$0A@@Cpu@gb@emulation@@AAEXXZ	; emulation::gb::Cpu::DEC_8bit<4,0>
PUBLIC	??$LD@$03$0A@$09@Cpu@gb@emulation@@AAEXXZ	; emulation::gb::Cpu::LD<4,0,10>
PUBLIC	??$JR_cc@$06$00@Cpu@gb@emulation@@AAEXXZ	; emulation::gb::Cpu::JR_cc<7,1>
PUBLIC	??$LDrd16@$02@Cpu@gb@emulation@@AAEXXZ		; emulation::gb::Cpu::LDrd16<3>
PUBLIC	??$LDI$regreg@$02$00@Cpu@gb@emulation@@AAEXXZ	; emulation::gb::Cpu::LDI$regreg<3,1>
PUBLIC	??$INC_16bit@$02@Cpu@gb@emulation@@AAEXXZ	; emulation::gb::Cpu::INC_16bit<3>
PUBLIC	??$INC_8bit@$06$0A@@Cpu@gb@emulation@@AAEXXZ	; emulation::gb::Cpu::INC_8bit<7,0>
PUBLIC	??$DEC_8bit@$06$0A@@Cpu@gb@emulation@@AAEXXZ	; emulation::gb::Cpu::DEC_8bit<7,0>
PUBLIC	??$LD@$06$0A@$09@Cpu@gb@emulation@@AAEXXZ	; emulation::gb::Cpu::LD<7,0,10>
PUBLIC	??$JR_cc@$06$0A@@Cpu@gb@emulation@@AAEXXZ	; emulation::gb::Cpu::JR_cc<7,0>
PUBLIC	??$ADD_16bit@$02$02@Cpu@gb@emulation@@AAEXXZ	; emulation::gb::Cpu::ADD_16bit<3,3>
PUBLIC	??$LDIreg$reg@$00$02@Cpu@gb@emulation@@AAEXXZ	; emulation::gb::Cpu::LDIreg$reg<1,3>
PUBLIC	??$DEC_16bit@$02@Cpu@gb@emulation@@AAEXXZ	; emulation::gb::Cpu::DEC_16bit<3>
PUBLIC	??$INC_8bit@$05$0A@@Cpu@gb@emulation@@AAEXXZ	; emulation::gb::Cpu::INC_8bit<6,0>
PUBLIC	??$DEC_8bit@$05$0A@@Cpu@gb@emulation@@AAEXXZ	; emulation::gb::Cpu::DEC_8bit<6,0>
PUBLIC	??$LD@$05$0A@$09@Cpu@gb@emulation@@AAEXXZ	; emulation::gb::Cpu::LD<6,0,10>
PUBLIC	??$JR_cc@$03$00@Cpu@gb@emulation@@AAEXXZ	; emulation::gb::Cpu::JR_cc<4,1>
PUBLIC	??$LDrd16@$03@Cpu@gb@emulation@@AAEXXZ		; emulation::gb::Cpu::LDrd16<4>
PUBLIC	??$LDD$regreg@$02$00@Cpu@gb@emulation@@AAEXXZ	; emulation::gb::Cpu::LDD$regreg<3,1>
PUBLIC	??$INC_16bit@$03@Cpu@gb@emulation@@AAEXXZ	; emulation::gb::Cpu::INC_16bit<4>
PUBLIC	??$INC_8bit@$02$00@Cpu@gb@emulation@@AAEXXZ	; emulation::gb::Cpu::INC_8bit<3,1>
PUBLIC	??$DEC_8bit@$02$00@Cpu@gb@emulation@@AAEXXZ	; emulation::gb::Cpu::DEC_8bit<3,1>
PUBLIC	??$LD@$02$0A@$0L@@Cpu@gb@emulation@@AAEXXZ	; emulation::gb::Cpu::LD<3,0,11>
PUBLIC	??$JR_cc@$03$0A@@Cpu@gb@emulation@@AAEXXZ	; emulation::gb::Cpu::JR_cc<4,0>
PUBLIC	??$ADD_16bit@$02$03@Cpu@gb@emulation@@AAEXXZ	; emulation::gb::Cpu::ADD_16bit<3,4>
PUBLIC	??$LDDreg$reg@$00$02@Cpu@gb@emulation@@AAEXXZ	; emulation::gb::Cpu::LDDreg$reg<1,3>
PUBLIC	??$DEC_16bit@$03@Cpu@gb@emulation@@AAEXXZ	; emulation::gb::Cpu::DEC_16bit<4>
PUBLIC	??$INC_8bit@$00$0A@@Cpu@gb@emulation@@AAEXXZ	; emulation::gb::Cpu::INC_8bit<1,0>
PUBLIC	??$DEC_8bit@$00$0A@@Cpu@gb@emulation@@AAEXXZ	; emulation::gb::Cpu::DEC_8bit<1,0>
PUBLIC	??$LD@$00$0A@$09@Cpu@gb@emulation@@AAEXXZ	; emulation::gb::Cpu::LD<1,0,10>
PUBLIC	??$LDrr@$02$02@Cpu@gb@emulation@@AAEXXZ		; emulation::gb::Cpu::LDrr<3,3>
PUBLIC	??$LDrr@$02$01@Cpu@gb@emulation@@AAEXXZ		; emulation::gb::Cpu::LDrr<3,2>
PUBLIC	??$LDrr@$02$04@Cpu@gb@emulation@@AAEXXZ		; emulation::gb::Cpu::LDrr<3,5>
PUBLIC	??$LDrr@$02$03@Cpu@gb@emulation@@AAEXXZ		; emulation::gb::Cpu::LDrr<3,4>
PUBLIC	??$LDrr@$02$06@Cpu@gb@emulation@@AAEXXZ		; emulation::gb::Cpu::LDrr<3,7>
PUBLIC	??$LDrr@$02$05@Cpu@gb@emulation@@AAEXXZ		; emulation::gb::Cpu::LDrr<3,6>
PUBLIC	??$LDr$r@$02$02@Cpu@gb@emulation@@AAEXXZ	; emulation::gb::Cpu::LDr$r<3,3>
PUBLIC	??$LDrr@$02$00@Cpu@gb@emulation@@AAEXXZ		; emulation::gb::Cpu::LDrr<3,1>
PUBLIC	??$LDrr@$01$02@Cpu@gb@emulation@@AAEXXZ		; emulation::gb::Cpu::LDrr<2,3>
PUBLIC	??$LDrr@$01$01@Cpu@gb@emulation@@AAEXXZ		; emulation::gb::Cpu::LDrr<2,2>
PUBLIC	??$LDrr@$01$04@Cpu@gb@emulation@@AAEXXZ		; emulation::gb::Cpu::LDrr<2,5>
PUBLIC	??$LDrr@$01$03@Cpu@gb@emulation@@AAEXXZ		; emulation::gb::Cpu::LDrr<2,4>
PUBLIC	??$LDrr@$01$06@Cpu@gb@emulation@@AAEXXZ		; emulation::gb::Cpu::LDrr<2,7>
PUBLIC	??$LDrr@$01$05@Cpu@gb@emulation@@AAEXXZ		; emulation::gb::Cpu::LDrr<2,6>
PUBLIC	??$LDr$r@$01$02@Cpu@gb@emulation@@AAEXXZ	; emulation::gb::Cpu::LDr$r<2,3>
PUBLIC	??$LDrr@$01$00@Cpu@gb@emulation@@AAEXXZ		; emulation::gb::Cpu::LDrr<2,1>
PUBLIC	??$LDrr@$04$02@Cpu@gb@emulation@@AAEXXZ		; emulation::gb::Cpu::LDrr<5,3>
PUBLIC	??$LDrr@$04$01@Cpu@gb@emulation@@AAEXXZ		; emulation::gb::Cpu::LDrr<5,2>
PUBLIC	??$LDrr@$04$04@Cpu@gb@emulation@@AAEXXZ		; emulation::gb::Cpu::LDrr<5,5>
PUBLIC	??$LDrr@$04$03@Cpu@gb@emulation@@AAEXXZ		; emulation::gb::Cpu::LDrr<5,4>
PUBLIC	??$LDrr@$04$06@Cpu@gb@emulation@@AAEXXZ		; emulation::gb::Cpu::LDrr<5,7>
PUBLIC	??$LDrr@$04$05@Cpu@gb@emulation@@AAEXXZ		; emulation::gb::Cpu::LDrr<5,6>
PUBLIC	??$LDr$r@$04$02@Cpu@gb@emulation@@AAEXXZ	; emulation::gb::Cpu::LDr$r<5,3>
PUBLIC	??$LDrr@$04$00@Cpu@gb@emulation@@AAEXXZ		; emulation::gb::Cpu::LDrr<5,1>
PUBLIC	??$LDrr@$03$02@Cpu@gb@emulation@@AAEXXZ		; emulation::gb::Cpu::LDrr<4,3>
PUBLIC	??$LDrr@$03$01@Cpu@gb@emulation@@AAEXXZ		; emulation::gb::Cpu::LDrr<4,2>
PUBLIC	??$LDrr@$03$04@Cpu@gb@emulation@@AAEXXZ		; emulation::gb::Cpu::LDrr<4,5>
PUBLIC	??$LDrr@$03$03@Cpu@gb@emulation@@AAEXXZ		; emulation::gb::Cpu::LDrr<4,4>
PUBLIC	??$LDrr@$03$06@Cpu@gb@emulation@@AAEXXZ		; emulation::gb::Cpu::LDrr<4,7>
PUBLIC	??$LDrr@$03$05@Cpu@gb@emulation@@AAEXXZ		; emulation::gb::Cpu::LDrr<4,6>
PUBLIC	??$LDr$r@$03$02@Cpu@gb@emulation@@AAEXXZ	; emulation::gb::Cpu::LDr$r<4,3>
PUBLIC	??$LDrr@$03$00@Cpu@gb@emulation@@AAEXXZ		; emulation::gb::Cpu::LDrr<4,1>
PUBLIC	??$LDrr@$06$02@Cpu@gb@emulation@@AAEXXZ		; emulation::gb::Cpu::LDrr<7,3>
PUBLIC	??$LDrr@$06$01@Cpu@gb@emulation@@AAEXXZ		; emulation::gb::Cpu::LDrr<7,2>
PUBLIC	??$LDrr@$06$04@Cpu@gb@emulation@@AAEXXZ		; emulation::gb::Cpu::LDrr<7,5>
PUBLIC	??$LDrr@$06$03@Cpu@gb@emulation@@AAEXXZ		; emulation::gb::Cpu::LDrr<7,4>
PUBLIC	??$LDrr@$06$06@Cpu@gb@emulation@@AAEXXZ		; emulation::gb::Cpu::LDrr<7,7>
PUBLIC	??$LDrr@$06$05@Cpu@gb@emulation@@AAEXXZ		; emulation::gb::Cpu::LDrr<7,6>
PUBLIC	??$LDr$r@$06$02@Cpu@gb@emulation@@AAEXXZ	; emulation::gb::Cpu::LDr$r<7,3>
PUBLIC	??$LDrr@$06$00@Cpu@gb@emulation@@AAEXXZ		; emulation::gb::Cpu::LDrr<7,1>
PUBLIC	??$LDrr@$05$02@Cpu@gb@emulation@@AAEXXZ		; emulation::gb::Cpu::LDrr<6,3>
PUBLIC	??$LDrr@$05$01@Cpu@gb@emulation@@AAEXXZ		; emulation::gb::Cpu::LDrr<6,2>
PUBLIC	??$LDrr@$05$04@Cpu@gb@emulation@@AAEXXZ		; emulation::gb::Cpu::LDrr<6,5>
PUBLIC	??$LDrr@$05$03@Cpu@gb@emulation@@AAEXXZ		; emulation::gb::Cpu::LDrr<6,4>
PUBLIC	??$LDrr@$05$06@Cpu@gb@emulation@@AAEXXZ		; emulation::gb::Cpu::LDrr<6,7>
PUBLIC	??$LDrr@$05$05@Cpu@gb@emulation@@AAEXXZ		; emulation::gb::Cpu::LDrr<6,6>
PUBLIC	??$LDr$r@$05$02@Cpu@gb@emulation@@AAEXXZ	; emulation::gb::Cpu::LDr$r<6,3>
PUBLIC	??$LDrr@$05$00@Cpu@gb@emulation@@AAEXXZ		; emulation::gb::Cpu::LDrr<6,1>
PUBLIC	??$LD$rr@$02$02@Cpu@gb@emulation@@AAEXXZ	; emulation::gb::Cpu::LD$rr<3,3>
PUBLIC	??$LD$rr@$02$01@Cpu@gb@emulation@@AAEXXZ	; emulation::gb::Cpu::LD$rr<3,2>
PUBLIC	??$LD$rr@$02$04@Cpu@gb@emulation@@AAEXXZ	; emulation::gb::Cpu::LD$rr<3,5>
PUBLIC	??$LD$rr@$02$03@Cpu@gb@emulation@@AAEXXZ	; emulation::gb::Cpu::LD$rr<3,4>
PUBLIC	??$LD$rr@$02$06@Cpu@gb@emulation@@AAEXXZ	; emulation::gb::Cpu::LD$rr<3,7>
PUBLIC	??$LD$rr@$02$05@Cpu@gb@emulation@@AAEXXZ	; emulation::gb::Cpu::LD$rr<3,6>
PUBLIC	??$LD$rr@$02$00@Cpu@gb@emulation@@AAEXXZ	; emulation::gb::Cpu::LD$rr<3,1>
PUBLIC	??$LDrr@$00$02@Cpu@gb@emulation@@AAEXXZ		; emulation::gb::Cpu::LDrr<1,3>
PUBLIC	??$LDrr@$00$01@Cpu@gb@emulation@@AAEXXZ		; emulation::gb::Cpu::LDrr<1,2>
PUBLIC	??$LDrr@$00$04@Cpu@gb@emulation@@AAEXXZ		; emulation::gb::Cpu::LDrr<1,5>
PUBLIC	??$LDrr@$00$03@Cpu@gb@emulation@@AAEXXZ		; emulation::gb::Cpu::LDrr<1,4>
PUBLIC	??$LDrr@$00$06@Cpu@gb@emulation@@AAEXXZ		; emulation::gb::Cpu::LDrr<1,7>
PUBLIC	??$LDrr@$00$05@Cpu@gb@emulation@@AAEXXZ		; emulation::gb::Cpu::LDrr<1,6>
PUBLIC	??$LDr$r@$00$02@Cpu@gb@emulation@@AAEXXZ	; emulation::gb::Cpu::LDr$r<1,3>
PUBLIC	??$LDrr@$00$00@Cpu@gb@emulation@@AAEXXZ		; emulation::gb::Cpu::LDrr<1,1>
PUBLIC	??$ADD@$00$02$0A@@Cpu@gb@emulation@@AAEXXZ	; emulation::gb::Cpu::ADD<1,3,0>
PUBLIC	??$ADD@$00$01$0A@@Cpu@gb@emulation@@AAEXXZ	; emulation::gb::Cpu::ADD<1,2,0>
PUBLIC	??$ADD@$00$04$0A@@Cpu@gb@emulation@@AAEXXZ	; emulation::gb::Cpu::ADD<1,5,0>
PUBLIC	??$ADD@$00$03$0A@@Cpu@gb@emulation@@AAEXXZ	; emulation::gb::Cpu::ADD<1,4,0>
PUBLIC	??$ADD@$00$06$0A@@Cpu@gb@emulation@@AAEXXZ	; emulation::gb::Cpu::ADD<1,7,0>
PUBLIC	??$ADD@$00$05$0A@@Cpu@gb@emulation@@AAEXXZ	; emulation::gb::Cpu::ADD<1,6,0>
PUBLIC	??$ADD@$00$02$00@Cpu@gb@emulation@@AAEXXZ	; emulation::gb::Cpu::ADD<1,3,1>
PUBLIC	??$ADD@$00$00$0A@@Cpu@gb@emulation@@AAEXXZ	; emulation::gb::Cpu::ADD<1,1,0>
PUBLIC	??$ADC@$00$02$0A@@Cpu@gb@emulation@@AAEXXZ	; emulation::gb::Cpu::ADC<1,3,0>
PUBLIC	??$ADC@$00$01$0A@@Cpu@gb@emulation@@AAEXXZ	; emulation::gb::Cpu::ADC<1,2,0>
PUBLIC	??$ADC@$00$04$0A@@Cpu@gb@emulation@@AAEXXZ	; emulation::gb::Cpu::ADC<1,5,0>
PUBLIC	??$ADC@$00$03$0A@@Cpu@gb@emulation@@AAEXXZ	; emulation::gb::Cpu::ADC<1,4,0>
PUBLIC	??$ADC@$00$06$0A@@Cpu@gb@emulation@@AAEXXZ	; emulation::gb::Cpu::ADC<1,7,0>
PUBLIC	??$ADC@$00$05$0A@@Cpu@gb@emulation@@AAEXXZ	; emulation::gb::Cpu::ADC<1,6,0>
PUBLIC	??$ADC@$00$02$00@Cpu@gb@emulation@@AAEXXZ	; emulation::gb::Cpu::ADC<1,3,1>
PUBLIC	??$ADC@$00$00$0A@@Cpu@gb@emulation@@AAEXXZ	; emulation::gb::Cpu::ADC<1,1,0>
PUBLIC	??$SUB@$00$02$0A@@Cpu@gb@emulation@@AAEXXZ	; emulation::gb::Cpu::SUB<1,3,0>
PUBLIC	??$SUB@$00$01$0A@@Cpu@gb@emulation@@AAEXXZ	; emulation::gb::Cpu::SUB<1,2,0>
PUBLIC	??$SUB@$00$04$0A@@Cpu@gb@emulation@@AAEXXZ	; emulation::gb::Cpu::SUB<1,5,0>
PUBLIC	??$SUB@$00$03$0A@@Cpu@gb@emulation@@AAEXXZ	; emulation::gb::Cpu::SUB<1,4,0>
PUBLIC	??$SUB@$00$06$0A@@Cpu@gb@emulation@@AAEXXZ	; emulation::gb::Cpu::SUB<1,7,0>
PUBLIC	??$SUB@$00$05$0A@@Cpu@gb@emulation@@AAEXXZ	; emulation::gb::Cpu::SUB<1,6,0>
PUBLIC	??$SUB@$00$02$00@Cpu@gb@emulation@@AAEXXZ	; emulation::gb::Cpu::SUB<1,3,1>
PUBLIC	??$SUB@$00$00$0A@@Cpu@gb@emulation@@AAEXXZ	; emulation::gb::Cpu::SUB<1,1,0>
PUBLIC	??$SBC@$00$02$0A@@Cpu@gb@emulation@@AAEXXZ	; emulation::gb::Cpu::SBC<1,3,0>
PUBLIC	??$SBC@$00$01$0A@@Cpu@gb@emulation@@AAEXXZ	; emulation::gb::Cpu::SBC<1,2,0>
PUBLIC	??$SBC@$00$04$0A@@Cpu@gb@emulation@@AAEXXZ	; emulation::gb::Cpu::SBC<1,5,0>
PUBLIC	??$SBC@$00$03$0A@@Cpu@gb@emulation@@AAEXXZ	; emulation::gb::Cpu::SBC<1,4,0>
PUBLIC	??$SBC@$00$06$0A@@Cpu@gb@emulation@@AAEXXZ	; emulation::gb::Cpu::SBC<1,7,0>
PUBLIC	??$SBC@$00$05$0A@@Cpu@gb@emulation@@AAEXXZ	; emulation::gb::Cpu::SBC<1,6,0>
PUBLIC	??$SBC@$00$02$00@Cpu@gb@emulation@@AAEXXZ	; emulation::gb::Cpu::SBC<1,3,1>
PUBLIC	??$SBC@$00$00$0A@@Cpu@gb@emulation@@AAEXXZ	; emulation::gb::Cpu::SBC<1,1,0>
PUBLIC	??$AND@$00$02$0A@@Cpu@gb@emulation@@AAEXXZ	; emulation::gb::Cpu::AND<1,3,0>
PUBLIC	??$AND@$00$01$0A@@Cpu@gb@emulation@@AAEXXZ	; emulation::gb::Cpu::AND<1,2,0>
PUBLIC	??$AND@$00$04$0A@@Cpu@gb@emulation@@AAEXXZ	; emulation::gb::Cpu::AND<1,5,0>
PUBLIC	??$AND@$00$03$0A@@Cpu@gb@emulation@@AAEXXZ	; emulation::gb::Cpu::AND<1,4,0>
PUBLIC	??$AND@$00$06$0A@@Cpu@gb@emulation@@AAEXXZ	; emulation::gb::Cpu::AND<1,7,0>
PUBLIC	??$AND@$00$05$0A@@Cpu@gb@emulation@@AAEXXZ	; emulation::gb::Cpu::AND<1,6,0>
PUBLIC	??$AND@$00$02$00@Cpu@gb@emulation@@AAEXXZ	; emulation::gb::Cpu::AND<1,3,1>
PUBLIC	??$AND@$00$00$0A@@Cpu@gb@emulation@@AAEXXZ	; emulation::gb::Cpu::AND<1,1,0>
PUBLIC	??$XOR@$00$02$0A@@Cpu@gb@emulation@@AAEXXZ	; emulation::gb::Cpu::XOR<1,3,0>
PUBLIC	??$XOR@$00$01$0A@@Cpu@gb@emulation@@AAEXXZ	; emulation::gb::Cpu::XOR<1,2,0>
PUBLIC	??$XOR@$00$04$0A@@Cpu@gb@emulation@@AAEXXZ	; emulation::gb::Cpu::XOR<1,5,0>
PUBLIC	??$XOR@$00$03$0A@@Cpu@gb@emulation@@AAEXXZ	; emulation::gb::Cpu::XOR<1,4,0>
PUBLIC	??$XOR@$00$06$0A@@Cpu@gb@emulation@@AAEXXZ	; emulation::gb::Cpu::XOR<1,7,0>
PUBLIC	??$XOR@$00$05$0A@@Cpu@gb@emulation@@AAEXXZ	; emulation::gb::Cpu::XOR<1,6,0>
PUBLIC	??$XOR@$00$02$00@Cpu@gb@emulation@@AAEXXZ	; emulation::gb::Cpu::XOR<1,3,1>
PUBLIC	??$XOR@$00$00$0A@@Cpu@gb@emulation@@AAEXXZ	; emulation::gb::Cpu::XOR<1,1,0>
PUBLIC	??$OR@$00$02$0A@@Cpu@gb@emulation@@AAEXXZ	; emulation::gb::Cpu::OR<1,3,0>
PUBLIC	??$OR@$00$01$0A@@Cpu@gb@emulation@@AAEXXZ	; emulation::gb::Cpu::OR<1,2,0>
PUBLIC	??$OR@$00$04$0A@@Cpu@gb@emulation@@AAEXXZ	; emulation::gb::Cpu::OR<1,5,0>
PUBLIC	??$OR@$00$03$0A@@Cpu@gb@emulation@@AAEXXZ	; emulation::gb::Cpu::OR<1,4,0>
PUBLIC	??$OR@$00$06$0A@@Cpu@gb@emulation@@AAEXXZ	; emulation::gb::Cpu::OR<1,7,0>
PUBLIC	??$OR@$00$05$0A@@Cpu@gb@emulation@@AAEXXZ	; emulation::gb::Cpu::OR<1,6,0>
PUBLIC	??$OR@$00$02$00@Cpu@gb@emulation@@AAEXXZ	; emulation::gb::Cpu::OR<1,3,1>
PUBLIC	??$OR@$00$00$0A@@Cpu@gb@emulation@@AAEXXZ	; emulation::gb::Cpu::OR<1,1,0>
PUBLIC	??$CP_reg@$02@Cpu@gb@emulation@@AAEXXZ		; emulation::gb::Cpu::CP_reg<3>
PUBLIC	??$CP_reg@$01@Cpu@gb@emulation@@AAEXXZ		; emulation::gb::Cpu::CP_reg<2>
PUBLIC	??$CP_reg@$04@Cpu@gb@emulation@@AAEXXZ		; emulation::gb::Cpu::CP_reg<5>
PUBLIC	??$CP_reg@$03@Cpu@gb@emulation@@AAEXXZ		; emulation::gb::Cpu::CP_reg<4>
PUBLIC	??$CP_reg@$06@Cpu@gb@emulation@@AAEXXZ		; emulation::gb::Cpu::CP_reg<7>
PUBLIC	??$CP_reg@$05@Cpu@gb@emulation@@AAEXXZ		; emulation::gb::Cpu::CP_reg<6>
PUBLIC	??$CP_reg@$00@Cpu@gb@emulation@@AAEXXZ		; emulation::gb::Cpu::CP_reg<1>
PUBLIC	??$RET_cc@$06$00@Cpu@gb@emulation@@AAEXXZ	; emulation::gb::Cpu::RET_cc<7,1>
PUBLIC	??$POP@$00@Cpu@gb@emulation@@AAEXXZ		; emulation::gb::Cpu::POP<1>
PUBLIC	??$JP_cc@$06$00@Cpu@gb@emulation@@AAEXXZ	; emulation::gb::Cpu::JP_cc<7,1>
PUBLIC	??$CALL_cc@$06$00@Cpu@gb@emulation@@AAEXXZ	; emulation::gb::Cpu::CALL_cc<7,1>
PUBLIC	??$PUSH@$00@Cpu@gb@emulation@@AAEXXZ		; emulation::gb::Cpu::PUSH<1>
PUBLIC	??$ADD@$00$0A@$01@Cpu@gb@emulation@@AAEXXZ	; emulation::gb::Cpu::ADD<1,0,2>
PUBLIC	??$RET_cc@$06$0A@@Cpu@gb@emulation@@AAEXXZ	; emulation::gb::Cpu::RET_cc<7,0>
PUBLIC	??$JP_cc@$06$0A@@Cpu@gb@emulation@@AAEXXZ	; emulation::gb::Cpu::JP_cc<7,0>
PUBLIC	??$CALL_cc@$06$0A@@Cpu@gb@emulation@@AAEXXZ	; emulation::gb::Cpu::CALL_cc<7,0>
PUBLIC	??$ADC@$00$0A@$01@Cpu@gb@emulation@@AAEXXZ	; emulation::gb::Cpu::ADC<1,0,2>
PUBLIC	??$RET_cc@$03$00@Cpu@gb@emulation@@AAEXXZ	; emulation::gb::Cpu::RET_cc<4,1>
PUBLIC	??$POP@$01@Cpu@gb@emulation@@AAEXXZ		; emulation::gb::Cpu::POP<2>
PUBLIC	??$JP_cc@$03$00@Cpu@gb@emulation@@AAEXXZ	; emulation::gb::Cpu::JP_cc<4,1>
PUBLIC	??$CALL_cc@$03$00@Cpu@gb@emulation@@AAEXXZ	; emulation::gb::Cpu::CALL_cc<4,1>
PUBLIC	??$PUSH@$01@Cpu@gb@emulation@@AAEXXZ		; emulation::gb::Cpu::PUSH<2>
PUBLIC	??$SUB@$00$0A@$01@Cpu@gb@emulation@@AAEXXZ	; emulation::gb::Cpu::SUB<1,0,2>
PUBLIC	??$RET_cc@$03$0A@@Cpu@gb@emulation@@AAEXXZ	; emulation::gb::Cpu::RET_cc<4,0>
PUBLIC	??$JP_cc@$03$0A@@Cpu@gb@emulation@@AAEXXZ	; emulation::gb::Cpu::JP_cc<4,0>
PUBLIC	??$CALL_cc@$03$0A@@Cpu@gb@emulation@@AAEXXZ	; emulation::gb::Cpu::CALL_cc<4,0>
PUBLIC	??$SBC@$00$0A@$01@Cpu@gb@emulation@@AAEXXZ	; emulation::gb::Cpu::SBC<1,0,2>
PUBLIC	??$LD@$0A@$00$0M@@Cpu@gb@emulation@@AAEXXZ	; emulation::gb::Cpu::LD<0,1,12>
PUBLIC	??$POP@$02@Cpu@gb@emulation@@AAEXXZ		; emulation::gb::Cpu::POP<3>
PUBLIC	??$LD$FF00rr@$01$00@Cpu@gb@emulation@@AAEXXZ	; emulation::gb::Cpu::LD$FF00rr<2,1>
PUBLIC	??$PUSH@$02@Cpu@gb@emulation@@AAEXXZ		; emulation::gb::Cpu::PUSH<3>
PUBLIC	??$AND@$00$0A@$01@Cpu@gb@emulation@@AAEXXZ	; emulation::gb::Cpu::AND<1,0,2>
PUBLIC	??$LD@$0A@$00$0O@@Cpu@gb@emulation@@AAEXXZ	; emulation::gb::Cpu::LD<0,1,14>
PUBLIC	??$XOR@$00$0A@$01@Cpu@gb@emulation@@AAEXXZ	; emulation::gb::Cpu::XOR<1,0,2>
PUBLIC	??$LD@$00$0A@$0N@@Cpu@gb@emulation@@AAEXXZ	; emulation::gb::Cpu::LD<1,0,13>
PUBLIC	??$POP@$0A@@Cpu@gb@emulation@@AAEXXZ		; emulation::gb::Cpu::POP<0>
PUBLIC	??$LDr$FF00r@$00$01@Cpu@gb@emulation@@AAEXXZ	; emulation::gb::Cpu::LDr$FF00r<1,2>
PUBLIC	??$PUSH@$0A@@Cpu@gb@emulation@@AAEXXZ		; emulation::gb::Cpu::PUSH<0>
PUBLIC	??$OR@$00$0A@$01@Cpu@gb@emulation@@AAEXXZ	; emulation::gb::Cpu::OR<1,0,2>
PUBLIC	??$LD@$00$0A@$0P@@Cpu@gb@emulation@@AAEXXZ	; emulation::gb::Cpu::LD<1,0,15>
PUBLIC	??$arithmeticMode@$00$02$0A@@Cpu@gb@emulation@@AAEXAAE0@Z ; emulation::gb::Cpu::arithmeticMode<1,3,0>
PUBLIC	??$arithmeticMode@$00$01$0A@@Cpu@gb@emulation@@AAEXAAE0@Z ; emulation::gb::Cpu::arithmeticMode<1,2,0>
PUBLIC	??$arithmeticMode@$00$04$0A@@Cpu@gb@emulation@@AAEXAAE0@Z ; emulation::gb::Cpu::arithmeticMode<1,5,0>
PUBLIC	??$arithmeticMode@$00$03$0A@@Cpu@gb@emulation@@AAEXAAE0@Z ; emulation::gb::Cpu::arithmeticMode<1,4,0>
PUBLIC	??$arithmeticMode@$00$06$0A@@Cpu@gb@emulation@@AAEXAAE0@Z ; emulation::gb::Cpu::arithmeticMode<1,7,0>
PUBLIC	??$arithmeticMode@$00$05$0A@@Cpu@gb@emulation@@AAEXAAE0@Z ; emulation::gb::Cpu::arithmeticMode<1,6,0>
PUBLIC	??$arithmeticMode@$00$02$00@Cpu@gb@emulation@@AAEXAAE0@Z ; emulation::gb::Cpu::arithmeticMode<1,3,1>
PUBLIC	??$arithmeticMode@$00$00$0A@@Cpu@gb@emulation@@AAEXAAE0@Z ; emulation::gb::Cpu::arithmeticMode<1,1,0>
PUBLIC	??$arithmeticMode@$00$0A@$01@Cpu@gb@emulation@@AAEXAAE0@Z ; emulation::gb::Cpu::arithmeticMode<1,0,2>
PUBLIC	??_7Component@gb@emulation@@6B@			; emulation::gb::Component::`vftable'
PUBLIC	??_7Cpu@gb@emulation@@6B@			; emulation::gb::Cpu::`vftable'
PUBLIC	??_R1A@?0A@EA@Component@gb@emulation@@8		; emulation::gb::Component::`RTTI Base Class Descriptor at (0,-1,0,64)'
PUBLIC	??_R0?AVComponent@gb@emulation@@@8		; emulation::gb::Component `RTTI Type Descriptor'
PUBLIC	??_R3Component@gb@emulation@@8			; emulation::gb::Component::`RTTI Class Hierarchy Descriptor'
PUBLIC	??_R2Component@gb@emulation@@8			; emulation::gb::Component::`RTTI Base Class Array'
PUBLIC	??_R4Cpu@gb@emulation@@6B@			; emulation::gb::Cpu::`RTTI Complete Object Locator'
PUBLIC	??_R0?AVCpu@gb@emulation@@@8			; emulation::gb::Cpu `RTTI Type Descriptor'
PUBLIC	??_R3Cpu@gb@emulation@@8			; emulation::gb::Cpu::`RTTI Class Hierarchy Descriptor'
PUBLIC	??_R2Cpu@gb@emulation@@8			; emulation::gb::Cpu::`RTTI Base Class Array'
PUBLIC	??_R1A@?0A@EA@Cpu@gb@emulation@@8		; emulation::gb::Cpu::`RTTI Base Class Descriptor at (0,-1,0,64)'
PUBLIC	??_R4Component@gb@emulation@@6B@		; emulation::gb::Component::`RTTI Complete Object Locator'
EXTRN	_memset:PROC
EXTRN	?Read8@Memory@gb@emulation@@QAEEG@Z:PROC	; emulation::gb::Memory::Read8
EXTRN	?Write8@Memory@gb@emulation@@QAEXGE@Z:PROC	; emulation::gb::Memory::Write8
EXTRN	?Tick@Memory@gb@emulation@@QAEXXZ:PROC		; emulation::gb::Memory::Tick
EXTRN	?Step@LCDDriver@gb@emulation@@QAEXN@Z:PROC	; emulation::gb::LCDDriver::Step
EXTRN	?Step@SoundController@gb@emulation@@QAEXN@Z:PROC ; emulation::gb::SoundController::Step
EXTRN	?Tick@Timer@gb@emulation@@QAEXXZ:PROC		; emulation::gb::Timer::Tick
EXTRN	@_RTC_CheckStackVars@8:PROC
EXTRN	__RTC_CheckEsp:PROC
EXTRN	__RTC_InitBase:PROC
EXTRN	__RTC_Shutdown:PROC
EXTRN	??_7type_info@@6B@:QWORD			; type_info::`vftable'
EXTRN	__fltused:DWORD
_BSS	SEGMENT
_piecewise_construct DB 01H DUP (?)
_allocator_arg DB 01H DUP (?)
_ignore	DB	01H DUP (?)
__Tuple_alloc DB 01H DUP (?)
_BSS	ENDS
CRT$XCU	SEGMENT
_piecewise_construct$initializer$ DD FLAT:??__Epiecewise_construct@std@@YAXXZ
CRT$XCU	ENDS
;	COMDAT rtc$TMZ
rtc$TMZ	SEGMENT
__RTC_Shutdown.rtc$TMZ DD FLAT:__RTC_Shutdown
rtc$TMZ	ENDS
;	COMDAT rtc$IMZ
rtc$IMZ	SEGMENT
__RTC_InitBase.rtc$IMZ DD FLAT:__RTC_InitBase
rtc$IMZ	ENDS
;	COMDAT ??_R4Component@gb@emulation@@6B@
rdata$r	SEGMENT
??_R4Component@gb@emulation@@6B@ DD 00H			; emulation::gb::Component::`RTTI Complete Object Locator'
	DD	00H
	DD	00H
	DD	FLAT:??_R0?AVComponent@gb@emulation@@@8
	DD	FLAT:??_R3Component@gb@emulation@@8
rdata$r	ENDS
;	COMDAT ??_R1A@?0A@EA@Cpu@gb@emulation@@8
rdata$r	SEGMENT
??_R1A@?0A@EA@Cpu@gb@emulation@@8 DD FLAT:??_R0?AVCpu@gb@emulation@@@8 ; emulation::gb::Cpu::`RTTI Base Class Descriptor at (0,-1,0,64)'
	DD	01H
	DD	00H
	DD	0ffffffffH
	DD	00H
	DD	040H
	DD	FLAT:??_R3Cpu@gb@emulation@@8
rdata$r	ENDS
;	COMDAT ??_R2Cpu@gb@emulation@@8
rdata$r	SEGMENT
??_R2Cpu@gb@emulation@@8 DD FLAT:??_R1A@?0A@EA@Cpu@gb@emulation@@8 ; emulation::gb::Cpu::`RTTI Base Class Array'
	DD	FLAT:??_R1A@?0A@EA@Component@gb@emulation@@8
rdata$r	ENDS
;	COMDAT ??_R3Cpu@gb@emulation@@8
rdata$r	SEGMENT
??_R3Cpu@gb@emulation@@8 DD 00H				; emulation::gb::Cpu::`RTTI Class Hierarchy Descriptor'
	DD	00H
	DD	02H
	DD	FLAT:??_R2Cpu@gb@emulation@@8
rdata$r	ENDS
;	COMDAT ??_R0?AVCpu@gb@emulation@@@8
_DATA	SEGMENT
??_R0?AVCpu@gb@emulation@@@8 DD FLAT:??_7type_info@@6B@	; emulation::gb::Cpu `RTTI Type Descriptor'
	DD	00H
	DB	'.?AVCpu@gb@emulation@@', 00H
_DATA	ENDS
;	COMDAT ??_R4Cpu@gb@emulation@@6B@
rdata$r	SEGMENT
??_R4Cpu@gb@emulation@@6B@ DD 00H			; emulation::gb::Cpu::`RTTI Complete Object Locator'
	DD	00H
	DD	00H
	DD	FLAT:??_R0?AVCpu@gb@emulation@@@8
	DD	FLAT:??_R3Cpu@gb@emulation@@8
rdata$r	ENDS
;	COMDAT ??_R2Component@gb@emulation@@8
rdata$r	SEGMENT
??_R2Component@gb@emulation@@8 DD FLAT:??_R1A@?0A@EA@Component@gb@emulation@@8 ; emulation::gb::Component::`RTTI Base Class Array'
rdata$r	ENDS
;	COMDAT ??_R3Component@gb@emulation@@8
rdata$r	SEGMENT
??_R3Component@gb@emulation@@8 DD 00H			; emulation::gb::Component::`RTTI Class Hierarchy Descriptor'
	DD	00H
	DD	01H
	DD	FLAT:??_R2Component@gb@emulation@@8
rdata$r	ENDS
;	COMDAT ??_R0?AVComponent@gb@emulation@@@8
_DATA	SEGMENT
??_R0?AVComponent@gb@emulation@@@8 DD FLAT:??_7type_info@@6B@ ; emulation::gb::Component `RTTI Type Descriptor'
	DD	00H
	DB	'.?AVComponent@gb@emulation@@', 00H
_DATA	ENDS
;	COMDAT ??_R1A@?0A@EA@Component@gb@emulation@@8
rdata$r	SEGMENT
??_R1A@?0A@EA@Component@gb@emulation@@8 DD FLAT:??_R0?AVComponent@gb@emulation@@@8 ; emulation::gb::Component::`RTTI Base Class Descriptor at (0,-1,0,64)'
	DD	00H
	DD	00H
	DD	0ffffffffH
	DD	00H
	DD	040H
	DD	FLAT:??_R3Component@gb@emulation@@8
rdata$r	ENDS
;	COMDAT ??_7Cpu@gb@emulation@@6B@
CONST	SEGMENT
??_7Cpu@gb@emulation@@6B@ DD FLAT:??_R4Cpu@gb@emulation@@6B@ ; emulation::gb::Cpu::`vftable'
	DD	FLAT:?Initialize@Cpu@gb@emulation@@UAEXPAVEmu@23@@Z
	DD	FLAT:?Deinitialize@Cpu@gb@emulation@@UAEXXZ
	DD	FLAT:?Reset@Cpu@gb@emulation@@UAEXXZ
CONST	ENDS
;	COMDAT ??_7Component@gb@emulation@@6B@
CONST	SEGMENT
??_7Component@gb@emulation@@6B@ DD FLAT:??_R4Component@gb@emulation@@6B@ ; emulation::gb::Component::`vftable'
	DD	FLAT:?Initialize@Component@gb@emulation@@UAEXPAVEmu@23@@Z
	DD	FLAT:?Deinitialize@Component@gb@emulation@@UAEXXZ
	DD	FLAT:?Reset@Component@gb@emulation@@UAEXXZ
CONST	ENDS
CRT$XCU	SEGMENT
_allocator_arg$initializer$ DD FLAT:??__Eallocator_arg@std@@YAXXZ
CRT$XCU	ENDS
CRT$XCU	SEGMENT
_ignore$initializer$ DD FLAT:??__Eignore@std@@YAXXZ
CRT$XCU	ENDS
CRT$XCU	SEGMENT
__Tuple_alloc$initializer$ DD FLAT:??__E_Tuple_alloc@std@@YAXXZ
CRT$XCU	ENDS
; Function compile flags: /Odtp /RTCsu
; File d:\personal\projects\gbemu\solution\code\emulation\gb\cpu.h
;	COMDAT ??$arithmeticMode@$00$0A@$01@Cpu@gb@emulation@@AAEXAAE0@Z
_TEXT	SEGMENT
tv133 = -6						; size = 2
_this$ = -4						; size = 4
_a$ = 8							; size = 4
_b$ = 12						; size = 4
??$arithmeticMode@$00$0A@$01@Cpu@gb@emulation@@AAEXAAE0@Z PROC ; emulation::gb::Cpu::arithmeticMode<1,0,2>, COMDAT
; _this$ = ecx

; 124  :   void arithmeticMode(uint8_t& a, uint8_t& b) {

	push	ebp
	mov	ebp, esp
	sub	esp, 8
	mov	DWORD PTR [ebp-8], -858993460		; ccccccccH
	mov	DWORD PTR [ebp-4], -858993460		; ccccccccH
	mov	DWORD PTR _this$[ebp], ecx

; 125  : 	  if (mode == 0) {

	xor	eax, eax
	je	SHORT $LN5@arithmetic

; 126  :       a = reg.raw8[dest];

	mov	ecx, 1
	shl	ecx, 0
	mov	edx, DWORD PTR _a$[ebp]
	mov	eax, DWORD PTR _this$[ebp]
	mov	cl, BYTE PTR [eax+ecx+1064]
	mov	BYTE PTR [edx], cl

; 127  :       b = reg.raw8[src];

	mov	edx, 1
	imul	edx, 0
	mov	eax, DWORD PTR _b$[ebp]
	mov	ecx, DWORD PTR _this$[ebp]
	mov	dl, BYTE PTR [ecx+edx+1064]
	mov	BYTE PTR [eax], dl
	jmp	$LN6@arithmetic
$LN5@arithmetic:

; 128  :     } else if (mode == 1) {

	xor	eax, eax
	je	SHORT $LN3@arithmetic

; 129  :       a = reg.raw8[dest];

	mov	ecx, 1
	shl	ecx, 0
	mov	edx, DWORD PTR _a$[ebp]
	mov	eax, DWORD PTR _this$[ebp]
	mov	cl, BYTE PTR [eax+ecx+1064]
	mov	BYTE PTR [edx], cl

; 130  :       b = mem_->Read8(reg.raw16[src]);

	mov	edx, 2
	imul	edx, 0
	mov	eax, DWORD PTR _this$[ebp]
	movzx	ecx, WORD PTR [eax+edx+1064]
	push	ecx
	mov	edx, DWORD PTR _this$[ebp]
	mov	ecx, DWORD PTR [edx+1076]
	call	?Read8@Memory@gb@emulation@@QAEEG@Z	; emulation::gb::Memory::Read8
	mov	ecx, DWORD PTR _b$[ebp]
	mov	BYTE PTR [ecx], al
	jmp	SHORT $LN6@arithmetic
$LN3@arithmetic:

; 131  :     } else if (mode == 2) {

	mov	edx, 1
	test	edx, edx
	je	SHORT $LN6@arithmetic

; 132  :       a = reg.raw8[dest];

	mov	eax, 1
	shl	eax, 0
	mov	ecx, DWORD PTR _a$[ebp]
	mov	edx, DWORD PTR _this$[ebp]
	mov	al, BYTE PTR [edx+eax+1064]
	mov	BYTE PTR [ecx], al

; 133  :       b = mem_->Read8(reg.PC++);

	mov	ecx, DWORD PTR _this$[ebp]
	mov	dx, WORD PTR [ecx+1074]
	mov	WORD PTR tv133[ebp], dx
	mov	eax, DWORD PTR _this$[ebp]
	mov	cx, WORD PTR [eax+1074]
	add	cx, 1
	mov	edx, DWORD PTR _this$[ebp]
	mov	WORD PTR [edx+1074], cx
	movzx	eax, WORD PTR tv133[ebp]
	push	eax
	mov	ecx, DWORD PTR _this$[ebp]
	mov	ecx, DWORD PTR [ecx+1076]
	call	?Read8@Memory@gb@emulation@@QAEEG@Z	; emulation::gb::Memory::Read8
	mov	edx, DWORD PTR _b$[ebp]
	mov	BYTE PTR [edx], al
$LN6@arithmetic:

; 134  :     }
; 135  :   }

	add	esp, 8
	cmp	ebp, esp
	call	__RTC_CheckEsp
	mov	esp, ebp
	pop	ebp
	ret	8
??$arithmeticMode@$00$0A@$01@Cpu@gb@emulation@@AAEXAAE0@Z ENDP ; emulation::gb::Cpu::arithmeticMode<1,0,2>
_TEXT	ENDS
; Function compile flags: /Odtp /RTCsu
; File d:\personal\projects\gbemu\solution\code\emulation\gb\cpu.h
;	COMDAT ??$arithmeticMode@$00$00$0A@@Cpu@gb@emulation@@AAEXAAE0@Z
_TEXT	SEGMENT
tv133 = -6						; size = 2
_this$ = -4						; size = 4
_a$ = 8							; size = 4
_b$ = 12						; size = 4
??$arithmeticMode@$00$00$0A@@Cpu@gb@emulation@@AAEXAAE0@Z PROC ; emulation::gb::Cpu::arithmeticMode<1,1,0>, COMDAT
; _this$ = ecx

; 124  :   void arithmeticMode(uint8_t& a, uint8_t& b) {

	push	ebp
	mov	ebp, esp
	sub	esp, 8
	mov	DWORD PTR [ebp-8], -858993460		; ccccccccH
	mov	DWORD PTR [ebp-4], -858993460		; ccccccccH
	mov	DWORD PTR _this$[ebp], ecx

; 125  : 	  if (mode == 0) {

	mov	eax, 1
	test	eax, eax
	je	SHORT $LN5@arithmetic

; 126  :       a = reg.raw8[dest];

	mov	ecx, 1
	shl	ecx, 0
	mov	edx, DWORD PTR _a$[ebp]
	mov	eax, DWORD PTR _this$[ebp]
	mov	cl, BYTE PTR [eax+ecx+1064]
	mov	BYTE PTR [edx], cl

; 127  :       b = reg.raw8[src];

	mov	edx, 1
	shl	edx, 0
	mov	eax, DWORD PTR _b$[ebp]
	mov	ecx, DWORD PTR _this$[ebp]
	mov	dl, BYTE PTR [ecx+edx+1064]
	mov	BYTE PTR [eax], dl
	jmp	$LN6@arithmetic
$LN5@arithmetic:

; 128  :     } else if (mode == 1) {

	xor	eax, eax
	je	SHORT $LN3@arithmetic

; 129  :       a = reg.raw8[dest];

	mov	ecx, 1
	shl	ecx, 0
	mov	edx, DWORD PTR _a$[ebp]
	mov	eax, DWORD PTR _this$[ebp]
	mov	cl, BYTE PTR [eax+ecx+1064]
	mov	BYTE PTR [edx], cl

; 130  :       b = mem_->Read8(reg.raw16[src]);

	mov	edx, 2
	shl	edx, 0
	mov	eax, DWORD PTR _this$[ebp]
	movzx	ecx, WORD PTR [eax+edx+1064]
	push	ecx
	mov	edx, DWORD PTR _this$[ebp]
	mov	ecx, DWORD PTR [edx+1076]
	call	?Read8@Memory@gb@emulation@@QAEEG@Z	; emulation::gb::Memory::Read8
	mov	ecx, DWORD PTR _b$[ebp]
	mov	BYTE PTR [ecx], al
	jmp	SHORT $LN6@arithmetic
$LN3@arithmetic:

; 131  :     } else if (mode == 2) {

	xor	edx, edx
	je	SHORT $LN6@arithmetic

; 132  :       a = reg.raw8[dest];

	mov	eax, 1
	shl	eax, 0
	mov	ecx, DWORD PTR _a$[ebp]
	mov	edx, DWORD PTR _this$[ebp]
	mov	al, BYTE PTR [edx+eax+1064]
	mov	BYTE PTR [ecx], al

; 133  :       b = mem_->Read8(reg.PC++);

	mov	ecx, DWORD PTR _this$[ebp]
	mov	dx, WORD PTR [ecx+1074]
	mov	WORD PTR tv133[ebp], dx
	mov	eax, DWORD PTR _this$[ebp]
	mov	cx, WORD PTR [eax+1074]
	add	cx, 1
	mov	edx, DWORD PTR _this$[ebp]
	mov	WORD PTR [edx+1074], cx
	movzx	eax, WORD PTR tv133[ebp]
	push	eax
	mov	ecx, DWORD PTR _this$[ebp]
	mov	ecx, DWORD PTR [ecx+1076]
	call	?Read8@Memory@gb@emulation@@QAEEG@Z	; emulation::gb::Memory::Read8
	mov	edx, DWORD PTR _b$[ebp]
	mov	BYTE PTR [edx], al
$LN6@arithmetic:

; 134  :     }
; 135  :   }

	add	esp, 8
	cmp	ebp, esp
	call	__RTC_CheckEsp
	mov	esp, ebp
	pop	ebp
	ret	8
??$arithmeticMode@$00$00$0A@@Cpu@gb@emulation@@AAEXAAE0@Z ENDP ; emulation::gb::Cpu::arithmeticMode<1,1,0>
_TEXT	ENDS
; Function compile flags: /Odtp /RTCsu
; File d:\personal\projects\gbemu\solution\code\emulation\gb\cpu.h
;	COMDAT ??$arithmeticMode@$00$02$00@Cpu@gb@emulation@@AAEXAAE0@Z
_TEXT	SEGMENT
tv133 = -6						; size = 2
_this$ = -4						; size = 4
_a$ = 8							; size = 4
_b$ = 12						; size = 4
??$arithmeticMode@$00$02$00@Cpu@gb@emulation@@AAEXAAE0@Z PROC ; emulation::gb::Cpu::arithmeticMode<1,3,1>, COMDAT
; _this$ = ecx

; 124  :   void arithmeticMode(uint8_t& a, uint8_t& b) {

	push	ebp
	mov	ebp, esp
	sub	esp, 8
	mov	DWORD PTR [ebp-8], -858993460		; ccccccccH
	mov	DWORD PTR [ebp-4], -858993460		; ccccccccH
	mov	DWORD PTR _this$[ebp], ecx

; 125  : 	  if (mode == 0) {

	xor	eax, eax
	je	SHORT $LN5@arithmetic

; 126  :       a = reg.raw8[dest];

	mov	ecx, 1
	shl	ecx, 0
	mov	edx, DWORD PTR _a$[ebp]
	mov	eax, DWORD PTR _this$[ebp]
	mov	cl, BYTE PTR [eax+ecx+1064]
	mov	BYTE PTR [edx], cl

; 127  :       b = reg.raw8[src];

	mov	edx, 1
	imul	edx, 3
	mov	eax, DWORD PTR _b$[ebp]
	mov	ecx, DWORD PTR _this$[ebp]
	mov	dl, BYTE PTR [ecx+edx+1064]
	mov	BYTE PTR [eax], dl
	jmp	$LN6@arithmetic
$LN5@arithmetic:

; 128  :     } else if (mode == 1) {

	mov	eax, 1
	test	eax, eax
	je	SHORT $LN3@arithmetic

; 129  :       a = reg.raw8[dest];

	mov	ecx, 1
	shl	ecx, 0
	mov	edx, DWORD PTR _a$[ebp]
	mov	eax, DWORD PTR _this$[ebp]
	mov	cl, BYTE PTR [eax+ecx+1064]
	mov	BYTE PTR [edx], cl

; 130  :       b = mem_->Read8(reg.raw16[src]);

	mov	edx, 2
	imul	edx, 3
	mov	eax, DWORD PTR _this$[ebp]
	movzx	ecx, WORD PTR [eax+edx+1064]
	push	ecx
	mov	edx, DWORD PTR _this$[ebp]
	mov	ecx, DWORD PTR [edx+1076]
	call	?Read8@Memory@gb@emulation@@QAEEG@Z	; emulation::gb::Memory::Read8
	mov	ecx, DWORD PTR _b$[ebp]
	mov	BYTE PTR [ecx], al
	jmp	SHORT $LN6@arithmetic
$LN3@arithmetic:

; 131  :     } else if (mode == 2) {

	xor	edx, edx
	je	SHORT $LN6@arithmetic

; 132  :       a = reg.raw8[dest];

	mov	eax, 1
	shl	eax, 0
	mov	ecx, DWORD PTR _a$[ebp]
	mov	edx, DWORD PTR _this$[ebp]
	mov	al, BYTE PTR [edx+eax+1064]
	mov	BYTE PTR [ecx], al

; 133  :       b = mem_->Read8(reg.PC++);

	mov	ecx, DWORD PTR _this$[ebp]
	mov	dx, WORD PTR [ecx+1074]
	mov	WORD PTR tv133[ebp], dx
	mov	eax, DWORD PTR _this$[ebp]
	mov	cx, WORD PTR [eax+1074]
	add	cx, 1
	mov	edx, DWORD PTR _this$[ebp]
	mov	WORD PTR [edx+1074], cx
	movzx	eax, WORD PTR tv133[ebp]
	push	eax
	mov	ecx, DWORD PTR _this$[ebp]
	mov	ecx, DWORD PTR [ecx+1076]
	call	?Read8@Memory@gb@emulation@@QAEEG@Z	; emulation::gb::Memory::Read8
	mov	edx, DWORD PTR _b$[ebp]
	mov	BYTE PTR [edx], al
$LN6@arithmetic:

; 134  :     }
; 135  :   }

	add	esp, 8
	cmp	ebp, esp
	call	__RTC_CheckEsp
	mov	esp, ebp
	pop	ebp
	ret	8
??$arithmeticMode@$00$02$00@Cpu@gb@emulation@@AAEXAAE0@Z ENDP ; emulation::gb::Cpu::arithmeticMode<1,3,1>
_TEXT	ENDS
; Function compile flags: /Odtp /RTCsu
; File d:\personal\projects\gbemu\solution\code\emulation\gb\cpu.h
;	COMDAT ??$arithmeticMode@$00$05$0A@@Cpu@gb@emulation@@AAEXAAE0@Z
_TEXT	SEGMENT
tv133 = -6						; size = 2
_this$ = -4						; size = 4
_a$ = 8							; size = 4
_b$ = 12						; size = 4
??$arithmeticMode@$00$05$0A@@Cpu@gb@emulation@@AAEXAAE0@Z PROC ; emulation::gb::Cpu::arithmeticMode<1,6,0>, COMDAT
; _this$ = ecx

; 124  :   void arithmeticMode(uint8_t& a, uint8_t& b) {

	push	ebp
	mov	ebp, esp
	sub	esp, 8
	mov	DWORD PTR [ebp-8], -858993460		; ccccccccH
	mov	DWORD PTR [ebp-4], -858993460		; ccccccccH
	mov	DWORD PTR _this$[ebp], ecx

; 125  : 	  if (mode == 0) {

	mov	eax, 1
	test	eax, eax
	je	SHORT $LN5@arithmetic

; 126  :       a = reg.raw8[dest];

	mov	ecx, 1
	shl	ecx, 0
	mov	edx, DWORD PTR _a$[ebp]
	mov	eax, DWORD PTR _this$[ebp]
	mov	cl, BYTE PTR [eax+ecx+1064]
	mov	BYTE PTR [edx], cl

; 127  :       b = reg.raw8[src];

	mov	edx, 1
	imul	edx, 6
	mov	eax, DWORD PTR _b$[ebp]
	mov	ecx, DWORD PTR _this$[ebp]
	mov	dl, BYTE PTR [ecx+edx+1064]
	mov	BYTE PTR [eax], dl
	jmp	$LN6@arithmetic
$LN5@arithmetic:

; 128  :     } else if (mode == 1) {

	xor	eax, eax
	je	SHORT $LN3@arithmetic

; 129  :       a = reg.raw8[dest];

	mov	ecx, 1
	shl	ecx, 0
	mov	edx, DWORD PTR _a$[ebp]
	mov	eax, DWORD PTR _this$[ebp]
	mov	cl, BYTE PTR [eax+ecx+1064]
	mov	BYTE PTR [edx], cl

; 130  :       b = mem_->Read8(reg.raw16[src]);

	mov	edx, 2
	imul	edx, 6
	mov	eax, DWORD PTR _this$[ebp]
	movzx	ecx, WORD PTR [eax+edx+1064]
	push	ecx
	mov	edx, DWORD PTR _this$[ebp]
	mov	ecx, DWORD PTR [edx+1076]
	call	?Read8@Memory@gb@emulation@@QAEEG@Z	; emulation::gb::Memory::Read8
	mov	ecx, DWORD PTR _b$[ebp]
	mov	BYTE PTR [ecx], al
	jmp	SHORT $LN6@arithmetic
$LN3@arithmetic:

; 131  :     } else if (mode == 2) {

	xor	edx, edx
	je	SHORT $LN6@arithmetic

; 132  :       a = reg.raw8[dest];

	mov	eax, 1
	shl	eax, 0
	mov	ecx, DWORD PTR _a$[ebp]
	mov	edx, DWORD PTR _this$[ebp]
	mov	al, BYTE PTR [edx+eax+1064]
	mov	BYTE PTR [ecx], al

; 133  :       b = mem_->Read8(reg.PC++);

	mov	ecx, DWORD PTR _this$[ebp]
	mov	dx, WORD PTR [ecx+1074]
	mov	WORD PTR tv133[ebp], dx
	mov	eax, DWORD PTR _this$[ebp]
	mov	cx, WORD PTR [eax+1074]
	add	cx, 1
	mov	edx, DWORD PTR _this$[ebp]
	mov	WORD PTR [edx+1074], cx
	movzx	eax, WORD PTR tv133[ebp]
	push	eax
	mov	ecx, DWORD PTR _this$[ebp]
	mov	ecx, DWORD PTR [ecx+1076]
	call	?Read8@Memory@gb@emulation@@QAEEG@Z	; emulation::gb::Memory::Read8
	mov	edx, DWORD PTR _b$[ebp]
	mov	BYTE PTR [edx], al
$LN6@arithmetic:

; 134  :     }
; 135  :   }

	add	esp, 8
	cmp	ebp, esp
	call	__RTC_CheckEsp
	mov	esp, ebp
	pop	ebp
	ret	8
??$arithmeticMode@$00$05$0A@@Cpu@gb@emulation@@AAEXAAE0@Z ENDP ; emulation::gb::Cpu::arithmeticMode<1,6,0>
_TEXT	ENDS
; Function compile flags: /Odtp /RTCsu
; File d:\personal\projects\gbemu\solution\code\emulation\gb\cpu.h
;	COMDAT ??$arithmeticMode@$00$06$0A@@Cpu@gb@emulation@@AAEXAAE0@Z
_TEXT	SEGMENT
tv133 = -6						; size = 2
_this$ = -4						; size = 4
_a$ = 8							; size = 4
_b$ = 12						; size = 4
??$arithmeticMode@$00$06$0A@@Cpu@gb@emulation@@AAEXAAE0@Z PROC ; emulation::gb::Cpu::arithmeticMode<1,7,0>, COMDAT
; _this$ = ecx

; 124  :   void arithmeticMode(uint8_t& a, uint8_t& b) {

	push	ebp
	mov	ebp, esp
	sub	esp, 8
	mov	DWORD PTR [ebp-8], -858993460		; ccccccccH
	mov	DWORD PTR [ebp-4], -858993460		; ccccccccH
	mov	DWORD PTR _this$[ebp], ecx

; 125  : 	  if (mode == 0) {

	mov	eax, 1
	test	eax, eax
	je	SHORT $LN5@arithmetic

; 126  :       a = reg.raw8[dest];

	mov	ecx, 1
	shl	ecx, 0
	mov	edx, DWORD PTR _a$[ebp]
	mov	eax, DWORD PTR _this$[ebp]
	mov	cl, BYTE PTR [eax+ecx+1064]
	mov	BYTE PTR [edx], cl

; 127  :       b = reg.raw8[src];

	mov	edx, 1
	imul	edx, 7
	mov	eax, DWORD PTR _b$[ebp]
	mov	ecx, DWORD PTR _this$[ebp]
	mov	dl, BYTE PTR [ecx+edx+1064]
	mov	BYTE PTR [eax], dl
	jmp	$LN6@arithmetic
$LN5@arithmetic:

; 128  :     } else if (mode == 1) {

	xor	eax, eax
	je	SHORT $LN3@arithmetic

; 129  :       a = reg.raw8[dest];

	mov	ecx, 1
	shl	ecx, 0
	mov	edx, DWORD PTR _a$[ebp]
	mov	eax, DWORD PTR _this$[ebp]
	mov	cl, BYTE PTR [eax+ecx+1064]
	mov	BYTE PTR [edx], cl

; 130  :       b = mem_->Read8(reg.raw16[src]);

	mov	edx, 2
	imul	edx, 7
	mov	eax, DWORD PTR _this$[ebp]
	movzx	ecx, WORD PTR [eax+edx+1064]
	push	ecx
	mov	edx, DWORD PTR _this$[ebp]
	mov	ecx, DWORD PTR [edx+1076]
	call	?Read8@Memory@gb@emulation@@QAEEG@Z	; emulation::gb::Memory::Read8
	mov	ecx, DWORD PTR _b$[ebp]
	mov	BYTE PTR [ecx], al
	jmp	SHORT $LN6@arithmetic
$LN3@arithmetic:

; 131  :     } else if (mode == 2) {

	xor	edx, edx
	je	SHORT $LN6@arithmetic

; 132  :       a = reg.raw8[dest];

	mov	eax, 1
	shl	eax, 0
	mov	ecx, DWORD PTR _a$[ebp]
	mov	edx, DWORD PTR _this$[ebp]
	mov	al, BYTE PTR [edx+eax+1064]
	mov	BYTE PTR [ecx], al

; 133  :       b = mem_->Read8(reg.PC++);

	mov	ecx, DWORD PTR _this$[ebp]
	mov	dx, WORD PTR [ecx+1074]
	mov	WORD PTR tv133[ebp], dx
	mov	eax, DWORD PTR _this$[ebp]
	mov	cx, WORD PTR [eax+1074]
	add	cx, 1
	mov	edx, DWORD PTR _this$[ebp]
	mov	WORD PTR [edx+1074], cx
	movzx	eax, WORD PTR tv133[ebp]
	push	eax
	mov	ecx, DWORD PTR _this$[ebp]
	mov	ecx, DWORD PTR [ecx+1076]
	call	?Read8@Memory@gb@emulation@@QAEEG@Z	; emulation::gb::Memory::Read8
	mov	edx, DWORD PTR _b$[ebp]
	mov	BYTE PTR [edx], al
$LN6@arithmetic:

; 134  :     }
; 135  :   }

	add	esp, 8
	cmp	ebp, esp
	call	__RTC_CheckEsp
	mov	esp, ebp
	pop	ebp
	ret	8
??$arithmeticMode@$00$06$0A@@Cpu@gb@emulation@@AAEXAAE0@Z ENDP ; emulation::gb::Cpu::arithmeticMode<1,7,0>
_TEXT	ENDS
; Function compile flags: /Odtp /RTCsu
; File d:\personal\projects\gbemu\solution\code\emulation\gb\cpu.h
;	COMDAT ??$arithmeticMode@$00$03$0A@@Cpu@gb@emulation@@AAEXAAE0@Z
_TEXT	SEGMENT
tv133 = -6						; size = 2
_this$ = -4						; size = 4
_a$ = 8							; size = 4
_b$ = 12						; size = 4
??$arithmeticMode@$00$03$0A@@Cpu@gb@emulation@@AAEXAAE0@Z PROC ; emulation::gb::Cpu::arithmeticMode<1,4,0>, COMDAT
; _this$ = ecx

; 124  :   void arithmeticMode(uint8_t& a, uint8_t& b) {

	push	ebp
	mov	ebp, esp
	sub	esp, 8
	mov	DWORD PTR [ebp-8], -858993460		; ccccccccH
	mov	DWORD PTR [ebp-4], -858993460		; ccccccccH
	mov	DWORD PTR _this$[ebp], ecx

; 125  : 	  if (mode == 0) {

	mov	eax, 1
	test	eax, eax
	je	SHORT $LN5@arithmetic

; 126  :       a = reg.raw8[dest];

	mov	ecx, 1
	shl	ecx, 0
	mov	edx, DWORD PTR _a$[ebp]
	mov	eax, DWORD PTR _this$[ebp]
	mov	cl, BYTE PTR [eax+ecx+1064]
	mov	BYTE PTR [edx], cl

; 127  :       b = reg.raw8[src];

	mov	edx, 1
	shl	edx, 2
	mov	eax, DWORD PTR _b$[ebp]
	mov	ecx, DWORD PTR _this$[ebp]
	mov	dl, BYTE PTR [ecx+edx+1064]
	mov	BYTE PTR [eax], dl
	jmp	$LN6@arithmetic
$LN5@arithmetic:

; 128  :     } else if (mode == 1) {

	xor	eax, eax
	je	SHORT $LN3@arithmetic

; 129  :       a = reg.raw8[dest];

	mov	ecx, 1
	shl	ecx, 0
	mov	edx, DWORD PTR _a$[ebp]
	mov	eax, DWORD PTR _this$[ebp]
	mov	cl, BYTE PTR [eax+ecx+1064]
	mov	BYTE PTR [edx], cl

; 130  :       b = mem_->Read8(reg.raw16[src]);

	mov	edx, 2
	shl	edx, 2
	mov	eax, DWORD PTR _this$[ebp]
	movzx	ecx, WORD PTR [eax+edx+1064]
	push	ecx
	mov	edx, DWORD PTR _this$[ebp]
	mov	ecx, DWORD PTR [edx+1076]
	call	?Read8@Memory@gb@emulation@@QAEEG@Z	; emulation::gb::Memory::Read8
	mov	ecx, DWORD PTR _b$[ebp]
	mov	BYTE PTR [ecx], al
	jmp	SHORT $LN6@arithmetic
$LN3@arithmetic:

; 131  :     } else if (mode == 2) {

	xor	edx, edx
	je	SHORT $LN6@arithmetic

; 132  :       a = reg.raw8[dest];

	mov	eax, 1
	shl	eax, 0
	mov	ecx, DWORD PTR _a$[ebp]
	mov	edx, DWORD PTR _this$[ebp]
	mov	al, BYTE PTR [edx+eax+1064]
	mov	BYTE PTR [ecx], al

; 133  :       b = mem_->Read8(reg.PC++);

	mov	ecx, DWORD PTR _this$[ebp]
	mov	dx, WORD PTR [ecx+1074]
	mov	WORD PTR tv133[ebp], dx
	mov	eax, DWORD PTR _this$[ebp]
	mov	cx, WORD PTR [eax+1074]
	add	cx, 1
	mov	edx, DWORD PTR _this$[ebp]
	mov	WORD PTR [edx+1074], cx
	movzx	eax, WORD PTR tv133[ebp]
	push	eax
	mov	ecx, DWORD PTR _this$[ebp]
	mov	ecx, DWORD PTR [ecx+1076]
	call	?Read8@Memory@gb@emulation@@QAEEG@Z	; emulation::gb::Memory::Read8
	mov	edx, DWORD PTR _b$[ebp]
	mov	BYTE PTR [edx], al
$LN6@arithmetic:

; 134  :     }
; 135  :   }

	add	esp, 8
	cmp	ebp, esp
	call	__RTC_CheckEsp
	mov	esp, ebp
	pop	ebp
	ret	8
??$arithmeticMode@$00$03$0A@@Cpu@gb@emulation@@AAEXAAE0@Z ENDP ; emulation::gb::Cpu::arithmeticMode<1,4,0>
_TEXT	ENDS
; Function compile flags: /Odtp /RTCsu
; File d:\personal\projects\gbemu\solution\code\emulation\gb\cpu.h
;	COMDAT ??$arithmeticMode@$00$04$0A@@Cpu@gb@emulation@@AAEXAAE0@Z
_TEXT	SEGMENT
tv133 = -6						; size = 2
_this$ = -4						; size = 4
_a$ = 8							; size = 4
_b$ = 12						; size = 4
??$arithmeticMode@$00$04$0A@@Cpu@gb@emulation@@AAEXAAE0@Z PROC ; emulation::gb::Cpu::arithmeticMode<1,5,0>, COMDAT
; _this$ = ecx

; 124  :   void arithmeticMode(uint8_t& a, uint8_t& b) {

	push	ebp
	mov	ebp, esp
	sub	esp, 8
	mov	DWORD PTR [ebp-8], -858993460		; ccccccccH
	mov	DWORD PTR [ebp-4], -858993460		; ccccccccH
	mov	DWORD PTR _this$[ebp], ecx

; 125  : 	  if (mode == 0) {

	mov	eax, 1
	test	eax, eax
	je	SHORT $LN5@arithmetic

; 126  :       a = reg.raw8[dest];

	mov	ecx, 1
	shl	ecx, 0
	mov	edx, DWORD PTR _a$[ebp]
	mov	eax, DWORD PTR _this$[ebp]
	mov	cl, BYTE PTR [eax+ecx+1064]
	mov	BYTE PTR [edx], cl

; 127  :       b = reg.raw8[src];

	mov	edx, 1
	imul	edx, 5
	mov	eax, DWORD PTR _b$[ebp]
	mov	ecx, DWORD PTR _this$[ebp]
	mov	dl, BYTE PTR [ecx+edx+1064]
	mov	BYTE PTR [eax], dl
	jmp	$LN6@arithmetic
$LN5@arithmetic:

; 128  :     } else if (mode == 1) {

	xor	eax, eax
	je	SHORT $LN3@arithmetic

; 129  :       a = reg.raw8[dest];

	mov	ecx, 1
	shl	ecx, 0
	mov	edx, DWORD PTR _a$[ebp]
	mov	eax, DWORD PTR _this$[ebp]
	mov	cl, BYTE PTR [eax+ecx+1064]
	mov	BYTE PTR [edx], cl

; 130  :       b = mem_->Read8(reg.raw16[src]);

	mov	edx, 2
	imul	edx, 5
	mov	eax, DWORD PTR _this$[ebp]
	movzx	ecx, WORD PTR [eax+edx+1064]
	push	ecx
	mov	edx, DWORD PTR _this$[ebp]
	mov	ecx, DWORD PTR [edx+1076]
	call	?Read8@Memory@gb@emulation@@QAEEG@Z	; emulation::gb::Memory::Read8
	mov	ecx, DWORD PTR _b$[ebp]
	mov	BYTE PTR [ecx], al
	jmp	SHORT $LN6@arithmetic
$LN3@arithmetic:

; 131  :     } else if (mode == 2) {

	xor	edx, edx
	je	SHORT $LN6@arithmetic

; 132  :       a = reg.raw8[dest];

	mov	eax, 1
	shl	eax, 0
	mov	ecx, DWORD PTR _a$[ebp]
	mov	edx, DWORD PTR _this$[ebp]
	mov	al, BYTE PTR [edx+eax+1064]
	mov	BYTE PTR [ecx], al

; 133  :       b = mem_->Read8(reg.PC++);

	mov	ecx, DWORD PTR _this$[ebp]
	mov	dx, WORD PTR [ecx+1074]
	mov	WORD PTR tv133[ebp], dx
	mov	eax, DWORD PTR _this$[ebp]
	mov	cx, WORD PTR [eax+1074]
	add	cx, 1
	mov	edx, DWORD PTR _this$[ebp]
	mov	WORD PTR [edx+1074], cx
	movzx	eax, WORD PTR tv133[ebp]
	push	eax
	mov	ecx, DWORD PTR _this$[ebp]
	mov	ecx, DWORD PTR [ecx+1076]
	call	?Read8@Memory@gb@emulation@@QAEEG@Z	; emulation::gb::Memory::Read8
	mov	edx, DWORD PTR _b$[ebp]
	mov	BYTE PTR [edx], al
$LN6@arithmetic:

; 134  :     }
; 135  :   }

	add	esp, 8
	cmp	ebp, esp
	call	__RTC_CheckEsp
	mov	esp, ebp
	pop	ebp
	ret	8
??$arithmeticMode@$00$04$0A@@Cpu@gb@emulation@@AAEXAAE0@Z ENDP ; emulation::gb::Cpu::arithmeticMode<1,5,0>
_TEXT	ENDS
; Function compile flags: /Odtp /RTCsu
; File d:\personal\projects\gbemu\solution\code\emulation\gb\cpu.h
;	COMDAT ??$arithmeticMode@$00$01$0A@@Cpu@gb@emulation@@AAEXAAE0@Z
_TEXT	SEGMENT
tv133 = -6						; size = 2
_this$ = -4						; size = 4
_a$ = 8							; size = 4
_b$ = 12						; size = 4
??$arithmeticMode@$00$01$0A@@Cpu@gb@emulation@@AAEXAAE0@Z PROC ; emulation::gb::Cpu::arithmeticMode<1,2,0>, COMDAT
; _this$ = ecx

; 124  :   void arithmeticMode(uint8_t& a, uint8_t& b) {

	push	ebp
	mov	ebp, esp
	sub	esp, 8
	mov	DWORD PTR [ebp-8], -858993460		; ccccccccH
	mov	DWORD PTR [ebp-4], -858993460		; ccccccccH
	mov	DWORD PTR _this$[ebp], ecx

; 125  : 	  if (mode == 0) {

	mov	eax, 1
	test	eax, eax
	je	SHORT $LN5@arithmetic

; 126  :       a = reg.raw8[dest];

	mov	ecx, 1
	shl	ecx, 0
	mov	edx, DWORD PTR _a$[ebp]
	mov	eax, DWORD PTR _this$[ebp]
	mov	cl, BYTE PTR [eax+ecx+1064]
	mov	BYTE PTR [edx], cl

; 127  :       b = reg.raw8[src];

	mov	edx, 1
	shl	edx, 1
	mov	eax, DWORD PTR _b$[ebp]
	mov	ecx, DWORD PTR _this$[ebp]
	mov	dl, BYTE PTR [ecx+edx+1064]
	mov	BYTE PTR [eax], dl
	jmp	$LN6@arithmetic
$LN5@arithmetic:

; 128  :     } else if (mode == 1) {

	xor	eax, eax
	je	SHORT $LN3@arithmetic

; 129  :       a = reg.raw8[dest];

	mov	ecx, 1
	shl	ecx, 0
	mov	edx, DWORD PTR _a$[ebp]
	mov	eax, DWORD PTR _this$[ebp]
	mov	cl, BYTE PTR [eax+ecx+1064]
	mov	BYTE PTR [edx], cl

; 130  :       b = mem_->Read8(reg.raw16[src]);

	mov	edx, 2
	shl	edx, 1
	mov	eax, DWORD PTR _this$[ebp]
	movzx	ecx, WORD PTR [eax+edx+1064]
	push	ecx
	mov	edx, DWORD PTR _this$[ebp]
	mov	ecx, DWORD PTR [edx+1076]
	call	?Read8@Memory@gb@emulation@@QAEEG@Z	; emulation::gb::Memory::Read8
	mov	ecx, DWORD PTR _b$[ebp]
	mov	BYTE PTR [ecx], al
	jmp	SHORT $LN6@arithmetic
$LN3@arithmetic:

; 131  :     } else if (mode == 2) {

	xor	edx, edx
	je	SHORT $LN6@arithmetic

; 132  :       a = reg.raw8[dest];

	mov	eax, 1
	shl	eax, 0
	mov	ecx, DWORD PTR _a$[ebp]
	mov	edx, DWORD PTR _this$[ebp]
	mov	al, BYTE PTR [edx+eax+1064]
	mov	BYTE PTR [ecx], al

; 133  :       b = mem_->Read8(reg.PC++);

	mov	ecx, DWORD PTR _this$[ebp]
	mov	dx, WORD PTR [ecx+1074]
	mov	WORD PTR tv133[ebp], dx
	mov	eax, DWORD PTR _this$[ebp]
	mov	cx, WORD PTR [eax+1074]
	add	cx, 1
	mov	edx, DWORD PTR _this$[ebp]
	mov	WORD PTR [edx+1074], cx
	movzx	eax, WORD PTR tv133[ebp]
	push	eax
	mov	ecx, DWORD PTR _this$[ebp]
	mov	ecx, DWORD PTR [ecx+1076]
	call	?Read8@Memory@gb@emulation@@QAEEG@Z	; emulation::gb::Memory::Read8
	mov	edx, DWORD PTR _b$[ebp]
	mov	BYTE PTR [edx], al
$LN6@arithmetic:

; 134  :     }
; 135  :   }

	add	esp, 8
	cmp	ebp, esp
	call	__RTC_CheckEsp
	mov	esp, ebp
	pop	ebp
	ret	8
??$arithmeticMode@$00$01$0A@@Cpu@gb@emulation@@AAEXAAE0@Z ENDP ; emulation::gb::Cpu::arithmeticMode<1,2,0>
_TEXT	ENDS
; Function compile flags: /Odtp /RTCsu
; File d:\personal\projects\gbemu\solution\code\emulation\gb\cpu.h
;	COMDAT ??$arithmeticMode@$00$02$0A@@Cpu@gb@emulation@@AAEXAAE0@Z
_TEXT	SEGMENT
tv133 = -6						; size = 2
_this$ = -4						; size = 4
_a$ = 8							; size = 4
_b$ = 12						; size = 4
??$arithmeticMode@$00$02$0A@@Cpu@gb@emulation@@AAEXAAE0@Z PROC ; emulation::gb::Cpu::arithmeticMode<1,3,0>, COMDAT
; _this$ = ecx

; 124  :   void arithmeticMode(uint8_t& a, uint8_t& b) {

	push	ebp
	mov	ebp, esp
	sub	esp, 8
	mov	DWORD PTR [ebp-8], -858993460		; ccccccccH
	mov	DWORD PTR [ebp-4], -858993460		; ccccccccH
	mov	DWORD PTR _this$[ebp], ecx

; 125  : 	  if (mode == 0) {

	mov	eax, 1
	test	eax, eax
	je	SHORT $LN5@arithmetic

; 126  :       a = reg.raw8[dest];

	mov	ecx, 1
	shl	ecx, 0
	mov	edx, DWORD PTR _a$[ebp]
	mov	eax, DWORD PTR _this$[ebp]
	mov	cl, BYTE PTR [eax+ecx+1064]
	mov	BYTE PTR [edx], cl

; 127  :       b = reg.raw8[src];

	mov	edx, 1
	imul	edx, 3
	mov	eax, DWORD PTR _b$[ebp]
	mov	ecx, DWORD PTR _this$[ebp]
	mov	dl, BYTE PTR [ecx+edx+1064]
	mov	BYTE PTR [eax], dl
	jmp	$LN6@arithmetic
$LN5@arithmetic:

; 128  :     } else if (mode == 1) {

	xor	eax, eax
	je	SHORT $LN3@arithmetic

; 129  :       a = reg.raw8[dest];

	mov	ecx, 1
	shl	ecx, 0
	mov	edx, DWORD PTR _a$[ebp]
	mov	eax, DWORD PTR _this$[ebp]
	mov	cl, BYTE PTR [eax+ecx+1064]
	mov	BYTE PTR [edx], cl

; 130  :       b = mem_->Read8(reg.raw16[src]);

	mov	edx, 2
	imul	edx, 3
	mov	eax, DWORD PTR _this$[ebp]
	movzx	ecx, WORD PTR [eax+edx+1064]
	push	ecx
	mov	edx, DWORD PTR _this$[ebp]
	mov	ecx, DWORD PTR [edx+1076]
	call	?Read8@Memory@gb@emulation@@QAEEG@Z	; emulation::gb::Memory::Read8
	mov	ecx, DWORD PTR _b$[ebp]
	mov	BYTE PTR [ecx], al
	jmp	SHORT $LN6@arithmetic
$LN3@arithmetic:

; 131  :     } else if (mode == 2) {

	xor	edx, edx
	je	SHORT $LN6@arithmetic

; 132  :       a = reg.raw8[dest];

	mov	eax, 1
	shl	eax, 0
	mov	ecx, DWORD PTR _a$[ebp]
	mov	edx, DWORD PTR _this$[ebp]
	mov	al, BYTE PTR [edx+eax+1064]
	mov	BYTE PTR [ecx], al

; 133  :       b = mem_->Read8(reg.PC++);

	mov	ecx, DWORD PTR _this$[ebp]
	mov	dx, WORD PTR [ecx+1074]
	mov	WORD PTR tv133[ebp], dx
	mov	eax, DWORD PTR _this$[ebp]
	mov	cx, WORD PTR [eax+1074]
	add	cx, 1
	mov	edx, DWORD PTR _this$[ebp]
	mov	WORD PTR [edx+1074], cx
	movzx	eax, WORD PTR tv133[ebp]
	push	eax
	mov	ecx, DWORD PTR _this$[ebp]
	mov	ecx, DWORD PTR [ecx+1076]
	call	?Read8@Memory@gb@emulation@@QAEEG@Z	; emulation::gb::Memory::Read8
	mov	edx, DWORD PTR _b$[ebp]
	mov	BYTE PTR [edx], al
$LN6@arithmetic:

; 134  :     }
; 135  :   }

	add	esp, 8
	cmp	ebp, esp
	call	__RTC_CheckEsp
	mov	esp, ebp
	pop	ebp
	ret	8
??$arithmeticMode@$00$02$0A@@Cpu@gb@emulation@@AAEXAAE0@Z ENDP ; emulation::gb::Cpu::arithmeticMode<1,3,0>
_TEXT	ENDS
; Function compile flags: /Odtp /RTCsu
; File d:\personal\projects\gbemu\solution\code\emulation\gb\cpu.cpp
_TEXT	SEGMENT
_this$ = -4						; size = 4
_r$ = 8							; size = 1
??R<lambda_08bfd30db2c73e418a55b8072ee85de7>@@QBEXE@Z PROC ; <lambda_08bfd30db2c73e418a55b8072ee85de7>::operator()
; _this$ = ecx

; 656  :   auto setr = [=](uint8_t r) {

	push	ebp
	mov	ebp, esp
	push	ecx
	mov	DWORD PTR [ebp-4], -858993460		; ccccccccH
	mov	DWORD PTR _this$[ebp], ecx

; 657  :     if ((code&0x7) != 6) {

	mov	eax, DWORD PTR _this$[ebp]
	movzx	ecx, BYTE PTR [eax]
	and	ecx, 7
	cmp	ecx, 6
	je	SHORT $LN2@operator

; 658  :       reg.raw8[reg_index[code&0x7]] = r;

	mov	edx, DWORD PTR _this$[ebp]
	mov	eax, DWORD PTR [edx+4]
	mov	ecx, DWORD PTR _this$[ebp]
	movzx	edx, BYTE PTR [ecx]
	and	edx, 7
	mov	ecx, DWORD PTR _reg_index[edx*4]
	mov	dl, BYTE PTR _r$[ebp]
	mov	BYTE PTR [eax+ecx+1064], dl

; 659  :     } else {

	jmp	SHORT $LN3@operator
$LN2@operator:

; 660  :       mem_->Write8(reg.HL,r);

	movzx	eax, BYTE PTR _r$[ebp]
	push	eax
	mov	ecx, DWORD PTR _this$[ebp]
	mov	edx, DWORD PTR [ecx+4]
	movzx	eax, WORD PTR [edx+1070]
	push	eax
	mov	ecx, DWORD PTR _this$[ebp]
	mov	edx, DWORD PTR [ecx+4]
	mov	ecx, DWORD PTR [edx+1076]
	call	?Write8@Memory@gb@emulation@@QAEXGE@Z	; emulation::gb::Memory::Write8
$LN3@operator:

; 661  :     }
; 662  :   };

	add	esp, 4
	cmp	ebp, esp
	call	__RTC_CheckEsp
	mov	esp, ebp
	pop	ebp
	ret	4
??R<lambda_08bfd30db2c73e418a55b8072ee85de7>@@QBEXE@Z ENDP ; <lambda_08bfd30db2c73e418a55b8072ee85de7>::operator()
_TEXT	ENDS
; Function compile flags: /Odtp /RTCsu
; File d:\personal\projects\gbemu\solution\code\emulation\gb\cpu.cpp
_TEXT	SEGMENT
_this$ = -4						; size = 4
__Code$ = 8						; size = 4
__This$ = 12						; size = 4
??0<lambda_08bfd30db2c73e418a55b8072ee85de7>@@QAE@ABEPAVCpu@gb@emulation@@@Z PROC ; <lambda_08bfd30db2c73e418a55b8072ee85de7>::<lambda_08bfd30db2c73e418a55b8072ee85de7>
; _this$ = ecx

; 662  :   };

	push	ebp
	mov	ebp, esp
	push	ecx
	mov	DWORD PTR [ebp-4], -858993460		; ccccccccH
	mov	DWORD PTR _this$[ebp], ecx
	mov	eax, DWORD PTR _this$[ebp]
	mov	ecx, DWORD PTR __Code$[ebp]
	mov	dl, BYTE PTR [ecx]
	mov	BYTE PTR [eax], dl
	mov	eax, DWORD PTR _this$[ebp]
	mov	ecx, DWORD PTR __This$[ebp]
	mov	DWORD PTR [eax+4], ecx
	mov	eax, DWORD PTR _this$[ebp]
	mov	esp, ebp
	pop	ebp
	ret	8
??0<lambda_08bfd30db2c73e418a55b8072ee85de7>@@QAE@ABEPAVCpu@gb@emulation@@@Z ENDP ; <lambda_08bfd30db2c73e418a55b8072ee85de7>::<lambda_08bfd30db2c73e418a55b8072ee85de7>
_TEXT	ENDS
; Function compile flags: /Odtp /RTCsu
; File d:\personal\projects\gbemu\solution\code\emulation\gb\cpu.cpp
_TEXT	SEGMENT
_this$ = -4						; size = 4
??R<lambda_cf4d431a50c7ddf749029b7e3fcc8a53>@@QBEEXZ PROC ; <lambda_cf4d431a50c7ddf749029b7e3fcc8a53>::operator()
; _this$ = ecx

; 647  :   auto getr = [=]() {

	push	ebp
	mov	ebp, esp
	push	ecx
	mov	DWORD PTR [ebp-4], -858993460		; ccccccccH
	mov	DWORD PTR _this$[ebp], ecx

; 648  :     if ((code&0x7) != 6) {

	mov	eax, DWORD PTR _this$[ebp]
	movzx	ecx, BYTE PTR [eax]
	and	ecx, 7
	cmp	ecx, 6
	je	SHORT $LN2@operator

; 649  :       return reg.raw8[reg_index[code&0x7]];

	mov	edx, DWORD PTR _this$[ebp]
	mov	eax, DWORD PTR [edx+4]
	mov	ecx, DWORD PTR _this$[ebp]
	movzx	edx, BYTE PTR [ecx]
	and	edx, 7
	mov	ecx, DWORD PTR _reg_index[edx*4]
	mov	al, BYTE PTR [eax+ecx+1064]
	jmp	SHORT $LN3@operator

; 650  :     } else {

	jmp	SHORT $LN3@operator
$LN2@operator:

; 651  : 
; 652  :       return mem_->Read8(reg.HL);

	mov	edx, DWORD PTR _this$[ebp]
	mov	eax, DWORD PTR [edx+4]
	movzx	ecx, WORD PTR [eax+1070]
	push	ecx
	mov	edx, DWORD PTR _this$[ebp]
	mov	eax, DWORD PTR [edx+4]
	mov	ecx, DWORD PTR [eax+1076]
	call	?Read8@Memory@gb@emulation@@QAEEG@Z	; emulation::gb::Memory::Read8
$LN3@operator:

; 653  :     }
; 654  :   };

	add	esp, 4
	cmp	ebp, esp
	call	__RTC_CheckEsp
	mov	esp, ebp
	pop	ebp
	ret	0
??R<lambda_cf4d431a50c7ddf749029b7e3fcc8a53>@@QBEEXZ ENDP ; <lambda_cf4d431a50c7ddf749029b7e3fcc8a53>::operator()
_TEXT	ENDS
; Function compile flags: /Odtp /RTCsu
; File d:\personal\projects\gbemu\solution\code\emulation\gb\cpu.cpp
_TEXT	SEGMENT
_this$ = -4						; size = 4
__Code$ = 8						; size = 4
__This$ = 12						; size = 4
??0<lambda_cf4d431a50c7ddf749029b7e3fcc8a53>@@QAE@ABEPAVCpu@gb@emulation@@@Z PROC ; <lambda_cf4d431a50c7ddf749029b7e3fcc8a53>::<lambda_cf4d431a50c7ddf749029b7e3fcc8a53>
; _this$ = ecx

; 654  :   };

	push	ebp
	mov	ebp, esp
	push	ecx
	mov	DWORD PTR [ebp-4], -858993460		; ccccccccH
	mov	DWORD PTR _this$[ebp], ecx
	mov	eax, DWORD PTR _this$[ebp]
	mov	ecx, DWORD PTR __Code$[ebp]
	mov	dl, BYTE PTR [ecx]
	mov	BYTE PTR [eax], dl
	mov	eax, DWORD PTR _this$[ebp]
	mov	ecx, DWORD PTR __This$[ebp]
	mov	DWORD PTR [eax+4], ecx
	mov	eax, DWORD PTR _this$[ebp]
	mov	esp, ebp
	pop	ebp
	ret	8
??0<lambda_cf4d431a50c7ddf749029b7e3fcc8a53>@@QAE@ABEPAVCpu@gb@emulation@@@Z ENDP ; <lambda_cf4d431a50c7ddf749029b7e3fcc8a53>::<lambda_cf4d431a50c7ddf749029b7e3fcc8a53>
_TEXT	ENDS
; Function compile flags: /Odtp /RTCsu
; File d:\personal\projects\gbemu\solution\code\emulation\gb\cpu.cpp
;	COMDAT ??$LD@$00$0A@$0P@@Cpu@gb@emulation@@AAEXXZ
_TEXT	SEGMENT
tv245 = -32						; size = 2
tv232 = -30						; size = 2
tv206 = -28						; size = 2
tv193 = -26						; size = 2
tv169 = -24						; size = 2
tv145 = -22						; size = 2
tv92 = -20						; size = 2
tv79 = -18						; size = 2
_d16$1 = -16						; size = 2
_d16$2 = -12						; size = 2
_a8$3 = -7						; size = 1
_a8$4 = -6						; size = 1
_d8$5 = -5						; size = 1
_this$ = -4						; size = 4
??$LD@$00$0A@$0P@@Cpu@gb@emulation@@AAEXXZ PROC		; emulation::gb::Cpu::LD<1,0,15>, COMDAT
; _this$ = ecx

; 446  : void Cpu::LD() {

	push	ebp
	mov	ebp, esp
	sub	esp, 32					; 00000020H
	mov	eax, -858993460				; ccccccccH
	mov	DWORD PTR [ebp-32], eax
	mov	DWORD PTR [ebp-28], eax
	mov	DWORD PTR [ebp-24], eax
	mov	DWORD PTR [ebp-20], eax
	mov	DWORD PTR [ebp-16], eax
	mov	DWORD PTR [ebp-12], eax
	mov	DWORD PTR [ebp-8], eax
	mov	DWORD PTR [ebp-4], eax
	mov	DWORD PTR _this$[ebp], ecx

; 447  :   if (mode == 10) { //dest,d8

	xor	eax, eax
	je	SHORT $LN11@LD

; 448  : 		reg.raw8[dest] = mem_->Read8(reg.PC++);

	mov	ecx, DWORD PTR _this$[ebp]
	mov	dx, WORD PTR [ecx+1074]
	mov	WORD PTR tv79[ebp], dx
	mov	eax, DWORD PTR _this$[ebp]
	mov	cx, WORD PTR [eax+1074]
	add	cx, 1
	mov	edx, DWORD PTR _this$[ebp]
	mov	WORD PTR [edx+1074], cx
	movzx	eax, WORD PTR tv79[ebp]
	push	eax
	mov	ecx, DWORD PTR _this$[ebp]
	mov	ecx, DWORD PTR [ecx+1076]
	call	?Read8@Memory@gb@emulation@@QAEEG@Z	; emulation::gb::Memory::Read8
	mov	edx, 1
	shl	edx, 0
	mov	ecx, DWORD PTR _this$[ebp]
	mov	BYTE PTR [ecx+edx+1064], al
	jmp	$LN12@LD
$LN11@LD:

; 449  : 	}else if (mode == 11) { //(dest),d8

	xor	edx, edx
	je	SHORT $LN9@LD

; 450  : 		auto d8 = mem_->Read8(reg.PC++);

	mov	eax, DWORD PTR _this$[ebp]
	mov	cx, WORD PTR [eax+1074]
	mov	WORD PTR tv92[ebp], cx
	mov	edx, DWORD PTR _this$[ebp]
	mov	ax, WORD PTR [edx+1074]
	add	ax, 1
	mov	ecx, DWORD PTR _this$[ebp]
	mov	WORD PTR [ecx+1074], ax
	movzx	edx, WORD PTR tv92[ebp]
	push	edx
	mov	eax, DWORD PTR _this$[ebp]
	mov	ecx, DWORD PTR [eax+1076]
	call	?Read8@Memory@gb@emulation@@QAEEG@Z	; emulation::gb::Memory::Read8
	mov	BYTE PTR _d8$5[ebp], al

; 451  : 		mem_->Write8(reg.raw16[dest],d8);

	movzx	ecx, BYTE PTR _d8$5[ebp]
	push	ecx
	mov	edx, 2
	shl	edx, 0
	mov	eax, DWORD PTR _this$[ebp]
	movzx	ecx, WORD PTR [eax+edx+1064]
	push	ecx
	mov	edx, DWORD PTR _this$[ebp]
	mov	ecx, DWORD PTR [edx+1076]
	call	?Write8@Memory@gb@emulation@@QAEXGE@Z	; emulation::gb::Memory::Write8
	jmp	$LN12@LD
$LN9@LD:

; 452  : 	} else if (mode == 12) { //0xFF00+d8 src

	xor	eax, eax
	je	SHORT $LN7@LD

; 453  :     uint8_t a8 = mem_->Read8(reg.PC++);

	mov	ecx, DWORD PTR _this$[ebp]
	mov	dx, WORD PTR [ecx+1074]
	mov	WORD PTR tv145[ebp], dx
	mov	eax, DWORD PTR _this$[ebp]
	mov	cx, WORD PTR [eax+1074]
	add	cx, 1
	mov	edx, DWORD PTR _this$[ebp]
	mov	WORD PTR [edx+1074], cx
	movzx	eax, WORD PTR tv145[ebp]
	push	eax
	mov	ecx, DWORD PTR _this$[ebp]
	mov	ecx, DWORD PTR [ecx+1076]
	call	?Read8@Memory@gb@emulation@@QAEEG@Z	; emulation::gb::Memory::Read8
	mov	BYTE PTR _a8$4[ebp], al

; 454  : 		mem_->Write8(0xFF00+a8,reg.raw8[src]);

	mov	edx, 1
	imul	edx, 0
	mov	eax, DWORD PTR _this$[ebp]
	movzx	ecx, BYTE PTR [eax+edx+1064]
	push	ecx
	movzx	edx, BYTE PTR _a8$4[ebp]
	add	edx, 65280				; 0000ff00H
	push	edx
	mov	eax, DWORD PTR _this$[ebp]
	mov	ecx, DWORD PTR [eax+1076]
	call	?Write8@Memory@gb@emulation@@QAEXGE@Z	; emulation::gb::Memory::Write8
	jmp	$LN12@LD
$LN7@LD:

; 455  : 	} else if (mode == 13) { //dest,0xFF00+d8 

	xor	ecx, ecx
	je	SHORT $LN5@LD

; 456  :     uint8_t a8 = mem_->Read8(reg.PC++);

	mov	edx, DWORD PTR _this$[ebp]
	mov	ax, WORD PTR [edx+1074]
	mov	WORD PTR tv169[ebp], ax
	mov	ecx, DWORD PTR _this$[ebp]
	mov	dx, WORD PTR [ecx+1074]
	add	dx, 1
	mov	eax, DWORD PTR _this$[ebp]
	mov	WORD PTR [eax+1074], dx
	movzx	ecx, WORD PTR tv169[ebp]
	push	ecx
	mov	edx, DWORD PTR _this$[ebp]
	mov	ecx, DWORD PTR [edx+1076]
	call	?Read8@Memory@gb@emulation@@QAEEG@Z	; emulation::gb::Memory::Read8
	mov	BYTE PTR _a8$3[ebp], al

; 457  : 		reg.raw8[dest] = mem_->Read8(0xFF00+a8);

	movzx	eax, BYTE PTR _a8$3[ebp]
	add	eax, 65280				; 0000ff00H
	push	eax
	mov	ecx, DWORD PTR _this$[ebp]
	mov	ecx, DWORD PTR [ecx+1076]
	call	?Read8@Memory@gb@emulation@@QAEEG@Z	; emulation::gb::Memory::Read8
	mov	edx, 1
	shl	edx, 0
	mov	ecx, DWORD PTR _this$[ebp]
	mov	BYTE PTR [ecx+edx+1064], al
	jmp	$LN12@LD
$LN5@LD:

; 458  : 	} else if (mode == 14) { //(d16),src

	xor	edx, edx
	je	$LN3@LD

; 459  : 		uint16_t d16 = mem_->Read8(reg.PC++);

	mov	eax, DWORD PTR _this$[ebp]
	mov	cx, WORD PTR [eax+1074]
	mov	WORD PTR tv193[ebp], cx
	mov	edx, DWORD PTR _this$[ebp]
	mov	ax, WORD PTR [edx+1074]
	add	ax, 1
	mov	ecx, DWORD PTR _this$[ebp]
	mov	WORD PTR [ecx+1074], ax
	movzx	edx, WORD PTR tv193[ebp]
	push	edx
	mov	eax, DWORD PTR _this$[ebp]
	mov	ecx, DWORD PTR [eax+1076]
	call	?Read8@Memory@gb@emulation@@QAEEG@Z	; emulation::gb::Memory::Read8
	movzx	cx, al
	mov	WORD PTR _d16$2[ebp], cx

; 460  : 		d16 |= (mem_->Read8(reg.PC++))<<8;

	mov	edx, DWORD PTR _this$[ebp]
	mov	ax, WORD PTR [edx+1074]
	mov	WORD PTR tv206[ebp], ax
	mov	ecx, DWORD PTR _this$[ebp]
	mov	dx, WORD PTR [ecx+1074]
	add	dx, 1
	mov	eax, DWORD PTR _this$[ebp]
	mov	WORD PTR [eax+1074], dx
	movzx	ecx, WORD PTR tv206[ebp]
	push	ecx
	mov	edx, DWORD PTR _this$[ebp]
	mov	ecx, DWORD PTR [edx+1076]
	call	?Read8@Memory@gb@emulation@@QAEEG@Z	; emulation::gb::Memory::Read8
	movzx	eax, al
	shl	eax, 8
	movzx	ecx, WORD PTR _d16$2[ebp]
	or	ecx, eax
	mov	WORD PTR _d16$2[ebp], cx

; 461  :     mem_->Write8(d16,reg.raw8[src]);

	mov	edx, 1
	imul	edx, 0
	mov	eax, DWORD PTR _this$[ebp]
	movzx	ecx, BYTE PTR [eax+edx+1064]
	push	ecx
	movzx	edx, WORD PTR _d16$2[ebp]
	push	edx
	mov	eax, DWORD PTR _this$[ebp]
	mov	ecx, DWORD PTR [eax+1076]
	call	?Write8@Memory@gb@emulation@@QAEXGE@Z	; emulation::gb::Memory::Write8
	jmp	$LN12@LD
$LN3@LD:

; 462  : 	} else if (mode == 15) { //src,(d16)

	mov	ecx, 1
	test	ecx, ecx
	je	$LN12@LD

; 463  : 		uint16_t d16 = mem_->Read8(reg.PC++);

	mov	edx, DWORD PTR _this$[ebp]
	mov	ax, WORD PTR [edx+1074]
	mov	WORD PTR tv232[ebp], ax
	mov	ecx, DWORD PTR _this$[ebp]
	mov	dx, WORD PTR [ecx+1074]
	add	dx, 1
	mov	eax, DWORD PTR _this$[ebp]
	mov	WORD PTR [eax+1074], dx
	movzx	ecx, WORD PTR tv232[ebp]
	push	ecx
	mov	edx, DWORD PTR _this$[ebp]
	mov	ecx, DWORD PTR [edx+1076]
	call	?Read8@Memory@gb@emulation@@QAEEG@Z	; emulation::gb::Memory::Read8
	movzx	ax, al
	mov	WORD PTR _d16$1[ebp], ax

; 464  : 		d16 |= (mem_->Read8(reg.PC++))<<8;

	mov	ecx, DWORD PTR _this$[ebp]
	mov	dx, WORD PTR [ecx+1074]
	mov	WORD PTR tv245[ebp], dx
	mov	eax, DWORD PTR _this$[ebp]
	mov	cx, WORD PTR [eax+1074]
	add	cx, 1
	mov	edx, DWORD PTR _this$[ebp]
	mov	WORD PTR [edx+1074], cx
	movzx	eax, WORD PTR tv245[ebp]
	push	eax
	mov	ecx, DWORD PTR _this$[ebp]
	mov	ecx, DWORD PTR [ecx+1076]
	call	?Read8@Memory@gb@emulation@@QAEEG@Z	; emulation::gb::Memory::Read8
	movzx	edx, al
	shl	edx, 8
	movzx	eax, WORD PTR _d16$1[ebp]
	or	eax, edx
	mov	WORD PTR _d16$1[ebp], ax

; 465  :     reg.raw8[dest] = mem_->Read8(d16);

	movzx	ecx, WORD PTR _d16$1[ebp]
	push	ecx
	mov	edx, DWORD PTR _this$[ebp]
	mov	ecx, DWORD PTR [edx+1076]
	call	?Read8@Memory@gb@emulation@@QAEEG@Z	; emulation::gb::Memory::Read8
	mov	ecx, 1
	shl	ecx, 0
	mov	edx, DWORD PTR _this$[ebp]
	mov	BYTE PTR [edx+ecx+1064], al
$LN12@LD:

; 466  : 	}
; 467  : }

	add	esp, 32					; 00000020H
	cmp	ebp, esp
	call	__RTC_CheckEsp
	mov	esp, ebp
	pop	ebp
	ret	0
??$LD@$00$0A@$0P@@Cpu@gb@emulation@@AAEXXZ ENDP		; emulation::gb::Cpu::LD<1,0,15>
_TEXT	ENDS
; Function compile flags: /Odtp /RTCsu
; File d:\personal\projects\gbemu\solution\code\emulation\gb\cpu.cpp
;	COMDAT ??$OR@$00$0A@$01@Cpu@gb@emulation@@AAEXXZ
_TEXT	SEGMENT
_b$ = -21						; size = 1
_a$ = -9						; size = 1
_this$ = -4						; size = 4
??$OR@$00$0A@$01@Cpu@gb@emulation@@AAEXXZ PROC		; emulation::gb::Cpu::OR<1,0,2>, COMDAT
; _this$ = ecx

; 608  : void Cpu::OR() {

	push	ebp
	mov	ebp, esp
	sub	esp, 28					; 0000001cH
	mov	eax, -858993460				; ccccccccH
	mov	DWORD PTR [ebp-28], eax
	mov	DWORD PTR [ebp-24], eax
	mov	DWORD PTR [ebp-20], eax
	mov	DWORD PTR [ebp-16], eax
	mov	DWORD PTR [ebp-12], eax
	mov	DWORD PTR [ebp-8], eax
	mov	DWORD PTR [ebp-4], eax
	mov	DWORD PTR _this$[ebp], ecx

; 609  :   reg.F.raw = 0;

	mov	eax, DWORD PTR _this$[ebp]
	mov	BYTE PTR [eax+1064], 0

; 610  :   uint8_t a=0,b=0;

	mov	BYTE PTR _a$[ebp], 0
	mov	BYTE PTR _b$[ebp], 0

; 611  :   arithmeticMode<dest,src,mode>(a,b);

	lea	ecx, DWORD PTR _b$[ebp]
	push	ecx
	lea	edx, DWORD PTR _a$[ebp]
	push	edx
	mov	ecx, DWORD PTR _this$[ebp]
	call	??$arithmeticMode@$00$0A@$01@Cpu@gb@emulation@@AAEXAAE0@Z ; emulation::gb::Cpu::arithmeticMode<1,0,2>

; 612  :   reg.raw8[dest] = a | b;

	movzx	eax, BYTE PTR _a$[ebp]
	movzx	ecx, BYTE PTR _b$[ebp]
	or	eax, ecx
	mov	edx, 1
	shl	edx, 0
	mov	ecx, DWORD PTR _this$[ebp]
	mov	BYTE PTR [ecx+edx+1064], al

; 613  :   updateCpuFlagZ(reg.raw8[dest]);

	mov	edx, 1
	shl	edx, 0
	mov	eax, DWORD PTR _this$[ebp]
	movzx	ecx, BYTE PTR [eax+edx+1064]
	push	ecx
	mov	ecx, DWORD PTR _this$[ebp]
	call	?updateCpuFlagZ@Cpu@gb@emulation@@AAEXE@Z ; emulation::gb::Cpu::updateCpuFlagZ

; 614  : }

	push	edx
	mov	ecx, ebp
	push	eax
	lea	edx, DWORD PTR $LN6@OR
	call	@_RTC_CheckStackVars@8
	pop	eax
	pop	edx
	add	esp, 28					; 0000001cH
	cmp	ebp, esp
	call	__RTC_CheckEsp
	mov	esp, ebp
	pop	ebp
	ret	0
$LN6@OR:
	DD	2
	DD	$LN5@OR
$LN5@OR:
	DD	-9					; fffffff7H
	DD	1
	DD	$LN3@OR
	DD	-21					; ffffffebH
	DD	1
	DD	$LN4@OR
$LN4@OR:
	DB	98					; 00000062H
	DB	0
$LN3@OR:
	DB	97					; 00000061H
	DB	0
??$OR@$00$0A@$01@Cpu@gb@emulation@@AAEXXZ ENDP		; emulation::gb::Cpu::OR<1,0,2>
_TEXT	ENDS
; Function compile flags: /Odtp /RTCsu
; File d:\personal\projects\gbemu\solution\code\emulation\gb\cpu.cpp
;	COMDAT ??$PUSH@$0A@@Cpu@gb@emulation@@AAEXXZ
_TEXT	SEGMENT
_this$ = -4						; size = 4
??$PUSH@$0A@@Cpu@gb@emulation@@AAEXXZ PROC		; emulation::gb::Cpu::PUSH<0>, COMDAT
; _this$ = ecx

; 903  : void Cpu::PUSH() {

	push	ebp
	mov	ebp, esp
	push	ecx
	mov	DWORD PTR [ebp-4], -858993460		; ccccccccH
	mov	DWORD PTR _this$[ebp], ecx

; 904  :   simulateSpriteBug();

	mov	ecx, DWORD PTR _this$[ebp]
	call	?simulateSpriteBug@Cpu@gb@emulation@@AAEXXZ ; emulation::gb::Cpu::simulateSpriteBug

; 905  :   push(reg.raw16[src]>>8);

	mov	eax, 2
	imul	eax, 0
	mov	ecx, DWORD PTR _this$[ebp]
	movzx	edx, WORD PTR [ecx+eax+1064]
	sar	edx, 8
	push	edx
	mov	ecx, DWORD PTR _this$[ebp]
	call	?push@Cpu@gb@emulation@@AAEXE@Z		; emulation::gb::Cpu::push

; 906  :   push(reg.raw16[src]&0xFF);

	mov	eax, 2
	imul	eax, 0
	mov	ecx, DWORD PTR _this$[ebp]
	movzx	edx, WORD PTR [ecx+eax+1064]
	and	edx, 255				; 000000ffH
	push	edx
	mov	ecx, DWORD PTR _this$[ebp]
	call	?push@Cpu@gb@emulation@@AAEXE@Z		; emulation::gb::Cpu::push

; 907  :   Tick();Tick();Tick();Tick();

	mov	ecx, DWORD PTR _this$[ebp]
	call	?Tick@Cpu@gb@emulation@@QAEXXZ		; emulation::gb::Cpu::Tick
	mov	ecx, DWORD PTR _this$[ebp]
	call	?Tick@Cpu@gb@emulation@@QAEXXZ		; emulation::gb::Cpu::Tick
	mov	ecx, DWORD PTR _this$[ebp]
	call	?Tick@Cpu@gb@emulation@@QAEXXZ		; emulation::gb::Cpu::Tick
	mov	ecx, DWORD PTR _this$[ebp]
	call	?Tick@Cpu@gb@emulation@@QAEXXZ		; emulation::gb::Cpu::Tick

; 908  : }

	add	esp, 4
	cmp	ebp, esp
	call	__RTC_CheckEsp
	mov	esp, ebp
	pop	ebp
	ret	0
??$PUSH@$0A@@Cpu@gb@emulation@@AAEXXZ ENDP		; emulation::gb::Cpu::PUSH<0>
_TEXT	ENDS
; Function compile flags: /Odtp /RTCsu
; File d:\personal\projects\gbemu\solution\code\emulation\gb\cpu.cpp
;	COMDAT ??$LDr$FF00r@$00$01@Cpu@gb@emulation@@AAEXXZ
_TEXT	SEGMENT
_this$ = -4						; size = 4
??$LDr$FF00r@$00$01@Cpu@gb@emulation@@AAEXXZ PROC	; emulation::gb::Cpu::LDr$FF00r<1,2>, COMDAT
; _this$ = ecx

; 407  : void Cpu::LDr$FF00r() {

	push	ebp
	mov	ebp, esp
	push	ecx
	mov	DWORD PTR [ebp-4], -858993460		; ccccccccH
	mov	DWORD PTR _this$[ebp], ecx

; 408  : 	reg.raw8[dest] = mem_->Read8(0xFF00+reg.raw8[src]);

	mov	eax, 1
	shl	eax, 1
	mov	ecx, DWORD PTR _this$[ebp]
	movzx	edx, BYTE PTR [ecx+eax+1064]
	add	edx, 65280				; 0000ff00H
	push	edx
	mov	eax, DWORD PTR _this$[ebp]
	mov	ecx, DWORD PTR [eax+1076]
	call	?Read8@Memory@gb@emulation@@QAEEG@Z	; emulation::gb::Memory::Read8
	mov	ecx, 1
	shl	ecx, 0
	mov	edx, DWORD PTR _this$[ebp]
	mov	BYTE PTR [edx+ecx+1064], al

; 409  : }

	add	esp, 4
	cmp	ebp, esp
	call	__RTC_CheckEsp
	mov	esp, ebp
	pop	ebp
	ret	0
??$LDr$FF00r@$00$01@Cpu@gb@emulation@@AAEXXZ ENDP	; emulation::gb::Cpu::LDr$FF00r<1,2>
_TEXT	ENDS
; Function compile flags: /Odtp /RTCsu
; File d:\personal\projects\gbemu\solution\code\emulation\gb\cpu.cpp
;	COMDAT ??$POP@$0A@@Cpu@gb@emulation@@AAEXXZ
_TEXT	SEGMENT
_this$ = -4						; size = 4
??$POP@$0A@@Cpu@gb@emulation@@AAEXXZ PROC		; emulation::gb::Cpu::POP<0>, COMDAT
; _this$ = ecx

; 911  : void Cpu::POP() {

	push	ebp
	mov	ebp, esp
	push	ecx
	push	esi
	mov	DWORD PTR [ebp-4], -858993460		; ccccccccH
	mov	DWORD PTR _this$[ebp], ecx

; 912  :   simulateSpriteBug();

	mov	ecx, DWORD PTR _this$[ebp]
	call	?simulateSpriteBug@Cpu@gb@emulation@@AAEXXZ ; emulation::gb::Cpu::simulateSpriteBug

; 913  :   reg.raw16[dest] = pop();

	mov	ecx, DWORD PTR _this$[ebp]
	call	?pop@Cpu@gb@emulation@@AAEEXZ		; emulation::gb::Cpu::pop
	movzx	ax, al
	mov	ecx, 2
	imul	ecx, 0
	mov	edx, DWORD PTR _this$[ebp]
	mov	WORD PTR [edx+ecx+1064], ax

; 914  :   reg.raw16[dest] |= pop() << 8;

	mov	esi, 2
	imul	esi, 0
	mov	ecx, DWORD PTR _this$[ebp]
	call	?pop@Cpu@gb@emulation@@AAEEXZ		; emulation::gb::Cpu::pop
	movzx	eax, al
	shl	eax, 8
	mov	ecx, DWORD PTR _this$[ebp]
	movzx	edx, WORD PTR [ecx+esi+1064]
	or	edx, eax
	mov	eax, 2
	imul	eax, 0
	mov	ecx, DWORD PTR _this$[ebp]
	mov	WORD PTR [ecx+eax+1064], dx

; 915  :   if (dest == RegAF)

	mov	edx, 1
	test	edx, edx
	je	SHORT $LN2@POP

; 916  :     reg.F._unused = 0;

	mov	eax, DWORD PTR _this$[ebp]
	mov	cl, BYTE PTR [eax+1064]
	and	cl, 240					; 000000f0H
	mov	edx, DWORD PTR _this$[ebp]
	mov	BYTE PTR [edx+1064], cl
$LN2@POP:

; 917  : }

	pop	esi
	add	esp, 4
	cmp	ebp, esp
	call	__RTC_CheckEsp
	mov	esp, ebp
	pop	ebp
	ret	0
??$POP@$0A@@Cpu@gb@emulation@@AAEXXZ ENDP		; emulation::gb::Cpu::POP<0>
_TEXT	ENDS
; Function compile flags: /Odtp /RTCsu
; File d:\personal\projects\gbemu\solution\code\emulation\gb\cpu.cpp
;	COMDAT ??$LD@$00$0A@$0N@@Cpu@gb@emulation@@AAEXXZ
_TEXT	SEGMENT
tv245 = -32						; size = 2
tv232 = -30						; size = 2
tv206 = -28						; size = 2
tv193 = -26						; size = 2
tv169 = -24						; size = 2
tv145 = -22						; size = 2
tv92 = -20						; size = 2
tv79 = -18						; size = 2
_d16$1 = -16						; size = 2
_d16$2 = -12						; size = 2
_a8$3 = -7						; size = 1
_a8$4 = -6						; size = 1
_d8$5 = -5						; size = 1
_this$ = -4						; size = 4
??$LD@$00$0A@$0N@@Cpu@gb@emulation@@AAEXXZ PROC		; emulation::gb::Cpu::LD<1,0,13>, COMDAT
; _this$ = ecx

; 446  : void Cpu::LD() {

	push	ebp
	mov	ebp, esp
	sub	esp, 32					; 00000020H
	mov	eax, -858993460				; ccccccccH
	mov	DWORD PTR [ebp-32], eax
	mov	DWORD PTR [ebp-28], eax
	mov	DWORD PTR [ebp-24], eax
	mov	DWORD PTR [ebp-20], eax
	mov	DWORD PTR [ebp-16], eax
	mov	DWORD PTR [ebp-12], eax
	mov	DWORD PTR [ebp-8], eax
	mov	DWORD PTR [ebp-4], eax
	mov	DWORD PTR _this$[ebp], ecx

; 447  :   if (mode == 10) { //dest,d8

	xor	eax, eax
	je	SHORT $LN11@LD

; 448  : 		reg.raw8[dest] = mem_->Read8(reg.PC++);

	mov	ecx, DWORD PTR _this$[ebp]
	mov	dx, WORD PTR [ecx+1074]
	mov	WORD PTR tv79[ebp], dx
	mov	eax, DWORD PTR _this$[ebp]
	mov	cx, WORD PTR [eax+1074]
	add	cx, 1
	mov	edx, DWORD PTR _this$[ebp]
	mov	WORD PTR [edx+1074], cx
	movzx	eax, WORD PTR tv79[ebp]
	push	eax
	mov	ecx, DWORD PTR _this$[ebp]
	mov	ecx, DWORD PTR [ecx+1076]
	call	?Read8@Memory@gb@emulation@@QAEEG@Z	; emulation::gb::Memory::Read8
	mov	edx, 1
	shl	edx, 0
	mov	ecx, DWORD PTR _this$[ebp]
	mov	BYTE PTR [ecx+edx+1064], al
	jmp	$LN12@LD
$LN11@LD:

; 449  : 	}else if (mode == 11) { //(dest),d8

	xor	edx, edx
	je	SHORT $LN9@LD

; 450  : 		auto d8 = mem_->Read8(reg.PC++);

	mov	eax, DWORD PTR _this$[ebp]
	mov	cx, WORD PTR [eax+1074]
	mov	WORD PTR tv92[ebp], cx
	mov	edx, DWORD PTR _this$[ebp]
	mov	ax, WORD PTR [edx+1074]
	add	ax, 1
	mov	ecx, DWORD PTR _this$[ebp]
	mov	WORD PTR [ecx+1074], ax
	movzx	edx, WORD PTR tv92[ebp]
	push	edx
	mov	eax, DWORD PTR _this$[ebp]
	mov	ecx, DWORD PTR [eax+1076]
	call	?Read8@Memory@gb@emulation@@QAEEG@Z	; emulation::gb::Memory::Read8
	mov	BYTE PTR _d8$5[ebp], al

; 451  : 		mem_->Write8(reg.raw16[dest],d8);

	movzx	ecx, BYTE PTR _d8$5[ebp]
	push	ecx
	mov	edx, 2
	shl	edx, 0
	mov	eax, DWORD PTR _this$[ebp]
	movzx	ecx, WORD PTR [eax+edx+1064]
	push	ecx
	mov	edx, DWORD PTR _this$[ebp]
	mov	ecx, DWORD PTR [edx+1076]
	call	?Write8@Memory@gb@emulation@@QAEXGE@Z	; emulation::gb::Memory::Write8
	jmp	$LN12@LD
$LN9@LD:

; 452  : 	} else if (mode == 12) { //0xFF00+d8 src

	xor	eax, eax
	je	SHORT $LN7@LD

; 453  :     uint8_t a8 = mem_->Read8(reg.PC++);

	mov	ecx, DWORD PTR _this$[ebp]
	mov	dx, WORD PTR [ecx+1074]
	mov	WORD PTR tv145[ebp], dx
	mov	eax, DWORD PTR _this$[ebp]
	mov	cx, WORD PTR [eax+1074]
	add	cx, 1
	mov	edx, DWORD PTR _this$[ebp]
	mov	WORD PTR [edx+1074], cx
	movzx	eax, WORD PTR tv145[ebp]
	push	eax
	mov	ecx, DWORD PTR _this$[ebp]
	mov	ecx, DWORD PTR [ecx+1076]
	call	?Read8@Memory@gb@emulation@@QAEEG@Z	; emulation::gb::Memory::Read8
	mov	BYTE PTR _a8$4[ebp], al

; 454  : 		mem_->Write8(0xFF00+a8,reg.raw8[src]);

	mov	edx, 1
	imul	edx, 0
	mov	eax, DWORD PTR _this$[ebp]
	movzx	ecx, BYTE PTR [eax+edx+1064]
	push	ecx
	movzx	edx, BYTE PTR _a8$4[ebp]
	add	edx, 65280				; 0000ff00H
	push	edx
	mov	eax, DWORD PTR _this$[ebp]
	mov	ecx, DWORD PTR [eax+1076]
	call	?Write8@Memory@gb@emulation@@QAEXGE@Z	; emulation::gb::Memory::Write8
	jmp	$LN12@LD
$LN7@LD:

; 455  : 	} else if (mode == 13) { //dest,0xFF00+d8 

	mov	ecx, 1
	test	ecx, ecx
	je	SHORT $LN5@LD

; 456  :     uint8_t a8 = mem_->Read8(reg.PC++);

	mov	edx, DWORD PTR _this$[ebp]
	mov	ax, WORD PTR [edx+1074]
	mov	WORD PTR tv169[ebp], ax
	mov	ecx, DWORD PTR _this$[ebp]
	mov	dx, WORD PTR [ecx+1074]
	add	dx, 1
	mov	eax, DWORD PTR _this$[ebp]
	mov	WORD PTR [eax+1074], dx
	movzx	ecx, WORD PTR tv169[ebp]
	push	ecx
	mov	edx, DWORD PTR _this$[ebp]
	mov	ecx, DWORD PTR [edx+1076]
	call	?Read8@Memory@gb@emulation@@QAEEG@Z	; emulation::gb::Memory::Read8
	mov	BYTE PTR _a8$3[ebp], al

; 457  : 		reg.raw8[dest] = mem_->Read8(0xFF00+a8);

	movzx	eax, BYTE PTR _a8$3[ebp]
	add	eax, 65280				; 0000ff00H
	push	eax
	mov	ecx, DWORD PTR _this$[ebp]
	mov	ecx, DWORD PTR [ecx+1076]
	call	?Read8@Memory@gb@emulation@@QAEEG@Z	; emulation::gb::Memory::Read8
	mov	edx, 1
	shl	edx, 0
	mov	ecx, DWORD PTR _this$[ebp]
	mov	BYTE PTR [ecx+edx+1064], al
	jmp	$LN12@LD
$LN5@LD:

; 458  : 	} else if (mode == 14) { //(d16),src

	xor	edx, edx
	je	$LN3@LD

; 459  : 		uint16_t d16 = mem_->Read8(reg.PC++);

	mov	eax, DWORD PTR _this$[ebp]
	mov	cx, WORD PTR [eax+1074]
	mov	WORD PTR tv193[ebp], cx
	mov	edx, DWORD PTR _this$[ebp]
	mov	ax, WORD PTR [edx+1074]
	add	ax, 1
	mov	ecx, DWORD PTR _this$[ebp]
	mov	WORD PTR [ecx+1074], ax
	movzx	edx, WORD PTR tv193[ebp]
	push	edx
	mov	eax, DWORD PTR _this$[ebp]
	mov	ecx, DWORD PTR [eax+1076]
	call	?Read8@Memory@gb@emulation@@QAEEG@Z	; emulation::gb::Memory::Read8
	movzx	cx, al
	mov	WORD PTR _d16$2[ebp], cx

; 460  : 		d16 |= (mem_->Read8(reg.PC++))<<8;

	mov	edx, DWORD PTR _this$[ebp]
	mov	ax, WORD PTR [edx+1074]
	mov	WORD PTR tv206[ebp], ax
	mov	ecx, DWORD PTR _this$[ebp]
	mov	dx, WORD PTR [ecx+1074]
	add	dx, 1
	mov	eax, DWORD PTR _this$[ebp]
	mov	WORD PTR [eax+1074], dx
	movzx	ecx, WORD PTR tv206[ebp]
	push	ecx
	mov	edx, DWORD PTR _this$[ebp]
	mov	ecx, DWORD PTR [edx+1076]
	call	?Read8@Memory@gb@emulation@@QAEEG@Z	; emulation::gb::Memory::Read8
	movzx	eax, al
	shl	eax, 8
	movzx	ecx, WORD PTR _d16$2[ebp]
	or	ecx, eax
	mov	WORD PTR _d16$2[ebp], cx

; 461  :     mem_->Write8(d16,reg.raw8[src]);

	mov	edx, 1
	imul	edx, 0
	mov	eax, DWORD PTR _this$[ebp]
	movzx	ecx, BYTE PTR [eax+edx+1064]
	push	ecx
	movzx	edx, WORD PTR _d16$2[ebp]
	push	edx
	mov	eax, DWORD PTR _this$[ebp]
	mov	ecx, DWORD PTR [eax+1076]
	call	?Write8@Memory@gb@emulation@@QAEXGE@Z	; emulation::gb::Memory::Write8
	jmp	$LN12@LD
$LN3@LD:

; 462  : 	} else if (mode == 15) { //src,(d16)

	xor	ecx, ecx
	je	$LN12@LD

; 463  : 		uint16_t d16 = mem_->Read8(reg.PC++);

	mov	edx, DWORD PTR _this$[ebp]
	mov	ax, WORD PTR [edx+1074]
	mov	WORD PTR tv232[ebp], ax
	mov	ecx, DWORD PTR _this$[ebp]
	mov	dx, WORD PTR [ecx+1074]
	add	dx, 1
	mov	eax, DWORD PTR _this$[ebp]
	mov	WORD PTR [eax+1074], dx
	movzx	ecx, WORD PTR tv232[ebp]
	push	ecx
	mov	edx, DWORD PTR _this$[ebp]
	mov	ecx, DWORD PTR [edx+1076]
	call	?Read8@Memory@gb@emulation@@QAEEG@Z	; emulation::gb::Memory::Read8
	movzx	ax, al
	mov	WORD PTR _d16$1[ebp], ax

; 464  : 		d16 |= (mem_->Read8(reg.PC++))<<8;

	mov	ecx, DWORD PTR _this$[ebp]
	mov	dx, WORD PTR [ecx+1074]
	mov	WORD PTR tv245[ebp], dx
	mov	eax, DWORD PTR _this$[ebp]
	mov	cx, WORD PTR [eax+1074]
	add	cx, 1
	mov	edx, DWORD PTR _this$[ebp]
	mov	WORD PTR [edx+1074], cx
	movzx	eax, WORD PTR tv245[ebp]
	push	eax
	mov	ecx, DWORD PTR _this$[ebp]
	mov	ecx, DWORD PTR [ecx+1076]
	call	?Read8@Memory@gb@emulation@@QAEEG@Z	; emulation::gb::Memory::Read8
	movzx	edx, al
	shl	edx, 8
	movzx	eax, WORD PTR _d16$1[ebp]
	or	eax, edx
	mov	WORD PTR _d16$1[ebp], ax

; 465  :     reg.raw8[dest] = mem_->Read8(d16);

	movzx	ecx, WORD PTR _d16$1[ebp]
	push	ecx
	mov	edx, DWORD PTR _this$[ebp]
	mov	ecx, DWORD PTR [edx+1076]
	call	?Read8@Memory@gb@emulation@@QAEEG@Z	; emulation::gb::Memory::Read8
	mov	ecx, 1
	shl	ecx, 0
	mov	edx, DWORD PTR _this$[ebp]
	mov	BYTE PTR [edx+ecx+1064], al
$LN12@LD:

; 466  : 	}
; 467  : }

	add	esp, 32					; 00000020H
	cmp	ebp, esp
	call	__RTC_CheckEsp
	mov	esp, ebp
	pop	ebp
	ret	0
??$LD@$00$0A@$0N@@Cpu@gb@emulation@@AAEXXZ ENDP		; emulation::gb::Cpu::LD<1,0,13>
_TEXT	ENDS
; Function compile flags: /Odtp /RTCsu
; File d:\personal\projects\gbemu\solution\code\emulation\gb\cpu.cpp
;	COMDAT ??$XOR@$00$0A@$01@Cpu@gb@emulation@@AAEXXZ
_TEXT	SEGMENT
_b$ = -21						; size = 1
_a$ = -9						; size = 1
_this$ = -4						; size = 4
??$XOR@$00$0A@$01@Cpu@gb@emulation@@AAEXXZ PROC		; emulation::gb::Cpu::XOR<1,0,2>, COMDAT
; _this$ = ecx

; 599  : void Cpu::XOR() {

	push	ebp
	mov	ebp, esp
	sub	esp, 28					; 0000001cH
	mov	eax, -858993460				; ccccccccH
	mov	DWORD PTR [ebp-28], eax
	mov	DWORD PTR [ebp-24], eax
	mov	DWORD PTR [ebp-20], eax
	mov	DWORD PTR [ebp-16], eax
	mov	DWORD PTR [ebp-12], eax
	mov	DWORD PTR [ebp-8], eax
	mov	DWORD PTR [ebp-4], eax
	mov	DWORD PTR _this$[ebp], ecx

; 600  :   reg.F.raw = 0;

	mov	eax, DWORD PTR _this$[ebp]
	mov	BYTE PTR [eax+1064], 0

; 601  :   uint8_t a=0,b=0;

	mov	BYTE PTR _a$[ebp], 0
	mov	BYTE PTR _b$[ebp], 0

; 602  :   arithmeticMode<dest,src,mode>(a,b);

	lea	ecx, DWORD PTR _b$[ebp]
	push	ecx
	lea	edx, DWORD PTR _a$[ebp]
	push	edx
	mov	ecx, DWORD PTR _this$[ebp]
	call	??$arithmeticMode@$00$0A@$01@Cpu@gb@emulation@@AAEXAAE0@Z ; emulation::gb::Cpu::arithmeticMode<1,0,2>

; 603  :   reg.raw8[dest] = a ^ b;

	movzx	eax, BYTE PTR _a$[ebp]
	movzx	ecx, BYTE PTR _b$[ebp]
	xor	eax, ecx
	mov	edx, 1
	shl	edx, 0
	mov	ecx, DWORD PTR _this$[ebp]
	mov	BYTE PTR [ecx+edx+1064], al

; 604  :   updateCpuFlagZ(reg.raw8[dest]);

	mov	edx, 1
	shl	edx, 0
	mov	eax, DWORD PTR _this$[ebp]
	movzx	ecx, BYTE PTR [eax+edx+1064]
	push	ecx
	mov	ecx, DWORD PTR _this$[ebp]
	call	?updateCpuFlagZ@Cpu@gb@emulation@@AAEXE@Z ; emulation::gb::Cpu::updateCpuFlagZ

; 605  : }

	push	edx
	mov	ecx, ebp
	push	eax
	lea	edx, DWORD PTR $LN6@XOR
	call	@_RTC_CheckStackVars@8
	pop	eax
	pop	edx
	add	esp, 28					; 0000001cH
	cmp	ebp, esp
	call	__RTC_CheckEsp
	mov	esp, ebp
	pop	ebp
	ret	0
$LN6@XOR:
	DD	2
	DD	$LN5@XOR
$LN5@XOR:
	DD	-9					; fffffff7H
	DD	1
	DD	$LN3@XOR
	DD	-21					; ffffffebH
	DD	1
	DD	$LN4@XOR
$LN4@XOR:
	DB	98					; 00000062H
	DB	0
$LN3@XOR:
	DB	97					; 00000061H
	DB	0
??$XOR@$00$0A@$01@Cpu@gb@emulation@@AAEXXZ ENDP		; emulation::gb::Cpu::XOR<1,0,2>
_TEXT	ENDS
; Function compile flags: /Odtp /RTCsu
; File d:\personal\projects\gbemu\solution\code\emulation\gb\cpu.cpp
;	COMDAT ??$LD@$0A@$00$0O@@Cpu@gb@emulation@@AAEXXZ
_TEXT	SEGMENT
tv245 = -32						; size = 2
tv232 = -30						; size = 2
tv206 = -28						; size = 2
tv193 = -26						; size = 2
tv169 = -24						; size = 2
tv145 = -22						; size = 2
tv92 = -20						; size = 2
tv79 = -18						; size = 2
_d16$1 = -16						; size = 2
_d16$2 = -12						; size = 2
_a8$3 = -7						; size = 1
_a8$4 = -6						; size = 1
_d8$5 = -5						; size = 1
_this$ = -4						; size = 4
??$LD@$0A@$00$0O@@Cpu@gb@emulation@@AAEXXZ PROC		; emulation::gb::Cpu::LD<0,1,14>, COMDAT
; _this$ = ecx

; 446  : void Cpu::LD() {

	push	ebp
	mov	ebp, esp
	sub	esp, 32					; 00000020H
	mov	eax, -858993460				; ccccccccH
	mov	DWORD PTR [ebp-32], eax
	mov	DWORD PTR [ebp-28], eax
	mov	DWORD PTR [ebp-24], eax
	mov	DWORD PTR [ebp-20], eax
	mov	DWORD PTR [ebp-16], eax
	mov	DWORD PTR [ebp-12], eax
	mov	DWORD PTR [ebp-8], eax
	mov	DWORD PTR [ebp-4], eax
	mov	DWORD PTR _this$[ebp], ecx

; 447  :   if (mode == 10) { //dest,d8

	xor	eax, eax
	je	SHORT $LN11@LD

; 448  : 		reg.raw8[dest] = mem_->Read8(reg.PC++);

	mov	ecx, DWORD PTR _this$[ebp]
	mov	dx, WORD PTR [ecx+1074]
	mov	WORD PTR tv79[ebp], dx
	mov	eax, DWORD PTR _this$[ebp]
	mov	cx, WORD PTR [eax+1074]
	add	cx, 1
	mov	edx, DWORD PTR _this$[ebp]
	mov	WORD PTR [edx+1074], cx
	movzx	eax, WORD PTR tv79[ebp]
	push	eax
	mov	ecx, DWORD PTR _this$[ebp]
	mov	ecx, DWORD PTR [ecx+1076]
	call	?Read8@Memory@gb@emulation@@QAEEG@Z	; emulation::gb::Memory::Read8
	mov	edx, 1
	imul	edx, 0
	mov	ecx, DWORD PTR _this$[ebp]
	mov	BYTE PTR [ecx+edx+1064], al
	jmp	$LN12@LD
$LN11@LD:

; 449  : 	}else if (mode == 11) { //(dest),d8

	xor	edx, edx
	je	SHORT $LN9@LD

; 450  : 		auto d8 = mem_->Read8(reg.PC++);

	mov	eax, DWORD PTR _this$[ebp]
	mov	cx, WORD PTR [eax+1074]
	mov	WORD PTR tv92[ebp], cx
	mov	edx, DWORD PTR _this$[ebp]
	mov	ax, WORD PTR [edx+1074]
	add	ax, 1
	mov	ecx, DWORD PTR _this$[ebp]
	mov	WORD PTR [ecx+1074], ax
	movzx	edx, WORD PTR tv92[ebp]
	push	edx
	mov	eax, DWORD PTR _this$[ebp]
	mov	ecx, DWORD PTR [eax+1076]
	call	?Read8@Memory@gb@emulation@@QAEEG@Z	; emulation::gb::Memory::Read8
	mov	BYTE PTR _d8$5[ebp], al

; 451  : 		mem_->Write8(reg.raw16[dest],d8);

	movzx	ecx, BYTE PTR _d8$5[ebp]
	push	ecx
	mov	edx, 2
	imul	edx, 0
	mov	eax, DWORD PTR _this$[ebp]
	movzx	ecx, WORD PTR [eax+edx+1064]
	push	ecx
	mov	edx, DWORD PTR _this$[ebp]
	mov	ecx, DWORD PTR [edx+1076]
	call	?Write8@Memory@gb@emulation@@QAEXGE@Z	; emulation::gb::Memory::Write8
	jmp	$LN12@LD
$LN9@LD:

; 452  : 	} else if (mode == 12) { //0xFF00+d8 src

	xor	eax, eax
	je	SHORT $LN7@LD

; 453  :     uint8_t a8 = mem_->Read8(reg.PC++);

	mov	ecx, DWORD PTR _this$[ebp]
	mov	dx, WORD PTR [ecx+1074]
	mov	WORD PTR tv145[ebp], dx
	mov	eax, DWORD PTR _this$[ebp]
	mov	cx, WORD PTR [eax+1074]
	add	cx, 1
	mov	edx, DWORD PTR _this$[ebp]
	mov	WORD PTR [edx+1074], cx
	movzx	eax, WORD PTR tv145[ebp]
	push	eax
	mov	ecx, DWORD PTR _this$[ebp]
	mov	ecx, DWORD PTR [ecx+1076]
	call	?Read8@Memory@gb@emulation@@QAEEG@Z	; emulation::gb::Memory::Read8
	mov	BYTE PTR _a8$4[ebp], al

; 454  : 		mem_->Write8(0xFF00+a8,reg.raw8[src]);

	mov	edx, 1
	shl	edx, 0
	mov	eax, DWORD PTR _this$[ebp]
	movzx	ecx, BYTE PTR [eax+edx+1064]
	push	ecx
	movzx	edx, BYTE PTR _a8$4[ebp]
	add	edx, 65280				; 0000ff00H
	push	edx
	mov	eax, DWORD PTR _this$[ebp]
	mov	ecx, DWORD PTR [eax+1076]
	call	?Write8@Memory@gb@emulation@@QAEXGE@Z	; emulation::gb::Memory::Write8
	jmp	$LN12@LD
$LN7@LD:

; 455  : 	} else if (mode == 13) { //dest,0xFF00+d8 

	xor	ecx, ecx
	je	SHORT $LN5@LD

; 456  :     uint8_t a8 = mem_->Read8(reg.PC++);

	mov	edx, DWORD PTR _this$[ebp]
	mov	ax, WORD PTR [edx+1074]
	mov	WORD PTR tv169[ebp], ax
	mov	ecx, DWORD PTR _this$[ebp]
	mov	dx, WORD PTR [ecx+1074]
	add	dx, 1
	mov	eax, DWORD PTR _this$[ebp]
	mov	WORD PTR [eax+1074], dx
	movzx	ecx, WORD PTR tv169[ebp]
	push	ecx
	mov	edx, DWORD PTR _this$[ebp]
	mov	ecx, DWORD PTR [edx+1076]
	call	?Read8@Memory@gb@emulation@@QAEEG@Z	; emulation::gb::Memory::Read8
	mov	BYTE PTR _a8$3[ebp], al

; 457  : 		reg.raw8[dest] = mem_->Read8(0xFF00+a8);

	movzx	eax, BYTE PTR _a8$3[ebp]
	add	eax, 65280				; 0000ff00H
	push	eax
	mov	ecx, DWORD PTR _this$[ebp]
	mov	ecx, DWORD PTR [ecx+1076]
	call	?Read8@Memory@gb@emulation@@QAEEG@Z	; emulation::gb::Memory::Read8
	mov	edx, 1
	imul	edx, 0
	mov	ecx, DWORD PTR _this$[ebp]
	mov	BYTE PTR [ecx+edx+1064], al
	jmp	$LN12@LD
$LN5@LD:

; 458  : 	} else if (mode == 14) { //(d16),src

	mov	edx, 1
	test	edx, edx
	je	$LN3@LD

; 459  : 		uint16_t d16 = mem_->Read8(reg.PC++);

	mov	eax, DWORD PTR _this$[ebp]
	mov	cx, WORD PTR [eax+1074]
	mov	WORD PTR tv193[ebp], cx
	mov	edx, DWORD PTR _this$[ebp]
	mov	ax, WORD PTR [edx+1074]
	add	ax, 1
	mov	ecx, DWORD PTR _this$[ebp]
	mov	WORD PTR [ecx+1074], ax
	movzx	edx, WORD PTR tv193[ebp]
	push	edx
	mov	eax, DWORD PTR _this$[ebp]
	mov	ecx, DWORD PTR [eax+1076]
	call	?Read8@Memory@gb@emulation@@QAEEG@Z	; emulation::gb::Memory::Read8
	movzx	cx, al
	mov	WORD PTR _d16$2[ebp], cx

; 460  : 		d16 |= (mem_->Read8(reg.PC++))<<8;

	mov	edx, DWORD PTR _this$[ebp]
	mov	ax, WORD PTR [edx+1074]
	mov	WORD PTR tv206[ebp], ax
	mov	ecx, DWORD PTR _this$[ebp]
	mov	dx, WORD PTR [ecx+1074]
	add	dx, 1
	mov	eax, DWORD PTR _this$[ebp]
	mov	WORD PTR [eax+1074], dx
	movzx	ecx, WORD PTR tv206[ebp]
	push	ecx
	mov	edx, DWORD PTR _this$[ebp]
	mov	ecx, DWORD PTR [edx+1076]
	call	?Read8@Memory@gb@emulation@@QAEEG@Z	; emulation::gb::Memory::Read8
	movzx	eax, al
	shl	eax, 8
	movzx	ecx, WORD PTR _d16$2[ebp]
	or	ecx, eax
	mov	WORD PTR _d16$2[ebp], cx

; 461  :     mem_->Write8(d16,reg.raw8[src]);

	mov	edx, 1
	shl	edx, 0
	mov	eax, DWORD PTR _this$[ebp]
	movzx	ecx, BYTE PTR [eax+edx+1064]
	push	ecx
	movzx	edx, WORD PTR _d16$2[ebp]
	push	edx
	mov	eax, DWORD PTR _this$[ebp]
	mov	ecx, DWORD PTR [eax+1076]
	call	?Write8@Memory@gb@emulation@@QAEXGE@Z	; emulation::gb::Memory::Write8
	jmp	$LN12@LD
$LN3@LD:

; 462  : 	} else if (mode == 15) { //src,(d16)

	xor	ecx, ecx
	je	$LN12@LD

; 463  : 		uint16_t d16 = mem_->Read8(reg.PC++);

	mov	edx, DWORD PTR _this$[ebp]
	mov	ax, WORD PTR [edx+1074]
	mov	WORD PTR tv232[ebp], ax
	mov	ecx, DWORD PTR _this$[ebp]
	mov	dx, WORD PTR [ecx+1074]
	add	dx, 1
	mov	eax, DWORD PTR _this$[ebp]
	mov	WORD PTR [eax+1074], dx
	movzx	ecx, WORD PTR tv232[ebp]
	push	ecx
	mov	edx, DWORD PTR _this$[ebp]
	mov	ecx, DWORD PTR [edx+1076]
	call	?Read8@Memory@gb@emulation@@QAEEG@Z	; emulation::gb::Memory::Read8
	movzx	ax, al
	mov	WORD PTR _d16$1[ebp], ax

; 464  : 		d16 |= (mem_->Read8(reg.PC++))<<8;

	mov	ecx, DWORD PTR _this$[ebp]
	mov	dx, WORD PTR [ecx+1074]
	mov	WORD PTR tv245[ebp], dx
	mov	eax, DWORD PTR _this$[ebp]
	mov	cx, WORD PTR [eax+1074]
	add	cx, 1
	mov	edx, DWORD PTR _this$[ebp]
	mov	WORD PTR [edx+1074], cx
	movzx	eax, WORD PTR tv245[ebp]
	push	eax
	mov	ecx, DWORD PTR _this$[ebp]
	mov	ecx, DWORD PTR [ecx+1076]
	call	?Read8@Memory@gb@emulation@@QAEEG@Z	; emulation::gb::Memory::Read8
	movzx	edx, al
	shl	edx, 8
	movzx	eax, WORD PTR _d16$1[ebp]
	or	eax, edx
	mov	WORD PTR _d16$1[ebp], ax

; 465  :     reg.raw8[dest] = mem_->Read8(d16);

	movzx	ecx, WORD PTR _d16$1[ebp]
	push	ecx
	mov	edx, DWORD PTR _this$[ebp]
	mov	ecx, DWORD PTR [edx+1076]
	call	?Read8@Memory@gb@emulation@@QAEEG@Z	; emulation::gb::Memory::Read8
	mov	ecx, 1
	imul	ecx, 0
	mov	edx, DWORD PTR _this$[ebp]
	mov	BYTE PTR [edx+ecx+1064], al
$LN12@LD:

; 466  : 	}
; 467  : }

	add	esp, 32					; 00000020H
	cmp	ebp, esp
	call	__RTC_CheckEsp
	mov	esp, ebp
	pop	ebp
	ret	0
??$LD@$0A@$00$0O@@Cpu@gb@emulation@@AAEXXZ ENDP		; emulation::gb::Cpu::LD<0,1,14>
_TEXT	ENDS
; Function compile flags: /Odtp /RTCsu
; File d:\personal\projects\gbemu\solution\code\emulation\gb\cpu.cpp
;	COMDAT ??$AND@$00$0A@$01@Cpu@gb@emulation@@AAEXXZ
_TEXT	SEGMENT
_b$ = -21						; size = 1
_a$ = -9						; size = 1
_this$ = -4						; size = 4
??$AND@$00$0A@$01@Cpu@gb@emulation@@AAEXXZ PROC		; emulation::gb::Cpu::AND<1,0,2>, COMDAT
; _this$ = ecx

; 588  : void Cpu::AND() {

	push	ebp
	mov	ebp, esp
	sub	esp, 28					; 0000001cH
	mov	eax, -858993460				; ccccccccH
	mov	DWORD PTR [ebp-28], eax
	mov	DWORD PTR [ebp-24], eax
	mov	DWORD PTR [ebp-20], eax
	mov	DWORD PTR [ebp-16], eax
	mov	DWORD PTR [ebp-12], eax
	mov	DWORD PTR [ebp-8], eax
	mov	DWORD PTR [ebp-4], eax
	mov	DWORD PTR _this$[ebp], ecx

; 589  :   reg.F.raw = 0;

	mov	eax, DWORD PTR _this$[ebp]
	mov	BYTE PTR [eax+1064], 0

; 590  :   uint8_t a=0,b=0;

	mov	BYTE PTR _a$[ebp], 0
	mov	BYTE PTR _b$[ebp], 0

; 591  :   arithmeticMode<dest,src,mode>(a,b);

	lea	ecx, DWORD PTR _b$[ebp]
	push	ecx
	lea	edx, DWORD PTR _a$[ebp]
	push	edx
	mov	ecx, DWORD PTR _this$[ebp]
	call	??$arithmeticMode@$00$0A@$01@Cpu@gb@emulation@@AAEXAAE0@Z ; emulation::gb::Cpu::arithmeticMode<1,0,2>

; 592  :   reg.raw8[dest] = a & b;

	movzx	eax, BYTE PTR _a$[ebp]
	movzx	ecx, BYTE PTR _b$[ebp]
	and	eax, ecx
	mov	edx, 1
	shl	edx, 0
	mov	ecx, DWORD PTR _this$[ebp]
	mov	BYTE PTR [ecx+edx+1064], al

; 593  :   reg.F.H = 1;

	mov	edx, DWORD PTR _this$[ebp]
	mov	al, BYTE PTR [edx+1064]
	or	al, 32					; 00000020H
	mov	ecx, DWORD PTR _this$[ebp]
	mov	BYTE PTR [ecx+1064], al

; 594  :   updateCpuFlagZ(reg.raw8[dest]);

	mov	edx, 1
	shl	edx, 0
	mov	eax, DWORD PTR _this$[ebp]
	movzx	ecx, BYTE PTR [eax+edx+1064]
	push	ecx
	mov	ecx, DWORD PTR _this$[ebp]
	call	?updateCpuFlagZ@Cpu@gb@emulation@@AAEXE@Z ; emulation::gb::Cpu::updateCpuFlagZ

; 595  : }

	push	edx
	mov	ecx, ebp
	push	eax
	lea	edx, DWORD PTR $LN6@AND
	call	@_RTC_CheckStackVars@8
	pop	eax
	pop	edx
	add	esp, 28					; 0000001cH
	cmp	ebp, esp
	call	__RTC_CheckEsp
	mov	esp, ebp
	pop	ebp
	ret	0
$LN6@AND:
	DD	2
	DD	$LN5@AND
$LN5@AND:
	DD	-9					; fffffff7H
	DD	1
	DD	$LN3@AND
	DD	-21					; ffffffebH
	DD	1
	DD	$LN4@AND
$LN4@AND:
	DB	98					; 00000062H
	DB	0
$LN3@AND:
	DB	97					; 00000061H
	DB	0
??$AND@$00$0A@$01@Cpu@gb@emulation@@AAEXXZ ENDP		; emulation::gb::Cpu::AND<1,0,2>
_TEXT	ENDS
; Function compile flags: /Odtp /RTCsu
; File d:\personal\projects\gbemu\solution\code\emulation\gb\cpu.cpp
;	COMDAT ??$PUSH@$02@Cpu@gb@emulation@@AAEXXZ
_TEXT	SEGMENT
_this$ = -4						; size = 4
??$PUSH@$02@Cpu@gb@emulation@@AAEXXZ PROC		; emulation::gb::Cpu::PUSH<3>, COMDAT
; _this$ = ecx

; 903  : void Cpu::PUSH() {

	push	ebp
	mov	ebp, esp
	push	ecx
	mov	DWORD PTR [ebp-4], -858993460		; ccccccccH
	mov	DWORD PTR _this$[ebp], ecx

; 904  :   simulateSpriteBug();

	mov	ecx, DWORD PTR _this$[ebp]
	call	?simulateSpriteBug@Cpu@gb@emulation@@AAEXXZ ; emulation::gb::Cpu::simulateSpriteBug

; 905  :   push(reg.raw16[src]>>8);

	mov	eax, 2
	imul	eax, 3
	mov	ecx, DWORD PTR _this$[ebp]
	movzx	edx, WORD PTR [ecx+eax+1064]
	sar	edx, 8
	push	edx
	mov	ecx, DWORD PTR _this$[ebp]
	call	?push@Cpu@gb@emulation@@AAEXE@Z		; emulation::gb::Cpu::push

; 906  :   push(reg.raw16[src]&0xFF);

	mov	eax, 2
	imul	eax, 3
	mov	ecx, DWORD PTR _this$[ebp]
	movzx	edx, WORD PTR [ecx+eax+1064]
	and	edx, 255				; 000000ffH
	push	edx
	mov	ecx, DWORD PTR _this$[ebp]
	call	?push@Cpu@gb@emulation@@AAEXE@Z		; emulation::gb::Cpu::push

; 907  :   Tick();Tick();Tick();Tick();

	mov	ecx, DWORD PTR _this$[ebp]
	call	?Tick@Cpu@gb@emulation@@QAEXXZ		; emulation::gb::Cpu::Tick
	mov	ecx, DWORD PTR _this$[ebp]
	call	?Tick@Cpu@gb@emulation@@QAEXXZ		; emulation::gb::Cpu::Tick
	mov	ecx, DWORD PTR _this$[ebp]
	call	?Tick@Cpu@gb@emulation@@QAEXXZ		; emulation::gb::Cpu::Tick
	mov	ecx, DWORD PTR _this$[ebp]
	call	?Tick@Cpu@gb@emulation@@QAEXXZ		; emulation::gb::Cpu::Tick

; 908  : }

	add	esp, 4
	cmp	ebp, esp
	call	__RTC_CheckEsp
	mov	esp, ebp
	pop	ebp
	ret	0
??$PUSH@$02@Cpu@gb@emulation@@AAEXXZ ENDP		; emulation::gb::Cpu::PUSH<3>
_TEXT	ENDS
; Function compile flags: /Odtp /RTCsu
; File d:\personal\projects\gbemu\solution\code\emulation\gb\cpu.cpp
;	COMDAT ??$LD$FF00rr@$01$00@Cpu@gb@emulation@@AAEXXZ
_TEXT	SEGMENT
_this$ = -4						; size = 4
??$LD$FF00rr@$01$00@Cpu@gb@emulation@@AAEXXZ PROC	; emulation::gb::Cpu::LD$FF00rr<2,1>, COMDAT
; _this$ = ecx

; 402  : void Cpu::LD$FF00rr() {

	push	ebp
	mov	ebp, esp
	push	ecx
	mov	DWORD PTR [ebp-4], -858993460		; ccccccccH
	mov	DWORD PTR _this$[ebp], ecx

; 403  : 	mem_->Write8(0xFF00+reg.raw8[dest],reg.raw8[src]);

	mov	eax, 1
	shl	eax, 0
	mov	ecx, DWORD PTR _this$[ebp]
	movzx	edx, BYTE PTR [ecx+eax+1064]
	push	edx
	mov	eax, 1
	shl	eax, 1
	mov	ecx, DWORD PTR _this$[ebp]
	movzx	edx, BYTE PTR [ecx+eax+1064]
	add	edx, 65280				; 0000ff00H
	push	edx
	mov	eax, DWORD PTR _this$[ebp]
	mov	ecx, DWORD PTR [eax+1076]
	call	?Write8@Memory@gb@emulation@@QAEXGE@Z	; emulation::gb::Memory::Write8

; 404  : }

	add	esp, 4
	cmp	ebp, esp
	call	__RTC_CheckEsp
	mov	esp, ebp
	pop	ebp
	ret	0
??$LD$FF00rr@$01$00@Cpu@gb@emulation@@AAEXXZ ENDP	; emulation::gb::Cpu::LD$FF00rr<2,1>
_TEXT	ENDS
; Function compile flags: /Odtp /RTCsu
; File d:\personal\projects\gbemu\solution\code\emulation\gb\cpu.cpp
;	COMDAT ??$POP@$02@Cpu@gb@emulation@@AAEXXZ
_TEXT	SEGMENT
_this$ = -4						; size = 4
??$POP@$02@Cpu@gb@emulation@@AAEXXZ PROC		; emulation::gb::Cpu::POP<3>, COMDAT
; _this$ = ecx

; 911  : void Cpu::POP() {

	push	ebp
	mov	ebp, esp
	push	ecx
	push	esi
	mov	DWORD PTR [ebp-4], -858993460		; ccccccccH
	mov	DWORD PTR _this$[ebp], ecx

; 912  :   simulateSpriteBug();

	mov	ecx, DWORD PTR _this$[ebp]
	call	?simulateSpriteBug@Cpu@gb@emulation@@AAEXXZ ; emulation::gb::Cpu::simulateSpriteBug

; 913  :   reg.raw16[dest] = pop();

	mov	ecx, DWORD PTR _this$[ebp]
	call	?pop@Cpu@gb@emulation@@AAEEXZ		; emulation::gb::Cpu::pop
	movzx	ax, al
	mov	ecx, 2
	imul	ecx, 3
	mov	edx, DWORD PTR _this$[ebp]
	mov	WORD PTR [edx+ecx+1064], ax

; 914  :   reg.raw16[dest] |= pop() << 8;

	mov	esi, 2
	imul	esi, 3
	mov	ecx, DWORD PTR _this$[ebp]
	call	?pop@Cpu@gb@emulation@@AAEEXZ		; emulation::gb::Cpu::pop
	movzx	eax, al
	shl	eax, 8
	mov	ecx, DWORD PTR _this$[ebp]
	movzx	edx, WORD PTR [ecx+esi+1064]
	or	edx, eax
	mov	eax, 2
	imul	eax, 3
	mov	ecx, DWORD PTR _this$[ebp]
	mov	WORD PTR [ecx+eax+1064], dx

; 915  :   if (dest == RegAF)

	xor	edx, edx
	je	SHORT $LN2@POP

; 916  :     reg.F._unused = 0;

	mov	eax, DWORD PTR _this$[ebp]
	mov	cl, BYTE PTR [eax+1064]
	and	cl, 240					; 000000f0H
	mov	edx, DWORD PTR _this$[ebp]
	mov	BYTE PTR [edx+1064], cl
$LN2@POP:

; 917  : }

	pop	esi
	add	esp, 4
	cmp	ebp, esp
	call	__RTC_CheckEsp
	mov	esp, ebp
	pop	ebp
	ret	0
??$POP@$02@Cpu@gb@emulation@@AAEXXZ ENDP		; emulation::gb::Cpu::POP<3>
_TEXT	ENDS
; Function compile flags: /Odtp /RTCsu
; File d:\personal\projects\gbemu\solution\code\emulation\gb\cpu.cpp
;	COMDAT ??$LD@$0A@$00$0M@@Cpu@gb@emulation@@AAEXXZ
_TEXT	SEGMENT
tv245 = -32						; size = 2
tv232 = -30						; size = 2
tv206 = -28						; size = 2
tv193 = -26						; size = 2
tv169 = -24						; size = 2
tv145 = -22						; size = 2
tv92 = -20						; size = 2
tv79 = -18						; size = 2
_d16$1 = -16						; size = 2
_d16$2 = -12						; size = 2
_a8$3 = -7						; size = 1
_a8$4 = -6						; size = 1
_d8$5 = -5						; size = 1
_this$ = -4						; size = 4
??$LD@$0A@$00$0M@@Cpu@gb@emulation@@AAEXXZ PROC		; emulation::gb::Cpu::LD<0,1,12>, COMDAT
; _this$ = ecx

; 446  : void Cpu::LD() {

	push	ebp
	mov	ebp, esp
	sub	esp, 32					; 00000020H
	mov	eax, -858993460				; ccccccccH
	mov	DWORD PTR [ebp-32], eax
	mov	DWORD PTR [ebp-28], eax
	mov	DWORD PTR [ebp-24], eax
	mov	DWORD PTR [ebp-20], eax
	mov	DWORD PTR [ebp-16], eax
	mov	DWORD PTR [ebp-12], eax
	mov	DWORD PTR [ebp-8], eax
	mov	DWORD PTR [ebp-4], eax
	mov	DWORD PTR _this$[ebp], ecx

; 447  :   if (mode == 10) { //dest,d8

	xor	eax, eax
	je	SHORT $LN11@LD

; 448  : 		reg.raw8[dest] = mem_->Read8(reg.PC++);

	mov	ecx, DWORD PTR _this$[ebp]
	mov	dx, WORD PTR [ecx+1074]
	mov	WORD PTR tv79[ebp], dx
	mov	eax, DWORD PTR _this$[ebp]
	mov	cx, WORD PTR [eax+1074]
	add	cx, 1
	mov	edx, DWORD PTR _this$[ebp]
	mov	WORD PTR [edx+1074], cx
	movzx	eax, WORD PTR tv79[ebp]
	push	eax
	mov	ecx, DWORD PTR _this$[ebp]
	mov	ecx, DWORD PTR [ecx+1076]
	call	?Read8@Memory@gb@emulation@@QAEEG@Z	; emulation::gb::Memory::Read8
	mov	edx, 1
	imul	edx, 0
	mov	ecx, DWORD PTR _this$[ebp]
	mov	BYTE PTR [ecx+edx+1064], al
	jmp	$LN12@LD
$LN11@LD:

; 449  : 	}else if (mode == 11) { //(dest),d8

	xor	edx, edx
	je	SHORT $LN9@LD

; 450  : 		auto d8 = mem_->Read8(reg.PC++);

	mov	eax, DWORD PTR _this$[ebp]
	mov	cx, WORD PTR [eax+1074]
	mov	WORD PTR tv92[ebp], cx
	mov	edx, DWORD PTR _this$[ebp]
	mov	ax, WORD PTR [edx+1074]
	add	ax, 1
	mov	ecx, DWORD PTR _this$[ebp]
	mov	WORD PTR [ecx+1074], ax
	movzx	edx, WORD PTR tv92[ebp]
	push	edx
	mov	eax, DWORD PTR _this$[ebp]
	mov	ecx, DWORD PTR [eax+1076]
	call	?Read8@Memory@gb@emulation@@QAEEG@Z	; emulation::gb::Memory::Read8
	mov	BYTE PTR _d8$5[ebp], al

; 451  : 		mem_->Write8(reg.raw16[dest],d8);

	movzx	ecx, BYTE PTR _d8$5[ebp]
	push	ecx
	mov	edx, 2
	imul	edx, 0
	mov	eax, DWORD PTR _this$[ebp]
	movzx	ecx, WORD PTR [eax+edx+1064]
	push	ecx
	mov	edx, DWORD PTR _this$[ebp]
	mov	ecx, DWORD PTR [edx+1076]
	call	?Write8@Memory@gb@emulation@@QAEXGE@Z	; emulation::gb::Memory::Write8
	jmp	$LN12@LD
$LN9@LD:

; 452  : 	} else if (mode == 12) { //0xFF00+d8 src

	mov	eax, 1
	test	eax, eax
	je	SHORT $LN7@LD

; 453  :     uint8_t a8 = mem_->Read8(reg.PC++);

	mov	ecx, DWORD PTR _this$[ebp]
	mov	dx, WORD PTR [ecx+1074]
	mov	WORD PTR tv145[ebp], dx
	mov	eax, DWORD PTR _this$[ebp]
	mov	cx, WORD PTR [eax+1074]
	add	cx, 1
	mov	edx, DWORD PTR _this$[ebp]
	mov	WORD PTR [edx+1074], cx
	movzx	eax, WORD PTR tv145[ebp]
	push	eax
	mov	ecx, DWORD PTR _this$[ebp]
	mov	ecx, DWORD PTR [ecx+1076]
	call	?Read8@Memory@gb@emulation@@QAEEG@Z	; emulation::gb::Memory::Read8
	mov	BYTE PTR _a8$4[ebp], al

; 454  : 		mem_->Write8(0xFF00+a8,reg.raw8[src]);

	mov	edx, 1
	shl	edx, 0
	mov	eax, DWORD PTR _this$[ebp]
	movzx	ecx, BYTE PTR [eax+edx+1064]
	push	ecx
	movzx	edx, BYTE PTR _a8$4[ebp]
	add	edx, 65280				; 0000ff00H
	push	edx
	mov	eax, DWORD PTR _this$[ebp]
	mov	ecx, DWORD PTR [eax+1076]
	call	?Write8@Memory@gb@emulation@@QAEXGE@Z	; emulation::gb::Memory::Write8
	jmp	$LN12@LD
$LN7@LD:

; 455  : 	} else if (mode == 13) { //dest,0xFF00+d8 

	xor	ecx, ecx
	je	SHORT $LN5@LD

; 456  :     uint8_t a8 = mem_->Read8(reg.PC++);

	mov	edx, DWORD PTR _this$[ebp]
	mov	ax, WORD PTR [edx+1074]
	mov	WORD PTR tv169[ebp], ax
	mov	ecx, DWORD PTR _this$[ebp]
	mov	dx, WORD PTR [ecx+1074]
	add	dx, 1
	mov	eax, DWORD PTR _this$[ebp]
	mov	WORD PTR [eax+1074], dx
	movzx	ecx, WORD PTR tv169[ebp]
	push	ecx
	mov	edx, DWORD PTR _this$[ebp]
	mov	ecx, DWORD PTR [edx+1076]
	call	?Read8@Memory@gb@emulation@@QAEEG@Z	; emulation::gb::Memory::Read8
	mov	BYTE PTR _a8$3[ebp], al

; 457  : 		reg.raw8[dest] = mem_->Read8(0xFF00+a8);

	movzx	eax, BYTE PTR _a8$3[ebp]
	add	eax, 65280				; 0000ff00H
	push	eax
	mov	ecx, DWORD PTR _this$[ebp]
	mov	ecx, DWORD PTR [ecx+1076]
	call	?Read8@Memory@gb@emulation@@QAEEG@Z	; emulation::gb::Memory::Read8
	mov	edx, 1
	imul	edx, 0
	mov	ecx, DWORD PTR _this$[ebp]
	mov	BYTE PTR [ecx+edx+1064], al
	jmp	$LN12@LD
$LN5@LD:

; 458  : 	} else if (mode == 14) { //(d16),src

	xor	edx, edx
	je	$LN3@LD

; 459  : 		uint16_t d16 = mem_->Read8(reg.PC++);

	mov	eax, DWORD PTR _this$[ebp]
	mov	cx, WORD PTR [eax+1074]
	mov	WORD PTR tv193[ebp], cx
	mov	edx, DWORD PTR _this$[ebp]
	mov	ax, WORD PTR [edx+1074]
	add	ax, 1
	mov	ecx, DWORD PTR _this$[ebp]
	mov	WORD PTR [ecx+1074], ax
	movzx	edx, WORD PTR tv193[ebp]
	push	edx
	mov	eax, DWORD PTR _this$[ebp]
	mov	ecx, DWORD PTR [eax+1076]
	call	?Read8@Memory@gb@emulation@@QAEEG@Z	; emulation::gb::Memory::Read8
	movzx	cx, al
	mov	WORD PTR _d16$2[ebp], cx

; 460  : 		d16 |= (mem_->Read8(reg.PC++))<<8;

	mov	edx, DWORD PTR _this$[ebp]
	mov	ax, WORD PTR [edx+1074]
	mov	WORD PTR tv206[ebp], ax
	mov	ecx, DWORD PTR _this$[ebp]
	mov	dx, WORD PTR [ecx+1074]
	add	dx, 1
	mov	eax, DWORD PTR _this$[ebp]
	mov	WORD PTR [eax+1074], dx
	movzx	ecx, WORD PTR tv206[ebp]
	push	ecx
	mov	edx, DWORD PTR _this$[ebp]
	mov	ecx, DWORD PTR [edx+1076]
	call	?Read8@Memory@gb@emulation@@QAEEG@Z	; emulation::gb::Memory::Read8
	movzx	eax, al
	shl	eax, 8
	movzx	ecx, WORD PTR _d16$2[ebp]
	or	ecx, eax
	mov	WORD PTR _d16$2[ebp], cx

; 461  :     mem_->Write8(d16,reg.raw8[src]);

	mov	edx, 1
	shl	edx, 0
	mov	eax, DWORD PTR _this$[ebp]
	movzx	ecx, BYTE PTR [eax+edx+1064]
	push	ecx
	movzx	edx, WORD PTR _d16$2[ebp]
	push	edx
	mov	eax, DWORD PTR _this$[ebp]
	mov	ecx, DWORD PTR [eax+1076]
	call	?Write8@Memory@gb@emulation@@QAEXGE@Z	; emulation::gb::Memory::Write8
	jmp	$LN12@LD
$LN3@LD:

; 462  : 	} else if (mode == 15) { //src,(d16)

	xor	ecx, ecx
	je	$LN12@LD

; 463  : 		uint16_t d16 = mem_->Read8(reg.PC++);

	mov	edx, DWORD PTR _this$[ebp]
	mov	ax, WORD PTR [edx+1074]
	mov	WORD PTR tv232[ebp], ax
	mov	ecx, DWORD PTR _this$[ebp]
	mov	dx, WORD PTR [ecx+1074]
	add	dx, 1
	mov	eax, DWORD PTR _this$[ebp]
	mov	WORD PTR [eax+1074], dx
	movzx	ecx, WORD PTR tv232[ebp]
	push	ecx
	mov	edx, DWORD PTR _this$[ebp]
	mov	ecx, DWORD PTR [edx+1076]
	call	?Read8@Memory@gb@emulation@@QAEEG@Z	; emulation::gb::Memory::Read8
	movzx	ax, al
	mov	WORD PTR _d16$1[ebp], ax

; 464  : 		d16 |= (mem_->Read8(reg.PC++))<<8;

	mov	ecx, DWORD PTR _this$[ebp]
	mov	dx, WORD PTR [ecx+1074]
	mov	WORD PTR tv245[ebp], dx
	mov	eax, DWORD PTR _this$[ebp]
	mov	cx, WORD PTR [eax+1074]
	add	cx, 1
	mov	edx, DWORD PTR _this$[ebp]
	mov	WORD PTR [edx+1074], cx
	movzx	eax, WORD PTR tv245[ebp]
	push	eax
	mov	ecx, DWORD PTR _this$[ebp]
	mov	ecx, DWORD PTR [ecx+1076]
	call	?Read8@Memory@gb@emulation@@QAEEG@Z	; emulation::gb::Memory::Read8
	movzx	edx, al
	shl	edx, 8
	movzx	eax, WORD PTR _d16$1[ebp]
	or	eax, edx
	mov	WORD PTR _d16$1[ebp], ax

; 465  :     reg.raw8[dest] = mem_->Read8(d16);

	movzx	ecx, WORD PTR _d16$1[ebp]
	push	ecx
	mov	edx, DWORD PTR _this$[ebp]
	mov	ecx, DWORD PTR [edx+1076]
	call	?Read8@Memory@gb@emulation@@QAEEG@Z	; emulation::gb::Memory::Read8
	mov	ecx, 1
	imul	ecx, 0
	mov	edx, DWORD PTR _this$[ebp]
	mov	BYTE PTR [edx+ecx+1064], al
$LN12@LD:

; 466  : 	}
; 467  : }

	add	esp, 32					; 00000020H
	cmp	ebp, esp
	call	__RTC_CheckEsp
	mov	esp, ebp
	pop	ebp
	ret	0
??$LD@$0A@$00$0M@@Cpu@gb@emulation@@AAEXXZ ENDP		; emulation::gb::Cpu::LD<0,1,12>
_TEXT	ENDS
; Function compile flags: /Odtp /RTCsu
; File d:\personal\projects\gbemu\solution\code\emulation\gb\cpu.cpp
;	COMDAT ??$SBC@$00$0A@$01@Cpu@gb@emulation@@AAEXXZ
_TEXT	SEGMENT
_carry$ = -29						; size = 1
_b$ = -21						; size = 1
_a$ = -9						; size = 1
_this$ = -4						; size = 4
??$SBC@$00$0A@$01@Cpu@gb@emulation@@AAEXXZ PROC		; emulation::gb::Cpu::SBC<1,0,2>, COMDAT
; _this$ = ecx

; 572  : void Cpu::SBC() {

	push	ebp
	mov	ebp, esp
	sub	esp, 32					; 00000020H
	mov	eax, -858993460				; ccccccccH
	mov	DWORD PTR [ebp-32], eax
	mov	DWORD PTR [ebp-28], eax
	mov	DWORD PTR [ebp-24], eax
	mov	DWORD PTR [ebp-20], eax
	mov	DWORD PTR [ebp-16], eax
	mov	DWORD PTR [ebp-12], eax
	mov	DWORD PTR [ebp-8], eax
	mov	DWORD PTR [ebp-4], eax
	mov	DWORD PTR _this$[ebp], ecx

; 573  :   reg.F.N = 1;

	mov	eax, DWORD PTR _this$[ebp]
	mov	cl, BYTE PTR [eax+1064]
	or	cl, 64					; 00000040H
	mov	edx, DWORD PTR _this$[ebp]
	mov	BYTE PTR [edx+1064], cl

; 574  :   uint8_t a=0,b=0;

	mov	BYTE PTR _a$[ebp], 0
	mov	BYTE PTR _b$[ebp], 0

; 575  :   arithmeticMode<dest,src,mode>(a,b);

	lea	eax, DWORD PTR _b$[ebp]
	push	eax
	lea	ecx, DWORD PTR _a$[ebp]
	push	ecx
	mov	ecx, DWORD PTR _this$[ebp]
	call	??$arithmeticMode@$00$0A@$01@Cpu@gb@emulation@@AAEXAAE0@Z ; emulation::gb::Cpu::arithmeticMode<1,0,2>

; 576  :   uint8_t carry = reg.F.C;

	mov	edx, DWORD PTR _this$[ebp]
	mov	al, BYTE PTR [edx+1064]
	shr	al, 4
	and	al, 1
	mov	BYTE PTR _carry$[ebp], al

; 577  :   reg.raw8[dest] = a - b - carry;

	movzx	ecx, BYTE PTR _a$[ebp]
	movzx	edx, BYTE PTR _b$[ebp]
	sub	ecx, edx
	movzx	eax, BYTE PTR _carry$[ebp]
	sub	ecx, eax
	mov	edx, 1
	shl	edx, 0
	mov	eax, DWORD PTR _this$[ebp]
	mov	BYTE PTR [eax+edx+1064], cl

; 578  :   updateCpuFlagC(a,carry,1);

	push	1
	movzx	ecx, BYTE PTR _carry$[ebp]
	push	ecx
	movzx	edx, BYTE PTR _a$[ebp]
	push	edx
	mov	ecx, DWORD PTR _this$[ebp]
	call	?updateCpuFlagC@Cpu@gb@emulation@@AAEXEEH@Z ; emulation::gb::Cpu::updateCpuFlagC

; 579  :   if (reg.F.C==0)

	mov	eax, DWORD PTR _this$[ebp]
	mov	cl, BYTE PTR [eax+1064]
	shr	cl, 4
	and	cl, 1
	movzx	edx, cl
	test	edx, edx
	jne	SHORT $LN2@SBC

; 580  :     updateCpuFlagC(a-carry,b,1);

	push	1
	movzx	eax, BYTE PTR _b$[ebp]
	push	eax
	movzx	ecx, BYTE PTR _a$[ebp]
	movzx	edx, BYTE PTR _carry$[ebp]
	sub	ecx, edx
	push	ecx
	mov	ecx, DWORD PTR _this$[ebp]
	call	?updateCpuFlagC@Cpu@gb@emulation@@AAEXEEH@Z ; emulation::gb::Cpu::updateCpuFlagC
$LN2@SBC:

; 581  :   updateCpuFlagH(a,carry,1);

	push	1
	movzx	eax, BYTE PTR _carry$[ebp]
	push	eax
	movzx	ecx, BYTE PTR _a$[ebp]
	push	ecx
	mov	ecx, DWORD PTR _this$[ebp]
	call	?updateCpuFlagH@Cpu@gb@emulation@@AAEXEEH@Z ; emulation::gb::Cpu::updateCpuFlagH

; 582  :   if (reg.F.H==0)

	mov	edx, DWORD PTR _this$[ebp]
	mov	al, BYTE PTR [edx+1064]
	shr	al, 5
	and	al, 1
	movzx	ecx, al
	test	ecx, ecx
	jne	SHORT $LN1@SBC

; 583  :     updateCpuFlagH(a-carry,b,1);

	push	1
	movzx	edx, BYTE PTR _b$[ebp]
	push	edx
	movzx	eax, BYTE PTR _a$[ebp]
	movzx	ecx, BYTE PTR _carry$[ebp]
	sub	eax, ecx
	push	eax
	mov	ecx, DWORD PTR _this$[ebp]
	call	?updateCpuFlagH@Cpu@gb@emulation@@AAEXEEH@Z ; emulation::gb::Cpu::updateCpuFlagH
$LN1@SBC:

; 584  :   updateCpuFlagZ(reg.raw8[dest]);

	mov	edx, 1
	shl	edx, 0
	mov	eax, DWORD PTR _this$[ebp]
	movzx	ecx, BYTE PTR [eax+edx+1064]
	push	ecx
	mov	ecx, DWORD PTR _this$[ebp]
	call	?updateCpuFlagZ@Cpu@gb@emulation@@AAEXE@Z ; emulation::gb::Cpu::updateCpuFlagZ

; 585  : }

	push	edx
	mov	ecx, ebp
	push	eax
	lea	edx, DWORD PTR $LN8@SBC
	call	@_RTC_CheckStackVars@8
	pop	eax
	pop	edx
	add	esp, 32					; 00000020H
	cmp	ebp, esp
	call	__RTC_CheckEsp
	mov	esp, ebp
	pop	ebp
	ret	0
$LN8@SBC:
	DD	2
	DD	$LN7@SBC
$LN7@SBC:
	DD	-9					; fffffff7H
	DD	1
	DD	$LN5@SBC
	DD	-21					; ffffffebH
	DD	1
	DD	$LN6@SBC
$LN6@SBC:
	DB	98					; 00000062H
	DB	0
$LN5@SBC:
	DB	97					; 00000061H
	DB	0
??$SBC@$00$0A@$01@Cpu@gb@emulation@@AAEXXZ ENDP		; emulation::gb::Cpu::SBC<1,0,2>
_TEXT	ENDS
; Function compile flags: /Odtp /RTCsu
; File d:\personal\projects\gbemu\solution\code\emulation\gb\cpu.cpp
;	COMDAT ??$CALL_cc@$03$0A@@Cpu@gb@emulation@@AAEXXZ
_TEXT	SEGMENT
tv137 = -28						; size = 2
tv92 = -26						; size = 2
_nn$1 = -24						; size = 2
_table$ = -16						; size = 8
_this$ = -4						; size = 4
??$CALL_cc@$03$0A@@Cpu@gb@emulation@@AAEXXZ PROC	; emulation::gb::Cpu::CALL_cc<4,0>, COMDAT
; _this$ = ecx

; 869  : void Cpu::CALL_cc() {

	push	ebp
	mov	ebp, esp
	sub	esp, 28					; 0000001cH
	mov	eax, -858993460				; ccccccccH
	mov	DWORD PTR [ebp-28], eax
	mov	DWORD PTR [ebp-24], eax
	mov	DWORD PTR [ebp-20], eax
	mov	DWORD PTR [ebp-16], eax
	mov	DWORD PTR [ebp-12], eax
	mov	DWORD PTR [ebp-8], eax
	mov	DWORD PTR [ebp-4], eax
	mov	DWORD PTR _this$[ebp], ecx

; 870  :   int table[2] = {((reg.F.raw & (1<<condbit))>>condbit),

	mov	eax, DWORD PTR _this$[ebp]
	movzx	ecx, BYTE PTR [eax+1064]
	and	ecx, 16					; 00000010H
	sar	ecx, 4
	mov	DWORD PTR _table$[ebp], ecx

; 871  :     ~((reg.F.raw & (1<<condbit))>>condbit)};

	mov	edx, DWORD PTR _this$[ebp]
	movzx	eax, BYTE PTR [edx+1064]
	and	eax, 16					; 00000010H
	sar	eax, 4
	not	eax
	mov	DWORD PTR _table$[ebp+4], eax

; 872  : 
; 873  :   if (table[inv]&1) {

	mov	ecx, 4
	imul	ecx, 0
	mov	edx, DWORD PTR _table$[ebp+ecx]
	and	edx, 1
	je	SHORT $LN2@CALL_cc

; 874  :     CALL();

	mov	ecx, DWORD PTR _this$[ebp]
	call	?CALL@Cpu@gb@emulation@@AAEXXZ		; emulation::gb::Cpu::CALL

; 875  :   } else {

	jmp	$LN3@CALL_cc
$LN2@CALL_cc:

; 876  :     uint16_t nn;
; 877  :     nn = mem_->Read8(reg.PC++);

	mov	eax, DWORD PTR _this$[ebp]
	mov	cx, WORD PTR [eax+1074]
	mov	WORD PTR tv92[ebp], cx
	mov	edx, DWORD PTR _this$[ebp]
	mov	ax, WORD PTR [edx+1074]
	add	ax, 1
	mov	ecx, DWORD PTR _this$[ebp]
	mov	WORD PTR [ecx+1074], ax
	movzx	edx, WORD PTR tv92[ebp]
	push	edx
	mov	eax, DWORD PTR _this$[ebp]
	mov	ecx, DWORD PTR [eax+1076]
	call	?Read8@Memory@gb@emulation@@QAEEG@Z	; emulation::gb::Memory::Read8
	movzx	cx, al
	mov	WORD PTR _nn$1[ebp], cx

; 878  :     nn |= (mem_->Read8(reg.PC++))<<8;

	mov	edx, DWORD PTR _this$[ebp]
	mov	ax, WORD PTR [edx+1074]
	mov	WORD PTR tv137[ebp], ax
	mov	ecx, DWORD PTR _this$[ebp]
	mov	dx, WORD PTR [ecx+1074]
	add	dx, 1
	mov	eax, DWORD PTR _this$[ebp]
	mov	WORD PTR [eax+1074], dx
	movzx	ecx, WORD PTR tv137[ebp]
	push	ecx
	mov	edx, DWORD PTR _this$[ebp]
	mov	ecx, DWORD PTR [edx+1076]
	call	?Read8@Memory@gb@emulation@@QAEEG@Z	; emulation::gb::Memory::Read8
	movzx	eax, al
	shl	eax, 8
	movzx	ecx, WORD PTR _nn$1[ebp]
	or	ecx, eax
	mov	WORD PTR _nn$1[ebp], cx
$LN3@CALL_cc:

; 879  :   }
; 880  : }

	push	edx
	mov	ecx, ebp
	push	eax
	lea	edx, DWORD PTR $LN7@CALL_cc
	call	@_RTC_CheckStackVars@8
	pop	eax
	pop	edx
	add	esp, 28					; 0000001cH
	cmp	ebp, esp
	call	__RTC_CheckEsp
	mov	esp, ebp
	pop	ebp
	ret	0
	npad	2
$LN7@CALL_cc:
	DD	1
	DD	$LN6@CALL_cc
$LN6@CALL_cc:
	DD	-16					; fffffff0H
	DD	8
	DD	$LN5@CALL_cc
$LN5@CALL_cc:
	DB	116					; 00000074H
	DB	97					; 00000061H
	DB	98					; 00000062H
	DB	108					; 0000006cH
	DB	101					; 00000065H
	DB	0
??$CALL_cc@$03$0A@@Cpu@gb@emulation@@AAEXXZ ENDP	; emulation::gb::Cpu::CALL_cc<4,0>
_TEXT	ENDS
; Function compile flags: /Odtp /RTCsu
; File d:\personal\projects\gbemu\solution\code\emulation\gb\cpu.cpp
;	COMDAT ??$JP_cc@$03$0A@@Cpu@gb@emulation@@AAEXXZ
_TEXT	SEGMENT
tv137 = -28						; size = 2
tv92 = -26						; size = 2
_nn$1 = -24						; size = 2
_table$ = -16						; size = 8
_this$ = -4						; size = 4
??$JP_cc@$03$0A@@Cpu@gb@emulation@@AAEXXZ PROC		; emulation::gb::Cpu::JP_cc<4,0>, COMDAT
; _this$ = ecx

; 840  : void Cpu::JP_cc() {

	push	ebp
	mov	ebp, esp
	sub	esp, 28					; 0000001cH
	mov	eax, -858993460				; ccccccccH
	mov	DWORD PTR [ebp-28], eax
	mov	DWORD PTR [ebp-24], eax
	mov	DWORD PTR [ebp-20], eax
	mov	DWORD PTR [ebp-16], eax
	mov	DWORD PTR [ebp-12], eax
	mov	DWORD PTR [ebp-8], eax
	mov	DWORD PTR [ebp-4], eax
	mov	DWORD PTR _this$[ebp], ecx

; 841  :   int table[2] = {((reg.F.raw & (1<<condbit))>>condbit),

	mov	eax, DWORD PTR _this$[ebp]
	movzx	ecx, BYTE PTR [eax+1064]
	and	ecx, 16					; 00000010H
	sar	ecx, 4
	mov	DWORD PTR _table$[ebp], ecx

; 842  :     ~((reg.F.raw & (1<<condbit))>>condbit)};

	mov	edx, DWORD PTR _this$[ebp]
	movzx	eax, BYTE PTR [edx+1064]
	and	eax, 16					; 00000010H
	sar	eax, 4
	not	eax
	mov	DWORD PTR _table$[ebp+4], eax

; 843  : 
; 844  :   if (table[inv]&1) {

	mov	ecx, 4
	imul	ecx, 0
	mov	edx, DWORD PTR _table$[ebp+ecx]
	and	edx, 1
	je	SHORT $LN2@JP_cc

; 845  :     JP();

	mov	ecx, DWORD PTR _this$[ebp]
	call	?JP@Cpu@gb@emulation@@AAEXXZ		; emulation::gb::Cpu::JP

; 846  :   } else {

	jmp	$LN3@JP_cc
$LN2@JP_cc:

; 847  :     uint16_t nn;
; 848  :     nn = mem_->Read8(reg.PC++);

	mov	eax, DWORD PTR _this$[ebp]
	mov	cx, WORD PTR [eax+1074]
	mov	WORD PTR tv92[ebp], cx
	mov	edx, DWORD PTR _this$[ebp]
	mov	ax, WORD PTR [edx+1074]
	add	ax, 1
	mov	ecx, DWORD PTR _this$[ebp]
	mov	WORD PTR [ecx+1074], ax
	movzx	edx, WORD PTR tv92[ebp]
	push	edx
	mov	eax, DWORD PTR _this$[ebp]
	mov	ecx, DWORD PTR [eax+1076]
	call	?Read8@Memory@gb@emulation@@QAEEG@Z	; emulation::gb::Memory::Read8
	movzx	cx, al
	mov	WORD PTR _nn$1[ebp], cx

; 849  :     nn |= (mem_->Read8(reg.PC++))<<8;

	mov	edx, DWORD PTR _this$[ebp]
	mov	ax, WORD PTR [edx+1074]
	mov	WORD PTR tv137[ebp], ax
	mov	ecx, DWORD PTR _this$[ebp]
	mov	dx, WORD PTR [ecx+1074]
	add	dx, 1
	mov	eax, DWORD PTR _this$[ebp]
	mov	WORD PTR [eax+1074], dx
	movzx	ecx, WORD PTR tv137[ebp]
	push	ecx
	mov	edx, DWORD PTR _this$[ebp]
	mov	ecx, DWORD PTR [edx+1076]
	call	?Read8@Memory@gb@emulation@@QAEEG@Z	; emulation::gb::Memory::Read8
	movzx	eax, al
	shl	eax, 8
	movzx	ecx, WORD PTR _nn$1[ebp]
	or	ecx, eax
	mov	WORD PTR _nn$1[ebp], cx
$LN3@JP_cc:

; 850  :   }
; 851  : }

	push	edx
	mov	ecx, ebp
	push	eax
	lea	edx, DWORD PTR $LN7@JP_cc
	call	@_RTC_CheckStackVars@8
	pop	eax
	pop	edx
	add	esp, 28					; 0000001cH
	cmp	ebp, esp
	call	__RTC_CheckEsp
	mov	esp, ebp
	pop	ebp
	ret	0
	npad	2
$LN7@JP_cc:
	DD	1
	DD	$LN6@JP_cc
$LN6@JP_cc:
	DD	-16					; fffffff0H
	DD	8
	DD	$LN5@JP_cc
$LN5@JP_cc:
	DB	116					; 00000074H
	DB	97					; 00000061H
	DB	98					; 00000062H
	DB	108					; 0000006cH
	DB	101					; 00000065H
	DB	0
??$JP_cc@$03$0A@@Cpu@gb@emulation@@AAEXXZ ENDP		; emulation::gb::Cpu::JP_cc<4,0>
_TEXT	ENDS
; Function compile flags: /Odtp /RTCsu
; File d:\personal\projects\gbemu\solution\code\emulation\gb\cpu.cpp
;	COMDAT ??$RET_cc@$03$0A@@Cpu@gb@emulation@@AAEXXZ
_TEXT	SEGMENT
_table$ = -16						; size = 8
_this$ = -4						; size = 4
??$RET_cc@$03$0A@@Cpu@gb@emulation@@AAEXXZ PROC		; emulation::gb::Cpu::RET_cc<4,0>, COMDAT
; _this$ = ecx

; 889  : void Cpu::RET_cc() {

	push	ebp
	mov	ebp, esp
	sub	esp, 20					; 00000014H
	mov	eax, -858993460				; ccccccccH
	mov	DWORD PTR [ebp-20], eax
	mov	DWORD PTR [ebp-16], eax
	mov	DWORD PTR [ebp-12], eax
	mov	DWORD PTR [ebp-8], eax
	mov	DWORD PTR [ebp-4], eax
	mov	DWORD PTR _this$[ebp], ecx

; 890  :   int table[2] = {((reg.F.raw & (1<<condbit))>>condbit),

	mov	eax, DWORD PTR _this$[ebp]
	movzx	ecx, BYTE PTR [eax+1064]
	and	ecx, 16					; 00000010H
	sar	ecx, 4
	mov	DWORD PTR _table$[ebp], ecx

; 891  :     ~((reg.F.raw & (1<<condbit))>>condbit)};

	mov	edx, DWORD PTR _this$[ebp]
	movzx	eax, BYTE PTR [edx+1064]
	and	eax, 16					; 00000010H
	sar	eax, 4
	not	eax
	mov	DWORD PTR _table$[ebp+4], eax

; 892  : 
; 893  :   if (table[inv]&1) {

	mov	ecx, 4
	imul	ecx, 0
	mov	edx, DWORD PTR _table$[ebp+ecx]
	and	edx, 1
	je	SHORT $LN1@RET_cc

; 894  :     RET();

	mov	ecx, DWORD PTR _this$[ebp]
	call	?RET@Cpu@gb@emulation@@AAEXXZ		; emulation::gb::Cpu::RET
$LN1@RET_cc:

; 895  :   } else {
; 896  :    
; 897  :   }
; 898  :    Tick();Tick();Tick();Tick();

	mov	ecx, DWORD PTR _this$[ebp]
	call	?Tick@Cpu@gb@emulation@@QAEXXZ		; emulation::gb::Cpu::Tick
	mov	ecx, DWORD PTR _this$[ebp]
	call	?Tick@Cpu@gb@emulation@@QAEXXZ		; emulation::gb::Cpu::Tick
	mov	ecx, DWORD PTR _this$[ebp]
	call	?Tick@Cpu@gb@emulation@@QAEXXZ		; emulation::gb::Cpu::Tick
	mov	ecx, DWORD PTR _this$[ebp]
	call	?Tick@Cpu@gb@emulation@@QAEXXZ		; emulation::gb::Cpu::Tick

; 899  : }

	push	edx
	mov	ecx, ebp
	push	eax
	lea	edx, DWORD PTR $LN7@RET_cc
	call	@_RTC_CheckStackVars@8
	pop	eax
	pop	edx
	add	esp, 20					; 00000014H
	cmp	ebp, esp
	call	__RTC_CheckEsp
	mov	esp, ebp
	pop	ebp
	ret	0
	npad	3
$LN7@RET_cc:
	DD	1
	DD	$LN6@RET_cc
$LN6@RET_cc:
	DD	-16					; fffffff0H
	DD	8
	DD	$LN5@RET_cc
$LN5@RET_cc:
	DB	116					; 00000074H
	DB	97					; 00000061H
	DB	98					; 00000062H
	DB	108					; 0000006cH
	DB	101					; 00000065H
	DB	0
??$RET_cc@$03$0A@@Cpu@gb@emulation@@AAEXXZ ENDP		; emulation::gb::Cpu::RET_cc<4,0>
_TEXT	ENDS
; Function compile flags: /Odtp /RTCsu
; File d:\personal\projects\gbemu\solution\code\emulation\gb\cpu.cpp
;	COMDAT ??$SUB@$00$0A@$01@Cpu@gb@emulation@@AAEXXZ
_TEXT	SEGMENT
_b$ = -21						; size = 1
_a$ = -9						; size = 1
_this$ = -4						; size = 4
??$SUB@$00$0A@$01@Cpu@gb@emulation@@AAEXXZ PROC		; emulation::gb::Cpu::SUB<1,0,2>, COMDAT
; _this$ = ecx

; 561  : void Cpu::SUB() {

	push	ebp
	mov	ebp, esp
	sub	esp, 28					; 0000001cH
	mov	eax, -858993460				; ccccccccH
	mov	DWORD PTR [ebp-28], eax
	mov	DWORD PTR [ebp-24], eax
	mov	DWORD PTR [ebp-20], eax
	mov	DWORD PTR [ebp-16], eax
	mov	DWORD PTR [ebp-12], eax
	mov	DWORD PTR [ebp-8], eax
	mov	DWORD PTR [ebp-4], eax
	mov	DWORD PTR _this$[ebp], ecx

; 562  :   reg.F.N = 1;

	mov	eax, DWORD PTR _this$[ebp]
	mov	cl, BYTE PTR [eax+1064]
	or	cl, 64					; 00000040H
	mov	edx, DWORD PTR _this$[ebp]
	mov	BYTE PTR [edx+1064], cl

; 563  :   uint8_t a=0,b=0;

	mov	BYTE PTR _a$[ebp], 0
	mov	BYTE PTR _b$[ebp], 0

; 564  :   arithmeticMode<dest,src,mode>(a,b);

	lea	eax, DWORD PTR _b$[ebp]
	push	eax
	lea	ecx, DWORD PTR _a$[ebp]
	push	ecx
	mov	ecx, DWORD PTR _this$[ebp]
	call	??$arithmeticMode@$00$0A@$01@Cpu@gb@emulation@@AAEXAAE0@Z ; emulation::gb::Cpu::arithmeticMode<1,0,2>

; 565  :   reg.raw8[dest] = a - b;

	movzx	edx, BYTE PTR _a$[ebp]
	movzx	eax, BYTE PTR _b$[ebp]
	sub	edx, eax
	mov	ecx, 1
	shl	ecx, 0
	mov	eax, DWORD PTR _this$[ebp]
	mov	BYTE PTR [eax+ecx+1064], dl

; 566  :   updateCpuFlagC(a,b,1);

	push	1
	movzx	ecx, BYTE PTR _b$[ebp]
	push	ecx
	movzx	edx, BYTE PTR _a$[ebp]
	push	edx
	mov	ecx, DWORD PTR _this$[ebp]
	call	?updateCpuFlagC@Cpu@gb@emulation@@AAEXEEH@Z ; emulation::gb::Cpu::updateCpuFlagC

; 567  :   updateCpuFlagH(a,b,1);

	push	1
	movzx	eax, BYTE PTR _b$[ebp]
	push	eax
	movzx	ecx, BYTE PTR _a$[ebp]
	push	ecx
	mov	ecx, DWORD PTR _this$[ebp]
	call	?updateCpuFlagH@Cpu@gb@emulation@@AAEXEEH@Z ; emulation::gb::Cpu::updateCpuFlagH

; 568  :   updateCpuFlagZ(reg.raw8[dest]);

	mov	edx, 1
	shl	edx, 0
	mov	eax, DWORD PTR _this$[ebp]
	movzx	ecx, BYTE PTR [eax+edx+1064]
	push	ecx
	mov	ecx, DWORD PTR _this$[ebp]
	call	?updateCpuFlagZ@Cpu@gb@emulation@@AAEXE@Z ; emulation::gb::Cpu::updateCpuFlagZ

; 569  : }

	push	edx
	mov	ecx, ebp
	push	eax
	lea	edx, DWORD PTR $LN6@SUB
	call	@_RTC_CheckStackVars@8
	pop	eax
	pop	edx
	add	esp, 28					; 0000001cH
	cmp	ebp, esp
	call	__RTC_CheckEsp
	mov	esp, ebp
	pop	ebp
	ret	0
	npad	1
$LN6@SUB:
	DD	2
	DD	$LN5@SUB
$LN5@SUB:
	DD	-9					; fffffff7H
	DD	1
	DD	$LN3@SUB
	DD	-21					; ffffffebH
	DD	1
	DD	$LN4@SUB
$LN4@SUB:
	DB	98					; 00000062H
	DB	0
$LN3@SUB:
	DB	97					; 00000061H
	DB	0
??$SUB@$00$0A@$01@Cpu@gb@emulation@@AAEXXZ ENDP		; emulation::gb::Cpu::SUB<1,0,2>
_TEXT	ENDS
; Function compile flags: /Odtp /RTCsu
; File d:\personal\projects\gbemu\solution\code\emulation\gb\cpu.cpp
;	COMDAT ??$PUSH@$01@Cpu@gb@emulation@@AAEXXZ
_TEXT	SEGMENT
_this$ = -4						; size = 4
??$PUSH@$01@Cpu@gb@emulation@@AAEXXZ PROC		; emulation::gb::Cpu::PUSH<2>, COMDAT
; _this$ = ecx

; 903  : void Cpu::PUSH() {

	push	ebp
	mov	ebp, esp
	push	ecx
	mov	DWORD PTR [ebp-4], -858993460		; ccccccccH
	mov	DWORD PTR _this$[ebp], ecx

; 904  :   simulateSpriteBug();

	mov	ecx, DWORD PTR _this$[ebp]
	call	?simulateSpriteBug@Cpu@gb@emulation@@AAEXXZ ; emulation::gb::Cpu::simulateSpriteBug

; 905  :   push(reg.raw16[src]>>8);

	mov	eax, 2
	shl	eax, 1
	mov	ecx, DWORD PTR _this$[ebp]
	movzx	edx, WORD PTR [ecx+eax+1064]
	sar	edx, 8
	push	edx
	mov	ecx, DWORD PTR _this$[ebp]
	call	?push@Cpu@gb@emulation@@AAEXE@Z		; emulation::gb::Cpu::push

; 906  :   push(reg.raw16[src]&0xFF);

	mov	eax, 2
	shl	eax, 1
	mov	ecx, DWORD PTR _this$[ebp]
	movzx	edx, WORD PTR [ecx+eax+1064]
	and	edx, 255				; 000000ffH
	push	edx
	mov	ecx, DWORD PTR _this$[ebp]
	call	?push@Cpu@gb@emulation@@AAEXE@Z		; emulation::gb::Cpu::push

; 907  :   Tick();Tick();Tick();Tick();

	mov	ecx, DWORD PTR _this$[ebp]
	call	?Tick@Cpu@gb@emulation@@QAEXXZ		; emulation::gb::Cpu::Tick
	mov	ecx, DWORD PTR _this$[ebp]
	call	?Tick@Cpu@gb@emulation@@QAEXXZ		; emulation::gb::Cpu::Tick
	mov	ecx, DWORD PTR _this$[ebp]
	call	?Tick@Cpu@gb@emulation@@QAEXXZ		; emulation::gb::Cpu::Tick
	mov	ecx, DWORD PTR _this$[ebp]
	call	?Tick@Cpu@gb@emulation@@QAEXXZ		; emulation::gb::Cpu::Tick

; 908  : }

	add	esp, 4
	cmp	ebp, esp
	call	__RTC_CheckEsp
	mov	esp, ebp
	pop	ebp
	ret	0
??$PUSH@$01@Cpu@gb@emulation@@AAEXXZ ENDP		; emulation::gb::Cpu::PUSH<2>
_TEXT	ENDS
; Function compile flags: /Odtp /RTCsu
; File d:\personal\projects\gbemu\solution\code\emulation\gb\cpu.cpp
;	COMDAT ??$CALL_cc@$03$00@Cpu@gb@emulation@@AAEXXZ
_TEXT	SEGMENT
tv137 = -28						; size = 2
tv92 = -26						; size = 2
_nn$1 = -24						; size = 2
_table$ = -16						; size = 8
_this$ = -4						; size = 4
??$CALL_cc@$03$00@Cpu@gb@emulation@@AAEXXZ PROC		; emulation::gb::Cpu::CALL_cc<4,1>, COMDAT
; _this$ = ecx

; 869  : void Cpu::CALL_cc() {

	push	ebp
	mov	ebp, esp
	sub	esp, 28					; 0000001cH
	mov	eax, -858993460				; ccccccccH
	mov	DWORD PTR [ebp-28], eax
	mov	DWORD PTR [ebp-24], eax
	mov	DWORD PTR [ebp-20], eax
	mov	DWORD PTR [ebp-16], eax
	mov	DWORD PTR [ebp-12], eax
	mov	DWORD PTR [ebp-8], eax
	mov	DWORD PTR [ebp-4], eax
	mov	DWORD PTR _this$[ebp], ecx

; 870  :   int table[2] = {((reg.F.raw & (1<<condbit))>>condbit),

	mov	eax, DWORD PTR _this$[ebp]
	movzx	ecx, BYTE PTR [eax+1064]
	and	ecx, 16					; 00000010H
	sar	ecx, 4
	mov	DWORD PTR _table$[ebp], ecx

; 871  :     ~((reg.F.raw & (1<<condbit))>>condbit)};

	mov	edx, DWORD PTR _this$[ebp]
	movzx	eax, BYTE PTR [edx+1064]
	and	eax, 16					; 00000010H
	sar	eax, 4
	not	eax
	mov	DWORD PTR _table$[ebp+4], eax

; 872  : 
; 873  :   if (table[inv]&1) {

	mov	ecx, 4
	shl	ecx, 0
	mov	edx, DWORD PTR _table$[ebp+ecx]
	and	edx, 1
	je	SHORT $LN2@CALL_cc

; 874  :     CALL();

	mov	ecx, DWORD PTR _this$[ebp]
	call	?CALL@Cpu@gb@emulation@@AAEXXZ		; emulation::gb::Cpu::CALL

; 875  :   } else {

	jmp	$LN3@CALL_cc
$LN2@CALL_cc:

; 876  :     uint16_t nn;
; 877  :     nn = mem_->Read8(reg.PC++);

	mov	eax, DWORD PTR _this$[ebp]
	mov	cx, WORD PTR [eax+1074]
	mov	WORD PTR tv92[ebp], cx
	mov	edx, DWORD PTR _this$[ebp]
	mov	ax, WORD PTR [edx+1074]
	add	ax, 1
	mov	ecx, DWORD PTR _this$[ebp]
	mov	WORD PTR [ecx+1074], ax
	movzx	edx, WORD PTR tv92[ebp]
	push	edx
	mov	eax, DWORD PTR _this$[ebp]
	mov	ecx, DWORD PTR [eax+1076]
	call	?Read8@Memory@gb@emulation@@QAEEG@Z	; emulation::gb::Memory::Read8
	movzx	cx, al
	mov	WORD PTR _nn$1[ebp], cx

; 878  :     nn |= (mem_->Read8(reg.PC++))<<8;

	mov	edx, DWORD PTR _this$[ebp]
	mov	ax, WORD PTR [edx+1074]
	mov	WORD PTR tv137[ebp], ax
	mov	ecx, DWORD PTR _this$[ebp]
	mov	dx, WORD PTR [ecx+1074]
	add	dx, 1
	mov	eax, DWORD PTR _this$[ebp]
	mov	WORD PTR [eax+1074], dx
	movzx	ecx, WORD PTR tv137[ebp]
	push	ecx
	mov	edx, DWORD PTR _this$[ebp]
	mov	ecx, DWORD PTR [edx+1076]
	call	?Read8@Memory@gb@emulation@@QAEEG@Z	; emulation::gb::Memory::Read8
	movzx	eax, al
	shl	eax, 8
	movzx	ecx, WORD PTR _nn$1[ebp]
	or	ecx, eax
	mov	WORD PTR _nn$1[ebp], cx
$LN3@CALL_cc:

; 879  :   }
; 880  : }

	push	edx
	mov	ecx, ebp
	push	eax
	lea	edx, DWORD PTR $LN7@CALL_cc
	call	@_RTC_CheckStackVars@8
	pop	eax
	pop	edx
	add	esp, 28					; 0000001cH
	cmp	ebp, esp
	call	__RTC_CheckEsp
	mov	esp, ebp
	pop	ebp
	ret	0
	npad	2
$LN7@CALL_cc:
	DD	1
	DD	$LN6@CALL_cc
$LN6@CALL_cc:
	DD	-16					; fffffff0H
	DD	8
	DD	$LN5@CALL_cc
$LN5@CALL_cc:
	DB	116					; 00000074H
	DB	97					; 00000061H
	DB	98					; 00000062H
	DB	108					; 0000006cH
	DB	101					; 00000065H
	DB	0
??$CALL_cc@$03$00@Cpu@gb@emulation@@AAEXXZ ENDP		; emulation::gb::Cpu::CALL_cc<4,1>
_TEXT	ENDS
; Function compile flags: /Odtp /RTCsu
; File d:\personal\projects\gbemu\solution\code\emulation\gb\cpu.cpp
;	COMDAT ??$JP_cc@$03$00@Cpu@gb@emulation@@AAEXXZ
_TEXT	SEGMENT
tv137 = -28						; size = 2
tv92 = -26						; size = 2
_nn$1 = -24						; size = 2
_table$ = -16						; size = 8
_this$ = -4						; size = 4
??$JP_cc@$03$00@Cpu@gb@emulation@@AAEXXZ PROC		; emulation::gb::Cpu::JP_cc<4,1>, COMDAT
; _this$ = ecx

; 840  : void Cpu::JP_cc() {

	push	ebp
	mov	ebp, esp
	sub	esp, 28					; 0000001cH
	mov	eax, -858993460				; ccccccccH
	mov	DWORD PTR [ebp-28], eax
	mov	DWORD PTR [ebp-24], eax
	mov	DWORD PTR [ebp-20], eax
	mov	DWORD PTR [ebp-16], eax
	mov	DWORD PTR [ebp-12], eax
	mov	DWORD PTR [ebp-8], eax
	mov	DWORD PTR [ebp-4], eax
	mov	DWORD PTR _this$[ebp], ecx

; 841  :   int table[2] = {((reg.F.raw & (1<<condbit))>>condbit),

	mov	eax, DWORD PTR _this$[ebp]
	movzx	ecx, BYTE PTR [eax+1064]
	and	ecx, 16					; 00000010H
	sar	ecx, 4
	mov	DWORD PTR _table$[ebp], ecx

; 842  :     ~((reg.F.raw & (1<<condbit))>>condbit)};

	mov	edx, DWORD PTR _this$[ebp]
	movzx	eax, BYTE PTR [edx+1064]
	and	eax, 16					; 00000010H
	sar	eax, 4
	not	eax
	mov	DWORD PTR _table$[ebp+4], eax

; 843  : 
; 844  :   if (table[inv]&1) {

	mov	ecx, 4
	shl	ecx, 0
	mov	edx, DWORD PTR _table$[ebp+ecx]
	and	edx, 1
	je	SHORT $LN2@JP_cc

; 845  :     JP();

	mov	ecx, DWORD PTR _this$[ebp]
	call	?JP@Cpu@gb@emulation@@AAEXXZ		; emulation::gb::Cpu::JP

; 846  :   } else {

	jmp	$LN3@JP_cc
$LN2@JP_cc:

; 847  :     uint16_t nn;
; 848  :     nn = mem_->Read8(reg.PC++);

	mov	eax, DWORD PTR _this$[ebp]
	mov	cx, WORD PTR [eax+1074]
	mov	WORD PTR tv92[ebp], cx
	mov	edx, DWORD PTR _this$[ebp]
	mov	ax, WORD PTR [edx+1074]
	add	ax, 1
	mov	ecx, DWORD PTR _this$[ebp]
	mov	WORD PTR [ecx+1074], ax
	movzx	edx, WORD PTR tv92[ebp]
	push	edx
	mov	eax, DWORD PTR _this$[ebp]
	mov	ecx, DWORD PTR [eax+1076]
	call	?Read8@Memory@gb@emulation@@QAEEG@Z	; emulation::gb::Memory::Read8
	movzx	cx, al
	mov	WORD PTR _nn$1[ebp], cx

; 849  :     nn |= (mem_->Read8(reg.PC++))<<8;

	mov	edx, DWORD PTR _this$[ebp]
	mov	ax, WORD PTR [edx+1074]
	mov	WORD PTR tv137[ebp], ax
	mov	ecx, DWORD PTR _this$[ebp]
	mov	dx, WORD PTR [ecx+1074]
	add	dx, 1
	mov	eax, DWORD PTR _this$[ebp]
	mov	WORD PTR [eax+1074], dx
	movzx	ecx, WORD PTR tv137[ebp]
	push	ecx
	mov	edx, DWORD PTR _this$[ebp]
	mov	ecx, DWORD PTR [edx+1076]
	call	?Read8@Memory@gb@emulation@@QAEEG@Z	; emulation::gb::Memory::Read8
	movzx	eax, al
	shl	eax, 8
	movzx	ecx, WORD PTR _nn$1[ebp]
	or	ecx, eax
	mov	WORD PTR _nn$1[ebp], cx
$LN3@JP_cc:

; 850  :   }
; 851  : }

	push	edx
	mov	ecx, ebp
	push	eax
	lea	edx, DWORD PTR $LN7@JP_cc
	call	@_RTC_CheckStackVars@8
	pop	eax
	pop	edx
	add	esp, 28					; 0000001cH
	cmp	ebp, esp
	call	__RTC_CheckEsp
	mov	esp, ebp
	pop	ebp
	ret	0
	npad	2
$LN7@JP_cc:
	DD	1
	DD	$LN6@JP_cc
$LN6@JP_cc:
	DD	-16					; fffffff0H
	DD	8
	DD	$LN5@JP_cc
$LN5@JP_cc:
	DB	116					; 00000074H
	DB	97					; 00000061H
	DB	98					; 00000062H
	DB	108					; 0000006cH
	DB	101					; 00000065H
	DB	0
??$JP_cc@$03$00@Cpu@gb@emulation@@AAEXXZ ENDP		; emulation::gb::Cpu::JP_cc<4,1>
_TEXT	ENDS
; Function compile flags: /Odtp /RTCsu
; File d:\personal\projects\gbemu\solution\code\emulation\gb\cpu.cpp
;	COMDAT ??$POP@$01@Cpu@gb@emulation@@AAEXXZ
_TEXT	SEGMENT
_this$ = -4						; size = 4
??$POP@$01@Cpu@gb@emulation@@AAEXXZ PROC		; emulation::gb::Cpu::POP<2>, COMDAT
; _this$ = ecx

; 911  : void Cpu::POP() {

	push	ebp
	mov	ebp, esp
	push	ecx
	push	esi
	mov	DWORD PTR [ebp-4], -858993460		; ccccccccH
	mov	DWORD PTR _this$[ebp], ecx

; 912  :   simulateSpriteBug();

	mov	ecx, DWORD PTR _this$[ebp]
	call	?simulateSpriteBug@Cpu@gb@emulation@@AAEXXZ ; emulation::gb::Cpu::simulateSpriteBug

; 913  :   reg.raw16[dest] = pop();

	mov	ecx, DWORD PTR _this$[ebp]
	call	?pop@Cpu@gb@emulation@@AAEEXZ		; emulation::gb::Cpu::pop
	movzx	ax, al
	mov	ecx, 2
	shl	ecx, 1
	mov	edx, DWORD PTR _this$[ebp]
	mov	WORD PTR [edx+ecx+1064], ax

; 914  :   reg.raw16[dest] |= pop() << 8;

	mov	esi, 2
	shl	esi, 1
	mov	ecx, DWORD PTR _this$[ebp]
	call	?pop@Cpu@gb@emulation@@AAEEXZ		; emulation::gb::Cpu::pop
	movzx	eax, al
	shl	eax, 8
	mov	ecx, DWORD PTR _this$[ebp]
	movzx	edx, WORD PTR [ecx+esi+1064]
	or	edx, eax
	mov	eax, 2
	shl	eax, 1
	mov	ecx, DWORD PTR _this$[ebp]
	mov	WORD PTR [ecx+eax+1064], dx

; 915  :   if (dest == RegAF)

	xor	edx, edx
	je	SHORT $LN2@POP

; 916  :     reg.F._unused = 0;

	mov	eax, DWORD PTR _this$[ebp]
	mov	cl, BYTE PTR [eax+1064]
	and	cl, 240					; 000000f0H
	mov	edx, DWORD PTR _this$[ebp]
	mov	BYTE PTR [edx+1064], cl
$LN2@POP:

; 917  : }

	pop	esi
	add	esp, 4
	cmp	ebp, esp
	call	__RTC_CheckEsp
	mov	esp, ebp
	pop	ebp
	ret	0
??$POP@$01@Cpu@gb@emulation@@AAEXXZ ENDP		; emulation::gb::Cpu::POP<2>
_TEXT	ENDS
; Function compile flags: /Odtp /RTCsu
; File d:\personal\projects\gbemu\solution\code\emulation\gb\cpu.cpp
;	COMDAT ??$RET_cc@$03$00@Cpu@gb@emulation@@AAEXXZ
_TEXT	SEGMENT
_table$ = -16						; size = 8
_this$ = -4						; size = 4
??$RET_cc@$03$00@Cpu@gb@emulation@@AAEXXZ PROC		; emulation::gb::Cpu::RET_cc<4,1>, COMDAT
; _this$ = ecx

; 889  : void Cpu::RET_cc() {

	push	ebp
	mov	ebp, esp
	sub	esp, 20					; 00000014H
	mov	eax, -858993460				; ccccccccH
	mov	DWORD PTR [ebp-20], eax
	mov	DWORD PTR [ebp-16], eax
	mov	DWORD PTR [ebp-12], eax
	mov	DWORD PTR [ebp-8], eax
	mov	DWORD PTR [ebp-4], eax
	mov	DWORD PTR _this$[ebp], ecx

; 890  :   int table[2] = {((reg.F.raw & (1<<condbit))>>condbit),

	mov	eax, DWORD PTR _this$[ebp]
	movzx	ecx, BYTE PTR [eax+1064]
	and	ecx, 16					; 00000010H
	sar	ecx, 4
	mov	DWORD PTR _table$[ebp], ecx

; 891  :     ~((reg.F.raw & (1<<condbit))>>condbit)};

	mov	edx, DWORD PTR _this$[ebp]
	movzx	eax, BYTE PTR [edx+1064]
	and	eax, 16					; 00000010H
	sar	eax, 4
	not	eax
	mov	DWORD PTR _table$[ebp+4], eax

; 892  : 
; 893  :   if (table[inv]&1) {

	mov	ecx, 4
	shl	ecx, 0
	mov	edx, DWORD PTR _table$[ebp+ecx]
	and	edx, 1
	je	SHORT $LN1@RET_cc

; 894  :     RET();

	mov	ecx, DWORD PTR _this$[ebp]
	call	?RET@Cpu@gb@emulation@@AAEXXZ		; emulation::gb::Cpu::RET
$LN1@RET_cc:

; 895  :   } else {
; 896  :    
; 897  :   }
; 898  :    Tick();Tick();Tick();Tick();

	mov	ecx, DWORD PTR _this$[ebp]
	call	?Tick@Cpu@gb@emulation@@QAEXXZ		; emulation::gb::Cpu::Tick
	mov	ecx, DWORD PTR _this$[ebp]
	call	?Tick@Cpu@gb@emulation@@QAEXXZ		; emulation::gb::Cpu::Tick
	mov	ecx, DWORD PTR _this$[ebp]
	call	?Tick@Cpu@gb@emulation@@QAEXXZ		; emulation::gb::Cpu::Tick
	mov	ecx, DWORD PTR _this$[ebp]
	call	?Tick@Cpu@gb@emulation@@QAEXXZ		; emulation::gb::Cpu::Tick

; 899  : }

	push	edx
	mov	ecx, ebp
	push	eax
	lea	edx, DWORD PTR $LN7@RET_cc
	call	@_RTC_CheckStackVars@8
	pop	eax
	pop	edx
	add	esp, 20					; 00000014H
	cmp	ebp, esp
	call	__RTC_CheckEsp
	mov	esp, ebp
	pop	ebp
	ret	0
	npad	3
$LN7@RET_cc:
	DD	1
	DD	$LN6@RET_cc
$LN6@RET_cc:
	DD	-16					; fffffff0H
	DD	8
	DD	$LN5@RET_cc
$LN5@RET_cc:
	DB	116					; 00000074H
	DB	97					; 00000061H
	DB	98					; 00000062H
	DB	108					; 0000006cH
	DB	101					; 00000065H
	DB	0
??$RET_cc@$03$00@Cpu@gb@emulation@@AAEXXZ ENDP		; emulation::gb::Cpu::RET_cc<4,1>
_TEXT	ENDS
; Function compile flags: /Odtp /RTCsu
; File d:\personal\projects\gbemu\solution\code\emulation\gb\cpu.cpp
;	COMDAT ??$ADC@$00$0A@$01@Cpu@gb@emulation@@AAEXXZ
_TEXT	SEGMENT
_carry$ = -29						; size = 1
_b$ = -21						; size = 1
_a$ = -9						; size = 1
_this$ = -4						; size = 4
??$ADC@$00$0A@$01@Cpu@gb@emulation@@AAEXXZ PROC		; emulation::gb::Cpu::ADC<1,0,2>, COMDAT
; _this$ = ecx

; 536  : void Cpu::ADC() {

	push	ebp
	mov	ebp, esp
	sub	esp, 32					; 00000020H
	mov	eax, -858993460				; ccccccccH
	mov	DWORD PTR [ebp-32], eax
	mov	DWORD PTR [ebp-28], eax
	mov	DWORD PTR [ebp-24], eax
	mov	DWORD PTR [ebp-20], eax
	mov	DWORD PTR [ebp-16], eax
	mov	DWORD PTR [ebp-12], eax
	mov	DWORD PTR [ebp-8], eax
	mov	DWORD PTR [ebp-4], eax
	mov	DWORD PTR _this$[ebp], ecx

; 537  :   reg.F.N = 0;

	mov	eax, DWORD PTR _this$[ebp]
	mov	cl, BYTE PTR [eax+1064]
	and	cl, 191					; 000000bfH
	mov	edx, DWORD PTR _this$[ebp]
	mov	BYTE PTR [edx+1064], cl

; 538  :   uint8_t a=0,b=0;

	mov	BYTE PTR _a$[ebp], 0
	mov	BYTE PTR _b$[ebp], 0

; 539  :   arithmeticMode<dest,src,mode>(a,b);

	lea	eax, DWORD PTR _b$[ebp]
	push	eax
	lea	ecx, DWORD PTR _a$[ebp]
	push	ecx
	mov	ecx, DWORD PTR _this$[ebp]
	call	??$arithmeticMode@$00$0A@$01@Cpu@gb@emulation@@AAEXAAE0@Z ; emulation::gb::Cpu::arithmeticMode<1,0,2>

; 540  :   uint8_t carry = reg.F.C;

	mov	edx, DWORD PTR _this$[ebp]
	mov	al, BYTE PTR [edx+1064]
	shr	al, 4
	and	al, 1
	mov	BYTE PTR _carry$[ebp], al

; 541  :   reg.raw8[dest] = a + b + carry;

	movzx	ecx, BYTE PTR _a$[ebp]
	movzx	edx, BYTE PTR _b$[ebp]
	add	ecx, edx
	movzx	eax, BYTE PTR _carry$[ebp]
	add	ecx, eax
	mov	edx, 1
	shl	edx, 0
	mov	eax, DWORD PTR _this$[ebp]
	mov	BYTE PTR [eax+edx+1064], cl

; 542  : 
; 543  :   updateCpuFlagC(a,carry,0);

	push	0
	movzx	ecx, BYTE PTR _carry$[ebp]
	push	ecx
	movzx	edx, BYTE PTR _a$[ebp]
	push	edx
	mov	ecx, DWORD PTR _this$[ebp]
	call	?updateCpuFlagC@Cpu@gb@emulation@@AAEXEEH@Z ; emulation::gb::Cpu::updateCpuFlagC

; 544  :   if (reg.F.C==0)

	mov	eax, DWORD PTR _this$[ebp]
	mov	cl, BYTE PTR [eax+1064]
	shr	cl, 4
	and	cl, 1
	movzx	edx, cl
	test	edx, edx
	jne	SHORT $LN3@ADC

; 545  :     updateCpuFlagC(a+carry,b,0);

	push	0
	movzx	eax, BYTE PTR _b$[ebp]
	push	eax
	movzx	ecx, BYTE PTR _a$[ebp]
	movzx	edx, BYTE PTR _carry$[ebp]
	add	ecx, edx
	push	ecx
	mov	ecx, DWORD PTR _this$[ebp]
	call	?updateCpuFlagC@Cpu@gb@emulation@@AAEXEEH@Z ; emulation::gb::Cpu::updateCpuFlagC
$LN3@ADC:

; 546  :   updateCpuFlagH(a,carry,0);

	push	0
	movzx	eax, BYTE PTR _carry$[ebp]
	push	eax
	movzx	ecx, BYTE PTR _a$[ebp]
	push	ecx
	mov	ecx, DWORD PTR _this$[ebp]
	call	?updateCpuFlagH@Cpu@gb@emulation@@AAEXEEH@Z ; emulation::gb::Cpu::updateCpuFlagH

; 547  :   if (reg.F.H==0)

	mov	edx, DWORD PTR _this$[ebp]
	mov	al, BYTE PTR [edx+1064]
	shr	al, 5
	and	al, 1
	movzx	ecx, al
	test	ecx, ecx
	jne	SHORT $LN2@ADC

; 548  :     updateCpuFlagH(a+carry,b,0);

	push	0
	movzx	edx, BYTE PTR _b$[ebp]
	push	edx
	movzx	eax, BYTE PTR _a$[ebp]
	movzx	ecx, BYTE PTR _carry$[ebp]
	add	eax, ecx
	push	eax
	mov	ecx, DWORD PTR _this$[ebp]
	call	?updateCpuFlagH@Cpu@gb@emulation@@AAEXEEH@Z ; emulation::gb::Cpu::updateCpuFlagH
$LN2@ADC:

; 549  :   updateCpuFlagZ(reg.raw8[dest]);

	mov	edx, 1
	shl	edx, 0
	mov	eax, DWORD PTR _this$[ebp]
	movzx	ecx, BYTE PTR [eax+edx+1064]
	push	ecx
	mov	ecx, DWORD PTR _this$[ebp]
	call	?updateCpuFlagZ@Cpu@gb@emulation@@AAEXE@Z ; emulation::gb::Cpu::updateCpuFlagZ

; 550  : 
; 551  :   if (opcode == 0x8E){

	mov	edx, DWORD PTR _this$[ebp]
	movzx	eax, BYTE PTR [edx+1081]
	cmp	eax, 142				; 0000008eH
	jne	SHORT $LN4@ADC

; 552  :           Tick();Tick();Tick();Tick();

	mov	ecx, DWORD PTR _this$[ebp]
	call	?Tick@Cpu@gb@emulation@@QAEXXZ		; emulation::gb::Cpu::Tick
	mov	ecx, DWORD PTR _this$[ebp]
	call	?Tick@Cpu@gb@emulation@@QAEXXZ		; emulation::gb::Cpu::Tick
	mov	ecx, DWORD PTR _this$[ebp]
	call	?Tick@Cpu@gb@emulation@@QAEXXZ		; emulation::gb::Cpu::Tick
	mov	ecx, DWORD PTR _this$[ebp]
	call	?Tick@Cpu@gb@emulation@@QAEXXZ		; emulation::gb::Cpu::Tick

; 553  :           Tick();Tick();Tick();Tick();

	mov	ecx, DWORD PTR _this$[ebp]
	call	?Tick@Cpu@gb@emulation@@QAEXXZ		; emulation::gb::Cpu::Tick
	mov	ecx, DWORD PTR _this$[ebp]
	call	?Tick@Cpu@gb@emulation@@QAEXXZ		; emulation::gb::Cpu::Tick
	mov	ecx, DWORD PTR _this$[ebp]
	call	?Tick@Cpu@gb@emulation@@QAEXXZ		; emulation::gb::Cpu::Tick
	mov	ecx, DWORD PTR _this$[ebp]
	call	?Tick@Cpu@gb@emulation@@QAEXXZ		; emulation::gb::Cpu::Tick
$LN4@ADC:

; 554  :   }
; 555  :   
; 556  : }

	push	edx
	mov	ecx, ebp
	push	eax
	lea	edx, DWORD PTR $LN9@ADC
	call	@_RTC_CheckStackVars@8
	pop	eax
	pop	edx
	add	esp, 32					; 00000020H
	cmp	ebp, esp
	call	__RTC_CheckEsp
	mov	esp, ebp
	pop	ebp
	ret	0
	npad	3
$LN9@ADC:
	DD	2
	DD	$LN8@ADC
$LN8@ADC:
	DD	-9					; fffffff7H
	DD	1
	DD	$LN6@ADC
	DD	-21					; ffffffebH
	DD	1
	DD	$LN7@ADC
$LN7@ADC:
	DB	98					; 00000062H
	DB	0
$LN6@ADC:
	DB	97					; 00000061H
	DB	0
??$ADC@$00$0A@$01@Cpu@gb@emulation@@AAEXXZ ENDP		; emulation::gb::Cpu::ADC<1,0,2>
_TEXT	ENDS
; Function compile flags: /Odtp /RTCsu
; File d:\personal\projects\gbemu\solution\code\emulation\gb\cpu.cpp
;	COMDAT ??$CALL_cc@$06$0A@@Cpu@gb@emulation@@AAEXXZ
_TEXT	SEGMENT
tv137 = -28						; size = 2
tv92 = -26						; size = 2
_nn$1 = -24						; size = 2
_table$ = -16						; size = 8
_this$ = -4						; size = 4
??$CALL_cc@$06$0A@@Cpu@gb@emulation@@AAEXXZ PROC	; emulation::gb::Cpu::CALL_cc<7,0>, COMDAT
; _this$ = ecx

; 869  : void Cpu::CALL_cc() {

	push	ebp
	mov	ebp, esp
	sub	esp, 28					; 0000001cH
	mov	eax, -858993460				; ccccccccH
	mov	DWORD PTR [ebp-28], eax
	mov	DWORD PTR [ebp-24], eax
	mov	DWORD PTR [ebp-20], eax
	mov	DWORD PTR [ebp-16], eax
	mov	DWORD PTR [ebp-12], eax
	mov	DWORD PTR [ebp-8], eax
	mov	DWORD PTR [ebp-4], eax
	mov	DWORD PTR _this$[ebp], ecx

; 870  :   int table[2] = {((reg.F.raw & (1<<condbit))>>condbit),

	mov	eax, DWORD PTR _this$[ebp]
	movzx	ecx, BYTE PTR [eax+1064]
	and	ecx, 128				; 00000080H
	sar	ecx, 7
	mov	DWORD PTR _table$[ebp], ecx

; 871  :     ~((reg.F.raw & (1<<condbit))>>condbit)};

	mov	edx, DWORD PTR _this$[ebp]
	movzx	eax, BYTE PTR [edx+1064]
	and	eax, 128				; 00000080H
	sar	eax, 7
	not	eax
	mov	DWORD PTR _table$[ebp+4], eax

; 872  : 
; 873  :   if (table[inv]&1) {

	mov	ecx, 4
	imul	ecx, 0
	mov	edx, DWORD PTR _table$[ebp+ecx]
	and	edx, 1
	je	SHORT $LN2@CALL_cc

; 874  :     CALL();

	mov	ecx, DWORD PTR _this$[ebp]
	call	?CALL@Cpu@gb@emulation@@AAEXXZ		; emulation::gb::Cpu::CALL

; 875  :   } else {

	jmp	$LN3@CALL_cc
$LN2@CALL_cc:

; 876  :     uint16_t nn;
; 877  :     nn = mem_->Read8(reg.PC++);

	mov	eax, DWORD PTR _this$[ebp]
	mov	cx, WORD PTR [eax+1074]
	mov	WORD PTR tv92[ebp], cx
	mov	edx, DWORD PTR _this$[ebp]
	mov	ax, WORD PTR [edx+1074]
	add	ax, 1
	mov	ecx, DWORD PTR _this$[ebp]
	mov	WORD PTR [ecx+1074], ax
	movzx	edx, WORD PTR tv92[ebp]
	push	edx
	mov	eax, DWORD PTR _this$[ebp]
	mov	ecx, DWORD PTR [eax+1076]
	call	?Read8@Memory@gb@emulation@@QAEEG@Z	; emulation::gb::Memory::Read8
	movzx	cx, al
	mov	WORD PTR _nn$1[ebp], cx

; 878  :     nn |= (mem_->Read8(reg.PC++))<<8;

	mov	edx, DWORD PTR _this$[ebp]
	mov	ax, WORD PTR [edx+1074]
	mov	WORD PTR tv137[ebp], ax
	mov	ecx, DWORD PTR _this$[ebp]
	mov	dx, WORD PTR [ecx+1074]
	add	dx, 1
	mov	eax, DWORD PTR _this$[ebp]
	mov	WORD PTR [eax+1074], dx
	movzx	ecx, WORD PTR tv137[ebp]
	push	ecx
	mov	edx, DWORD PTR _this$[ebp]
	mov	ecx, DWORD PTR [edx+1076]
	call	?Read8@Memory@gb@emulation@@QAEEG@Z	; emulation::gb::Memory::Read8
	movzx	eax, al
	shl	eax, 8
	movzx	ecx, WORD PTR _nn$1[ebp]
	or	ecx, eax
	mov	WORD PTR _nn$1[ebp], cx
$LN3@CALL_cc:

; 879  :   }
; 880  : }

	push	edx
	mov	ecx, ebp
	push	eax
	lea	edx, DWORD PTR $LN7@CALL_cc
	call	@_RTC_CheckStackVars@8
	pop	eax
	pop	edx
	add	esp, 28					; 0000001cH
	cmp	ebp, esp
	call	__RTC_CheckEsp
	mov	esp, ebp
	pop	ebp
	ret	0
	npad	1
$LN7@CALL_cc:
	DD	1
	DD	$LN6@CALL_cc
$LN6@CALL_cc:
	DD	-16					; fffffff0H
	DD	8
	DD	$LN5@CALL_cc
$LN5@CALL_cc:
	DB	116					; 00000074H
	DB	97					; 00000061H
	DB	98					; 00000062H
	DB	108					; 0000006cH
	DB	101					; 00000065H
	DB	0
??$CALL_cc@$06$0A@@Cpu@gb@emulation@@AAEXXZ ENDP	; emulation::gb::Cpu::CALL_cc<7,0>
_TEXT	ENDS
; Function compile flags: /Odtp /RTCsu
; File d:\personal\projects\gbemu\solution\code\emulation\gb\cpu.cpp
;	COMDAT ??$JP_cc@$06$0A@@Cpu@gb@emulation@@AAEXXZ
_TEXT	SEGMENT
tv137 = -28						; size = 2
tv92 = -26						; size = 2
_nn$1 = -24						; size = 2
_table$ = -16						; size = 8
_this$ = -4						; size = 4
??$JP_cc@$06$0A@@Cpu@gb@emulation@@AAEXXZ PROC		; emulation::gb::Cpu::JP_cc<7,0>, COMDAT
; _this$ = ecx

; 840  : void Cpu::JP_cc() {

	push	ebp
	mov	ebp, esp
	sub	esp, 28					; 0000001cH
	mov	eax, -858993460				; ccccccccH
	mov	DWORD PTR [ebp-28], eax
	mov	DWORD PTR [ebp-24], eax
	mov	DWORD PTR [ebp-20], eax
	mov	DWORD PTR [ebp-16], eax
	mov	DWORD PTR [ebp-12], eax
	mov	DWORD PTR [ebp-8], eax
	mov	DWORD PTR [ebp-4], eax
	mov	DWORD PTR _this$[ebp], ecx

; 841  :   int table[2] = {((reg.F.raw & (1<<condbit))>>condbit),

	mov	eax, DWORD PTR _this$[ebp]
	movzx	ecx, BYTE PTR [eax+1064]
	and	ecx, 128				; 00000080H
	sar	ecx, 7
	mov	DWORD PTR _table$[ebp], ecx

; 842  :     ~((reg.F.raw & (1<<condbit))>>condbit)};

	mov	edx, DWORD PTR _this$[ebp]
	movzx	eax, BYTE PTR [edx+1064]
	and	eax, 128				; 00000080H
	sar	eax, 7
	not	eax
	mov	DWORD PTR _table$[ebp+4], eax

; 843  : 
; 844  :   if (table[inv]&1) {

	mov	ecx, 4
	imul	ecx, 0
	mov	edx, DWORD PTR _table$[ebp+ecx]
	and	edx, 1
	je	SHORT $LN2@JP_cc

; 845  :     JP();

	mov	ecx, DWORD PTR _this$[ebp]
	call	?JP@Cpu@gb@emulation@@AAEXXZ		; emulation::gb::Cpu::JP

; 846  :   } else {

	jmp	$LN3@JP_cc
$LN2@JP_cc:

; 847  :     uint16_t nn;
; 848  :     nn = mem_->Read8(reg.PC++);

	mov	eax, DWORD PTR _this$[ebp]
	mov	cx, WORD PTR [eax+1074]
	mov	WORD PTR tv92[ebp], cx
	mov	edx, DWORD PTR _this$[ebp]
	mov	ax, WORD PTR [edx+1074]
	add	ax, 1
	mov	ecx, DWORD PTR _this$[ebp]
	mov	WORD PTR [ecx+1074], ax
	movzx	edx, WORD PTR tv92[ebp]
	push	edx
	mov	eax, DWORD PTR _this$[ebp]
	mov	ecx, DWORD PTR [eax+1076]
	call	?Read8@Memory@gb@emulation@@QAEEG@Z	; emulation::gb::Memory::Read8
	movzx	cx, al
	mov	WORD PTR _nn$1[ebp], cx

; 849  :     nn |= (mem_->Read8(reg.PC++))<<8;

	mov	edx, DWORD PTR _this$[ebp]
	mov	ax, WORD PTR [edx+1074]
	mov	WORD PTR tv137[ebp], ax
	mov	ecx, DWORD PTR _this$[ebp]
	mov	dx, WORD PTR [ecx+1074]
	add	dx, 1
	mov	eax, DWORD PTR _this$[ebp]
	mov	WORD PTR [eax+1074], dx
	movzx	ecx, WORD PTR tv137[ebp]
	push	ecx
	mov	edx, DWORD PTR _this$[ebp]
	mov	ecx, DWORD PTR [edx+1076]
	call	?Read8@Memory@gb@emulation@@QAEEG@Z	; emulation::gb::Memory::Read8
	movzx	eax, al
	shl	eax, 8
	movzx	ecx, WORD PTR _nn$1[ebp]
	or	ecx, eax
	mov	WORD PTR _nn$1[ebp], cx
$LN3@JP_cc:

; 850  :   }
; 851  : }

	push	edx
	mov	ecx, ebp
	push	eax
	lea	edx, DWORD PTR $LN7@JP_cc
	call	@_RTC_CheckStackVars@8
	pop	eax
	pop	edx
	add	esp, 28					; 0000001cH
	cmp	ebp, esp
	call	__RTC_CheckEsp
	mov	esp, ebp
	pop	ebp
	ret	0
	npad	1
$LN7@JP_cc:
	DD	1
	DD	$LN6@JP_cc
$LN6@JP_cc:
	DD	-16					; fffffff0H
	DD	8
	DD	$LN5@JP_cc
$LN5@JP_cc:
	DB	116					; 00000074H
	DB	97					; 00000061H
	DB	98					; 00000062H
	DB	108					; 0000006cH
	DB	101					; 00000065H
	DB	0
??$JP_cc@$06$0A@@Cpu@gb@emulation@@AAEXXZ ENDP		; emulation::gb::Cpu::JP_cc<7,0>
_TEXT	ENDS
; Function compile flags: /Odtp /RTCsu
; File d:\personal\projects\gbemu\solution\code\emulation\gb\cpu.cpp
;	COMDAT ??$RET_cc@$06$0A@@Cpu@gb@emulation@@AAEXXZ
_TEXT	SEGMENT
_table$ = -16						; size = 8
_this$ = -4						; size = 4
??$RET_cc@$06$0A@@Cpu@gb@emulation@@AAEXXZ PROC		; emulation::gb::Cpu::RET_cc<7,0>, COMDAT
; _this$ = ecx

; 889  : void Cpu::RET_cc() {

	push	ebp
	mov	ebp, esp
	sub	esp, 20					; 00000014H
	mov	eax, -858993460				; ccccccccH
	mov	DWORD PTR [ebp-20], eax
	mov	DWORD PTR [ebp-16], eax
	mov	DWORD PTR [ebp-12], eax
	mov	DWORD PTR [ebp-8], eax
	mov	DWORD PTR [ebp-4], eax
	mov	DWORD PTR _this$[ebp], ecx

; 890  :   int table[2] = {((reg.F.raw & (1<<condbit))>>condbit),

	mov	eax, DWORD PTR _this$[ebp]
	movzx	ecx, BYTE PTR [eax+1064]
	and	ecx, 128				; 00000080H
	sar	ecx, 7
	mov	DWORD PTR _table$[ebp], ecx

; 891  :     ~((reg.F.raw & (1<<condbit))>>condbit)};

	mov	edx, DWORD PTR _this$[ebp]
	movzx	eax, BYTE PTR [edx+1064]
	and	eax, 128				; 00000080H
	sar	eax, 7
	not	eax
	mov	DWORD PTR _table$[ebp+4], eax

; 892  : 
; 893  :   if (table[inv]&1) {

	mov	ecx, 4
	imul	ecx, 0
	mov	edx, DWORD PTR _table$[ebp+ecx]
	and	edx, 1
	je	SHORT $LN1@RET_cc

; 894  :     RET();

	mov	ecx, DWORD PTR _this$[ebp]
	call	?RET@Cpu@gb@emulation@@AAEXXZ		; emulation::gb::Cpu::RET
$LN1@RET_cc:

; 895  :   } else {
; 896  :    
; 897  :   }
; 898  :    Tick();Tick();Tick();Tick();

	mov	ecx, DWORD PTR _this$[ebp]
	call	?Tick@Cpu@gb@emulation@@QAEXXZ		; emulation::gb::Cpu::Tick
	mov	ecx, DWORD PTR _this$[ebp]
	call	?Tick@Cpu@gb@emulation@@QAEXXZ		; emulation::gb::Cpu::Tick
	mov	ecx, DWORD PTR _this$[ebp]
	call	?Tick@Cpu@gb@emulation@@QAEXXZ		; emulation::gb::Cpu::Tick
	mov	ecx, DWORD PTR _this$[ebp]
	call	?Tick@Cpu@gb@emulation@@QAEXXZ		; emulation::gb::Cpu::Tick

; 899  : }

	push	edx
	mov	ecx, ebp
	push	eax
	lea	edx, DWORD PTR $LN7@RET_cc
	call	@_RTC_CheckStackVars@8
	pop	eax
	pop	edx
	add	esp, 20					; 00000014H
	cmp	ebp, esp
	call	__RTC_CheckEsp
	mov	esp, ebp
	pop	ebp
	ret	0
	npad	2
$LN7@RET_cc:
	DD	1
	DD	$LN6@RET_cc
$LN6@RET_cc:
	DD	-16					; fffffff0H
	DD	8
	DD	$LN5@RET_cc
$LN5@RET_cc:
	DB	116					; 00000074H
	DB	97					; 00000061H
	DB	98					; 00000062H
	DB	108					; 0000006cH
	DB	101					; 00000065H
	DB	0
??$RET_cc@$06$0A@@Cpu@gb@emulation@@AAEXXZ ENDP		; emulation::gb::Cpu::RET_cc<7,0>
_TEXT	ENDS
; Function compile flags: /Odtp /RTCsu
; File d:\personal\projects\gbemu\solution\code\emulation\gb\cpu.cpp
;	COMDAT ??$ADD@$00$0A@$01@Cpu@gb@emulation@@AAEXXZ
_TEXT	SEGMENT
_b$ = -21						; size = 1
_a$ = -9						; size = 1
_this$ = -4						; size = 4
??$ADD@$00$0A@$01@Cpu@gb@emulation@@AAEXXZ PROC		; emulation::gb::Cpu::ADD<1,0,2>, COMDAT
; _this$ = ecx

; 499  : void Cpu::ADD() {

	push	ebp
	mov	ebp, esp
	sub	esp, 28					; 0000001cH
	mov	eax, -858993460				; ccccccccH
	mov	DWORD PTR [ebp-28], eax
	mov	DWORD PTR [ebp-24], eax
	mov	DWORD PTR [ebp-20], eax
	mov	DWORD PTR [ebp-16], eax
	mov	DWORD PTR [ebp-12], eax
	mov	DWORD PTR [ebp-8], eax
	mov	DWORD PTR [ebp-4], eax
	mov	DWORD PTR _this$[ebp], ecx

; 500  :   reg.F.N = 0;

	mov	eax, DWORD PTR _this$[ebp]
	mov	cl, BYTE PTR [eax+1064]
	and	cl, 191					; 000000bfH
	mov	edx, DWORD PTR _this$[ebp]
	mov	BYTE PTR [edx+1064], cl

; 501  :   uint8_t a=0,b=0;

	mov	BYTE PTR _a$[ebp], 0
	mov	BYTE PTR _b$[ebp], 0

; 502  :   arithmeticMode<dest,src,mode>(a,b);

	lea	eax, DWORD PTR _b$[ebp]
	push	eax
	lea	ecx, DWORD PTR _a$[ebp]
	push	ecx
	mov	ecx, DWORD PTR _this$[ebp]
	call	??$arithmeticMode@$00$0A@$01@Cpu@gb@emulation@@AAEXAAE0@Z ; emulation::gb::Cpu::arithmeticMode<1,0,2>

; 503  :   reg.raw8[dest] = a + b;

	movzx	edx, BYTE PTR _a$[ebp]
	movzx	eax, BYTE PTR _b$[ebp]
	add	edx, eax
	mov	ecx, 1
	shl	ecx, 0
	mov	eax, DWORD PTR _this$[ebp]
	mov	BYTE PTR [eax+ecx+1064], dl

; 504  :   updateCpuFlagC(a,b,0);

	push	0
	movzx	ecx, BYTE PTR _b$[ebp]
	push	ecx
	movzx	edx, BYTE PTR _a$[ebp]
	push	edx
	mov	ecx, DWORD PTR _this$[ebp]
	call	?updateCpuFlagC@Cpu@gb@emulation@@AAEXEEH@Z ; emulation::gb::Cpu::updateCpuFlagC

; 505  :   updateCpuFlagH(a,b,0);

	push	0
	movzx	eax, BYTE PTR _b$[ebp]
	push	eax
	movzx	ecx, BYTE PTR _a$[ebp]
	push	ecx
	mov	ecx, DWORD PTR _this$[ebp]
	call	?updateCpuFlagH@Cpu@gb@emulation@@AAEXEEH@Z ; emulation::gb::Cpu::updateCpuFlagH

; 506  :   updateCpuFlagZ(reg.raw8[dest]);

	mov	edx, 1
	shl	edx, 0
	mov	eax, DWORD PTR _this$[ebp]
	movzx	ecx, BYTE PTR [eax+edx+1064]
	push	ecx
	mov	ecx, DWORD PTR _this$[ebp]
	call	?updateCpuFlagZ@Cpu@gb@emulation@@AAEXE@Z ; emulation::gb::Cpu::updateCpuFlagZ

; 507  : }

	push	edx
	mov	ecx, ebp
	push	eax
	lea	edx, DWORD PTR $LN6@ADD
	call	@_RTC_CheckStackVars@8
	pop	eax
	pop	edx
	add	esp, 28					; 0000001cH
	cmp	ebp, esp
	call	__RTC_CheckEsp
	mov	esp, ebp
	pop	ebp
	ret	0
	npad	1
$LN6@ADD:
	DD	2
	DD	$LN5@ADD
$LN5@ADD:
	DD	-9					; fffffff7H
	DD	1
	DD	$LN3@ADD
	DD	-21					; ffffffebH
	DD	1
	DD	$LN4@ADD
$LN4@ADD:
	DB	98					; 00000062H
	DB	0
$LN3@ADD:
	DB	97					; 00000061H
	DB	0
??$ADD@$00$0A@$01@Cpu@gb@emulation@@AAEXXZ ENDP		; emulation::gb::Cpu::ADD<1,0,2>
_TEXT	ENDS
; Function compile flags: /Odtp /RTCsu
; File d:\personal\projects\gbemu\solution\code\emulation\gb\cpu.cpp
;	COMDAT ??$PUSH@$00@Cpu@gb@emulation@@AAEXXZ
_TEXT	SEGMENT
_this$ = -4						; size = 4
??$PUSH@$00@Cpu@gb@emulation@@AAEXXZ PROC		; emulation::gb::Cpu::PUSH<1>, COMDAT
; _this$ = ecx

; 903  : void Cpu::PUSH() {

	push	ebp
	mov	ebp, esp
	push	ecx
	mov	DWORD PTR [ebp-4], -858993460		; ccccccccH
	mov	DWORD PTR _this$[ebp], ecx

; 904  :   simulateSpriteBug();

	mov	ecx, DWORD PTR _this$[ebp]
	call	?simulateSpriteBug@Cpu@gb@emulation@@AAEXXZ ; emulation::gb::Cpu::simulateSpriteBug

; 905  :   push(reg.raw16[src]>>8);

	mov	eax, 2
	shl	eax, 0
	mov	ecx, DWORD PTR _this$[ebp]
	movzx	edx, WORD PTR [ecx+eax+1064]
	sar	edx, 8
	push	edx
	mov	ecx, DWORD PTR _this$[ebp]
	call	?push@Cpu@gb@emulation@@AAEXE@Z		; emulation::gb::Cpu::push

; 906  :   push(reg.raw16[src]&0xFF);

	mov	eax, 2
	shl	eax, 0
	mov	ecx, DWORD PTR _this$[ebp]
	movzx	edx, WORD PTR [ecx+eax+1064]
	and	edx, 255				; 000000ffH
	push	edx
	mov	ecx, DWORD PTR _this$[ebp]
	call	?push@Cpu@gb@emulation@@AAEXE@Z		; emulation::gb::Cpu::push

; 907  :   Tick();Tick();Tick();Tick();

	mov	ecx, DWORD PTR _this$[ebp]
	call	?Tick@Cpu@gb@emulation@@QAEXXZ		; emulation::gb::Cpu::Tick
	mov	ecx, DWORD PTR _this$[ebp]
	call	?Tick@Cpu@gb@emulation@@QAEXXZ		; emulation::gb::Cpu::Tick
	mov	ecx, DWORD PTR _this$[ebp]
	call	?Tick@Cpu@gb@emulation@@QAEXXZ		; emulation::gb::Cpu::Tick
	mov	ecx, DWORD PTR _this$[ebp]
	call	?Tick@Cpu@gb@emulation@@QAEXXZ		; emulation::gb::Cpu::Tick

; 908  : }

	add	esp, 4
	cmp	ebp, esp
	call	__RTC_CheckEsp
	mov	esp, ebp
	pop	ebp
	ret	0
??$PUSH@$00@Cpu@gb@emulation@@AAEXXZ ENDP		; emulation::gb::Cpu::PUSH<1>
_TEXT	ENDS
; Function compile flags: /Odtp /RTCsu
; File d:\personal\projects\gbemu\solution\code\emulation\gb\cpu.cpp
;	COMDAT ??$CALL_cc@$06$00@Cpu@gb@emulation@@AAEXXZ
_TEXT	SEGMENT
tv137 = -28						; size = 2
tv92 = -26						; size = 2
_nn$1 = -24						; size = 2
_table$ = -16						; size = 8
_this$ = -4						; size = 4
??$CALL_cc@$06$00@Cpu@gb@emulation@@AAEXXZ PROC		; emulation::gb::Cpu::CALL_cc<7,1>, COMDAT
; _this$ = ecx

; 869  : void Cpu::CALL_cc() {

	push	ebp
	mov	ebp, esp
	sub	esp, 28					; 0000001cH
	mov	eax, -858993460				; ccccccccH
	mov	DWORD PTR [ebp-28], eax
	mov	DWORD PTR [ebp-24], eax
	mov	DWORD PTR [ebp-20], eax
	mov	DWORD PTR [ebp-16], eax
	mov	DWORD PTR [ebp-12], eax
	mov	DWORD PTR [ebp-8], eax
	mov	DWORD PTR [ebp-4], eax
	mov	DWORD PTR _this$[ebp], ecx

; 870  :   int table[2] = {((reg.F.raw & (1<<condbit))>>condbit),

	mov	eax, DWORD PTR _this$[ebp]
	movzx	ecx, BYTE PTR [eax+1064]
	and	ecx, 128				; 00000080H
	sar	ecx, 7
	mov	DWORD PTR _table$[ebp], ecx

; 871  :     ~((reg.F.raw & (1<<condbit))>>condbit)};

	mov	edx, DWORD PTR _this$[ebp]
	movzx	eax, BYTE PTR [edx+1064]
	and	eax, 128				; 00000080H
	sar	eax, 7
	not	eax
	mov	DWORD PTR _table$[ebp+4], eax

; 872  : 
; 873  :   if (table[inv]&1) {

	mov	ecx, 4
	shl	ecx, 0
	mov	edx, DWORD PTR _table$[ebp+ecx]
	and	edx, 1
	je	SHORT $LN2@CALL_cc

; 874  :     CALL();

	mov	ecx, DWORD PTR _this$[ebp]
	call	?CALL@Cpu@gb@emulation@@AAEXXZ		; emulation::gb::Cpu::CALL

; 875  :   } else {

	jmp	$LN3@CALL_cc
$LN2@CALL_cc:

; 876  :     uint16_t nn;
; 877  :     nn = mem_->Read8(reg.PC++);

	mov	eax, DWORD PTR _this$[ebp]
	mov	cx, WORD PTR [eax+1074]
	mov	WORD PTR tv92[ebp], cx
	mov	edx, DWORD PTR _this$[ebp]
	mov	ax, WORD PTR [edx+1074]
	add	ax, 1
	mov	ecx, DWORD PTR _this$[ebp]
	mov	WORD PTR [ecx+1074], ax
	movzx	edx, WORD PTR tv92[ebp]
	push	edx
	mov	eax, DWORD PTR _this$[ebp]
	mov	ecx, DWORD PTR [eax+1076]
	call	?Read8@Memory@gb@emulation@@QAEEG@Z	; emulation::gb::Memory::Read8
	movzx	cx, al
	mov	WORD PTR _nn$1[ebp], cx

; 878  :     nn |= (mem_->Read8(reg.PC++))<<8;

	mov	edx, DWORD PTR _this$[ebp]
	mov	ax, WORD PTR [edx+1074]
	mov	WORD PTR tv137[ebp], ax
	mov	ecx, DWORD PTR _this$[ebp]
	mov	dx, WORD PTR [ecx+1074]
	add	dx, 1
	mov	eax, DWORD PTR _this$[ebp]
	mov	WORD PTR [eax+1074], dx
	movzx	ecx, WORD PTR tv137[ebp]
	push	ecx
	mov	edx, DWORD PTR _this$[ebp]
	mov	ecx, DWORD PTR [edx+1076]
	call	?Read8@Memory@gb@emulation@@QAEEG@Z	; emulation::gb::Memory::Read8
	movzx	eax, al
	shl	eax, 8
	movzx	ecx, WORD PTR _nn$1[ebp]
	or	ecx, eax
	mov	WORD PTR _nn$1[ebp], cx
$LN3@CALL_cc:

; 879  :   }
; 880  : }

	push	edx
	mov	ecx, ebp
	push	eax
	lea	edx, DWORD PTR $LN7@CALL_cc
	call	@_RTC_CheckStackVars@8
	pop	eax
	pop	edx
	add	esp, 28					; 0000001cH
	cmp	ebp, esp
	call	__RTC_CheckEsp
	mov	esp, ebp
	pop	ebp
	ret	0
	npad	1
$LN7@CALL_cc:
	DD	1
	DD	$LN6@CALL_cc
$LN6@CALL_cc:
	DD	-16					; fffffff0H
	DD	8
	DD	$LN5@CALL_cc
$LN5@CALL_cc:
	DB	116					; 00000074H
	DB	97					; 00000061H
	DB	98					; 00000062H
	DB	108					; 0000006cH
	DB	101					; 00000065H
	DB	0
??$CALL_cc@$06$00@Cpu@gb@emulation@@AAEXXZ ENDP		; emulation::gb::Cpu::CALL_cc<7,1>
_TEXT	ENDS
; Function compile flags: /Odtp /RTCsu
; File d:\personal\projects\gbemu\solution\code\emulation\gb\cpu.cpp
;	COMDAT ??$JP_cc@$06$00@Cpu@gb@emulation@@AAEXXZ
_TEXT	SEGMENT
tv137 = -28						; size = 2
tv92 = -26						; size = 2
_nn$1 = -24						; size = 2
_table$ = -16						; size = 8
_this$ = -4						; size = 4
??$JP_cc@$06$00@Cpu@gb@emulation@@AAEXXZ PROC		; emulation::gb::Cpu::JP_cc<7,1>, COMDAT
; _this$ = ecx

; 840  : void Cpu::JP_cc() {

	push	ebp
	mov	ebp, esp
	sub	esp, 28					; 0000001cH
	mov	eax, -858993460				; ccccccccH
	mov	DWORD PTR [ebp-28], eax
	mov	DWORD PTR [ebp-24], eax
	mov	DWORD PTR [ebp-20], eax
	mov	DWORD PTR [ebp-16], eax
	mov	DWORD PTR [ebp-12], eax
	mov	DWORD PTR [ebp-8], eax
	mov	DWORD PTR [ebp-4], eax
	mov	DWORD PTR _this$[ebp], ecx

; 841  :   int table[2] = {((reg.F.raw & (1<<condbit))>>condbit),

	mov	eax, DWORD PTR _this$[ebp]
	movzx	ecx, BYTE PTR [eax+1064]
	and	ecx, 128				; 00000080H
	sar	ecx, 7
	mov	DWORD PTR _table$[ebp], ecx

; 842  :     ~((reg.F.raw & (1<<condbit))>>condbit)};

	mov	edx, DWORD PTR _this$[ebp]
	movzx	eax, BYTE PTR [edx+1064]
	and	eax, 128				; 00000080H
	sar	eax, 7
	not	eax
	mov	DWORD PTR _table$[ebp+4], eax

; 843  : 
; 844  :   if (table[inv]&1) {

	mov	ecx, 4
	shl	ecx, 0
	mov	edx, DWORD PTR _table$[ebp+ecx]
	and	edx, 1
	je	SHORT $LN2@JP_cc

; 845  :     JP();

	mov	ecx, DWORD PTR _this$[ebp]
	call	?JP@Cpu@gb@emulation@@AAEXXZ		; emulation::gb::Cpu::JP

; 846  :   } else {

	jmp	$LN3@JP_cc
$LN2@JP_cc:

; 847  :     uint16_t nn;
; 848  :     nn = mem_->Read8(reg.PC++);

	mov	eax, DWORD PTR _this$[ebp]
	mov	cx, WORD PTR [eax+1074]
	mov	WORD PTR tv92[ebp], cx
	mov	edx, DWORD PTR _this$[ebp]
	mov	ax, WORD PTR [edx+1074]
	add	ax, 1
	mov	ecx, DWORD PTR _this$[ebp]
	mov	WORD PTR [ecx+1074], ax
	movzx	edx, WORD PTR tv92[ebp]
	push	edx
	mov	eax, DWORD PTR _this$[ebp]
	mov	ecx, DWORD PTR [eax+1076]
	call	?Read8@Memory@gb@emulation@@QAEEG@Z	; emulation::gb::Memory::Read8
	movzx	cx, al
	mov	WORD PTR _nn$1[ebp], cx

; 849  :     nn |= (mem_->Read8(reg.PC++))<<8;

	mov	edx, DWORD PTR _this$[ebp]
	mov	ax, WORD PTR [edx+1074]
	mov	WORD PTR tv137[ebp], ax
	mov	ecx, DWORD PTR _this$[ebp]
	mov	dx, WORD PTR [ecx+1074]
	add	dx, 1
	mov	eax, DWORD PTR _this$[ebp]
	mov	WORD PTR [eax+1074], dx
	movzx	ecx, WORD PTR tv137[ebp]
	push	ecx
	mov	edx, DWORD PTR _this$[ebp]
	mov	ecx, DWORD PTR [edx+1076]
	call	?Read8@Memory@gb@emulation@@QAEEG@Z	; emulation::gb::Memory::Read8
	movzx	eax, al
	shl	eax, 8
	movzx	ecx, WORD PTR _nn$1[ebp]
	or	ecx, eax
	mov	WORD PTR _nn$1[ebp], cx
$LN3@JP_cc:

; 850  :   }
; 851  : }

	push	edx
	mov	ecx, ebp
	push	eax
	lea	edx, DWORD PTR $LN7@JP_cc
	call	@_RTC_CheckStackVars@8
	pop	eax
	pop	edx
	add	esp, 28					; 0000001cH
	cmp	ebp, esp
	call	__RTC_CheckEsp
	mov	esp, ebp
	pop	ebp
	ret	0
	npad	1
$LN7@JP_cc:
	DD	1
	DD	$LN6@JP_cc
$LN6@JP_cc:
	DD	-16					; fffffff0H
	DD	8
	DD	$LN5@JP_cc
$LN5@JP_cc:
	DB	116					; 00000074H
	DB	97					; 00000061H
	DB	98					; 00000062H
	DB	108					; 0000006cH
	DB	101					; 00000065H
	DB	0
??$JP_cc@$06$00@Cpu@gb@emulation@@AAEXXZ ENDP		; emulation::gb::Cpu::JP_cc<7,1>
_TEXT	ENDS
; Function compile flags: /Odtp /RTCsu
; File d:\personal\projects\gbemu\solution\code\emulation\gb\cpu.cpp
;	COMDAT ??$POP@$00@Cpu@gb@emulation@@AAEXXZ
_TEXT	SEGMENT
_this$ = -4						; size = 4
??$POP@$00@Cpu@gb@emulation@@AAEXXZ PROC		; emulation::gb::Cpu::POP<1>, COMDAT
; _this$ = ecx

; 911  : void Cpu::POP() {

	push	ebp
	mov	ebp, esp
	push	ecx
	push	esi
	mov	DWORD PTR [ebp-4], -858993460		; ccccccccH
	mov	DWORD PTR _this$[ebp], ecx

; 912  :   simulateSpriteBug();

	mov	ecx, DWORD PTR _this$[ebp]
	call	?simulateSpriteBug@Cpu@gb@emulation@@AAEXXZ ; emulation::gb::Cpu::simulateSpriteBug

; 913  :   reg.raw16[dest] = pop();

	mov	ecx, DWORD PTR _this$[ebp]
	call	?pop@Cpu@gb@emulation@@AAEEXZ		; emulation::gb::Cpu::pop
	movzx	ax, al
	mov	ecx, 2
	shl	ecx, 0
	mov	edx, DWORD PTR _this$[ebp]
	mov	WORD PTR [edx+ecx+1064], ax

; 914  :   reg.raw16[dest] |= pop() << 8;

	mov	esi, 2
	shl	esi, 0
	mov	ecx, DWORD PTR _this$[ebp]
	call	?pop@Cpu@gb@emulation@@AAEEXZ		; emulation::gb::Cpu::pop
	movzx	eax, al
	shl	eax, 8
	mov	ecx, DWORD PTR _this$[ebp]
	movzx	edx, WORD PTR [ecx+esi+1064]
	or	edx, eax
	mov	eax, 2
	shl	eax, 0
	mov	ecx, DWORD PTR _this$[ebp]
	mov	WORD PTR [ecx+eax+1064], dx

; 915  :   if (dest == RegAF)

	xor	edx, edx
	je	SHORT $LN2@POP

; 916  :     reg.F._unused = 0;

	mov	eax, DWORD PTR _this$[ebp]
	mov	cl, BYTE PTR [eax+1064]
	and	cl, 240					; 000000f0H
	mov	edx, DWORD PTR _this$[ebp]
	mov	BYTE PTR [edx+1064], cl
$LN2@POP:

; 917  : }

	pop	esi
	add	esp, 4
	cmp	ebp, esp
	call	__RTC_CheckEsp
	mov	esp, ebp
	pop	ebp
	ret	0
??$POP@$00@Cpu@gb@emulation@@AAEXXZ ENDP		; emulation::gb::Cpu::POP<1>
_TEXT	ENDS
; Function compile flags: /Odtp /RTCsu
; File d:\personal\projects\gbemu\solution\code\emulation\gb\cpu.cpp
;	COMDAT ??$RET_cc@$06$00@Cpu@gb@emulation@@AAEXXZ
_TEXT	SEGMENT
_table$ = -16						; size = 8
_this$ = -4						; size = 4
??$RET_cc@$06$00@Cpu@gb@emulation@@AAEXXZ PROC		; emulation::gb::Cpu::RET_cc<7,1>, COMDAT
; _this$ = ecx

; 889  : void Cpu::RET_cc() {

	push	ebp
	mov	ebp, esp
	sub	esp, 20					; 00000014H
	mov	eax, -858993460				; ccccccccH
	mov	DWORD PTR [ebp-20], eax
	mov	DWORD PTR [ebp-16], eax
	mov	DWORD PTR [ebp-12], eax
	mov	DWORD PTR [ebp-8], eax
	mov	DWORD PTR [ebp-4], eax
	mov	DWORD PTR _this$[ebp], ecx

; 890  :   int table[2] = {((reg.F.raw & (1<<condbit))>>condbit),

	mov	eax, DWORD PTR _this$[ebp]
	movzx	ecx, BYTE PTR [eax+1064]
	and	ecx, 128				; 00000080H
	sar	ecx, 7
	mov	DWORD PTR _table$[ebp], ecx

; 891  :     ~((reg.F.raw & (1<<condbit))>>condbit)};

	mov	edx, DWORD PTR _this$[ebp]
	movzx	eax, BYTE PTR [edx+1064]
	and	eax, 128				; 00000080H
	sar	eax, 7
	not	eax
	mov	DWORD PTR _table$[ebp+4], eax

; 892  : 
; 893  :   if (table[inv]&1) {

	mov	ecx, 4
	shl	ecx, 0
	mov	edx, DWORD PTR _table$[ebp+ecx]
	and	edx, 1
	je	SHORT $LN1@RET_cc

; 894  :     RET();

	mov	ecx, DWORD PTR _this$[ebp]
	call	?RET@Cpu@gb@emulation@@AAEXXZ		; emulation::gb::Cpu::RET
$LN1@RET_cc:

; 895  :   } else {
; 896  :    
; 897  :   }
; 898  :    Tick();Tick();Tick();Tick();

	mov	ecx, DWORD PTR _this$[ebp]
	call	?Tick@Cpu@gb@emulation@@QAEXXZ		; emulation::gb::Cpu::Tick
	mov	ecx, DWORD PTR _this$[ebp]
	call	?Tick@Cpu@gb@emulation@@QAEXXZ		; emulation::gb::Cpu::Tick
	mov	ecx, DWORD PTR _this$[ebp]
	call	?Tick@Cpu@gb@emulation@@QAEXXZ		; emulation::gb::Cpu::Tick
	mov	ecx, DWORD PTR _this$[ebp]
	call	?Tick@Cpu@gb@emulation@@QAEXXZ		; emulation::gb::Cpu::Tick

; 899  : }

	push	edx
	mov	ecx, ebp
	push	eax
	lea	edx, DWORD PTR $LN7@RET_cc
	call	@_RTC_CheckStackVars@8
	pop	eax
	pop	edx
	add	esp, 20					; 00000014H
	cmp	ebp, esp
	call	__RTC_CheckEsp
	mov	esp, ebp
	pop	ebp
	ret	0
	npad	2
$LN7@RET_cc:
	DD	1
	DD	$LN6@RET_cc
$LN6@RET_cc:
	DD	-16					; fffffff0H
	DD	8
	DD	$LN5@RET_cc
$LN5@RET_cc:
	DB	116					; 00000074H
	DB	97					; 00000061H
	DB	98					; 00000062H
	DB	108					; 0000006cH
	DB	101					; 00000065H
	DB	0
??$RET_cc@$06$00@Cpu@gb@emulation@@AAEXXZ ENDP		; emulation::gb::Cpu::RET_cc<7,1>
_TEXT	ENDS
; Function compile flags: /Odtp /RTCsu
; File d:\personal\projects\gbemu\solution\code\emulation\gb\cpu.cpp
;	COMDAT ??$CP_reg@$00@Cpu@gb@emulation@@AAEXXZ
_TEXT	SEGMENT
_this$ = -4						; size = 4
??$CP_reg@$00@Cpu@gb@emulation@@AAEXXZ PROC		; emulation::gb::Cpu::CP_reg<1>, COMDAT
; _this$ = ecx

; 969  : void Cpu::CP_reg() {

	push	ebp
	mov	ebp, esp
	push	ecx
	mov	DWORD PTR [ebp-4], -858993460		; ccccccccH
	mov	DWORD PTR _this$[ebp], ecx

; 970  :   CP(reg.A,reg.raw8[r]);

	mov	eax, 1
	shl	eax, 0
	mov	ecx, DWORD PTR _this$[ebp]
	movzx	edx, BYTE PTR [ecx+eax+1064]
	push	edx
	mov	eax, DWORD PTR _this$[ebp]
	movzx	ecx, BYTE PTR [eax+1065]
	push	ecx
	mov	ecx, DWORD PTR _this$[ebp]
	call	?CP@Cpu@gb@emulation@@AAEXEE@Z		; emulation::gb::Cpu::CP

; 971  : }

	add	esp, 4
	cmp	ebp, esp
	call	__RTC_CheckEsp
	mov	esp, ebp
	pop	ebp
	ret	0
??$CP_reg@$00@Cpu@gb@emulation@@AAEXXZ ENDP		; emulation::gb::Cpu::CP_reg<1>
_TEXT	ENDS
; Function compile flags: /Odtp /RTCsu
; File d:\personal\projects\gbemu\solution\code\emulation\gb\cpu.cpp
;	COMDAT ??$CP_reg@$05@Cpu@gb@emulation@@AAEXXZ
_TEXT	SEGMENT
_this$ = -4						; size = 4
??$CP_reg@$05@Cpu@gb@emulation@@AAEXXZ PROC		; emulation::gb::Cpu::CP_reg<6>, COMDAT
; _this$ = ecx

; 969  : void Cpu::CP_reg() {

	push	ebp
	mov	ebp, esp
	push	ecx
	mov	DWORD PTR [ebp-4], -858993460		; ccccccccH
	mov	DWORD PTR _this$[ebp], ecx

; 970  :   CP(reg.A,reg.raw8[r]);

	mov	eax, 1
	imul	eax, 6
	mov	ecx, DWORD PTR _this$[ebp]
	movzx	edx, BYTE PTR [ecx+eax+1064]
	push	edx
	mov	eax, DWORD PTR _this$[ebp]
	movzx	ecx, BYTE PTR [eax+1065]
	push	ecx
	mov	ecx, DWORD PTR _this$[ebp]
	call	?CP@Cpu@gb@emulation@@AAEXEE@Z		; emulation::gb::Cpu::CP

; 971  : }

	add	esp, 4
	cmp	ebp, esp
	call	__RTC_CheckEsp
	mov	esp, ebp
	pop	ebp
	ret	0
??$CP_reg@$05@Cpu@gb@emulation@@AAEXXZ ENDP		; emulation::gb::Cpu::CP_reg<6>
_TEXT	ENDS
; Function compile flags: /Odtp /RTCsu
; File d:\personal\projects\gbemu\solution\code\emulation\gb\cpu.cpp
;	COMDAT ??$CP_reg@$06@Cpu@gb@emulation@@AAEXXZ
_TEXT	SEGMENT
_this$ = -4						; size = 4
??$CP_reg@$06@Cpu@gb@emulation@@AAEXXZ PROC		; emulation::gb::Cpu::CP_reg<7>, COMDAT
; _this$ = ecx

; 969  : void Cpu::CP_reg() {

	push	ebp
	mov	ebp, esp
	push	ecx
	mov	DWORD PTR [ebp-4], -858993460		; ccccccccH
	mov	DWORD PTR _this$[ebp], ecx

; 970  :   CP(reg.A,reg.raw8[r]);

	mov	eax, 1
	imul	eax, 7
	mov	ecx, DWORD PTR _this$[ebp]
	movzx	edx, BYTE PTR [ecx+eax+1064]
	push	edx
	mov	eax, DWORD PTR _this$[ebp]
	movzx	ecx, BYTE PTR [eax+1065]
	push	ecx
	mov	ecx, DWORD PTR _this$[ebp]
	call	?CP@Cpu@gb@emulation@@AAEXEE@Z		; emulation::gb::Cpu::CP

; 971  : }

	add	esp, 4
	cmp	ebp, esp
	call	__RTC_CheckEsp
	mov	esp, ebp
	pop	ebp
	ret	0
??$CP_reg@$06@Cpu@gb@emulation@@AAEXXZ ENDP		; emulation::gb::Cpu::CP_reg<7>
_TEXT	ENDS
; Function compile flags: /Odtp /RTCsu
; File d:\personal\projects\gbemu\solution\code\emulation\gb\cpu.cpp
;	COMDAT ??$CP_reg@$03@Cpu@gb@emulation@@AAEXXZ
_TEXT	SEGMENT
_this$ = -4						; size = 4
??$CP_reg@$03@Cpu@gb@emulation@@AAEXXZ PROC		; emulation::gb::Cpu::CP_reg<4>, COMDAT
; _this$ = ecx

; 969  : void Cpu::CP_reg() {

	push	ebp
	mov	ebp, esp
	push	ecx
	mov	DWORD PTR [ebp-4], -858993460		; ccccccccH
	mov	DWORD PTR _this$[ebp], ecx

; 970  :   CP(reg.A,reg.raw8[r]);

	mov	eax, 1
	shl	eax, 2
	mov	ecx, DWORD PTR _this$[ebp]
	movzx	edx, BYTE PTR [ecx+eax+1064]
	push	edx
	mov	eax, DWORD PTR _this$[ebp]
	movzx	ecx, BYTE PTR [eax+1065]
	push	ecx
	mov	ecx, DWORD PTR _this$[ebp]
	call	?CP@Cpu@gb@emulation@@AAEXEE@Z		; emulation::gb::Cpu::CP

; 971  : }

	add	esp, 4
	cmp	ebp, esp
	call	__RTC_CheckEsp
	mov	esp, ebp
	pop	ebp
	ret	0
??$CP_reg@$03@Cpu@gb@emulation@@AAEXXZ ENDP		; emulation::gb::Cpu::CP_reg<4>
_TEXT	ENDS
; Function compile flags: /Odtp /RTCsu
; File d:\personal\projects\gbemu\solution\code\emulation\gb\cpu.cpp
;	COMDAT ??$CP_reg@$04@Cpu@gb@emulation@@AAEXXZ
_TEXT	SEGMENT
_this$ = -4						; size = 4
??$CP_reg@$04@Cpu@gb@emulation@@AAEXXZ PROC		; emulation::gb::Cpu::CP_reg<5>, COMDAT
; _this$ = ecx

; 969  : void Cpu::CP_reg() {

	push	ebp
	mov	ebp, esp
	push	ecx
	mov	DWORD PTR [ebp-4], -858993460		; ccccccccH
	mov	DWORD PTR _this$[ebp], ecx

; 970  :   CP(reg.A,reg.raw8[r]);

	mov	eax, 1
	imul	eax, 5
	mov	ecx, DWORD PTR _this$[ebp]
	movzx	edx, BYTE PTR [ecx+eax+1064]
	push	edx
	mov	eax, DWORD PTR _this$[ebp]
	movzx	ecx, BYTE PTR [eax+1065]
	push	ecx
	mov	ecx, DWORD PTR _this$[ebp]
	call	?CP@Cpu@gb@emulation@@AAEXEE@Z		; emulation::gb::Cpu::CP

; 971  : }

	add	esp, 4
	cmp	ebp, esp
	call	__RTC_CheckEsp
	mov	esp, ebp
	pop	ebp
	ret	0
??$CP_reg@$04@Cpu@gb@emulation@@AAEXXZ ENDP		; emulation::gb::Cpu::CP_reg<5>
_TEXT	ENDS
; Function compile flags: /Odtp /RTCsu
; File d:\personal\projects\gbemu\solution\code\emulation\gb\cpu.cpp
;	COMDAT ??$CP_reg@$01@Cpu@gb@emulation@@AAEXXZ
_TEXT	SEGMENT
_this$ = -4						; size = 4
??$CP_reg@$01@Cpu@gb@emulation@@AAEXXZ PROC		; emulation::gb::Cpu::CP_reg<2>, COMDAT
; _this$ = ecx

; 969  : void Cpu::CP_reg() {

	push	ebp
	mov	ebp, esp
	push	ecx
	mov	DWORD PTR [ebp-4], -858993460		; ccccccccH
	mov	DWORD PTR _this$[ebp], ecx

; 970  :   CP(reg.A,reg.raw8[r]);

	mov	eax, 1
	shl	eax, 1
	mov	ecx, DWORD PTR _this$[ebp]
	movzx	edx, BYTE PTR [ecx+eax+1064]
	push	edx
	mov	eax, DWORD PTR _this$[ebp]
	movzx	ecx, BYTE PTR [eax+1065]
	push	ecx
	mov	ecx, DWORD PTR _this$[ebp]
	call	?CP@Cpu@gb@emulation@@AAEXEE@Z		; emulation::gb::Cpu::CP

; 971  : }

	add	esp, 4
	cmp	ebp, esp
	call	__RTC_CheckEsp
	mov	esp, ebp
	pop	ebp
	ret	0
??$CP_reg@$01@Cpu@gb@emulation@@AAEXXZ ENDP		; emulation::gb::Cpu::CP_reg<2>
_TEXT	ENDS
; Function compile flags: /Odtp /RTCsu
; File d:\personal\projects\gbemu\solution\code\emulation\gb\cpu.cpp
;	COMDAT ??$CP_reg@$02@Cpu@gb@emulation@@AAEXXZ
_TEXT	SEGMENT
_this$ = -4						; size = 4
??$CP_reg@$02@Cpu@gb@emulation@@AAEXXZ PROC		; emulation::gb::Cpu::CP_reg<3>, COMDAT
; _this$ = ecx

; 969  : void Cpu::CP_reg() {

	push	ebp
	mov	ebp, esp
	push	ecx
	mov	DWORD PTR [ebp-4], -858993460		; ccccccccH
	mov	DWORD PTR _this$[ebp], ecx

; 970  :   CP(reg.A,reg.raw8[r]);

	mov	eax, 1
	imul	eax, 3
	mov	ecx, DWORD PTR _this$[ebp]
	movzx	edx, BYTE PTR [ecx+eax+1064]
	push	edx
	mov	eax, DWORD PTR _this$[ebp]
	movzx	ecx, BYTE PTR [eax+1065]
	push	ecx
	mov	ecx, DWORD PTR _this$[ebp]
	call	?CP@Cpu@gb@emulation@@AAEXEE@Z		; emulation::gb::Cpu::CP

; 971  : }

	add	esp, 4
	cmp	ebp, esp
	call	__RTC_CheckEsp
	mov	esp, ebp
	pop	ebp
	ret	0
??$CP_reg@$02@Cpu@gb@emulation@@AAEXXZ ENDP		; emulation::gb::Cpu::CP_reg<3>
_TEXT	ENDS
; Function compile flags: /Odtp /RTCsu
; File d:\personal\projects\gbemu\solution\code\emulation\gb\cpu.cpp
;	COMDAT ??$OR@$00$00$0A@@Cpu@gb@emulation@@AAEXXZ
_TEXT	SEGMENT
_b$ = -21						; size = 1
_a$ = -9						; size = 1
_this$ = -4						; size = 4
??$OR@$00$00$0A@@Cpu@gb@emulation@@AAEXXZ PROC		; emulation::gb::Cpu::OR<1,1,0>, COMDAT
; _this$ = ecx

; 608  : void Cpu::OR() {

	push	ebp
	mov	ebp, esp
	sub	esp, 28					; 0000001cH
	mov	eax, -858993460				; ccccccccH
	mov	DWORD PTR [ebp-28], eax
	mov	DWORD PTR [ebp-24], eax
	mov	DWORD PTR [ebp-20], eax
	mov	DWORD PTR [ebp-16], eax
	mov	DWORD PTR [ebp-12], eax
	mov	DWORD PTR [ebp-8], eax
	mov	DWORD PTR [ebp-4], eax
	mov	DWORD PTR _this$[ebp], ecx

; 609  :   reg.F.raw = 0;

	mov	eax, DWORD PTR _this$[ebp]
	mov	BYTE PTR [eax+1064], 0

; 610  :   uint8_t a=0,b=0;

	mov	BYTE PTR _a$[ebp], 0
	mov	BYTE PTR _b$[ebp], 0

; 611  :   arithmeticMode<dest,src,mode>(a,b);

	lea	ecx, DWORD PTR _b$[ebp]
	push	ecx
	lea	edx, DWORD PTR _a$[ebp]
	push	edx
	mov	ecx, DWORD PTR _this$[ebp]
	call	??$arithmeticMode@$00$00$0A@@Cpu@gb@emulation@@AAEXAAE0@Z ; emulation::gb::Cpu::arithmeticMode<1,1,0>

; 612  :   reg.raw8[dest] = a | b;

	movzx	eax, BYTE PTR _a$[ebp]
	movzx	ecx, BYTE PTR _b$[ebp]
	or	eax, ecx
	mov	edx, 1
	shl	edx, 0
	mov	ecx, DWORD PTR _this$[ebp]
	mov	BYTE PTR [ecx+edx+1064], al

; 613  :   updateCpuFlagZ(reg.raw8[dest]);

	mov	edx, 1
	shl	edx, 0
	mov	eax, DWORD PTR _this$[ebp]
	movzx	ecx, BYTE PTR [eax+edx+1064]
	push	ecx
	mov	ecx, DWORD PTR _this$[ebp]
	call	?updateCpuFlagZ@Cpu@gb@emulation@@AAEXE@Z ; emulation::gb::Cpu::updateCpuFlagZ

; 614  : }

	push	edx
	mov	ecx, ebp
	push	eax
	lea	edx, DWORD PTR $LN6@OR
	call	@_RTC_CheckStackVars@8
	pop	eax
	pop	edx
	add	esp, 28					; 0000001cH
	cmp	ebp, esp
	call	__RTC_CheckEsp
	mov	esp, ebp
	pop	ebp
	ret	0
$LN6@OR:
	DD	2
	DD	$LN5@OR
$LN5@OR:
	DD	-9					; fffffff7H
	DD	1
	DD	$LN3@OR
	DD	-21					; ffffffebH
	DD	1
	DD	$LN4@OR
$LN4@OR:
	DB	98					; 00000062H
	DB	0
$LN3@OR:
	DB	97					; 00000061H
	DB	0
??$OR@$00$00$0A@@Cpu@gb@emulation@@AAEXXZ ENDP		; emulation::gb::Cpu::OR<1,1,0>
_TEXT	ENDS
; Function compile flags: /Odtp /RTCsu
; File d:\personal\projects\gbemu\solution\code\emulation\gb\cpu.cpp
;	COMDAT ??$OR@$00$02$00@Cpu@gb@emulation@@AAEXXZ
_TEXT	SEGMENT
_b$ = -21						; size = 1
_a$ = -9						; size = 1
_this$ = -4						; size = 4
??$OR@$00$02$00@Cpu@gb@emulation@@AAEXXZ PROC		; emulation::gb::Cpu::OR<1,3,1>, COMDAT
; _this$ = ecx

; 608  : void Cpu::OR() {

	push	ebp
	mov	ebp, esp
	sub	esp, 28					; 0000001cH
	mov	eax, -858993460				; ccccccccH
	mov	DWORD PTR [ebp-28], eax
	mov	DWORD PTR [ebp-24], eax
	mov	DWORD PTR [ebp-20], eax
	mov	DWORD PTR [ebp-16], eax
	mov	DWORD PTR [ebp-12], eax
	mov	DWORD PTR [ebp-8], eax
	mov	DWORD PTR [ebp-4], eax
	mov	DWORD PTR _this$[ebp], ecx

; 609  :   reg.F.raw = 0;

	mov	eax, DWORD PTR _this$[ebp]
	mov	BYTE PTR [eax+1064], 0

; 610  :   uint8_t a=0,b=0;

	mov	BYTE PTR _a$[ebp], 0
	mov	BYTE PTR _b$[ebp], 0

; 611  :   arithmeticMode<dest,src,mode>(a,b);

	lea	ecx, DWORD PTR _b$[ebp]
	push	ecx
	lea	edx, DWORD PTR _a$[ebp]
	push	edx
	mov	ecx, DWORD PTR _this$[ebp]
	call	??$arithmeticMode@$00$02$00@Cpu@gb@emulation@@AAEXAAE0@Z ; emulation::gb::Cpu::arithmeticMode<1,3,1>

; 612  :   reg.raw8[dest] = a | b;

	movzx	eax, BYTE PTR _a$[ebp]
	movzx	ecx, BYTE PTR _b$[ebp]
	or	eax, ecx
	mov	edx, 1
	shl	edx, 0
	mov	ecx, DWORD PTR _this$[ebp]
	mov	BYTE PTR [ecx+edx+1064], al

; 613  :   updateCpuFlagZ(reg.raw8[dest]);

	mov	edx, 1
	shl	edx, 0
	mov	eax, DWORD PTR _this$[ebp]
	movzx	ecx, BYTE PTR [eax+edx+1064]
	push	ecx
	mov	ecx, DWORD PTR _this$[ebp]
	call	?updateCpuFlagZ@Cpu@gb@emulation@@AAEXE@Z ; emulation::gb::Cpu::updateCpuFlagZ

; 614  : }

	push	edx
	mov	ecx, ebp
	push	eax
	lea	edx, DWORD PTR $LN6@OR
	call	@_RTC_CheckStackVars@8
	pop	eax
	pop	edx
	add	esp, 28					; 0000001cH
	cmp	ebp, esp
	call	__RTC_CheckEsp
	mov	esp, ebp
	pop	ebp
	ret	0
$LN6@OR:
	DD	2
	DD	$LN5@OR
$LN5@OR:
	DD	-9					; fffffff7H
	DD	1
	DD	$LN3@OR
	DD	-21					; ffffffebH
	DD	1
	DD	$LN4@OR
$LN4@OR:
	DB	98					; 00000062H
	DB	0
$LN3@OR:
	DB	97					; 00000061H
	DB	0
??$OR@$00$02$00@Cpu@gb@emulation@@AAEXXZ ENDP		; emulation::gb::Cpu::OR<1,3,1>
_TEXT	ENDS
; Function compile flags: /Odtp /RTCsu
; File d:\personal\projects\gbemu\solution\code\emulation\gb\cpu.cpp
;	COMDAT ??$OR@$00$05$0A@@Cpu@gb@emulation@@AAEXXZ
_TEXT	SEGMENT
_b$ = -21						; size = 1
_a$ = -9						; size = 1
_this$ = -4						; size = 4
??$OR@$00$05$0A@@Cpu@gb@emulation@@AAEXXZ PROC		; emulation::gb::Cpu::OR<1,6,0>, COMDAT
; _this$ = ecx

; 608  : void Cpu::OR() {

	push	ebp
	mov	ebp, esp
	sub	esp, 28					; 0000001cH
	mov	eax, -858993460				; ccccccccH
	mov	DWORD PTR [ebp-28], eax
	mov	DWORD PTR [ebp-24], eax
	mov	DWORD PTR [ebp-20], eax
	mov	DWORD PTR [ebp-16], eax
	mov	DWORD PTR [ebp-12], eax
	mov	DWORD PTR [ebp-8], eax
	mov	DWORD PTR [ebp-4], eax
	mov	DWORD PTR _this$[ebp], ecx

; 609  :   reg.F.raw = 0;

	mov	eax, DWORD PTR _this$[ebp]
	mov	BYTE PTR [eax+1064], 0

; 610  :   uint8_t a=0,b=0;

	mov	BYTE PTR _a$[ebp], 0
	mov	BYTE PTR _b$[ebp], 0

; 611  :   arithmeticMode<dest,src,mode>(a,b);

	lea	ecx, DWORD PTR _b$[ebp]
	push	ecx
	lea	edx, DWORD PTR _a$[ebp]
	push	edx
	mov	ecx, DWORD PTR _this$[ebp]
	call	??$arithmeticMode@$00$05$0A@@Cpu@gb@emulation@@AAEXAAE0@Z ; emulation::gb::Cpu::arithmeticMode<1,6,0>

; 612  :   reg.raw8[dest] = a | b;

	movzx	eax, BYTE PTR _a$[ebp]
	movzx	ecx, BYTE PTR _b$[ebp]
	or	eax, ecx
	mov	edx, 1
	shl	edx, 0
	mov	ecx, DWORD PTR _this$[ebp]
	mov	BYTE PTR [ecx+edx+1064], al

; 613  :   updateCpuFlagZ(reg.raw8[dest]);

	mov	edx, 1
	shl	edx, 0
	mov	eax, DWORD PTR _this$[ebp]
	movzx	ecx, BYTE PTR [eax+edx+1064]
	push	ecx
	mov	ecx, DWORD PTR _this$[ebp]
	call	?updateCpuFlagZ@Cpu@gb@emulation@@AAEXE@Z ; emulation::gb::Cpu::updateCpuFlagZ

; 614  : }

	push	edx
	mov	ecx, ebp
	push	eax
	lea	edx, DWORD PTR $LN6@OR
	call	@_RTC_CheckStackVars@8
	pop	eax
	pop	edx
	add	esp, 28					; 0000001cH
	cmp	ebp, esp
	call	__RTC_CheckEsp
	mov	esp, ebp
	pop	ebp
	ret	0
$LN6@OR:
	DD	2
	DD	$LN5@OR
$LN5@OR:
	DD	-9					; fffffff7H
	DD	1
	DD	$LN3@OR
	DD	-21					; ffffffebH
	DD	1
	DD	$LN4@OR
$LN4@OR:
	DB	98					; 00000062H
	DB	0
$LN3@OR:
	DB	97					; 00000061H
	DB	0
??$OR@$00$05$0A@@Cpu@gb@emulation@@AAEXXZ ENDP		; emulation::gb::Cpu::OR<1,6,0>
_TEXT	ENDS
; Function compile flags: /Odtp /RTCsu
; File d:\personal\projects\gbemu\solution\code\emulation\gb\cpu.cpp
;	COMDAT ??$OR@$00$06$0A@@Cpu@gb@emulation@@AAEXXZ
_TEXT	SEGMENT
_b$ = -21						; size = 1
_a$ = -9						; size = 1
_this$ = -4						; size = 4
??$OR@$00$06$0A@@Cpu@gb@emulation@@AAEXXZ PROC		; emulation::gb::Cpu::OR<1,7,0>, COMDAT
; _this$ = ecx

; 608  : void Cpu::OR() {

	push	ebp
	mov	ebp, esp
	sub	esp, 28					; 0000001cH
	mov	eax, -858993460				; ccccccccH
	mov	DWORD PTR [ebp-28], eax
	mov	DWORD PTR [ebp-24], eax
	mov	DWORD PTR [ebp-20], eax
	mov	DWORD PTR [ebp-16], eax
	mov	DWORD PTR [ebp-12], eax
	mov	DWORD PTR [ebp-8], eax
	mov	DWORD PTR [ebp-4], eax
	mov	DWORD PTR _this$[ebp], ecx

; 609  :   reg.F.raw = 0;

	mov	eax, DWORD PTR _this$[ebp]
	mov	BYTE PTR [eax+1064], 0

; 610  :   uint8_t a=0,b=0;

	mov	BYTE PTR _a$[ebp], 0
	mov	BYTE PTR _b$[ebp], 0

; 611  :   arithmeticMode<dest,src,mode>(a,b);

	lea	ecx, DWORD PTR _b$[ebp]
	push	ecx
	lea	edx, DWORD PTR _a$[ebp]
	push	edx
	mov	ecx, DWORD PTR _this$[ebp]
	call	??$arithmeticMode@$00$06$0A@@Cpu@gb@emulation@@AAEXAAE0@Z ; emulation::gb::Cpu::arithmeticMode<1,7,0>

; 612  :   reg.raw8[dest] = a | b;

	movzx	eax, BYTE PTR _a$[ebp]
	movzx	ecx, BYTE PTR _b$[ebp]
	or	eax, ecx
	mov	edx, 1
	shl	edx, 0
	mov	ecx, DWORD PTR _this$[ebp]
	mov	BYTE PTR [ecx+edx+1064], al

; 613  :   updateCpuFlagZ(reg.raw8[dest]);

	mov	edx, 1
	shl	edx, 0
	mov	eax, DWORD PTR _this$[ebp]
	movzx	ecx, BYTE PTR [eax+edx+1064]
	push	ecx
	mov	ecx, DWORD PTR _this$[ebp]
	call	?updateCpuFlagZ@Cpu@gb@emulation@@AAEXE@Z ; emulation::gb::Cpu::updateCpuFlagZ

; 614  : }

	push	edx
	mov	ecx, ebp
	push	eax
	lea	edx, DWORD PTR $LN6@OR
	call	@_RTC_CheckStackVars@8
	pop	eax
	pop	edx
	add	esp, 28					; 0000001cH
	cmp	ebp, esp
	call	__RTC_CheckEsp
	mov	esp, ebp
	pop	ebp
	ret	0
$LN6@OR:
	DD	2
	DD	$LN5@OR
$LN5@OR:
	DD	-9					; fffffff7H
	DD	1
	DD	$LN3@OR
	DD	-21					; ffffffebH
	DD	1
	DD	$LN4@OR
$LN4@OR:
	DB	98					; 00000062H
	DB	0
$LN3@OR:
	DB	97					; 00000061H
	DB	0
??$OR@$00$06$0A@@Cpu@gb@emulation@@AAEXXZ ENDP		; emulation::gb::Cpu::OR<1,7,0>
_TEXT	ENDS
; Function compile flags: /Odtp /RTCsu
; File d:\personal\projects\gbemu\solution\code\emulation\gb\cpu.cpp
;	COMDAT ??$OR@$00$03$0A@@Cpu@gb@emulation@@AAEXXZ
_TEXT	SEGMENT
_b$ = -21						; size = 1
_a$ = -9						; size = 1
_this$ = -4						; size = 4
??$OR@$00$03$0A@@Cpu@gb@emulation@@AAEXXZ PROC		; emulation::gb::Cpu::OR<1,4,0>, COMDAT
; _this$ = ecx

; 608  : void Cpu::OR() {

	push	ebp
	mov	ebp, esp
	sub	esp, 28					; 0000001cH
	mov	eax, -858993460				; ccccccccH
	mov	DWORD PTR [ebp-28], eax
	mov	DWORD PTR [ebp-24], eax
	mov	DWORD PTR [ebp-20], eax
	mov	DWORD PTR [ebp-16], eax
	mov	DWORD PTR [ebp-12], eax
	mov	DWORD PTR [ebp-8], eax
	mov	DWORD PTR [ebp-4], eax
	mov	DWORD PTR _this$[ebp], ecx

; 609  :   reg.F.raw = 0;

	mov	eax, DWORD PTR _this$[ebp]
	mov	BYTE PTR [eax+1064], 0

; 610  :   uint8_t a=0,b=0;

	mov	BYTE PTR _a$[ebp], 0
	mov	BYTE PTR _b$[ebp], 0

; 611  :   arithmeticMode<dest,src,mode>(a,b);

	lea	ecx, DWORD PTR _b$[ebp]
	push	ecx
	lea	edx, DWORD PTR _a$[ebp]
	push	edx
	mov	ecx, DWORD PTR _this$[ebp]
	call	??$arithmeticMode@$00$03$0A@@Cpu@gb@emulation@@AAEXAAE0@Z ; emulation::gb::Cpu::arithmeticMode<1,4,0>

; 612  :   reg.raw8[dest] = a | b;

	movzx	eax, BYTE PTR _a$[ebp]
	movzx	ecx, BYTE PTR _b$[ebp]
	or	eax, ecx
	mov	edx, 1
	shl	edx, 0
	mov	ecx, DWORD PTR _this$[ebp]
	mov	BYTE PTR [ecx+edx+1064], al

; 613  :   updateCpuFlagZ(reg.raw8[dest]);

	mov	edx, 1
	shl	edx, 0
	mov	eax, DWORD PTR _this$[ebp]
	movzx	ecx, BYTE PTR [eax+edx+1064]
	push	ecx
	mov	ecx, DWORD PTR _this$[ebp]
	call	?updateCpuFlagZ@Cpu@gb@emulation@@AAEXE@Z ; emulation::gb::Cpu::updateCpuFlagZ

; 614  : }

	push	edx
	mov	ecx, ebp
	push	eax
	lea	edx, DWORD PTR $LN6@OR
	call	@_RTC_CheckStackVars@8
	pop	eax
	pop	edx
	add	esp, 28					; 0000001cH
	cmp	ebp, esp
	call	__RTC_CheckEsp
	mov	esp, ebp
	pop	ebp
	ret	0
$LN6@OR:
	DD	2
	DD	$LN5@OR
$LN5@OR:
	DD	-9					; fffffff7H
	DD	1
	DD	$LN3@OR
	DD	-21					; ffffffebH
	DD	1
	DD	$LN4@OR
$LN4@OR:
	DB	98					; 00000062H
	DB	0
$LN3@OR:
	DB	97					; 00000061H
	DB	0
??$OR@$00$03$0A@@Cpu@gb@emulation@@AAEXXZ ENDP		; emulation::gb::Cpu::OR<1,4,0>
_TEXT	ENDS
; Function compile flags: /Odtp /RTCsu
; File d:\personal\projects\gbemu\solution\code\emulation\gb\cpu.cpp
;	COMDAT ??$OR@$00$04$0A@@Cpu@gb@emulation@@AAEXXZ
_TEXT	SEGMENT
_b$ = -21						; size = 1
_a$ = -9						; size = 1
_this$ = -4						; size = 4
??$OR@$00$04$0A@@Cpu@gb@emulation@@AAEXXZ PROC		; emulation::gb::Cpu::OR<1,5,0>, COMDAT
; _this$ = ecx

; 608  : void Cpu::OR() {

	push	ebp
	mov	ebp, esp
	sub	esp, 28					; 0000001cH
	mov	eax, -858993460				; ccccccccH
	mov	DWORD PTR [ebp-28], eax
	mov	DWORD PTR [ebp-24], eax
	mov	DWORD PTR [ebp-20], eax
	mov	DWORD PTR [ebp-16], eax
	mov	DWORD PTR [ebp-12], eax
	mov	DWORD PTR [ebp-8], eax
	mov	DWORD PTR [ebp-4], eax
	mov	DWORD PTR _this$[ebp], ecx

; 609  :   reg.F.raw = 0;

	mov	eax, DWORD PTR _this$[ebp]
	mov	BYTE PTR [eax+1064], 0

; 610  :   uint8_t a=0,b=0;

	mov	BYTE PTR _a$[ebp], 0
	mov	BYTE PTR _b$[ebp], 0

; 611  :   arithmeticMode<dest,src,mode>(a,b);

	lea	ecx, DWORD PTR _b$[ebp]
	push	ecx
	lea	edx, DWORD PTR _a$[ebp]
	push	edx
	mov	ecx, DWORD PTR _this$[ebp]
	call	??$arithmeticMode@$00$04$0A@@Cpu@gb@emulation@@AAEXAAE0@Z ; emulation::gb::Cpu::arithmeticMode<1,5,0>

; 612  :   reg.raw8[dest] = a | b;

	movzx	eax, BYTE PTR _a$[ebp]
	movzx	ecx, BYTE PTR _b$[ebp]
	or	eax, ecx
	mov	edx, 1
	shl	edx, 0
	mov	ecx, DWORD PTR _this$[ebp]
	mov	BYTE PTR [ecx+edx+1064], al

; 613  :   updateCpuFlagZ(reg.raw8[dest]);

	mov	edx, 1
	shl	edx, 0
	mov	eax, DWORD PTR _this$[ebp]
	movzx	ecx, BYTE PTR [eax+edx+1064]
	push	ecx
	mov	ecx, DWORD PTR _this$[ebp]
	call	?updateCpuFlagZ@Cpu@gb@emulation@@AAEXE@Z ; emulation::gb::Cpu::updateCpuFlagZ

; 614  : }

	push	edx
	mov	ecx, ebp
	push	eax
	lea	edx, DWORD PTR $LN6@OR
	call	@_RTC_CheckStackVars@8
	pop	eax
	pop	edx
	add	esp, 28					; 0000001cH
	cmp	ebp, esp
	call	__RTC_CheckEsp
	mov	esp, ebp
	pop	ebp
	ret	0
$LN6@OR:
	DD	2
	DD	$LN5@OR
$LN5@OR:
	DD	-9					; fffffff7H
	DD	1
	DD	$LN3@OR
	DD	-21					; ffffffebH
	DD	1
	DD	$LN4@OR
$LN4@OR:
	DB	98					; 00000062H
	DB	0
$LN3@OR:
	DB	97					; 00000061H
	DB	0
??$OR@$00$04$0A@@Cpu@gb@emulation@@AAEXXZ ENDP		; emulation::gb::Cpu::OR<1,5,0>
_TEXT	ENDS
; Function compile flags: /Odtp /RTCsu
; File d:\personal\projects\gbemu\solution\code\emulation\gb\cpu.cpp
;	COMDAT ??$OR@$00$01$0A@@Cpu@gb@emulation@@AAEXXZ
_TEXT	SEGMENT
_b$ = -21						; size = 1
_a$ = -9						; size = 1
_this$ = -4						; size = 4
??$OR@$00$01$0A@@Cpu@gb@emulation@@AAEXXZ PROC		; emulation::gb::Cpu::OR<1,2,0>, COMDAT
; _this$ = ecx

; 608  : void Cpu::OR() {

	push	ebp
	mov	ebp, esp
	sub	esp, 28					; 0000001cH
	mov	eax, -858993460				; ccccccccH
	mov	DWORD PTR [ebp-28], eax
	mov	DWORD PTR [ebp-24], eax
	mov	DWORD PTR [ebp-20], eax
	mov	DWORD PTR [ebp-16], eax
	mov	DWORD PTR [ebp-12], eax
	mov	DWORD PTR [ebp-8], eax
	mov	DWORD PTR [ebp-4], eax
	mov	DWORD PTR _this$[ebp], ecx

; 609  :   reg.F.raw = 0;

	mov	eax, DWORD PTR _this$[ebp]
	mov	BYTE PTR [eax+1064], 0

; 610  :   uint8_t a=0,b=0;

	mov	BYTE PTR _a$[ebp], 0
	mov	BYTE PTR _b$[ebp], 0

; 611  :   arithmeticMode<dest,src,mode>(a,b);

	lea	ecx, DWORD PTR _b$[ebp]
	push	ecx
	lea	edx, DWORD PTR _a$[ebp]
	push	edx
	mov	ecx, DWORD PTR _this$[ebp]
	call	??$arithmeticMode@$00$01$0A@@Cpu@gb@emulation@@AAEXAAE0@Z ; emulation::gb::Cpu::arithmeticMode<1,2,0>

; 612  :   reg.raw8[dest] = a | b;

	movzx	eax, BYTE PTR _a$[ebp]
	movzx	ecx, BYTE PTR _b$[ebp]
	or	eax, ecx
	mov	edx, 1
	shl	edx, 0
	mov	ecx, DWORD PTR _this$[ebp]
	mov	BYTE PTR [ecx+edx+1064], al

; 613  :   updateCpuFlagZ(reg.raw8[dest]);

	mov	edx, 1
	shl	edx, 0
	mov	eax, DWORD PTR _this$[ebp]
	movzx	ecx, BYTE PTR [eax+edx+1064]
	push	ecx
	mov	ecx, DWORD PTR _this$[ebp]
	call	?updateCpuFlagZ@Cpu@gb@emulation@@AAEXE@Z ; emulation::gb::Cpu::updateCpuFlagZ

; 614  : }

	push	edx
	mov	ecx, ebp
	push	eax
	lea	edx, DWORD PTR $LN6@OR
	call	@_RTC_CheckStackVars@8
	pop	eax
	pop	edx
	add	esp, 28					; 0000001cH
	cmp	ebp, esp
	call	__RTC_CheckEsp
	mov	esp, ebp
	pop	ebp
	ret	0
$LN6@OR:
	DD	2
	DD	$LN5@OR
$LN5@OR:
	DD	-9					; fffffff7H
	DD	1
	DD	$LN3@OR
	DD	-21					; ffffffebH
	DD	1
	DD	$LN4@OR
$LN4@OR:
	DB	98					; 00000062H
	DB	0
$LN3@OR:
	DB	97					; 00000061H
	DB	0
??$OR@$00$01$0A@@Cpu@gb@emulation@@AAEXXZ ENDP		; emulation::gb::Cpu::OR<1,2,0>
_TEXT	ENDS
; Function compile flags: /Odtp /RTCsu
; File d:\personal\projects\gbemu\solution\code\emulation\gb\cpu.cpp
;	COMDAT ??$OR@$00$02$0A@@Cpu@gb@emulation@@AAEXXZ
_TEXT	SEGMENT
_b$ = -21						; size = 1
_a$ = -9						; size = 1
_this$ = -4						; size = 4
??$OR@$00$02$0A@@Cpu@gb@emulation@@AAEXXZ PROC		; emulation::gb::Cpu::OR<1,3,0>, COMDAT
; _this$ = ecx

; 608  : void Cpu::OR() {

	push	ebp
	mov	ebp, esp
	sub	esp, 28					; 0000001cH
	mov	eax, -858993460				; ccccccccH
	mov	DWORD PTR [ebp-28], eax
	mov	DWORD PTR [ebp-24], eax
	mov	DWORD PTR [ebp-20], eax
	mov	DWORD PTR [ebp-16], eax
	mov	DWORD PTR [ebp-12], eax
	mov	DWORD PTR [ebp-8], eax
	mov	DWORD PTR [ebp-4], eax
	mov	DWORD PTR _this$[ebp], ecx

; 609  :   reg.F.raw = 0;

	mov	eax, DWORD PTR _this$[ebp]
	mov	BYTE PTR [eax+1064], 0

; 610  :   uint8_t a=0,b=0;

	mov	BYTE PTR _a$[ebp], 0
	mov	BYTE PTR _b$[ebp], 0

; 611  :   arithmeticMode<dest,src,mode>(a,b);

	lea	ecx, DWORD PTR _b$[ebp]
	push	ecx
	lea	edx, DWORD PTR _a$[ebp]
	push	edx
	mov	ecx, DWORD PTR _this$[ebp]
	call	??$arithmeticMode@$00$02$0A@@Cpu@gb@emulation@@AAEXAAE0@Z ; emulation::gb::Cpu::arithmeticMode<1,3,0>

; 612  :   reg.raw8[dest] = a | b;

	movzx	eax, BYTE PTR _a$[ebp]
	movzx	ecx, BYTE PTR _b$[ebp]
	or	eax, ecx
	mov	edx, 1
	shl	edx, 0
	mov	ecx, DWORD PTR _this$[ebp]
	mov	BYTE PTR [ecx+edx+1064], al

; 613  :   updateCpuFlagZ(reg.raw8[dest]);

	mov	edx, 1
	shl	edx, 0
	mov	eax, DWORD PTR _this$[ebp]
	movzx	ecx, BYTE PTR [eax+edx+1064]
	push	ecx
	mov	ecx, DWORD PTR _this$[ebp]
	call	?updateCpuFlagZ@Cpu@gb@emulation@@AAEXE@Z ; emulation::gb::Cpu::updateCpuFlagZ

; 614  : }

	push	edx
	mov	ecx, ebp
	push	eax
	lea	edx, DWORD PTR $LN6@OR
	call	@_RTC_CheckStackVars@8
	pop	eax
	pop	edx
	add	esp, 28					; 0000001cH
	cmp	ebp, esp
	call	__RTC_CheckEsp
	mov	esp, ebp
	pop	ebp
	ret	0
$LN6@OR:
	DD	2
	DD	$LN5@OR
$LN5@OR:
	DD	-9					; fffffff7H
	DD	1
	DD	$LN3@OR
	DD	-21					; ffffffebH
	DD	1
	DD	$LN4@OR
$LN4@OR:
	DB	98					; 00000062H
	DB	0
$LN3@OR:
	DB	97					; 00000061H
	DB	0
??$OR@$00$02$0A@@Cpu@gb@emulation@@AAEXXZ ENDP		; emulation::gb::Cpu::OR<1,3,0>
_TEXT	ENDS
; Function compile flags: /Odtp /RTCsu
; File d:\personal\projects\gbemu\solution\code\emulation\gb\cpu.cpp
;	COMDAT ??$XOR@$00$00$0A@@Cpu@gb@emulation@@AAEXXZ
_TEXT	SEGMENT
_b$ = -21						; size = 1
_a$ = -9						; size = 1
_this$ = -4						; size = 4
??$XOR@$00$00$0A@@Cpu@gb@emulation@@AAEXXZ PROC		; emulation::gb::Cpu::XOR<1,1,0>, COMDAT
; _this$ = ecx

; 599  : void Cpu::XOR() {

	push	ebp
	mov	ebp, esp
	sub	esp, 28					; 0000001cH
	mov	eax, -858993460				; ccccccccH
	mov	DWORD PTR [ebp-28], eax
	mov	DWORD PTR [ebp-24], eax
	mov	DWORD PTR [ebp-20], eax
	mov	DWORD PTR [ebp-16], eax
	mov	DWORD PTR [ebp-12], eax
	mov	DWORD PTR [ebp-8], eax
	mov	DWORD PTR [ebp-4], eax
	mov	DWORD PTR _this$[ebp], ecx

; 600  :   reg.F.raw = 0;

	mov	eax, DWORD PTR _this$[ebp]
	mov	BYTE PTR [eax+1064], 0

; 601  :   uint8_t a=0,b=0;

	mov	BYTE PTR _a$[ebp], 0
	mov	BYTE PTR _b$[ebp], 0

; 602  :   arithmeticMode<dest,src,mode>(a,b);

	lea	ecx, DWORD PTR _b$[ebp]
	push	ecx
	lea	edx, DWORD PTR _a$[ebp]
	push	edx
	mov	ecx, DWORD PTR _this$[ebp]
	call	??$arithmeticMode@$00$00$0A@@Cpu@gb@emulation@@AAEXAAE0@Z ; emulation::gb::Cpu::arithmeticMode<1,1,0>

; 603  :   reg.raw8[dest] = a ^ b;

	movzx	eax, BYTE PTR _a$[ebp]
	movzx	ecx, BYTE PTR _b$[ebp]
	xor	eax, ecx
	mov	edx, 1
	shl	edx, 0
	mov	ecx, DWORD PTR _this$[ebp]
	mov	BYTE PTR [ecx+edx+1064], al

; 604  :   updateCpuFlagZ(reg.raw8[dest]);

	mov	edx, 1
	shl	edx, 0
	mov	eax, DWORD PTR _this$[ebp]
	movzx	ecx, BYTE PTR [eax+edx+1064]
	push	ecx
	mov	ecx, DWORD PTR _this$[ebp]
	call	?updateCpuFlagZ@Cpu@gb@emulation@@AAEXE@Z ; emulation::gb::Cpu::updateCpuFlagZ

; 605  : }

	push	edx
	mov	ecx, ebp
	push	eax
	lea	edx, DWORD PTR $LN6@XOR
	call	@_RTC_CheckStackVars@8
	pop	eax
	pop	edx
	add	esp, 28					; 0000001cH
	cmp	ebp, esp
	call	__RTC_CheckEsp
	mov	esp, ebp
	pop	ebp
	ret	0
$LN6@XOR:
	DD	2
	DD	$LN5@XOR
$LN5@XOR:
	DD	-9					; fffffff7H
	DD	1
	DD	$LN3@XOR
	DD	-21					; ffffffebH
	DD	1
	DD	$LN4@XOR
$LN4@XOR:
	DB	98					; 00000062H
	DB	0
$LN3@XOR:
	DB	97					; 00000061H
	DB	0
??$XOR@$00$00$0A@@Cpu@gb@emulation@@AAEXXZ ENDP		; emulation::gb::Cpu::XOR<1,1,0>
_TEXT	ENDS
; Function compile flags: /Odtp /RTCsu
; File d:\personal\projects\gbemu\solution\code\emulation\gb\cpu.cpp
;	COMDAT ??$XOR@$00$02$00@Cpu@gb@emulation@@AAEXXZ
_TEXT	SEGMENT
_b$ = -21						; size = 1
_a$ = -9						; size = 1
_this$ = -4						; size = 4
??$XOR@$00$02$00@Cpu@gb@emulation@@AAEXXZ PROC		; emulation::gb::Cpu::XOR<1,3,1>, COMDAT
; _this$ = ecx

; 599  : void Cpu::XOR() {

	push	ebp
	mov	ebp, esp
	sub	esp, 28					; 0000001cH
	mov	eax, -858993460				; ccccccccH
	mov	DWORD PTR [ebp-28], eax
	mov	DWORD PTR [ebp-24], eax
	mov	DWORD PTR [ebp-20], eax
	mov	DWORD PTR [ebp-16], eax
	mov	DWORD PTR [ebp-12], eax
	mov	DWORD PTR [ebp-8], eax
	mov	DWORD PTR [ebp-4], eax
	mov	DWORD PTR _this$[ebp], ecx

; 600  :   reg.F.raw = 0;

	mov	eax, DWORD PTR _this$[ebp]
	mov	BYTE PTR [eax+1064], 0

; 601  :   uint8_t a=0,b=0;

	mov	BYTE PTR _a$[ebp], 0
	mov	BYTE PTR _b$[ebp], 0

; 602  :   arithmeticMode<dest,src,mode>(a,b);

	lea	ecx, DWORD PTR _b$[ebp]
	push	ecx
	lea	edx, DWORD PTR _a$[ebp]
	push	edx
	mov	ecx, DWORD PTR _this$[ebp]
	call	??$arithmeticMode@$00$02$00@Cpu@gb@emulation@@AAEXAAE0@Z ; emulation::gb::Cpu::arithmeticMode<1,3,1>

; 603  :   reg.raw8[dest] = a ^ b;

	movzx	eax, BYTE PTR _a$[ebp]
	movzx	ecx, BYTE PTR _b$[ebp]
	xor	eax, ecx
	mov	edx, 1
	shl	edx, 0
	mov	ecx, DWORD PTR _this$[ebp]
	mov	BYTE PTR [ecx+edx+1064], al

; 604  :   updateCpuFlagZ(reg.raw8[dest]);

	mov	edx, 1
	shl	edx, 0
	mov	eax, DWORD PTR _this$[ebp]
	movzx	ecx, BYTE PTR [eax+edx+1064]
	push	ecx
	mov	ecx, DWORD PTR _this$[ebp]
	call	?updateCpuFlagZ@Cpu@gb@emulation@@AAEXE@Z ; emulation::gb::Cpu::updateCpuFlagZ

; 605  : }

	push	edx
	mov	ecx, ebp
	push	eax
	lea	edx, DWORD PTR $LN6@XOR
	call	@_RTC_CheckStackVars@8
	pop	eax
	pop	edx
	add	esp, 28					; 0000001cH
	cmp	ebp, esp
	call	__RTC_CheckEsp
	mov	esp, ebp
	pop	ebp
	ret	0
$LN6@XOR:
	DD	2
	DD	$LN5@XOR
$LN5@XOR:
	DD	-9					; fffffff7H
	DD	1
	DD	$LN3@XOR
	DD	-21					; ffffffebH
	DD	1
	DD	$LN4@XOR
$LN4@XOR:
	DB	98					; 00000062H
	DB	0
$LN3@XOR:
	DB	97					; 00000061H
	DB	0
??$XOR@$00$02$00@Cpu@gb@emulation@@AAEXXZ ENDP		; emulation::gb::Cpu::XOR<1,3,1>
_TEXT	ENDS
; Function compile flags: /Odtp /RTCsu
; File d:\personal\projects\gbemu\solution\code\emulation\gb\cpu.cpp
;	COMDAT ??$XOR@$00$05$0A@@Cpu@gb@emulation@@AAEXXZ
_TEXT	SEGMENT
_b$ = -21						; size = 1
_a$ = -9						; size = 1
_this$ = -4						; size = 4
??$XOR@$00$05$0A@@Cpu@gb@emulation@@AAEXXZ PROC		; emulation::gb::Cpu::XOR<1,6,0>, COMDAT
; _this$ = ecx

; 599  : void Cpu::XOR() {

	push	ebp
	mov	ebp, esp
	sub	esp, 28					; 0000001cH
	mov	eax, -858993460				; ccccccccH
	mov	DWORD PTR [ebp-28], eax
	mov	DWORD PTR [ebp-24], eax
	mov	DWORD PTR [ebp-20], eax
	mov	DWORD PTR [ebp-16], eax
	mov	DWORD PTR [ebp-12], eax
	mov	DWORD PTR [ebp-8], eax
	mov	DWORD PTR [ebp-4], eax
	mov	DWORD PTR _this$[ebp], ecx

; 600  :   reg.F.raw = 0;

	mov	eax, DWORD PTR _this$[ebp]
	mov	BYTE PTR [eax+1064], 0

; 601  :   uint8_t a=0,b=0;

	mov	BYTE PTR _a$[ebp], 0
	mov	BYTE PTR _b$[ebp], 0

; 602  :   arithmeticMode<dest,src,mode>(a,b);

	lea	ecx, DWORD PTR _b$[ebp]
	push	ecx
	lea	edx, DWORD PTR _a$[ebp]
	push	edx
	mov	ecx, DWORD PTR _this$[ebp]
	call	??$arithmeticMode@$00$05$0A@@Cpu@gb@emulation@@AAEXAAE0@Z ; emulation::gb::Cpu::arithmeticMode<1,6,0>

; 603  :   reg.raw8[dest] = a ^ b;

	movzx	eax, BYTE PTR _a$[ebp]
	movzx	ecx, BYTE PTR _b$[ebp]
	xor	eax, ecx
	mov	edx, 1
	shl	edx, 0
	mov	ecx, DWORD PTR _this$[ebp]
	mov	BYTE PTR [ecx+edx+1064], al

; 604  :   updateCpuFlagZ(reg.raw8[dest]);

	mov	edx, 1
	shl	edx, 0
	mov	eax, DWORD PTR _this$[ebp]
	movzx	ecx, BYTE PTR [eax+edx+1064]
	push	ecx
	mov	ecx, DWORD PTR _this$[ebp]
	call	?updateCpuFlagZ@Cpu@gb@emulation@@AAEXE@Z ; emulation::gb::Cpu::updateCpuFlagZ

; 605  : }

	push	edx
	mov	ecx, ebp
	push	eax
	lea	edx, DWORD PTR $LN6@XOR
	call	@_RTC_CheckStackVars@8
	pop	eax
	pop	edx
	add	esp, 28					; 0000001cH
	cmp	ebp, esp
	call	__RTC_CheckEsp
	mov	esp, ebp
	pop	ebp
	ret	0
$LN6@XOR:
	DD	2
	DD	$LN5@XOR
$LN5@XOR:
	DD	-9					; fffffff7H
	DD	1
	DD	$LN3@XOR
	DD	-21					; ffffffebH
	DD	1
	DD	$LN4@XOR
$LN4@XOR:
	DB	98					; 00000062H
	DB	0
$LN3@XOR:
	DB	97					; 00000061H
	DB	0
??$XOR@$00$05$0A@@Cpu@gb@emulation@@AAEXXZ ENDP		; emulation::gb::Cpu::XOR<1,6,0>
_TEXT	ENDS
; Function compile flags: /Odtp /RTCsu
; File d:\personal\projects\gbemu\solution\code\emulation\gb\cpu.cpp
;	COMDAT ??$XOR@$00$06$0A@@Cpu@gb@emulation@@AAEXXZ
_TEXT	SEGMENT
_b$ = -21						; size = 1
_a$ = -9						; size = 1
_this$ = -4						; size = 4
??$XOR@$00$06$0A@@Cpu@gb@emulation@@AAEXXZ PROC		; emulation::gb::Cpu::XOR<1,7,0>, COMDAT
; _this$ = ecx

; 599  : void Cpu::XOR() {

	push	ebp
	mov	ebp, esp
	sub	esp, 28					; 0000001cH
	mov	eax, -858993460				; ccccccccH
	mov	DWORD PTR [ebp-28], eax
	mov	DWORD PTR [ebp-24], eax
	mov	DWORD PTR [ebp-20], eax
	mov	DWORD PTR [ebp-16], eax
	mov	DWORD PTR [ebp-12], eax
	mov	DWORD PTR [ebp-8], eax
	mov	DWORD PTR [ebp-4], eax
	mov	DWORD PTR _this$[ebp], ecx

; 600  :   reg.F.raw = 0;

	mov	eax, DWORD PTR _this$[ebp]
	mov	BYTE PTR [eax+1064], 0

; 601  :   uint8_t a=0,b=0;

	mov	BYTE PTR _a$[ebp], 0
	mov	BYTE PTR _b$[ebp], 0

; 602  :   arithmeticMode<dest,src,mode>(a,b);

	lea	ecx, DWORD PTR _b$[ebp]
	push	ecx
	lea	edx, DWORD PTR _a$[ebp]
	push	edx
	mov	ecx, DWORD PTR _this$[ebp]
	call	??$arithmeticMode@$00$06$0A@@Cpu@gb@emulation@@AAEXAAE0@Z ; emulation::gb::Cpu::arithmeticMode<1,7,0>

; 603  :   reg.raw8[dest] = a ^ b;

	movzx	eax, BYTE PTR _a$[ebp]
	movzx	ecx, BYTE PTR _b$[ebp]
	xor	eax, ecx
	mov	edx, 1
	shl	edx, 0
	mov	ecx, DWORD PTR _this$[ebp]
	mov	BYTE PTR [ecx+edx+1064], al

; 604  :   updateCpuFlagZ(reg.raw8[dest]);

	mov	edx, 1
	shl	edx, 0
	mov	eax, DWORD PTR _this$[ebp]
	movzx	ecx, BYTE PTR [eax+edx+1064]
	push	ecx
	mov	ecx, DWORD PTR _this$[ebp]
	call	?updateCpuFlagZ@Cpu@gb@emulation@@AAEXE@Z ; emulation::gb::Cpu::updateCpuFlagZ

; 605  : }

	push	edx
	mov	ecx, ebp
	push	eax
	lea	edx, DWORD PTR $LN6@XOR
	call	@_RTC_CheckStackVars@8
	pop	eax
	pop	edx
	add	esp, 28					; 0000001cH
	cmp	ebp, esp
	call	__RTC_CheckEsp
	mov	esp, ebp
	pop	ebp
	ret	0
$LN6@XOR:
	DD	2
	DD	$LN5@XOR
$LN5@XOR:
	DD	-9					; fffffff7H
	DD	1
	DD	$LN3@XOR
	DD	-21					; ffffffebH
	DD	1
	DD	$LN4@XOR
$LN4@XOR:
	DB	98					; 00000062H
	DB	0
$LN3@XOR:
	DB	97					; 00000061H
	DB	0
??$XOR@$00$06$0A@@Cpu@gb@emulation@@AAEXXZ ENDP		; emulation::gb::Cpu::XOR<1,7,0>
_TEXT	ENDS
; Function compile flags: /Odtp /RTCsu
; File d:\personal\projects\gbemu\solution\code\emulation\gb\cpu.cpp
;	COMDAT ??$XOR@$00$03$0A@@Cpu@gb@emulation@@AAEXXZ
_TEXT	SEGMENT
_b$ = -21						; size = 1
_a$ = -9						; size = 1
_this$ = -4						; size = 4
??$XOR@$00$03$0A@@Cpu@gb@emulation@@AAEXXZ PROC		; emulation::gb::Cpu::XOR<1,4,0>, COMDAT
; _this$ = ecx

; 599  : void Cpu::XOR() {

	push	ebp
	mov	ebp, esp
	sub	esp, 28					; 0000001cH
	mov	eax, -858993460				; ccccccccH
	mov	DWORD PTR [ebp-28], eax
	mov	DWORD PTR [ebp-24], eax
	mov	DWORD PTR [ebp-20], eax
	mov	DWORD PTR [ebp-16], eax
	mov	DWORD PTR [ebp-12], eax
	mov	DWORD PTR [ebp-8], eax
	mov	DWORD PTR [ebp-4], eax
	mov	DWORD PTR _this$[ebp], ecx

; 600  :   reg.F.raw = 0;

	mov	eax, DWORD PTR _this$[ebp]
	mov	BYTE PTR [eax+1064], 0

; 601  :   uint8_t a=0,b=0;

	mov	BYTE PTR _a$[ebp], 0
	mov	BYTE PTR _b$[ebp], 0

; 602  :   arithmeticMode<dest,src,mode>(a,b);

	lea	ecx, DWORD PTR _b$[ebp]
	push	ecx
	lea	edx, DWORD PTR _a$[ebp]
	push	edx
	mov	ecx, DWORD PTR _this$[ebp]
	call	??$arithmeticMode@$00$03$0A@@Cpu@gb@emulation@@AAEXAAE0@Z ; emulation::gb::Cpu::arithmeticMode<1,4,0>

; 603  :   reg.raw8[dest] = a ^ b;

	movzx	eax, BYTE PTR _a$[ebp]
	movzx	ecx, BYTE PTR _b$[ebp]
	xor	eax, ecx
	mov	edx, 1
	shl	edx, 0
	mov	ecx, DWORD PTR _this$[ebp]
	mov	BYTE PTR [ecx+edx+1064], al

; 604  :   updateCpuFlagZ(reg.raw8[dest]);

	mov	edx, 1
	shl	edx, 0
	mov	eax, DWORD PTR _this$[ebp]
	movzx	ecx, BYTE PTR [eax+edx+1064]
	push	ecx
	mov	ecx, DWORD PTR _this$[ebp]
	call	?updateCpuFlagZ@Cpu@gb@emulation@@AAEXE@Z ; emulation::gb::Cpu::updateCpuFlagZ

; 605  : }

	push	edx
	mov	ecx, ebp
	push	eax
	lea	edx, DWORD PTR $LN6@XOR
	call	@_RTC_CheckStackVars@8
	pop	eax
	pop	edx
	add	esp, 28					; 0000001cH
	cmp	ebp, esp
	call	__RTC_CheckEsp
	mov	esp, ebp
	pop	ebp
	ret	0
$LN6@XOR:
	DD	2
	DD	$LN5@XOR
$LN5@XOR:
	DD	-9					; fffffff7H
	DD	1
	DD	$LN3@XOR
	DD	-21					; ffffffebH
	DD	1
	DD	$LN4@XOR
$LN4@XOR:
	DB	98					; 00000062H
	DB	0
$LN3@XOR:
	DB	97					; 00000061H
	DB	0
??$XOR@$00$03$0A@@Cpu@gb@emulation@@AAEXXZ ENDP		; emulation::gb::Cpu::XOR<1,4,0>
_TEXT	ENDS
; Function compile flags: /Odtp /RTCsu
; File d:\personal\projects\gbemu\solution\code\emulation\gb\cpu.cpp
;	COMDAT ??$XOR@$00$04$0A@@Cpu@gb@emulation@@AAEXXZ
_TEXT	SEGMENT
_b$ = -21						; size = 1
_a$ = -9						; size = 1
_this$ = -4						; size = 4
??$XOR@$00$04$0A@@Cpu@gb@emulation@@AAEXXZ PROC		; emulation::gb::Cpu::XOR<1,5,0>, COMDAT
; _this$ = ecx

; 599  : void Cpu::XOR() {

	push	ebp
	mov	ebp, esp
	sub	esp, 28					; 0000001cH
	mov	eax, -858993460				; ccccccccH
	mov	DWORD PTR [ebp-28], eax
	mov	DWORD PTR [ebp-24], eax
	mov	DWORD PTR [ebp-20], eax
	mov	DWORD PTR [ebp-16], eax
	mov	DWORD PTR [ebp-12], eax
	mov	DWORD PTR [ebp-8], eax
	mov	DWORD PTR [ebp-4], eax
	mov	DWORD PTR _this$[ebp], ecx

; 600  :   reg.F.raw = 0;

	mov	eax, DWORD PTR _this$[ebp]
	mov	BYTE PTR [eax+1064], 0

; 601  :   uint8_t a=0,b=0;

	mov	BYTE PTR _a$[ebp], 0
	mov	BYTE PTR _b$[ebp], 0

; 602  :   arithmeticMode<dest,src,mode>(a,b);

	lea	ecx, DWORD PTR _b$[ebp]
	push	ecx
	lea	edx, DWORD PTR _a$[ebp]
	push	edx
	mov	ecx, DWORD PTR _this$[ebp]
	call	??$arithmeticMode@$00$04$0A@@Cpu@gb@emulation@@AAEXAAE0@Z ; emulation::gb::Cpu::arithmeticMode<1,5,0>

; 603  :   reg.raw8[dest] = a ^ b;

	movzx	eax, BYTE PTR _a$[ebp]
	movzx	ecx, BYTE PTR _b$[ebp]
	xor	eax, ecx
	mov	edx, 1
	shl	edx, 0
	mov	ecx, DWORD PTR _this$[ebp]
	mov	BYTE PTR [ecx+edx+1064], al

; 604  :   updateCpuFlagZ(reg.raw8[dest]);

	mov	edx, 1
	shl	edx, 0
	mov	eax, DWORD PTR _this$[ebp]
	movzx	ecx, BYTE PTR [eax+edx+1064]
	push	ecx
	mov	ecx, DWORD PTR _this$[ebp]
	call	?updateCpuFlagZ@Cpu@gb@emulation@@AAEXE@Z ; emulation::gb::Cpu::updateCpuFlagZ

; 605  : }

	push	edx
	mov	ecx, ebp
	push	eax
	lea	edx, DWORD PTR $LN6@XOR
	call	@_RTC_CheckStackVars@8
	pop	eax
	pop	edx
	add	esp, 28					; 0000001cH
	cmp	ebp, esp
	call	__RTC_CheckEsp
	mov	esp, ebp
	pop	ebp
	ret	0
$LN6@XOR:
	DD	2
	DD	$LN5@XOR
$LN5@XOR:
	DD	-9					; fffffff7H
	DD	1
	DD	$LN3@XOR
	DD	-21					; ffffffebH
	DD	1
	DD	$LN4@XOR
$LN4@XOR:
	DB	98					; 00000062H
	DB	0
$LN3@XOR:
	DB	97					; 00000061H
	DB	0
??$XOR@$00$04$0A@@Cpu@gb@emulation@@AAEXXZ ENDP		; emulation::gb::Cpu::XOR<1,5,0>
_TEXT	ENDS
; Function compile flags: /Odtp /RTCsu
; File d:\personal\projects\gbemu\solution\code\emulation\gb\cpu.cpp
;	COMDAT ??$XOR@$00$01$0A@@Cpu@gb@emulation@@AAEXXZ
_TEXT	SEGMENT
_b$ = -21						; size = 1
_a$ = -9						; size = 1
_this$ = -4						; size = 4
??$XOR@$00$01$0A@@Cpu@gb@emulation@@AAEXXZ PROC		; emulation::gb::Cpu::XOR<1,2,0>, COMDAT
; _this$ = ecx

; 599  : void Cpu::XOR() {

	push	ebp
	mov	ebp, esp
	sub	esp, 28					; 0000001cH
	mov	eax, -858993460				; ccccccccH
	mov	DWORD PTR [ebp-28], eax
	mov	DWORD PTR [ebp-24], eax
	mov	DWORD PTR [ebp-20], eax
	mov	DWORD PTR [ebp-16], eax
	mov	DWORD PTR [ebp-12], eax
	mov	DWORD PTR [ebp-8], eax
	mov	DWORD PTR [ebp-4], eax
	mov	DWORD PTR _this$[ebp], ecx

; 600  :   reg.F.raw = 0;

	mov	eax, DWORD PTR _this$[ebp]
	mov	BYTE PTR [eax+1064], 0

; 601  :   uint8_t a=0,b=0;

	mov	BYTE PTR _a$[ebp], 0
	mov	BYTE PTR _b$[ebp], 0

; 602  :   arithmeticMode<dest,src,mode>(a,b);

	lea	ecx, DWORD PTR _b$[ebp]
	push	ecx
	lea	edx, DWORD PTR _a$[ebp]
	push	edx
	mov	ecx, DWORD PTR _this$[ebp]
	call	??$arithmeticMode@$00$01$0A@@Cpu@gb@emulation@@AAEXAAE0@Z ; emulation::gb::Cpu::arithmeticMode<1,2,0>

; 603  :   reg.raw8[dest] = a ^ b;

	movzx	eax, BYTE PTR _a$[ebp]
	movzx	ecx, BYTE PTR _b$[ebp]
	xor	eax, ecx
	mov	edx, 1
	shl	edx, 0
	mov	ecx, DWORD PTR _this$[ebp]
	mov	BYTE PTR [ecx+edx+1064], al

; 604  :   updateCpuFlagZ(reg.raw8[dest]);

	mov	edx, 1
	shl	edx, 0
	mov	eax, DWORD PTR _this$[ebp]
	movzx	ecx, BYTE PTR [eax+edx+1064]
	push	ecx
	mov	ecx, DWORD PTR _this$[ebp]
	call	?updateCpuFlagZ@Cpu@gb@emulation@@AAEXE@Z ; emulation::gb::Cpu::updateCpuFlagZ

; 605  : }

	push	edx
	mov	ecx, ebp
	push	eax
	lea	edx, DWORD PTR $LN6@XOR
	call	@_RTC_CheckStackVars@8
	pop	eax
	pop	edx
	add	esp, 28					; 0000001cH
	cmp	ebp, esp
	call	__RTC_CheckEsp
	mov	esp, ebp
	pop	ebp
	ret	0
$LN6@XOR:
	DD	2
	DD	$LN5@XOR
$LN5@XOR:
	DD	-9					; fffffff7H
	DD	1
	DD	$LN3@XOR
	DD	-21					; ffffffebH
	DD	1
	DD	$LN4@XOR
$LN4@XOR:
	DB	98					; 00000062H
	DB	0
$LN3@XOR:
	DB	97					; 00000061H
	DB	0
??$XOR@$00$01$0A@@Cpu@gb@emulation@@AAEXXZ ENDP		; emulation::gb::Cpu::XOR<1,2,0>
_TEXT	ENDS
; Function compile flags: /Odtp /RTCsu
; File d:\personal\projects\gbemu\solution\code\emulation\gb\cpu.cpp
;	COMDAT ??$XOR@$00$02$0A@@Cpu@gb@emulation@@AAEXXZ
_TEXT	SEGMENT
_b$ = -21						; size = 1
_a$ = -9						; size = 1
_this$ = -4						; size = 4
??$XOR@$00$02$0A@@Cpu@gb@emulation@@AAEXXZ PROC		; emulation::gb::Cpu::XOR<1,3,0>, COMDAT
; _this$ = ecx

; 599  : void Cpu::XOR() {

	push	ebp
	mov	ebp, esp
	sub	esp, 28					; 0000001cH
	mov	eax, -858993460				; ccccccccH
	mov	DWORD PTR [ebp-28], eax
	mov	DWORD PTR [ebp-24], eax
	mov	DWORD PTR [ebp-20], eax
	mov	DWORD PTR [ebp-16], eax
	mov	DWORD PTR [ebp-12], eax
	mov	DWORD PTR [ebp-8], eax
	mov	DWORD PTR [ebp-4], eax
	mov	DWORD PTR _this$[ebp], ecx

; 600  :   reg.F.raw = 0;

	mov	eax, DWORD PTR _this$[ebp]
	mov	BYTE PTR [eax+1064], 0

; 601  :   uint8_t a=0,b=0;

	mov	BYTE PTR _a$[ebp], 0
	mov	BYTE PTR _b$[ebp], 0

; 602  :   arithmeticMode<dest,src,mode>(a,b);

	lea	ecx, DWORD PTR _b$[ebp]
	push	ecx
	lea	edx, DWORD PTR _a$[ebp]
	push	edx
	mov	ecx, DWORD PTR _this$[ebp]
	call	??$arithmeticMode@$00$02$0A@@Cpu@gb@emulation@@AAEXAAE0@Z ; emulation::gb::Cpu::arithmeticMode<1,3,0>

; 603  :   reg.raw8[dest] = a ^ b;

	movzx	eax, BYTE PTR _a$[ebp]
	movzx	ecx, BYTE PTR _b$[ebp]
	xor	eax, ecx
	mov	edx, 1
	shl	edx, 0
	mov	ecx, DWORD PTR _this$[ebp]
	mov	BYTE PTR [ecx+edx+1064], al

; 604  :   updateCpuFlagZ(reg.raw8[dest]);

	mov	edx, 1
	shl	edx, 0
	mov	eax, DWORD PTR _this$[ebp]
	movzx	ecx, BYTE PTR [eax+edx+1064]
	push	ecx
	mov	ecx, DWORD PTR _this$[ebp]
	call	?updateCpuFlagZ@Cpu@gb@emulation@@AAEXE@Z ; emulation::gb::Cpu::updateCpuFlagZ

; 605  : }

	push	edx
	mov	ecx, ebp
	push	eax
	lea	edx, DWORD PTR $LN6@XOR
	call	@_RTC_CheckStackVars@8
	pop	eax
	pop	edx
	add	esp, 28					; 0000001cH
	cmp	ebp, esp
	call	__RTC_CheckEsp
	mov	esp, ebp
	pop	ebp
	ret	0
$LN6@XOR:
	DD	2
	DD	$LN5@XOR
$LN5@XOR:
	DD	-9					; fffffff7H
	DD	1
	DD	$LN3@XOR
	DD	-21					; ffffffebH
	DD	1
	DD	$LN4@XOR
$LN4@XOR:
	DB	98					; 00000062H
	DB	0
$LN3@XOR:
	DB	97					; 00000061H
	DB	0
??$XOR@$00$02$0A@@Cpu@gb@emulation@@AAEXXZ ENDP		; emulation::gb::Cpu::XOR<1,3,0>
_TEXT	ENDS
; Function compile flags: /Odtp /RTCsu
; File d:\personal\projects\gbemu\solution\code\emulation\gb\cpu.cpp
;	COMDAT ??$AND@$00$00$0A@@Cpu@gb@emulation@@AAEXXZ
_TEXT	SEGMENT
_b$ = -21						; size = 1
_a$ = -9						; size = 1
_this$ = -4						; size = 4
??$AND@$00$00$0A@@Cpu@gb@emulation@@AAEXXZ PROC		; emulation::gb::Cpu::AND<1,1,0>, COMDAT
; _this$ = ecx

; 588  : void Cpu::AND() {

	push	ebp
	mov	ebp, esp
	sub	esp, 28					; 0000001cH
	mov	eax, -858993460				; ccccccccH
	mov	DWORD PTR [ebp-28], eax
	mov	DWORD PTR [ebp-24], eax
	mov	DWORD PTR [ebp-20], eax
	mov	DWORD PTR [ebp-16], eax
	mov	DWORD PTR [ebp-12], eax
	mov	DWORD PTR [ebp-8], eax
	mov	DWORD PTR [ebp-4], eax
	mov	DWORD PTR _this$[ebp], ecx

; 589  :   reg.F.raw = 0;

	mov	eax, DWORD PTR _this$[ebp]
	mov	BYTE PTR [eax+1064], 0

; 590  :   uint8_t a=0,b=0;

	mov	BYTE PTR _a$[ebp], 0
	mov	BYTE PTR _b$[ebp], 0

; 591  :   arithmeticMode<dest,src,mode>(a,b);

	lea	ecx, DWORD PTR _b$[ebp]
	push	ecx
	lea	edx, DWORD PTR _a$[ebp]
	push	edx
	mov	ecx, DWORD PTR _this$[ebp]
	call	??$arithmeticMode@$00$00$0A@@Cpu@gb@emulation@@AAEXAAE0@Z ; emulation::gb::Cpu::arithmeticMode<1,1,0>

; 592  :   reg.raw8[dest] = a & b;

	movzx	eax, BYTE PTR _a$[ebp]
	movzx	ecx, BYTE PTR _b$[ebp]
	and	eax, ecx
	mov	edx, 1
	shl	edx, 0
	mov	ecx, DWORD PTR _this$[ebp]
	mov	BYTE PTR [ecx+edx+1064], al

; 593  :   reg.F.H = 1;

	mov	edx, DWORD PTR _this$[ebp]
	mov	al, BYTE PTR [edx+1064]
	or	al, 32					; 00000020H
	mov	ecx, DWORD PTR _this$[ebp]
	mov	BYTE PTR [ecx+1064], al

; 594  :   updateCpuFlagZ(reg.raw8[dest]);

	mov	edx, 1
	shl	edx, 0
	mov	eax, DWORD PTR _this$[ebp]
	movzx	ecx, BYTE PTR [eax+edx+1064]
	push	ecx
	mov	ecx, DWORD PTR _this$[ebp]
	call	?updateCpuFlagZ@Cpu@gb@emulation@@AAEXE@Z ; emulation::gb::Cpu::updateCpuFlagZ

; 595  : }

	push	edx
	mov	ecx, ebp
	push	eax
	lea	edx, DWORD PTR $LN6@AND
	call	@_RTC_CheckStackVars@8
	pop	eax
	pop	edx
	add	esp, 28					; 0000001cH
	cmp	ebp, esp
	call	__RTC_CheckEsp
	mov	esp, ebp
	pop	ebp
	ret	0
$LN6@AND:
	DD	2
	DD	$LN5@AND
$LN5@AND:
	DD	-9					; fffffff7H
	DD	1
	DD	$LN3@AND
	DD	-21					; ffffffebH
	DD	1
	DD	$LN4@AND
$LN4@AND:
	DB	98					; 00000062H
	DB	0
$LN3@AND:
	DB	97					; 00000061H
	DB	0
??$AND@$00$00$0A@@Cpu@gb@emulation@@AAEXXZ ENDP		; emulation::gb::Cpu::AND<1,1,0>
_TEXT	ENDS
; Function compile flags: /Odtp /RTCsu
; File d:\personal\projects\gbemu\solution\code\emulation\gb\cpu.cpp
;	COMDAT ??$AND@$00$02$00@Cpu@gb@emulation@@AAEXXZ
_TEXT	SEGMENT
_b$ = -21						; size = 1
_a$ = -9						; size = 1
_this$ = -4						; size = 4
??$AND@$00$02$00@Cpu@gb@emulation@@AAEXXZ PROC		; emulation::gb::Cpu::AND<1,3,1>, COMDAT
; _this$ = ecx

; 588  : void Cpu::AND() {

	push	ebp
	mov	ebp, esp
	sub	esp, 28					; 0000001cH
	mov	eax, -858993460				; ccccccccH
	mov	DWORD PTR [ebp-28], eax
	mov	DWORD PTR [ebp-24], eax
	mov	DWORD PTR [ebp-20], eax
	mov	DWORD PTR [ebp-16], eax
	mov	DWORD PTR [ebp-12], eax
	mov	DWORD PTR [ebp-8], eax
	mov	DWORD PTR [ebp-4], eax
	mov	DWORD PTR _this$[ebp], ecx

; 589  :   reg.F.raw = 0;

	mov	eax, DWORD PTR _this$[ebp]
	mov	BYTE PTR [eax+1064], 0

; 590  :   uint8_t a=0,b=0;

	mov	BYTE PTR _a$[ebp], 0
	mov	BYTE PTR _b$[ebp], 0

; 591  :   arithmeticMode<dest,src,mode>(a,b);

	lea	ecx, DWORD PTR _b$[ebp]
	push	ecx
	lea	edx, DWORD PTR _a$[ebp]
	push	edx
	mov	ecx, DWORD PTR _this$[ebp]
	call	??$arithmeticMode@$00$02$00@Cpu@gb@emulation@@AAEXAAE0@Z ; emulation::gb::Cpu::arithmeticMode<1,3,1>

; 592  :   reg.raw8[dest] = a & b;

	movzx	eax, BYTE PTR _a$[ebp]
	movzx	ecx, BYTE PTR _b$[ebp]
	and	eax, ecx
	mov	edx, 1
	shl	edx, 0
	mov	ecx, DWORD PTR _this$[ebp]
	mov	BYTE PTR [ecx+edx+1064], al

; 593  :   reg.F.H = 1;

	mov	edx, DWORD PTR _this$[ebp]
	mov	al, BYTE PTR [edx+1064]
	or	al, 32					; 00000020H
	mov	ecx, DWORD PTR _this$[ebp]
	mov	BYTE PTR [ecx+1064], al

; 594  :   updateCpuFlagZ(reg.raw8[dest]);

	mov	edx, 1
	shl	edx, 0
	mov	eax, DWORD PTR _this$[ebp]
	movzx	ecx, BYTE PTR [eax+edx+1064]
	push	ecx
	mov	ecx, DWORD PTR _this$[ebp]
	call	?updateCpuFlagZ@Cpu@gb@emulation@@AAEXE@Z ; emulation::gb::Cpu::updateCpuFlagZ

; 595  : }

	push	edx
	mov	ecx, ebp
	push	eax
	lea	edx, DWORD PTR $LN6@AND
	call	@_RTC_CheckStackVars@8
	pop	eax
	pop	edx
	add	esp, 28					; 0000001cH
	cmp	ebp, esp
	call	__RTC_CheckEsp
	mov	esp, ebp
	pop	ebp
	ret	0
$LN6@AND:
	DD	2
	DD	$LN5@AND
$LN5@AND:
	DD	-9					; fffffff7H
	DD	1
	DD	$LN3@AND
	DD	-21					; ffffffebH
	DD	1
	DD	$LN4@AND
$LN4@AND:
	DB	98					; 00000062H
	DB	0
$LN3@AND:
	DB	97					; 00000061H
	DB	0
??$AND@$00$02$00@Cpu@gb@emulation@@AAEXXZ ENDP		; emulation::gb::Cpu::AND<1,3,1>
_TEXT	ENDS
; Function compile flags: /Odtp /RTCsu
; File d:\personal\projects\gbemu\solution\code\emulation\gb\cpu.cpp
;	COMDAT ??$AND@$00$05$0A@@Cpu@gb@emulation@@AAEXXZ
_TEXT	SEGMENT
_b$ = -21						; size = 1
_a$ = -9						; size = 1
_this$ = -4						; size = 4
??$AND@$00$05$0A@@Cpu@gb@emulation@@AAEXXZ PROC		; emulation::gb::Cpu::AND<1,6,0>, COMDAT
; _this$ = ecx

; 588  : void Cpu::AND() {

	push	ebp
	mov	ebp, esp
	sub	esp, 28					; 0000001cH
	mov	eax, -858993460				; ccccccccH
	mov	DWORD PTR [ebp-28], eax
	mov	DWORD PTR [ebp-24], eax
	mov	DWORD PTR [ebp-20], eax
	mov	DWORD PTR [ebp-16], eax
	mov	DWORD PTR [ebp-12], eax
	mov	DWORD PTR [ebp-8], eax
	mov	DWORD PTR [ebp-4], eax
	mov	DWORD PTR _this$[ebp], ecx

; 589  :   reg.F.raw = 0;

	mov	eax, DWORD PTR _this$[ebp]
	mov	BYTE PTR [eax+1064], 0

; 590  :   uint8_t a=0,b=0;

	mov	BYTE PTR _a$[ebp], 0
	mov	BYTE PTR _b$[ebp], 0

; 591  :   arithmeticMode<dest,src,mode>(a,b);

	lea	ecx, DWORD PTR _b$[ebp]
	push	ecx
	lea	edx, DWORD PTR _a$[ebp]
	push	edx
