; Listing generated by Microsoft (R) Optimizing Compiler Version 17.00.60610.1 

	TITLE	C:\Users\Khalid\Documents\GitHub\GBEmu\Solution\Code\display_window.cpp
	.686P
	.XMM
	include listing.inc
	.model	flat

INCLUDELIB MSVCRTD
INCLUDELIB OLDNAMES

PUBLIC	?is_modulo@_Num_base@std@@2_NB			; std::_Num_base::is_modulo
PUBLIC	?is_signed@_Num_base@std@@2_NB			; std::_Num_base::is_signed
PUBLIC	?is_specialized@_Num_base@std@@2_NB		; std::_Num_base::is_specialized
PUBLIC	?tinyness_before@_Num_base@std@@2_NB		; std::_Num_base::tinyness_before
PUBLIC	?traps@_Num_base@std@@2_NB			; std::_Num_base::traps
PUBLIC	?round_style@_Num_base@std@@2W4float_round_style@2@B ; std::_Num_base::round_style
PUBLIC	?digits@_Num_base@std@@2HB			; std::_Num_base::digits
PUBLIC	?digits10@_Num_base@std@@2HB			; std::_Num_base::digits10
PUBLIC	?max_digits10@_Num_base@std@@2HB		; std::_Num_base::max_digits10
PUBLIC	?max_exponent@_Num_base@std@@2HB		; std::_Num_base::max_exponent
PUBLIC	?max_exponent10@_Num_base@std@@2HB		; std::_Num_base::max_exponent10
PUBLIC	?min_exponent@_Num_base@std@@2HB		; std::_Num_base::min_exponent
PUBLIC	?min_exponent10@_Num_base@std@@2HB		; std::_Num_base::min_exponent10
PUBLIC	?radix@_Num_base@std@@2HB			; std::_Num_base::radix
PUBLIC	?is_bounded@_Num_int_base@std@@2_NB		; std::_Num_int_base::is_bounded
PUBLIC	?is_exact@_Num_int_base@std@@2_NB		; std::_Num_int_base::is_exact
PUBLIC	?is_integer@_Num_int_base@std@@2_NB		; std::_Num_int_base::is_integer
PUBLIC	?is_modulo@_Num_int_base@std@@2_NB		; std::_Num_int_base::is_modulo
PUBLIC	?is_specialized@_Num_int_base@std@@2_NB		; std::_Num_int_base::is_specialized
PUBLIC	?radix@_Num_int_base@std@@2HB			; std::_Num_int_base::radix
PUBLIC	?is_monotonic@steady_clock@chrono@std@@2_NB	; std::chrono::steady_clock::is_monotonic
PUBLIC	?is_steady@steady_clock@chrono@std@@2_NB	; std::chrono::steady_clock::is_steady
PUBLIC	?has_denorm@_Num_float_base@std@@2W4float_denorm_style@2@B ; std::_Num_float_base::has_denorm
PUBLIC	?has_denorm_loss@_Num_float_base@std@@2_NB	; std::_Num_float_base::has_denorm_loss
PUBLIC	?has_infinity@_Num_float_base@std@@2_NB		; std::_Num_float_base::has_infinity
PUBLIC	?has_quiet_NaN@_Num_float_base@std@@2_NB	; std::_Num_float_base::has_quiet_NaN
PUBLIC	?has_signaling_NaN@_Num_float_base@std@@2_NB	; std::_Num_float_base::has_signaling_NaN
PUBLIC	?is_bounded@_Num_float_base@std@@2_NB		; std::_Num_float_base::is_bounded
PUBLIC	?is_exact@_Num_float_base@std@@2_NB		; std::_Num_float_base::is_exact
PUBLIC	?is_iec559@_Num_float_base@std@@2_NB		; std::_Num_float_base::is_iec559
PUBLIC	?is_integer@_Num_float_base@std@@2_NB		; std::_Num_float_base::is_integer
PUBLIC	?is_modulo@_Num_float_base@std@@2_NB		; std::_Num_float_base::is_modulo
PUBLIC	?is_signed@_Num_float_base@std@@2_NB		; std::_Num_float_base::is_signed
PUBLIC	?is_specialized@_Num_float_base@std@@2_NB	; std::_Num_float_base::is_specialized
PUBLIC	?tinyness_before@_Num_float_base@std@@2_NB	; std::_Num_float_base::tinyness_before
PUBLIC	?traps@_Num_float_base@std@@2_NB		; std::_Num_float_base::traps
PUBLIC	?round_style@_Num_float_base@std@@2W4float_round_style@2@B ; std::_Num_float_base::round_style
PUBLIC	?radix@_Num_float_base@std@@2HB			; std::_Num_float_base::radix
PUBLIC	_ConcRT_ProviderGuid
PUBLIC	_ConcRTEventGuid
PUBLIC	_SchedulerEventGuid
PUBLIC	_ScheduleGroupEventGuid
PUBLIC	_ContextEventGuid
PUBLIC	_ChoreEventGuid
PUBLIC	_VirtualProcessorEventGuid
PUBLIC	_LockEventGuid
PUBLIC	_ResourceManagerEventGuid
PUBLIC	_PPLParallelInvokeEventGuid
PUBLIC	_PPLParallelForEventGuid
PUBLIC	_PPLParallelForeachEventGuid
PUBLIC	_AgentEventGuid
PUBLIC	?is_signed@?$numeric_limits@D@std@@2_NB		; std::numeric_limits<char>::is_signed
PUBLIC	?digits@?$numeric_limits@D@std@@2HB		; std::numeric_limits<char>::digits
PUBLIC	?digits10@?$numeric_limits@D@std@@2HB		; std::numeric_limits<char>::digits10
PUBLIC	?is_signed@?$numeric_limits@_W@std@@2_NB	; std::numeric_limits<wchar_t>::is_signed
PUBLIC	?digits@?$numeric_limits@_W@std@@2HB		; std::numeric_limits<wchar_t>::digits
PUBLIC	?digits10@?$numeric_limits@_W@std@@2HB		; std::numeric_limits<wchar_t>::digits10
PUBLIC	?is_modulo@?$numeric_limits@_N@std@@2_NB	; std::numeric_limits<bool>::is_modulo
PUBLIC	?is_signed@?$numeric_limits@_N@std@@2_NB	; std::numeric_limits<bool>::is_signed
PUBLIC	?digits@?$numeric_limits@_N@std@@2HB		; std::numeric_limits<bool>::digits
PUBLIC	?digits10@?$numeric_limits@_N@std@@2HB		; std::numeric_limits<bool>::digits10
PUBLIC	?is_signed@?$numeric_limits@C@std@@2_NB		; std::numeric_limits<signed char>::is_signed
PUBLIC	?digits@?$numeric_limits@C@std@@2HB		; std::numeric_limits<signed char>::digits
PUBLIC	?digits10@?$numeric_limits@C@std@@2HB		; std::numeric_limits<signed char>::digits10
PUBLIC	?is_signed@?$numeric_limits@E@std@@2_NB		; std::numeric_limits<unsigned char>::is_signed
PUBLIC	?digits@?$numeric_limits@E@std@@2HB		; std::numeric_limits<unsigned char>::digits
PUBLIC	?digits10@?$numeric_limits@E@std@@2HB		; std::numeric_limits<unsigned char>::digits10
PUBLIC	?is_signed@?$numeric_limits@F@std@@2_NB		; std::numeric_limits<short>::is_signed
PUBLIC	?digits@?$numeric_limits@F@std@@2HB		; std::numeric_limits<short>::digits
PUBLIC	?digits10@?$numeric_limits@F@std@@2HB		; std::numeric_limits<short>::digits10
PUBLIC	?is_signed@?$numeric_limits@G@std@@2_NB		; std::numeric_limits<unsigned short>::is_signed
PUBLIC	?digits@?$numeric_limits@G@std@@2HB		; std::numeric_limits<unsigned short>::digits
PUBLIC	?digits10@?$numeric_limits@G@std@@2HB		; std::numeric_limits<unsigned short>::digits10
PUBLIC	?is_signed@?$numeric_limits@H@std@@2_NB		; std::numeric_limits<int>::is_signed
PUBLIC	?digits@?$numeric_limits@H@std@@2HB		; std::numeric_limits<int>::digits
PUBLIC	?digits10@?$numeric_limits@H@std@@2HB		; std::numeric_limits<int>::digits10
PUBLIC	?value@?$integral_constant@I$0A@@std@@2IB	; std::integral_constant<unsigned int,0>::value
PUBLIC	?value@?$_Abs@$0GE@@std@@2_JB			; std::_Abs<100>::value
PUBLIC	?value@?$_Abs@$0DLJKMKAA@@std@@2_JB		; std::_Abs<1000000000>::value
PUBLIC	?is_signed@?$numeric_limits@I@std@@2_NB		; std::numeric_limits<unsigned int>::is_signed
PUBLIC	?digits@?$numeric_limits@I@std@@2HB		; std::numeric_limits<unsigned int>::digits
PUBLIC	?digits10@?$numeric_limits@I@std@@2HB		; std::numeric_limits<unsigned int>::digits10
PUBLIC	?value@?$_GcdX@$0GE@$0A@@std@@2_JB		; std::_GcdX<100,0>::value
PUBLIC	?value@?$_GcdX@$0DLJKMKAA@$0GE@@std@@2_JB	; std::_GcdX<1000000000,100>::value
PUBLIC	?_STATE_CLEAR@_CancellationTokenRegistration@details@Concurrency@@0JB ; Concurrency::details::_CancellationTokenRegistration::_STATE_CLEAR
PUBLIC	?_STATE_DEFER_DELETE@_CancellationTokenRegistration@details@Concurrency@@0JB ; Concurrency::details::_CancellationTokenRegistration::_STATE_DEFER_DELETE
PUBLIC	?value@?$_GcdX@$0GE@$0DLJKMKAA@@std@@2_JB	; std::_GcdX<100,1000000000>::value
PUBLIC	?_STATE_SYNCHRONIZE@_CancellationTokenRegistration@details@Concurrency@@0JB ; Concurrency::details::_CancellationTokenRegistration::_STATE_SYNCHRONIZE
PUBLIC	?value@?$_Is_ratio@U?$ratio@$00$0JIJGIA@@std@@@chrono@std@@2_NB ; std::chrono::_Is_ratio<std::ratio<1,10000000> >::value
PUBLIC	?_STATE_CALLED@_CancellationTokenRegistration@details@Concurrency@@0JB ; Concurrency::details::_CancellationTokenRegistration::_STATE_CALLED
PUBLIC	?value@?$_Gcd@$0GE@$0DLJKMKAA@@std@@2_JB	; std::_Gcd<100,1000000000>::value
PUBLIC	?is_signed@?$numeric_limits@J@std@@2_NB		; std::numeric_limits<long>::is_signed
PUBLIC	?digits@?$numeric_limits@J@std@@2HB		; std::numeric_limits<long>::digits
PUBLIC	?_G1@?$_Ratio_multiply2@U?$ratio@$0GE@$00@std@@U?$ratio@$00$0DLJKMKAA@@2@@std@@2_JB ; std::_Ratio_multiply2<std::ratio<100,1>,std::ratio<1,1000000000> >::_G1
PUBLIC	?digits10@?$numeric_limits@J@std@@2HB		; std::numeric_limits<long>::digits10
PUBLIC	?value@?$_GcdX@$0JIJGIA@$00@std@@2_JB		; std::_GcdX<10000000,1>::value
PUBLIC	?value@?$_Abs@$00@std@@2_JB			; std::_Abs<1>::value
PUBLIC	?value@?$_GcdX@$00$0JIJGIA@@std@@2_JB		; std::_GcdX<1,10000000>::value
PUBLIC	?value@?$_GcdX@$00$0A@@std@@2_JB		; std::_GcdX<1,0>::value
PUBLIC	?value@?$_Gcd@$00$0JIJGIA@@std@@2_JB		; std::_Gcd<1,10000000>::value
PUBLIC	?value@?$_GcdX@$00$00@std@@2_JB			; std::_GcdX<1,1>::value
PUBLIC	?num@?$ratio@$00$0JIJGIA@@std@@2_JB		; std::ratio<1,10000000>::num
PUBLIC	?den@?$ratio@$00$0JIJGIA@@std@@2_JB		; std::ratio<1,10000000>::den
PUBLIC	?is_signed@?$numeric_limits@K@std@@2_NB		; std::numeric_limits<unsigned long>::is_signed
PUBLIC	?value@?$_Gcd@$00$00@std@@2_JB			; std::_Gcd<1,1>::value
PUBLIC	?digits@?$numeric_limits@K@std@@2HB		; std::numeric_limits<unsigned long>::digits
PUBLIC	?digits10@?$numeric_limits@K@std@@2HB		; std::numeric_limits<unsigned long>::digits10
PUBLIC	?_G2@?$_Ratio_multiply2@U?$ratio@$0GE@$00@std@@U?$ratio@$00$0DLJKMKAA@@2@@std@@2_JB ; std::_Ratio_multiply2<std::ratio<100,1>,std::ratio<1,1000000000> >::_G2
PUBLIC	?value@?$integral_constant@_N$0A@@std@@2_NB	; std::integral_constant<bool,0>::value
PUBLIC	?is_signed@?$numeric_limits@_J@std@@2_NB	; std::numeric_limits<__int64>::is_signed
PUBLIC	?digits@?$numeric_limits@_J@std@@2HB		; std::numeric_limits<__int64>::digits
PUBLIC	?digits10@?$numeric_limits@_J@std@@2HB		; std::numeric_limits<__int64>::digits10
PUBLIC	?value@?$integral_constant@_N$00@std@@2_NB	; std::integral_constant<bool,1>::value
PUBLIC	?is_monotonic@system_clock@chrono@std@@2_NB	; std::chrono::system_clock::is_monotonic
PUBLIC	?is_steady@system_clock@chrono@std@@2_NB	; std::chrono::system_clock::is_steady
PUBLIC	?is_signed@?$numeric_limits@_K@std@@2_NB	; std::numeric_limits<unsigned __int64>::is_signed
PUBLIC	?digits@?$numeric_limits@_K@std@@2HB		; std::numeric_limits<unsigned __int64>::digits
PUBLIC	?digits10@?$numeric_limits@_K@std@@2HB		; std::numeric_limits<unsigned __int64>::digits10
PUBLIC	?digits@?$numeric_limits@M@std@@2HB		; std::numeric_limits<float>::digits
PUBLIC	?digits10@?$numeric_limits@M@std@@2HB		; std::numeric_limits<float>::digits10
PUBLIC	?max_digits10@?$numeric_limits@M@std@@2HB	; std::numeric_limits<float>::max_digits10
PUBLIC	?max_exponent@?$numeric_limits@M@std@@2HB	; std::numeric_limits<float>::max_exponent
PUBLIC	?max_exponent10@?$numeric_limits@M@std@@2HB	; std::numeric_limits<float>::max_exponent10
PUBLIC	?min_exponent@?$numeric_limits@M@std@@2HB	; std::numeric_limits<float>::min_exponent
PUBLIC	?min_exponent10@?$numeric_limits@M@std@@2HB	; std::numeric_limits<float>::min_exponent10
PUBLIC	?value@?$_Sizeof@U_Nil@std@@U12@U12@U12@U12@U12@U12@U12@@std@@2IB ; std::_Sizeof<std::_Nil,std::_Nil,std::_Nil,std::_Nil,std::_Nil,std::_Nil,std::_Nil,std::_Nil>::value
PUBLIC	?digits@?$numeric_limits@N@std@@2HB		; std::numeric_limits<double>::digits
PUBLIC	?digits10@?$numeric_limits@N@std@@2HB		; std::numeric_limits<double>::digits10
PUBLIC	?max_digits10@?$numeric_limits@N@std@@2HB	; std::numeric_limits<double>::max_digits10
PUBLIC	?max_exponent@?$numeric_limits@N@std@@2HB	; std::numeric_limits<double>::max_exponent
PUBLIC	?value@?$integral_constant@H$0A@@std@@2HB	; std::integral_constant<int,0>::value
PUBLIC	?max_exponent10@?$numeric_limits@N@std@@2HB	; std::numeric_limits<double>::max_exponent10
PUBLIC	?min_exponent@?$numeric_limits@N@std@@2HB	; std::numeric_limits<double>::min_exponent
PUBLIC	?min_exponent10@?$numeric_limits@N@std@@2HB	; std::numeric_limits<double>::min_exponent10
PUBLIC	?digits@?$numeric_limits@O@std@@2HB		; std::numeric_limits<long double>::digits
PUBLIC	?digits10@?$numeric_limits@O@std@@2HB		; std::numeric_limits<long double>::digits10
PUBLIC	?max_digits10@?$numeric_limits@O@std@@2HB	; std::numeric_limits<long double>::max_digits10
PUBLIC	?max_exponent@?$numeric_limits@O@std@@2HB	; std::numeric_limits<long double>::max_exponent
PUBLIC	?max_exponent10@?$numeric_limits@O@std@@2HB	; std::numeric_limits<long double>::max_exponent10
PUBLIC	?_S_cancelBitsMask@_TaskCollectionBase@details@Concurrency@@1IB ; Concurrency::details::_TaskCollectionBase::_S_cancelBitsMask
PUBLIC	?min_exponent@?$numeric_limits@O@std@@2HB	; std::numeric_limits<long double>::min_exponent
PUBLIC	?_S_cancelNone@_TaskCollectionBase@details@Concurrency@@1IB ; Concurrency::details::_TaskCollectionBase::_S_cancelNone
PUBLIC	?_S_cancelStarted@_TaskCollectionBase@details@Concurrency@@1IB ; Concurrency::details::_TaskCollectionBase::_S_cancelStarted
PUBLIC	?min_exponent10@?$numeric_limits@O@std@@2HB	; std::numeric_limits<long double>::min_exponent10
PUBLIC	?_S_cancelDeferredShootdownOwner@_TaskCollectionBase@details@Concurrency@@1IB ; Concurrency::details::_TaskCollectionBase::_S_cancelDeferredShootdownOwner
PUBLIC	?_S_cancelShotdownOwner@_TaskCollectionBase@details@Concurrency@@1IB ; Concurrency::details::_TaskCollectionBase::_S_cancelShotdownOwner
PUBLIC	?_S_nonNull@_TaskCollectionBase@details@Concurrency@@1IB ; Concurrency::details::_TaskCollectionBase::_S_nonNull
PUBLIC	?_S_cancelException@_TaskCollectionBase@details@Concurrency@@1IB ; Concurrency::details::_TaskCollectionBase::_S_cancelException
PUBLIC	?_S_notInlined@_TaskCollectionBase@details@Concurrency@@1HB ; Concurrency::details::_TaskCollectionBase::_S_notInlined
PUBLIC	?_S_structured@_TaskCollectionBase@details@Concurrency@@1HB ; Concurrency::details::_TaskCollectionBase::_S_structured
PUBLIC	?_S_localCancel@_TaskCollectionBase@details@Concurrency@@1HB ; Concurrency::details::_TaskCollectionBase::_S_localCancel
PUBLIC	?_S_reserved@_TaskCollectionBase@details@Concurrency@@1HB ; Concurrency::details::_TaskCollectionBase::_S_reserved
PUBLIC	?value@?$_Sizeof@HU_Nil@std@@U12@U12@U12@U12@U12@U12@@std@@2IB ; std::_Sizeof<int,std::_Nil,std::_Nil,std::_Nil,std::_Nil,std::_Nil,std::_Nil,std::_Nil>::value
PUBLIC	?_G1@?$_Ratio_multiply2@U?$ratio@$00$0JIJGIA@@std@@U?$ratio@$0JIJGIA@$00@2@@std@@2_JB ; std::_Ratio_multiply2<std::ratio<1,10000000>,std::ratio<10000000,1> >::_G1
PUBLIC	?value@?$_Abs@$0JIJGIA@@std@@2_JB		; std::_Abs<10000000>::value
PUBLIC	?value@?$_GcdX@$0JIJGIA@$0A@@std@@2_JB		; std::_GcdX<10000000,0>::value
PUBLIC	?value@?$_GcdX@$0JIJGIA@$0JIJGIA@@std@@2_JB	; std::_GcdX<10000000,10000000>::value
PUBLIC	?value@?$_Gcd@$0JIJGIA@$0JIJGIA@@std@@2_JB	; std::_Gcd<10000000,10000000>::value
PUBLIC	?_G2@?$_Ratio_multiply2@U?$ratio@$00$0JIJGIA@@std@@U?$ratio@$0JIJGIA@$00@2@@std@@2_JB ; std::_Ratio_multiply2<std::ratio<1,10000000>,std::ratio<10000000,1> >::_G2
PUBLIC	?has_denorm@_Num_base@std@@2W4float_denorm_style@2@B ; std::_Num_base::has_denorm
PUBLIC	?has_denorm_loss@_Num_base@std@@2_NB		; std::_Num_base::has_denorm_loss
PUBLIC	?has_infinity@_Num_base@std@@2_NB		; std::_Num_base::has_infinity
PUBLIC	?num@?$ratio@$00$00@std@@2_JB			; std::ratio<1,1>::num
PUBLIC	?den@?$ratio@$00$00@std@@2_JB			; std::ratio<1,1>::den
PUBLIC	?has_quiet_NaN@_Num_base@std@@2_NB		; std::_Num_base::has_quiet_NaN
PUBLIC	?has_signaling_NaN@_Num_base@std@@2_NB		; std::_Num_base::has_signaling_NaN
PUBLIC	?is_bounded@_Num_base@std@@2_NB			; std::_Num_base::is_bounded
PUBLIC	?is_exact@_Num_base@std@@2_NB			; std::_Num_base::is_exact
PUBLIC	?is_iec559@_Num_base@std@@2_NB			; std::_Num_base::is_iec559
PUBLIC	?is_integer@_Num_base@std@@2_NB			; std::_Num_base::is_integer
;	COMDAT ?is_integer@_Num_base@std@@2_NB
CONST	SEGMENT
?is_integer@_Num_base@std@@2_NB DB 00H			; std::_Num_base::is_integer
CONST	ENDS
;	COMDAT ?is_iec559@_Num_base@std@@2_NB
CONST	SEGMENT
?is_iec559@_Num_base@std@@2_NB DB 00H			; std::_Num_base::is_iec559
CONST	ENDS
;	COMDAT ?is_exact@_Num_base@std@@2_NB
CONST	SEGMENT
?is_exact@_Num_base@std@@2_NB DB 00H			; std::_Num_base::is_exact
CONST	ENDS
;	COMDAT ?is_bounded@_Num_base@std@@2_NB
CONST	SEGMENT
?is_bounded@_Num_base@std@@2_NB DB 00H			; std::_Num_base::is_bounded
CONST	ENDS
;	COMDAT ?has_signaling_NaN@_Num_base@std@@2_NB
CONST	SEGMENT
?has_signaling_NaN@_Num_base@std@@2_NB DB 00H		; std::_Num_base::has_signaling_NaN
CONST	ENDS
;	COMDAT ?has_quiet_NaN@_Num_base@std@@2_NB
CONST	SEGMENT
?has_quiet_NaN@_Num_base@std@@2_NB DB 00H		; std::_Num_base::has_quiet_NaN
CONST	ENDS
;	COMDAT ?den@?$ratio@$00$00@std@@2_JB
CONST	SEGMENT
?den@?$ratio@$00$00@std@@2_JB DQ 0000000000000001H	; std::ratio<1,1>::den
CONST	ENDS
;	COMDAT ?num@?$ratio@$00$00@std@@2_JB
CONST	SEGMENT
?num@?$ratio@$00$00@std@@2_JB DQ 0000000000000001H	; std::ratio<1,1>::num
CONST	ENDS
;	COMDAT ?has_infinity@_Num_base@std@@2_NB
CONST	SEGMENT
?has_infinity@_Num_base@std@@2_NB DB 00H		; std::_Num_base::has_infinity
CONST	ENDS
;	COMDAT ?has_denorm_loss@_Num_base@std@@2_NB
CONST	SEGMENT
?has_denorm_loss@_Num_base@std@@2_NB DB 00H		; std::_Num_base::has_denorm_loss
CONST	ENDS
;	COMDAT ?has_denorm@_Num_base@std@@2W4float_denorm_style@2@B
CONST	SEGMENT
?has_denorm@_Num_base@std@@2W4float_denorm_style@2@B DD 00H ; std::_Num_base::has_denorm
CONST	ENDS
;	COMDAT ?_G2@?$_Ratio_multiply2@U?$ratio@$00$0JIJGIA@@std@@U?$ratio@$0JIJGIA@$00@2@@std@@2_JB
CONST	SEGMENT
?_G2@?$_Ratio_multiply2@U?$ratio@$00$0JIJGIA@@std@@U?$ratio@$0JIJGIA@$00@2@@std@@2_JB DQ 0000000000989680H ; std::_Ratio_multiply2<std::ratio<1,10000000>,std::ratio<10000000,1> >::_G2
CONST	ENDS
;	COMDAT ?value@?$_Gcd@$0JIJGIA@$0JIJGIA@@std@@2_JB
CONST	SEGMENT
?value@?$_Gcd@$0JIJGIA@$0JIJGIA@@std@@2_JB DQ 0000000000989680H ; std::_Gcd<10000000,10000000>::value
CONST	ENDS
;	COMDAT ?value@?$_GcdX@$0JIJGIA@$0JIJGIA@@std@@2_JB
CONST	SEGMENT
?value@?$_GcdX@$0JIJGIA@$0JIJGIA@@std@@2_JB DQ 0000000000989680H ; std::_GcdX<10000000,10000000>::value
CONST	ENDS
;	COMDAT ?value@?$_GcdX@$0JIJGIA@$0A@@std@@2_JB
CONST	SEGMENT
?value@?$_GcdX@$0JIJGIA@$0A@@std@@2_JB DQ 0000000000989680H ; std::_GcdX<10000000,0>::value
CONST	ENDS
;	COMDAT ?value@?$_Abs@$0JIJGIA@@std@@2_JB
CONST	SEGMENT
?value@?$_Abs@$0JIJGIA@@std@@2_JB DQ 0000000000989680H	; std::_Abs<10000000>::value
CONST	ENDS
;	COMDAT ?_G1@?$_Ratio_multiply2@U?$ratio@$00$0JIJGIA@@std@@U?$ratio@$0JIJGIA@$00@2@@std@@2_JB
CONST	SEGMENT
?_G1@?$_Ratio_multiply2@U?$ratio@$00$0JIJGIA@@std@@U?$ratio@$0JIJGIA@$00@2@@std@@2_JB DQ 0000000000000001H ; std::_Ratio_multiply2<std::ratio<1,10000000>,std::ratio<10000000,1> >::_G1
CONST	ENDS
;	COMDAT ?value@?$_Sizeof@HU_Nil@std@@U12@U12@U12@U12@U12@U12@@std@@2IB
CONST	SEGMENT
?value@?$_Sizeof@HU_Nil@std@@U12@U12@U12@U12@U12@U12@@std@@2IB DD 01H ; std::_Sizeof<int,std::_Nil,std::_Nil,std::_Nil,std::_Nil,std::_Nil,std::_Nil,std::_Nil>::value
CONST	ENDS
;	COMDAT ?_S_reserved@_TaskCollectionBase@details@Concurrency@@1HB
CONST	SEGMENT
?_S_reserved@_TaskCollectionBase@details@Concurrency@@1HB DD 0cH ; Concurrency::details::_TaskCollectionBase::_S_reserved
CONST	ENDS
;	COMDAT ?_S_localCancel@_TaskCollectionBase@details@Concurrency@@1HB
CONST	SEGMENT
?_S_localCancel@_TaskCollectionBase@details@Concurrency@@1HB DD 02H ; Concurrency::details::_TaskCollectionBase::_S_localCancel
CONST	ENDS
;	COMDAT ?_S_structured@_TaskCollectionBase@details@Concurrency@@1HB
CONST	SEGMENT
?_S_structured@_TaskCollectionBase@details@Concurrency@@1HB DD 01H ; Concurrency::details::_TaskCollectionBase::_S_structured
CONST	ENDS
;	COMDAT ?_S_notInlined@_TaskCollectionBase@details@Concurrency@@1HB
CONST	SEGMENT
?_S_notInlined@_TaskCollectionBase@details@Concurrency@@1HB DD 0ffffffffH ; Concurrency::details::_TaskCollectionBase::_S_notInlined
CONST	ENDS
;	COMDAT ?_S_cancelException@_TaskCollectionBase@details@Concurrency@@1IB
CONST	SEGMENT
?_S_cancelException@_TaskCollectionBase@details@Concurrency@@1IB DD 0cH ; Concurrency::details::_TaskCollectionBase::_S_cancelException
CONST	ENDS
;	COMDAT ?_S_nonNull@_TaskCollectionBase@details@Concurrency@@1IB
CONST	SEGMENT
?_S_nonNull@_TaskCollectionBase@details@Concurrency@@1IB DD 08H ; Concurrency::details::_TaskCollectionBase::_S_nonNull
CONST	ENDS
;	COMDAT ?_S_cancelShotdownOwner@_TaskCollectionBase@details@Concurrency@@1IB
CONST	SEGMENT
?_S_cancelShotdownOwner@_TaskCollectionBase@details@Concurrency@@1IB DD 03H ; Concurrency::details::_TaskCollectionBase::_S_cancelShotdownOwner
CONST	ENDS
;	COMDAT ?_S_cancelDeferredShootdownOwner@_TaskCollectionBase@details@Concurrency@@1IB
CONST	SEGMENT
?_S_cancelDeferredShootdownOwner@_TaskCollectionBase@details@Concurrency@@1IB DD 02H ; Concurrency::details::_TaskCollectionBase::_S_cancelDeferredShootdownOwner
CONST	ENDS
;	COMDAT ?min_exponent10@?$numeric_limits@O@std@@2HB
CONST	SEGMENT
?min_exponent10@?$numeric_limits@O@std@@2HB DD 0fffffecdH ; std::numeric_limits<long double>::min_exponent10
CONST	ENDS
;	COMDAT ?_S_cancelStarted@_TaskCollectionBase@details@Concurrency@@1IB
CONST	SEGMENT
?_S_cancelStarted@_TaskCollectionBase@details@Concurrency@@1IB DD 01H ; Concurrency::details::_TaskCollectionBase::_S_cancelStarted
CONST	ENDS
;	COMDAT ?_S_cancelNone@_TaskCollectionBase@details@Concurrency@@1IB
CONST	SEGMENT
?_S_cancelNone@_TaskCollectionBase@details@Concurrency@@1IB DD 00H ; Concurrency::details::_TaskCollectionBase::_S_cancelNone
CONST	ENDS
;	COMDAT ?min_exponent@?$numeric_limits@O@std@@2HB
CONST	SEGMENT
?min_exponent@?$numeric_limits@O@std@@2HB DD 0fffffc03H	; std::numeric_limits<long double>::min_exponent
CONST	ENDS
;	COMDAT ?_S_cancelBitsMask@_TaskCollectionBase@details@Concurrency@@1IB
CONST	SEGMENT
?_S_cancelBitsMask@_TaskCollectionBase@details@Concurrency@@1IB DD 03H ; Concurrency::details::_TaskCollectionBase::_S_cancelBitsMask
CONST	ENDS
;	COMDAT ?max_exponent10@?$numeric_limits@O@std@@2HB
CONST	SEGMENT
?max_exponent10@?$numeric_limits@O@std@@2HB DD 0134H	; std::numeric_limits<long double>::max_exponent10
CONST	ENDS
;	COMDAT ?max_exponent@?$numeric_limits@O@std@@2HB
CONST	SEGMENT
?max_exponent@?$numeric_limits@O@std@@2HB DD 0400H	; std::numeric_limits<long double>::max_exponent
CONST	ENDS
;	COMDAT ?max_digits10@?$numeric_limits@O@std@@2HB
CONST	SEGMENT
?max_digits10@?$numeric_limits@O@std@@2HB DD 011H	; std::numeric_limits<long double>::max_digits10
CONST	ENDS
;	COMDAT ?digits10@?$numeric_limits@O@std@@2HB
CONST	SEGMENT
?digits10@?$numeric_limits@O@std@@2HB DD 0fH		; std::numeric_limits<long double>::digits10
CONST	ENDS
;	COMDAT ?digits@?$numeric_limits@O@std@@2HB
CONST	SEGMENT
?digits@?$numeric_limits@O@std@@2HB DD 035H		; std::numeric_limits<long double>::digits
CONST	ENDS
;	COMDAT ?min_exponent10@?$numeric_limits@N@std@@2HB
CONST	SEGMENT
?min_exponent10@?$numeric_limits@N@std@@2HB DD 0fffffecdH ; std::numeric_limits<double>::min_exponent10
CONST	ENDS
;	COMDAT ?min_exponent@?$numeric_limits@N@std@@2HB
CONST	SEGMENT
?min_exponent@?$numeric_limits@N@std@@2HB DD 0fffffc03H	; std::numeric_limits<double>::min_exponent
CONST	ENDS
;	COMDAT ?max_exponent10@?$numeric_limits@N@std@@2HB
CONST	SEGMENT
?max_exponent10@?$numeric_limits@N@std@@2HB DD 0134H	; std::numeric_limits<double>::max_exponent10
CONST	ENDS
;	COMDAT ?value@?$integral_constant@H$0A@@std@@2HB
CONST	SEGMENT
?value@?$integral_constant@H$0A@@std@@2HB DD 00H	; std::integral_constant<int,0>::value
CONST	ENDS
;	COMDAT ?max_exponent@?$numeric_limits@N@std@@2HB
CONST	SEGMENT
?max_exponent@?$numeric_limits@N@std@@2HB DD 0400H	; std::numeric_limits<double>::max_exponent
CONST	ENDS
;	COMDAT ?max_digits10@?$numeric_limits@N@std@@2HB
CONST	SEGMENT
?max_digits10@?$numeric_limits@N@std@@2HB DD 011H	; std::numeric_limits<double>::max_digits10
CONST	ENDS
;	COMDAT ?digits10@?$numeric_limits@N@std@@2HB
CONST	SEGMENT
?digits10@?$numeric_limits@N@std@@2HB DD 0fH		; std::numeric_limits<double>::digits10
CONST	ENDS
;	COMDAT ?digits@?$numeric_limits@N@std@@2HB
CONST	SEGMENT
?digits@?$numeric_limits@N@std@@2HB DD 035H		; std::numeric_limits<double>::digits
CONST	ENDS
;	COMDAT ?value@?$_Sizeof@U_Nil@std@@U12@U12@U12@U12@U12@U12@U12@@std@@2IB
CONST	SEGMENT
?value@?$_Sizeof@U_Nil@std@@U12@U12@U12@U12@U12@U12@U12@@std@@2IB DD 00H ; std::_Sizeof<std::_Nil,std::_Nil,std::_Nil,std::_Nil,std::_Nil,std::_Nil,std::_Nil,std::_Nil>::value
CONST	ENDS
;	COMDAT ?min_exponent10@?$numeric_limits@M@std@@2HB
CONST	SEGMENT
?min_exponent10@?$numeric_limits@M@std@@2HB DD 0ffffffdbH ; std::numeric_limits<float>::min_exponent10
CONST	ENDS
;	COMDAT ?min_exponent@?$numeric_limits@M@std@@2HB
CONST	SEGMENT
?min_exponent@?$numeric_limits@M@std@@2HB DD 0ffffff83H	; std::numeric_limits<float>::min_exponent
CONST	ENDS
;	COMDAT ?max_exponent10@?$numeric_limits@M@std@@2HB
CONST	SEGMENT
?max_exponent10@?$numeric_limits@M@std@@2HB DD 026H	; std::numeric_limits<float>::max_exponent10
CONST	ENDS
;	COMDAT ?max_exponent@?$numeric_limits@M@std@@2HB
CONST	SEGMENT
?max_exponent@?$numeric_limits@M@std@@2HB DD 080H	; std::numeric_limits<float>::max_exponent
CONST	ENDS
;	COMDAT ?max_digits10@?$numeric_limits@M@std@@2HB
CONST	SEGMENT
?max_digits10@?$numeric_limits@M@std@@2HB DD 09H	; std::numeric_limits<float>::max_digits10
CONST	ENDS
;	COMDAT ?digits10@?$numeric_limits@M@std@@2HB
CONST	SEGMENT
?digits10@?$numeric_limits@M@std@@2HB DD 06H		; std::numeric_limits<float>::digits10
CONST	ENDS
;	COMDAT ?digits@?$numeric_limits@M@std@@2HB
CONST	SEGMENT
?digits@?$numeric_limits@M@std@@2HB DD 018H		; std::numeric_limits<float>::digits
CONST	ENDS
;	COMDAT ?digits10@?$numeric_limits@_K@std@@2HB
CONST	SEGMENT
?digits10@?$numeric_limits@_K@std@@2HB DD 013H		; std::numeric_limits<unsigned __int64>::digits10
CONST	ENDS
;	COMDAT ?digits@?$numeric_limits@_K@std@@2HB
CONST	SEGMENT
?digits@?$numeric_limits@_K@std@@2HB DD 040H		; std::numeric_limits<unsigned __int64>::digits
CONST	ENDS
;	COMDAT ?is_signed@?$numeric_limits@_K@std@@2_NB
CONST	SEGMENT
?is_signed@?$numeric_limits@_K@std@@2_NB DB 00H		; std::numeric_limits<unsigned __int64>::is_signed
CONST	ENDS
;	COMDAT ?is_steady@system_clock@chrono@std@@2_NB
CONST	SEGMENT
?is_steady@system_clock@chrono@std@@2_NB DB 00H		; std::chrono::system_clock::is_steady
CONST	ENDS
;	COMDAT ?is_monotonic@system_clock@chrono@std@@2_NB
CONST	SEGMENT
?is_monotonic@system_clock@chrono@std@@2_NB DB 00H	; std::chrono::system_clock::is_monotonic
CONST	ENDS
;	COMDAT ?value@?$integral_constant@_N$00@std@@2_NB
CONST	SEGMENT
?value@?$integral_constant@_N$00@std@@2_NB DB 01H	; std::integral_constant<bool,1>::value
CONST	ENDS
;	COMDAT ?digits10@?$numeric_limits@_J@std@@2HB
CONST	SEGMENT
?digits10@?$numeric_limits@_J@std@@2HB DD 012H		; std::numeric_limits<__int64>::digits10
CONST	ENDS
;	COMDAT ?digits@?$numeric_limits@_J@std@@2HB
CONST	SEGMENT
?digits@?$numeric_limits@_J@std@@2HB DD 03fH		; std::numeric_limits<__int64>::digits
CONST	ENDS
;	COMDAT ?is_signed@?$numeric_limits@_J@std@@2_NB
CONST	SEGMENT
?is_signed@?$numeric_limits@_J@std@@2_NB DB 01H		; std::numeric_limits<__int64>::is_signed
CONST	ENDS
;	COMDAT ?value@?$integral_constant@_N$0A@@std@@2_NB
CONST	SEGMENT
?value@?$integral_constant@_N$0A@@std@@2_NB DB 00H	; std::integral_constant<bool,0>::value
CONST	ENDS
;	COMDAT ?_G2@?$_Ratio_multiply2@U?$ratio@$0GE@$00@std@@U?$ratio@$00$0DLJKMKAA@@2@@std@@2_JB
CONST	SEGMENT
?_G2@?$_Ratio_multiply2@U?$ratio@$0GE@$00@std@@U?$ratio@$00$0DLJKMKAA@@2@@std@@2_JB DQ 0000000000000001H ; std::_Ratio_multiply2<std::ratio<100,1>,std::ratio<1,1000000000> >::_G2
CONST	ENDS
;	COMDAT ?digits10@?$numeric_limits@K@std@@2HB
CONST	SEGMENT
?digits10@?$numeric_limits@K@std@@2HB DD 09H		; std::numeric_limits<unsigned long>::digits10
CONST	ENDS
;	COMDAT ?digits@?$numeric_limits@K@std@@2HB
CONST	SEGMENT
?digits@?$numeric_limits@K@std@@2HB DD 020H		; std::numeric_limits<unsigned long>::digits
CONST	ENDS
;	COMDAT ?value@?$_Gcd@$00$00@std@@2_JB
CONST	SEGMENT
?value@?$_Gcd@$00$00@std@@2_JB DQ 0000000000000001H	; std::_Gcd<1,1>::value
CONST	ENDS
;	COMDAT ?is_signed@?$numeric_limits@K@std@@2_NB
CONST	SEGMENT
?is_signed@?$numeric_limits@K@std@@2_NB DB 00H		; std::numeric_limits<unsigned long>::is_signed
CONST	ENDS
;	COMDAT ?den@?$ratio@$00$0JIJGIA@@std@@2_JB
CONST	SEGMENT
?den@?$ratio@$00$0JIJGIA@@std@@2_JB DQ 0000000000989680H ; std::ratio<1,10000000>::den
CONST	ENDS
;	COMDAT ?num@?$ratio@$00$0JIJGIA@@std@@2_JB
CONST	SEGMENT
?num@?$ratio@$00$0JIJGIA@@std@@2_JB DQ 0000000000000001H ; std::ratio<1,10000000>::num
CONST	ENDS
;	COMDAT ?value@?$_GcdX@$00$00@std@@2_JB
CONST	SEGMENT
?value@?$_GcdX@$00$00@std@@2_JB DQ 0000000000000001H	; std::_GcdX<1,1>::value
CONST	ENDS
;	COMDAT ?value@?$_Gcd@$00$0JIJGIA@@std@@2_JB
CONST	SEGMENT
?value@?$_Gcd@$00$0JIJGIA@@std@@2_JB DQ 0000000000000001H ; std::_Gcd<1,10000000>::value
CONST	ENDS
;	COMDAT ?value@?$_GcdX@$00$0A@@std@@2_JB
CONST	SEGMENT
?value@?$_GcdX@$00$0A@@std@@2_JB DQ 0000000000000001H	; std::_GcdX<1,0>::value
CONST	ENDS
;	COMDAT ?value@?$_GcdX@$00$0JIJGIA@@std@@2_JB
CONST	SEGMENT
?value@?$_GcdX@$00$0JIJGIA@@std@@2_JB DQ 0000000000000001H ; std::_GcdX<1,10000000>::value
CONST	ENDS
;	COMDAT ?value@?$_Abs@$00@std@@2_JB
CONST	SEGMENT
?value@?$_Abs@$00@std@@2_JB DQ 0000000000000001H	; std::_Abs<1>::value
CONST	ENDS
;	COMDAT ?value@?$_GcdX@$0JIJGIA@$00@std@@2_JB
CONST	SEGMENT
?value@?$_GcdX@$0JIJGIA@$00@std@@2_JB DQ 0000000000000001H ; std::_GcdX<10000000,1>::value
CONST	ENDS
;	COMDAT ?digits10@?$numeric_limits@J@std@@2HB
CONST	SEGMENT
?digits10@?$numeric_limits@J@std@@2HB DD 09H		; std::numeric_limits<long>::digits10
CONST	ENDS
;	COMDAT ?_G1@?$_Ratio_multiply2@U?$ratio@$0GE@$00@std@@U?$ratio@$00$0DLJKMKAA@@2@@std@@2_JB
CONST	SEGMENT
?_G1@?$_Ratio_multiply2@U?$ratio@$0GE@$00@std@@U?$ratio@$00$0DLJKMKAA@@2@@std@@2_JB DQ 0000000000000064H ; std::_Ratio_multiply2<std::ratio<100,1>,std::ratio<1,1000000000> >::_G1
CONST	ENDS
;	COMDAT ?digits@?$numeric_limits@J@std@@2HB
CONST	SEGMENT
?digits@?$numeric_limits@J@std@@2HB DD 01fH		; std::numeric_limits<long>::digits
CONST	ENDS
;	COMDAT ?is_signed@?$numeric_limits@J@std@@2_NB
CONST	SEGMENT
?is_signed@?$numeric_limits@J@std@@2_NB DB 01H		; std::numeric_limits<long>::is_signed
CONST	ENDS
;	COMDAT ?value@?$_Gcd@$0GE@$0DLJKMKAA@@std@@2_JB
CONST	SEGMENT
?value@?$_Gcd@$0GE@$0DLJKMKAA@@std@@2_JB DQ 0000000000000064H ; std::_Gcd<100,1000000000>::value
CONST	ENDS
;	COMDAT ?_STATE_CALLED@_CancellationTokenRegistration@details@Concurrency@@0JB
CONST	SEGMENT
?_STATE_CALLED@_CancellationTokenRegistration@details@Concurrency@@0JB DD 03H ; Concurrency::details::_CancellationTokenRegistration::_STATE_CALLED
CONST	ENDS
;	COMDAT ?value@?$_Is_ratio@U?$ratio@$00$0JIJGIA@@std@@@chrono@std@@2_NB
CONST	SEGMENT
?value@?$_Is_ratio@U?$ratio@$00$0JIJGIA@@std@@@chrono@std@@2_NB DB 01H ; std::chrono::_Is_ratio<std::ratio<1,10000000> >::value
CONST	ENDS
;	COMDAT ?_STATE_SYNCHRONIZE@_CancellationTokenRegistration@details@Concurrency@@0JB
CONST	SEGMENT
?_STATE_SYNCHRONIZE@_CancellationTokenRegistration@details@Concurrency@@0JB DD 02H ; Concurrency::details::_CancellationTokenRegistration::_STATE_SYNCHRONIZE
CONST	ENDS
;	COMDAT ?value@?$_GcdX@$0GE@$0DLJKMKAA@@std@@2_JB
CONST	SEGMENT
?value@?$_GcdX@$0GE@$0DLJKMKAA@@std@@2_JB DQ 0000000000000064H ; std::_GcdX<100,1000000000>::value
CONST	ENDS
;	COMDAT ?_STATE_DEFER_DELETE@_CancellationTokenRegistration@details@Concurrency@@0JB
CONST	SEGMENT
?_STATE_DEFER_DELETE@_CancellationTokenRegistration@details@Concurrency@@0JB DD 01H ; Concurrency::details::_CancellationTokenRegistration::_STATE_DEFER_DELETE
CONST	ENDS
;	COMDAT ?_STATE_CLEAR@_CancellationTokenRegistration@details@Concurrency@@0JB
CONST	SEGMENT
?_STATE_CLEAR@_CancellationTokenRegistration@details@Concurrency@@0JB DD 00H ; Concurrency::details::_CancellationTokenRegistration::_STATE_CLEAR
CONST	ENDS
;	COMDAT ?value@?$_GcdX@$0DLJKMKAA@$0GE@@std@@2_JB
CONST	SEGMENT
?value@?$_GcdX@$0DLJKMKAA@$0GE@@std@@2_JB DQ 0000000000000064H ; std::_GcdX<1000000000,100>::value
CONST	ENDS
;	COMDAT ?value@?$_GcdX@$0GE@$0A@@std@@2_JB
CONST	SEGMENT
?value@?$_GcdX@$0GE@$0A@@std@@2_JB DQ 0000000000000064H	; std::_GcdX<100,0>::value
CONST	ENDS
;	COMDAT ?digits10@?$numeric_limits@I@std@@2HB
CONST	SEGMENT
?digits10@?$numeric_limits@I@std@@2HB DD 09H		; std::numeric_limits<unsigned int>::digits10
CONST	ENDS
;	COMDAT ?digits@?$numeric_limits@I@std@@2HB
CONST	SEGMENT
?digits@?$numeric_limits@I@std@@2HB DD 020H		; std::numeric_limits<unsigned int>::digits
CONST	ENDS
;	COMDAT ?is_signed@?$numeric_limits@I@std@@2_NB
CONST	SEGMENT
?is_signed@?$numeric_limits@I@std@@2_NB DB 00H		; std::numeric_limits<unsigned int>::is_signed
CONST	ENDS
;	COMDAT ?value@?$_Abs@$0DLJKMKAA@@std@@2_JB
CONST	SEGMENT
?value@?$_Abs@$0DLJKMKAA@@std@@2_JB DQ 000000003b9aca00H ; std::_Abs<1000000000>::value
CONST	ENDS
;	COMDAT ?value@?$_Abs@$0GE@@std@@2_JB
CONST	SEGMENT
?value@?$_Abs@$0GE@@std@@2_JB DQ 0000000000000064H	; std::_Abs<100>::value
CONST	ENDS
;	COMDAT ?value@?$integral_constant@I$0A@@std@@2IB
CONST	SEGMENT
?value@?$integral_constant@I$0A@@std@@2IB DD 00H	; std::integral_constant<unsigned int,0>::value
CONST	ENDS
;	COMDAT ?digits10@?$numeric_limits@H@std@@2HB
CONST	SEGMENT
?digits10@?$numeric_limits@H@std@@2HB DD 09H		; std::numeric_limits<int>::digits10
CONST	ENDS
;	COMDAT ?digits@?$numeric_limits@H@std@@2HB
CONST	SEGMENT
?digits@?$numeric_limits@H@std@@2HB DD 01fH		; std::numeric_limits<int>::digits
CONST	ENDS
;	COMDAT ?is_signed@?$numeric_limits@H@std@@2_NB
CONST	SEGMENT
?is_signed@?$numeric_limits@H@std@@2_NB DB 01H		; std::numeric_limits<int>::is_signed
CONST	ENDS
;	COMDAT ?digits10@?$numeric_limits@G@std@@2HB
CONST	SEGMENT
?digits10@?$numeric_limits@G@std@@2HB DD 04H		; std::numeric_limits<unsigned short>::digits10
CONST	ENDS
;	COMDAT ?digits@?$numeric_limits@G@std@@2HB
CONST	SEGMENT
?digits@?$numeric_limits@G@std@@2HB DD 010H		; std::numeric_limits<unsigned short>::digits
CONST	ENDS
;	COMDAT ?is_signed@?$numeric_limits@G@std@@2_NB
CONST	SEGMENT
?is_signed@?$numeric_limits@G@std@@2_NB DB 00H		; std::numeric_limits<unsigned short>::is_signed
CONST	ENDS
;	COMDAT ?digits10@?$numeric_limits@F@std@@2HB
CONST	SEGMENT
?digits10@?$numeric_limits@F@std@@2HB DD 04H		; std::numeric_limits<short>::digits10
CONST	ENDS
;	COMDAT ?digits@?$numeric_limits@F@std@@2HB
CONST	SEGMENT
?digits@?$numeric_limits@F@std@@2HB DD 0fH		; std::numeric_limits<short>::digits
CONST	ENDS
;	COMDAT ?is_signed@?$numeric_limits@F@std@@2_NB
CONST	SEGMENT
?is_signed@?$numeric_limits@F@std@@2_NB DB 01H		; std::numeric_limits<short>::is_signed
CONST	ENDS
;	COMDAT ?digits10@?$numeric_limits@E@std@@2HB
CONST	SEGMENT
?digits10@?$numeric_limits@E@std@@2HB DD 02H		; std::numeric_limits<unsigned char>::digits10
CONST	ENDS
;	COMDAT ?digits@?$numeric_limits@E@std@@2HB
CONST	SEGMENT
?digits@?$numeric_limits@E@std@@2HB DD 08H		; std::numeric_limits<unsigned char>::digits
CONST	ENDS
;	COMDAT ?is_signed@?$numeric_limits@E@std@@2_NB
CONST	SEGMENT
?is_signed@?$numeric_limits@E@std@@2_NB DB 00H		; std::numeric_limits<unsigned char>::is_signed
CONST	ENDS
;	COMDAT ?digits10@?$numeric_limits@C@std@@2HB
CONST	SEGMENT
?digits10@?$numeric_limits@C@std@@2HB DD 02H		; std::numeric_limits<signed char>::digits10
CONST	ENDS
;	COMDAT ?digits@?$numeric_limits@C@std@@2HB
CONST	SEGMENT
?digits@?$numeric_limits@C@std@@2HB DD 07H		; std::numeric_limits<signed char>::digits
CONST	ENDS
;	COMDAT ?is_signed@?$numeric_limits@C@std@@2_NB
CONST	SEGMENT
?is_signed@?$numeric_limits@C@std@@2_NB DB 01H		; std::numeric_limits<signed char>::is_signed
CONST	ENDS
;	COMDAT ?digits10@?$numeric_limits@_N@std@@2HB
CONST	SEGMENT
?digits10@?$numeric_limits@_N@std@@2HB DD 00H		; std::numeric_limits<bool>::digits10
CONST	ENDS
;	COMDAT ?digits@?$numeric_limits@_N@std@@2HB
CONST	SEGMENT
?digits@?$numeric_limits@_N@std@@2HB DD 01H		; std::numeric_limits<bool>::digits
CONST	ENDS
;	COMDAT ?is_signed@?$numeric_limits@_N@std@@2_NB
CONST	SEGMENT
?is_signed@?$numeric_limits@_N@std@@2_NB DB 00H		; std::numeric_limits<bool>::is_signed
CONST	ENDS
;	COMDAT ?is_modulo@?$numeric_limits@_N@std@@2_NB
CONST	SEGMENT
?is_modulo@?$numeric_limits@_N@std@@2_NB DB 00H		; std::numeric_limits<bool>::is_modulo
CONST	ENDS
;	COMDAT ?digits10@?$numeric_limits@_W@std@@2HB
CONST	SEGMENT
?digits10@?$numeric_limits@_W@std@@2HB DD 04H		; std::numeric_limits<wchar_t>::digits10
CONST	ENDS
;	COMDAT ?digits@?$numeric_limits@_W@std@@2HB
CONST	SEGMENT
?digits@?$numeric_limits@_W@std@@2HB DD 010H		; std::numeric_limits<wchar_t>::digits
CONST	ENDS
;	COMDAT ?is_signed@?$numeric_limits@_W@std@@2_NB
CONST	SEGMENT
?is_signed@?$numeric_limits@_W@std@@2_NB DB 00H		; std::numeric_limits<wchar_t>::is_signed
CONST	ENDS
;	COMDAT ?digits10@?$numeric_limits@D@std@@2HB
CONST	SEGMENT
?digits10@?$numeric_limits@D@std@@2HB DD 02H		; std::numeric_limits<char>::digits10
CONST	ENDS
;	COMDAT ?digits@?$numeric_limits@D@std@@2HB
CONST	SEGMENT
?digits@?$numeric_limits@D@std@@2HB DD 07H		; std::numeric_limits<char>::digits
CONST	ENDS
;	COMDAT ?is_signed@?$numeric_limits@D@std@@2_NB
CONST	SEGMENT
?is_signed@?$numeric_limits@D@std@@2_NB DB 01H		; std::numeric_limits<char>::is_signed
CONST	ENDS
;	COMDAT _AgentEventGuid
CONST	SEGMENT
_AgentEventGuid DD 0b9b5b78cH
	DW	0713H
	DW	04898H
	DB	0a2H
	DB	01aH
	DB	0c6H
	DB	079H
	DB	049H
	DB	0dcH
	DB	0edH
	DB	07H
CONST	ENDS
;	COMDAT _PPLParallelForeachEventGuid
CONST	SEGMENT
_PPLParallelForeachEventGuid DD 05cb7d785H
	DW	09d66H
	DW	0465dH
	DB	0baH
	DB	0e1H
	DB	046H
	DB	011H
	DB	06H
	DB	01bH
	DB	054H
	DB	034H
CONST	ENDS
;	COMDAT _PPLParallelForEventGuid
CONST	SEGMENT
_PPLParallelForEventGuid DD 031c8da6bH
	DW	06165H
	DW	04042H
	DB	08bH
	DB	092H
	DB	094H
	DB	09eH
	DB	031H
	DB	05fH
	DB	04dH
	DB	084H
CONST	ENDS
;	COMDAT _PPLParallelInvokeEventGuid
CONST	SEGMENT
_PPLParallelInvokeEventGuid DD 0d1b5b133H
	DW	0ec3dH
	DW	049f4H
	DB	098H
	DB	0a3H
	DB	046H
	DB	04dH
	DB	01aH
	DB	09eH
	DB	046H
	DB	082H
CONST	ENDS
;	COMDAT _ResourceManagerEventGuid
CONST	SEGMENT
_ResourceManagerEventGuid DD 02718d25bH
	DW	05bf5H
	DW	04479H
	DB	08eH
	DB	088H
	DB	0baH
	DB	0bcH
	DB	064H
	DB	0bdH
	DB	0bfH
	DB	0caH
CONST	ENDS
;	COMDAT _LockEventGuid
CONST	SEGMENT
_LockEventGuid DD 079a60dc6H
	DW	05fc8H
	DW	04952H
	DB	0a4H
	DB	01cH
	DB	011H
	DB	063H
	DB	0aeH
	DB	0ecH
	DB	05eH
	DB	0b8H
CONST	ENDS
;	COMDAT _VirtualProcessorEventGuid
CONST	SEGMENT
_VirtualProcessorEventGuid DD 02f27805fH
	DW	01676H
	DW	04eccH
	DB	096H
	DB	0faH
	DB	07eH
	DB	0b0H
	DB	09dH
	DB	044H
	DB	030H
	DB	02fH
CONST	ENDS
;	COMDAT _ChoreEventGuid
CONST	SEGMENT
_ChoreEventGuid DD 07e854ec7H
	DW	0cdc4H
	DW	0405aH
	DB	0b5H
	DB	0b2H
	DB	0aaH
	DB	0f7H
	DB	0c9H
	DB	0e7H
	DB	0d4H
	DB	0cH
CONST	ENDS
;	COMDAT _ContextEventGuid
CONST	SEGMENT
_ContextEventGuid DD 05727a00fH
	DW	050beH
	DW	04519H
	DB	082H
	DB	056H
	DB	0f7H
	DB	069H
	DB	098H
	DB	071H
	DB	0feH
	DB	0cbH
CONST	ENDS
;	COMDAT _ScheduleGroupEventGuid
CONST	SEGMENT
_ScheduleGroupEventGuid DD 0e8a3bf1fH
	DW	0a86bH
	DW	04390H
	DB	09cH
	DB	060H
	DB	053H
	DB	090H
	DB	0b9H
	DB	069H
	DB	0d2H
	DB	02cH
CONST	ENDS
;	COMDAT _SchedulerEventGuid
CONST	SEGMENT
_SchedulerEventGuid DD 0e2091f8aH
	DW	01e0aH
	DW	04731H
	DB	084H
	DB	0a2H
	DB	0dH
	DB	0d5H
	DB	07cH
	DB	08aH
	DB	052H
	DB	061H
CONST	ENDS
;	COMDAT _ConcRTEventGuid
CONST	SEGMENT
_ConcRTEventGuid DD 072b14a7dH
	DW	0704cH
	DW	0423eH
	DB	092H
	DB	0f8H
	DB	07eH
	DB	06dH
	DB	064H
	DB	0bcH
	DB	0b9H
	DB	02aH
CONST	ENDS
;	COMDAT _ConcRT_ProviderGuid
CONST	SEGMENT
_ConcRT_ProviderGuid DD 0f7b697a3H
	DW	04db5H
	DW	04d3bH
	DB	0beH
	DB	071H
	DB	0c4H
	DB	0d2H
	DB	084H
	DB	0e6H
	DB	059H
	DB	02fH
CONST	ENDS
;	COMDAT ?radix@_Num_float_base@std@@2HB
CONST	SEGMENT
?radix@_Num_float_base@std@@2HB DD 02H			; std::_Num_float_base::radix
CONST	ENDS
;	COMDAT ?round_style@_Num_float_base@std@@2W4float_round_style@2@B
CONST	SEGMENT
?round_style@_Num_float_base@std@@2W4float_round_style@2@B DD 01H ; std::_Num_float_base::round_style
CONST	ENDS
;	COMDAT ?traps@_Num_float_base@std@@2_NB
CONST	SEGMENT
?traps@_Num_float_base@std@@2_NB DB 00H			; std::_Num_float_base::traps
CONST	ENDS
;	COMDAT ?tinyness_before@_Num_float_base@std@@2_NB
CONST	SEGMENT
?tinyness_before@_Num_float_base@std@@2_NB DB 01H	; std::_Num_float_base::tinyness_before
CONST	ENDS
;	COMDAT ?is_specialized@_Num_float_base@std@@2_NB
CONST	SEGMENT
?is_specialized@_Num_float_base@std@@2_NB DB 01H	; std::_Num_float_base::is_specialized
CONST	ENDS
;	COMDAT ?is_signed@_Num_float_base@std@@2_NB
CONST	SEGMENT
?is_signed@_Num_float_base@std@@2_NB DB 01H		; std::_Num_float_base::is_signed
CONST	ENDS
;	COMDAT ?is_modulo@_Num_float_base@std@@2_NB
CONST	SEGMENT
?is_modulo@_Num_float_base@std@@2_NB DB 00H		; std::_Num_float_base::is_modulo
CONST	ENDS
;	COMDAT ?is_integer@_Num_float_base@std@@2_NB
CONST	SEGMENT
?is_integer@_Num_float_base@std@@2_NB DB 00H		; std::_Num_float_base::is_integer
CONST	ENDS
;	COMDAT ?is_iec559@_Num_float_base@std@@2_NB
CONST	SEGMENT
?is_iec559@_Num_float_base@std@@2_NB DB 01H		; std::_Num_float_base::is_iec559
CONST	ENDS
;	COMDAT ?is_exact@_Num_float_base@std@@2_NB
CONST	SEGMENT
?is_exact@_Num_float_base@std@@2_NB DB 00H		; std::_Num_float_base::is_exact
CONST	ENDS
;	COMDAT ?is_bounded@_Num_float_base@std@@2_NB
CONST	SEGMENT
?is_bounded@_Num_float_base@std@@2_NB DB 01H		; std::_Num_float_base::is_bounded
CONST	ENDS
;	COMDAT ?has_signaling_NaN@_Num_float_base@std@@2_NB
CONST	SEGMENT
?has_signaling_NaN@_Num_float_base@std@@2_NB DB 01H	; std::_Num_float_base::has_signaling_NaN
CONST	ENDS
;	COMDAT ?has_quiet_NaN@_Num_float_base@std@@2_NB
CONST	SEGMENT
?has_quiet_NaN@_Num_float_base@std@@2_NB DB 01H		; std::_Num_float_base::has_quiet_NaN
CONST	ENDS
;	COMDAT ?has_infinity@_Num_float_base@std@@2_NB
CONST	SEGMENT
?has_infinity@_Num_float_base@std@@2_NB DB 01H		; std::_Num_float_base::has_infinity
CONST	ENDS
;	COMDAT ?has_denorm_loss@_Num_float_base@std@@2_NB
CONST	SEGMENT
?has_denorm_loss@_Num_float_base@std@@2_NB DB 01H	; std::_Num_float_base::has_denorm_loss
CONST	ENDS
;	COMDAT ?has_denorm@_Num_float_base@std@@2W4float_denorm_style@2@B
CONST	SEGMENT
?has_denorm@_Num_float_base@std@@2W4float_denorm_style@2@B DD 01H ; std::_Num_float_base::has_denorm
CONST	ENDS
;	COMDAT ?is_steady@steady_clock@chrono@std@@2_NB
CONST	SEGMENT
?is_steady@steady_clock@chrono@std@@2_NB DB 01H		; std::chrono::steady_clock::is_steady
CONST	ENDS
;	COMDAT ?is_monotonic@steady_clock@chrono@std@@2_NB
CONST	SEGMENT
?is_monotonic@steady_clock@chrono@std@@2_NB DB 01H	; std::chrono::steady_clock::is_monotonic
CONST	ENDS
;	COMDAT ?radix@_Num_int_base@std@@2HB
CONST	SEGMENT
?radix@_Num_int_base@std@@2HB DD 02H			; std::_Num_int_base::radix
CONST	ENDS
;	COMDAT ?is_specialized@_Num_int_base@std@@2_NB
CONST	SEGMENT
?is_specialized@_Num_int_base@std@@2_NB DB 01H		; std::_Num_int_base::is_specialized
CONST	ENDS
;	COMDAT ?is_modulo@_Num_int_base@std@@2_NB
CONST	SEGMENT
?is_modulo@_Num_int_base@std@@2_NB DB 01H		; std::_Num_int_base::is_modulo
CONST	ENDS
;	COMDAT ?is_integer@_Num_int_base@std@@2_NB
CONST	SEGMENT
?is_integer@_Num_int_base@std@@2_NB DB 01H		; std::_Num_int_base::is_integer
CONST	ENDS
;	COMDAT ?is_exact@_Num_int_base@std@@2_NB
CONST	SEGMENT
?is_exact@_Num_int_base@std@@2_NB DB 01H		; std::_Num_int_base::is_exact
CONST	ENDS
;	COMDAT ?is_bounded@_Num_int_base@std@@2_NB
CONST	SEGMENT
?is_bounded@_Num_int_base@std@@2_NB DB 01H		; std::_Num_int_base::is_bounded
CONST	ENDS
;	COMDAT ?radix@_Num_base@std@@2HB
CONST	SEGMENT
?radix@_Num_base@std@@2HB DD 00H			; std::_Num_base::radix
CONST	ENDS
;	COMDAT ?min_exponent10@_Num_base@std@@2HB
CONST	SEGMENT
?min_exponent10@_Num_base@std@@2HB DD 00H		; std::_Num_base::min_exponent10
CONST	ENDS
;	COMDAT ?min_exponent@_Num_base@std@@2HB
CONST	SEGMENT
?min_exponent@_Num_base@std@@2HB DD 00H			; std::_Num_base::min_exponent
CONST	ENDS
;	COMDAT ?max_exponent10@_Num_base@std@@2HB
CONST	SEGMENT
?max_exponent10@_Num_base@std@@2HB DD 00H		; std::_Num_base::max_exponent10
CONST	ENDS
;	COMDAT ?max_exponent@_Num_base@std@@2HB
CONST	SEGMENT
?max_exponent@_Num_base@std@@2HB DD 00H			; std::_Num_base::max_exponent
CONST	ENDS
;	COMDAT ?max_digits10@_Num_base@std@@2HB
CONST	SEGMENT
?max_digits10@_Num_base@std@@2HB DD 00H			; std::_Num_base::max_digits10
CONST	ENDS
CONST	SEGMENT
_dutycycletable DB 00H
	DB	00H
	DB	00H
	DB	00H
	DB	01H
	DB	00H
	DB	00H
	DB	00H
	DB	00H
	DB	00H
	DB	00H
	DB	00H
	DB	01H
	DB	01H
	DB	00H
	DB	00H
	DB	00H
	DB	00H
	DB	01H
	DB	01H
	DB	01H
	DB	01H
	DB	00H
	DB	00H
	DB	01H
	DB	01H
	DB	01H
	DB	01H
	DB	00H
	DB	00H
	DB	01H
	DB	01H
$SG160909 DB	'Code\display_window.cpp', 00H
$SG160917 DB	'GBEmu', 00H
	ORG $+2
$SG160989 DB	'GBEmu - FPS: %02d', 00H, 00H
	ORG $+1
$SG161067 DB	'Code\display_window.cpp', 00H
$SG161076 DB	'.nes', 00H
	ORG $+7
_clockspeed DQ	04150000000000000r		; 4.1943e+006
CONST	ENDS
;	COMDAT ?digits10@_Num_base@std@@2HB
CONST	SEGMENT
?digits10@_Num_base@std@@2HB DD 00H			; std::_Num_base::digits10
CONST	ENDS
;	COMDAT ?digits@_Num_base@std@@2HB
CONST	SEGMENT
?digits@_Num_base@std@@2HB DD 00H			; std::_Num_base::digits
CONST	ENDS
;	COMDAT ?round_style@_Num_base@std@@2W4float_round_style@2@B
CONST	SEGMENT
?round_style@_Num_base@std@@2W4float_round_style@2@B DD 00H ; std::_Num_base::round_style
CONST	ENDS
;	COMDAT ?traps@_Num_base@std@@2_NB
CONST	SEGMENT
?traps@_Num_base@std@@2_NB DB 00H			; std::_Num_base::traps
CONST	ENDS
;	COMDAT ?tinyness_before@_Num_base@std@@2_NB
CONST	SEGMENT
?tinyness_before@_Num_base@std@@2_NB DB 00H		; std::_Num_base::tinyness_before
CONST	ENDS
;	COMDAT ?is_specialized@_Num_base@std@@2_NB
CONST	SEGMENT
?is_specialized@_Num_base@std@@2_NB DB 00H		; std::_Num_base::is_specialized
CONST	ENDS
;	COMDAT ?is_signed@_Num_base@std@@2_NB
CONST	SEGMENT
?is_signed@_Num_base@std@@2_NB DB 00H			; std::_Num_base::is_signed
CONST	ENDS
;	COMDAT ?is_modulo@_Num_base@std@@2_NB
CONST	SEGMENT
?is_modulo@_Num_base@std@@2_NB DB 00H			; std::_Num_base::is_modulo
CONST	ENDS
PUBLIC	?strrchr@@YAPADPADH@Z				; strrchr
PUBLIC	?handle@Window@windows@core@@QAEPAUHWND__@@XZ	; core::windows::Window::handle
PUBLIC	?OnResize@Window@windows@core@@MAEHIJ@Z		; core::windows::Window::OnResize
PUBLIC	?OnMouseMove@Window@windows@core@@MAEHIJ@Z	; core::windows::Window::OnMouseMove
PUBLIC	?OnMouseWheel@Window@windows@core@@MAEHIJ@Z	; core::windows::Window::OnMouseWheel
PUBLIC	?OnLeftButtonDown@Window@windows@core@@MAEHIJ@Z	; core::windows::Window::OnLeftButtonDown
PUBLIC	?OnLeftButtonUp@Window@windows@core@@MAEHIJ@Z	; core::windows::Window::OnLeftButtonUp
PUBLIC	?OnMiddleButtonDown@Window@windows@core@@MAEHIJ@Z ; core::windows::Window::OnMiddleButtonDown
PUBLIC	?OnMiddleButtonUp@Window@windows@core@@MAEHIJ@Z	; core::windows::Window::OnMiddleButtonUp
PUBLIC	?OnRightButtonDown@Window@windows@core@@MAEHIJ@Z ; core::windows::Window::OnRightButtonDown
PUBLIC	?OnRightButtonUp@Window@windows@core@@MAEHIJ@Z	; core::windows::Window::OnRightButtonUp
PUBLIC	?OnCaptureChanged@Window@windows@core@@MAEHIJ@Z	; core::windows::Window::OnCaptureChanged
PUBLIC	?OnInput@Window@windows@core@@MAEHIJ@Z		; core::windows::Window::OnInput
PUBLIC	?OnSysKeyDown@Window@windows@core@@MAEHIJ@Z	; core::windows::Window::OnSysKeyDown
PUBLIC	?OnSysKeyUp@Window@windows@core@@MAEHIJ@Z	; core::windows::Window::OnSysKeyUp
PUBLIC	?OnSysCommand@Window@windows@core@@MAEHIJ@Z	; core::windows::Window::OnSysCommand
PUBLIC	?OnClose@Window@windows@core@@MAEHIJ@Z		; core::windows::Window::OnClose
PUBLIC	?OnActivate@Window@windows@core@@MAEHIJ@Z	; core::windows::Window::OnActivate
PUBLIC	?PreProcessMessages@Window@windows@core@@MAEHPAUHWND__@@IIJ@Z ; core::windows::Window::PreProcessMessages
PUBLIC	??0Timer@utilities@@QAE@XZ			; utilities::Timer::Timer
PUBLIC	?Calibrate@Timer@utilities@@QAEXXZ		; utilities::Timer::Calibrate
PUBLIC	?resolution@Timer@utilities@@QAENXZ		; utilities::Timer::resolution
PUBLIC	?GetCurrentCycles@Timer@utilities@@QAE_KXZ	; utilities::Timer::GetCurrentCycles
PUBLIC	??2@YAPAXIPAX@Z					; operator new
PUBLIC	??3@YAXPAX0@Z					; operator delete
PUBLIC	??0_Ignore@std@@QAE@XZ				; std::_Ignore::_Ignore
PUBLIC	?_Store_relaxed_1@std@@YAXPCEE@Z		; std::_Store_relaxed_1
PUBLIC	?_Store_release_1@std@@YAXPCEE@Z		; std::_Store_release_1
PUBLIC	?_Store_seq_cst_1@std@@YAXPCEE@Z		; std::_Store_seq_cst_1
PUBLIC	?_Atomic_store_1@std@@YAXPCEEW4memory_order@1@@Z ; std::_Atomic_store_1
PUBLIC	??4atomic_bool@std@@QAE_N_N@Z			; std::atomic_bool::operator=
PUBLIC	?atomic_store_explicit@std@@YAXPAUatomic_bool@1@_NW4memory_order@1@@Z ; std::atomic_store_explicit
PUBLIC	?atomic_store@std@@YAXPAUatomic_bool@1@_N@Z	; std::atomic_store
PUBLIC	?Initialize@Component@gb@emulation@@UAEXPAVEmu@23@@Z ; emulation::gb::Component::Initialize
PUBLIC	?Deinitialize@Component@gb@emulation@@UAEXXZ	; emulation::gb::Component::Deinitialize
PUBLIC	?Reset@Component@gb@emulation@@UAEXXZ		; emulation::gb::Component::Reset
PUBLIC	??0Component@gb@emulation@@QAE@XZ		; emulation::gb::Component::Component
PUBLIC	??0Cartridge@gb@emulation@@QAE@XZ		; emulation::gb::Cartridge::Cartridge
PUBLIC	??1Cartridge@gb@emulation@@QAE@XZ		; emulation::gb::Cartridge::~Cartridge
PUBLIC	??0Memory@gb@emulation@@QAE@XZ			; emulation::gb::Memory::Memory
PUBLIC	??1Memory@gb@emulation@@QAE@XZ			; emulation::gb::Memory::~Memory
PUBLIC	?JoypadRelease@Memory@gb@emulation@@QAEXW4JoypadKeys@23@@Z ; emulation::gb::Memory::JoypadRelease
PUBLIC	??0LCDDriver@gb@emulation@@QAE@XZ		; emulation::gb::LCDDriver::LCDDriver
PUBLIC	??1LCDDriver@gb@emulation@@QAE@XZ		; emulation::gb::LCDDriver::~LCDDriver
PUBLIC	??0SoundController@gb@emulation@@QAE@XZ		; emulation::gb::SoundController::SoundController
PUBLIC	??1SoundController@gb@emulation@@QAE@XZ		; emulation::gb::SoundController::~SoundController
PUBLIC	??0Timer@gb@emulation@@QAE@XZ			; emulation::gb::Timer::Timer
PUBLIC	??1Timer@gb@emulation@@QAE@XZ			; emulation::gb::Timer::~Timer
PUBLIC	??0Emu@gb@emulation@@QAE@XZ			; emulation::gb::Emu::Emu
PUBLIC	??1Emu@gb@emulation@@QAE@XZ			; emulation::gb::Emu::~Emu
PUBLIC	?memory@Emu@gb@emulation@@QAEPAVMemory@23@XZ	; emulation::gb::Emu::memory
PUBLIC	?lcd_driver@Emu@gb@emulation@@QAEPAVLCDDriver@23@XZ ; emulation::gb::Emu::lcd_driver
PUBLIC	?_Empty@?$_Func_class@XU_Nil@std@@U12@U12@U12@U12@U12@U12@@std@@QBE_NXZ ; std::_Func_class<void,std::_Nil,std::_Nil,std::_Nil,std::_Nil,std::_Nil,std::_Nil,std::_Nil>::_Empty
PUBLIC	??1?$_Func_class@XU_Nil@std@@U12@U12@U12@U12@U12@U12@@std@@QAE@XZ ; std::_Func_class<void,std::_Nil,std::_Nil,std::_Nil,std::_Nil,std::_Nil,std::_Nil,std::_Nil>::~_Func_class<void,std::_Nil,std::_Nil,std::_Nil,std::_Nil,std::_Nil,std::_Nil,std::_Nil>
PUBLIC	?_Reset@?$_Func_class@XU_Nil@std@@U12@U12@U12@U12@U12@U12@@std@@IAEXXZ ; std::_Func_class<void,std::_Nil,std::_Nil,std::_Nil,std::_Nil,std::_Nil,std::_Nil,std::_Nil>::_Reset
PUBLIC	?_Reset@?$_Func_class@XU_Nil@std@@U12@U12@U12@U12@U12@U12@@std@@IAEXABV12@@Z ; std::_Func_class<void,std::_Nil,std::_Nil,std::_Nil,std::_Nil,std::_Nil,std::_Nil,std::_Nil>::_Reset
PUBLIC	?_Tidy@?$_Func_class@XU_Nil@std@@U12@U12@U12@U12@U12@U12@@std@@IAEXXZ ; std::_Func_class<void,std::_Nil,std::_Nil,std::_Nil,std::_Nil,std::_Nil,std::_Nil,std::_Nil>::_Tidy
PUBLIC	?_Set@?$_Func_class@XU_Nil@std@@U12@U12@U12@U12@U12@U12@@std@@AAEXPAV?$_Func_base@XU_Nil@std@@U12@U12@U12@U12@U12@U12@@2@@Z ; std::_Func_class<void,std::_Nil,std::_Nil,std::_Nil,std::_Nil,std::_Nil,std::_Nil,std::_Nil>::_Set
PUBLIC	?_Local@?$_Func_class@XU_Nil@std@@U12@U12@U12@U12@U12@U12@@std@@ABE_NXZ ; std::_Func_class<void,std::_Nil,std::_Nil,std::_Nil,std::_Nil,std::_Nil,std::_Nil,std::_Nil>::_Local
PUBLIC	??0?$function@$$A6AXXZ@std@@QAE@XZ		; std::function<void __cdecl(void)>::function<void __cdecl(void)>
PUBLIC	??1?$function@$$A6AXXZ@std@@QAE@XZ		; std::function<void __cdecl(void)>::~function<void __cdecl(void)>
PUBLIC	??4?$function@$$A6AXXZ@std@@QAEAAV01@ABV01@@Z	; std::function<void __cdecl(void)>::operator=
PUBLIC	??B?$function@$$A6AXXZ@std@@QBEPQ?$_Bool_struct@V?$function@$$A6AXXZ@std@@@1@HXZ ; std::function<void __cdecl(void)>::operator int std::_Bool_struct<std::function<void __cdecl(void)> >::*
PUBLIC	?set_on_render@Emu@gb@emulation@@QAEXABV?$function@$$A6AXXZ@std@@@Z ; emulation::gb::Emu::set_on_render
PUBLIC	?set_on_vertical_blank@Emu@gb@emulation@@QAEXABV?$function@$$A6AXXZ@std@@@Z ; emulation::gb::Emu::set_on_vertical_blank
PUBLIC	??$?9$$A6AXXZ@std@@YA_NABV?$function@$$A6AXXZ@0@$$T@Z ; std::operator!=<void __cdecl(void)>
PUBLIC	??0DisplayWindow@app@@QAE@XZ			; app::DisplayWindow::DisplayWindow
PUBLIC	??1DisplayWindow@app@@QAE@XZ			; app::DisplayWindow::~DisplayWindow
PUBLIC	?Init@DisplayWindow@app@@QAEXXZ			; app::DisplayWindow::Init
PUBLIC	?ResetTiming@DisplayWindow@app@@QAEXXZ		; app::DisplayWindow::ResetTiming
PUBLIC	?Step@DisplayWindow@app@@QAEXXZ			; app::DisplayWindow::Step
PUBLIC	?OnCommand@DisplayWindow@app@@MAEHIJ@Z		; app::DisplayWindow::OnCommand
PUBLIC	?OnKeyDown@DisplayWindow@app@@MAEHIJ@Z		; app::DisplayWindow::OnKeyDown
PUBLIC	?OnKeyUp@DisplayWindow@app@@MAEHIJ@Z		; app::DisplayWindow::OnKeyUp
PUBLIC	?OnCreate@DisplayWindow@app@@MAEHIJ@Z		; app::DisplayWindow::OnCreate
PUBLIC	?OnDestroy@DisplayWindow@app@@MAEHIJ@Z		; app::DisplayWindow::OnDestroy
PUBLIC	?OnDropFiles@DisplayWindow@app@@MAEHIJ@Z	; app::DisplayWindow::OnDropFiles
PUBLIC	?Render@DisplayWindow@app@@IAEHXZ		; app::DisplayWindow::Render
PUBLIC	??$?0V<lambda_9eb754bdeb4f4749f734e866e5cd8484>@@@?$function@$$A6AXXZ@std@@QAE@$$QAV<lambda_9eb754bdeb4f4749f734e866e5cd8484>@@@Z ; std::function<void __cdecl(void)>::function<void __cdecl(void)><<lambda_9eb754bdeb4f4749f734e866e5cd8484> >
PUBLIC	??$?0V<lambda_5d8c5ab464462ebb691e185ac4dda097>@@@?$function@$$A6AXXZ@std@@QAE@$$QAV<lambda_5d8c5ab464462ebb691e185ac4dda097>@@@Z ; std::function<void __cdecl(void)>::function<void __cdecl(void)><<lambda_5d8c5ab464462ebb691e185ac4dda097> >
PUBLIC	??$SafeDeleteArray@D@@YAXPAPAD@Z		; SafeDeleteArray<char>
PUBLIC	??1?$_Func_base@XU_Nil@std@@U12@U12@U12@U12@U12@U12@@std@@UAE@XZ ; std::_Func_base<void,std::_Nil,std::_Nil,std::_Nil,std::_Nil,std::_Nil,std::_Nil,std::_Nil>::~_Func_base<void,std::_Nil,std::_Nil,std::_Nil,std::_Nil,std::_Nil,std::_Nil,std::_Nil>
PUBLIC	??0?$_Func_base@XU_Nil@std@@U12@U12@U12@U12@U12@U12@@std@@QAE@XZ ; std::_Func_base<void,std::_Nil,std::_Nil,std::_Nil,std::_Nil,std::_Nil,std::_Nil,std::_Nil>::_Func_base<void,std::_Nil,std::_Nil,std::_Nil,std::_Nil,std::_Nil,std::_Nil,std::_Nil>
PUBLIC	??_G?$_Func_base@XU_Nil@std@@U12@U12@U12@U12@U12@U12@@std@@UAEPAXI@Z ; std::_Func_base<void,std::_Nil,std::_Nil,std::_Nil,std::_Nil,std::_Nil,std::_Nil,std::_Nil>::`scalar deleting destructor'
PUBLIC	??$?8$$A6AXXZ@std@@YA_NABV?$function@$$A6AXXZ@0@$$T@Z ; std::operator==<void __cdecl(void)>
PUBLIC	??$forward@V<lambda_9eb754bdeb4f4749f734e866e5cd8484>@@@std@@YA$$QAV<lambda_9eb754bdeb4f4749f734e866e5cd8484>@@AAV1@@Z ; std::forward<<lambda_9eb754bdeb4f4749f734e866e5cd8484> >
PUBLIC	??$_Reset@V<lambda_9eb754bdeb4f4749f734e866e5cd8484>@@@?$_Func_class@XU_Nil@std@@U12@U12@U12@U12@U12@U12@@std@@IAEX$$QAV<lambda_9eb754bdeb4f4749f734e866e5cd8484>@@@Z ; std::_Func_class<void,std::_Nil,std::_Nil,std::_Nil,std::_Nil,std::_Nil,std::_Nil,std::_Nil>::_Reset<<lambda_9eb754bdeb4f4749f734e866e5cd8484> >
PUBLIC	??$forward@V<lambda_5d8c5ab464462ebb691e185ac4dda097>@@@std@@YA$$QAV<lambda_5d8c5ab464462ebb691e185ac4dda097>@@AAV1@@Z ; std::forward<<lambda_5d8c5ab464462ebb691e185ac4dda097> >
PUBLIC	??$_Reset@V<lambda_5d8c5ab464462ebb691e185ac4dda097>@@@?$_Func_class@XU_Nil@std@@U12@U12@U12@U12@U12@U12@@std@@IAEX$$QAV<lambda_5d8c5ab464462ebb691e185ac4dda097>@@@Z ; std::_Func_class<void,std::_Nil,std::_Nil,std::_Nil,std::_Nil,std::_Nil,std::_Nil,std::_Nil>::_Reset<<lambda_5d8c5ab464462ebb691e185ac4dda097> >
PUBLIC	??0?$allocator@V?$_Func_class@XU_Nil@std@@U12@U12@U12@U12@U12@U12@@std@@@std@@QAE@XZ ; std::allocator<std::_Func_class<void,std::_Nil,std::_Nil,std::_Nil,std::_Nil,std::_Nil,std::_Nil,std::_Nil> >::allocator<std::_Func_class<void,std::_Nil,std::_Nil,std::_Nil,std::_Nil,std::_Nil,std::_Nil,std::_Nil> >
PUBLIC	??0?$allocator@V?$_Func_class@XU_Nil@std@@U12@U12@U12@U12@U12@U12@@std@@@std@@QAE@ABV01@@Z ; std::allocator<std::_Func_class<void,std::_Nil,std::_Nil,std::_Nil,std::_Nil,std::_Nil,std::_Nil,std::_Nil> >::allocator<std::_Func_class<void,std::_Nil,std::_Nil,std::_Nil,std::_Nil,std::_Nil,std::_Nil,std::_Nil> >
PUBLIC	??$_Reset_alloc@V<lambda_9eb754bdeb4f4749f734e866e5cd8484>@@V?$allocator@V?$_Func_class@XU_Nil@std@@U12@U12@U12@U12@U12@U12@@std@@@std@@@?$_Func_class@XU_Nil@std@@U12@U12@U12@U12@U12@U12@@std@@IAEX$$QAV<lambda_9eb754bdeb4f4749f734e866e5cd8484>@@V?$allocator@V?$_Func_class@XU_Nil@std@@U12@U12@U12@U12@U12@U12@@std@@@1@@Z ; std::_Func_class<void,std::_Nil,std::_Nil,std::_Nil,std::_Nil,std::_Nil,std::_Nil,std::_Nil>::_Reset_alloc<<lambda_9eb754bdeb4f4749f734e866e5cd8484>,std::allocator<std::_Func_class<void,std::_Nil,std::_Nil,std::_Nil,std::_Nil,std::_Nil,std::_Nil,std::_Nil> > >
PUBLIC	??$_Reset_alloc@V<lambda_5d8c5ab464462ebb691e185ac4dda097>@@V?$allocator@V?$_Func_class@XU_Nil@std@@U12@U12@U12@U12@U12@U12@@std@@@std@@@?$_Func_class@XU_Nil@std@@U12@U12@U12@U12@U12@U12@@std@@IAEX$$QAV<lambda_5d8c5ab464462ebb691e185ac4dda097>@@V?$allocator@V?$_Func_class@XU_Nil@std@@U12@U12@U12@U12@U12@U12@@std@@@1@@Z ; std::_Func_class<void,std::_Nil,std::_Nil,std::_Nil,std::_Nil,std::_Nil,std::_Nil,std::_Nil>::_Reset_alloc<<lambda_5d8c5ab464462ebb691e185ac4dda097>,std::allocator<std::_Func_class<void,std::_Nil,std::_Nil,std::_Nil,std::_Nil,std::_Nil,std::_Nil,std::_Nil> > >
PUBLIC	??$_Do_alloc@V?$_Func_impl@U?$_Callable_obj@V<lambda_9eb754bdeb4f4749f734e866e5cd8484>@@$0A@@std@@V?$allocator@V?$_Func_class@XU_Nil@std@@U12@U12@U12@U12@U12@U12@@std@@@2@XU_Nil@2@U42@U42@U42@U42@U42@U42@@std@@V<lambda_9eb754bdeb4f4749f734e866e5cd8484>@@V?$allocator@V?$_Func_class@XU_Nil@std@@U12@U12@U12@U12@U12@U12@@std@@@2@@?$_Func_class@XU_Nil@std@@U12@U12@U12@U12@U12@U12@@std@@AAEX$$QAV<lambda_9eb754bdeb4f4749f734e866e5cd8484>@@V?$allocator@V?$_Func_class@XU_Nil@std@@U12@U12@U12@U12@U12@U12@@std@@@1@@Z ; std::_Func_class<void,std::_Nil,std::_Nil,std::_Nil,std::_Nil,std::_Nil,std::_Nil,std::_Nil>::_Do_alloc<std::_Func_impl<std::_Callable_obj<<lambda_9eb754bdeb4f4749f734e866e5cd8484>,0>,std::allocator<std::_Func_class<void,std::_Nil,std::_Nil,std::_Nil,std::_Nil,std::_Nil,std::_Nil,std::_Nil> >,void,std::_Nil,std::_Nil,std::_Nil,std::_Nil,std::_Nil,std::_Nil,std::_Nil>,<lambda_9eb754bdeb4f4749f734e866e5cd8484>,std::allocator<std::_Func_class<void,std::_Nil,std::_Nil,std::_Nil,std::_Nil,std::_Nil,std::_Nil,std::_Nil> > >
PUBLIC	??$_Do_alloc@V?$_Func_impl@U?$_Callable_obj@V<lambda_5d8c5ab464462ebb691e185ac4dda097>@@$0A@@std@@V?$allocator@V?$_Func_class@XU_Nil@std@@U12@U12@U12@U12@U12@U12@@std@@@2@XU_Nil@2@U42@U42@U42@U42@U42@U42@@std@@V<lambda_5d8c5ab464462ebb691e185ac4dda097>@@V?$allocator@V?$_Func_class@XU_Nil@std@@U12@U12@U12@U12@U12@U12@@std@@@2@@?$_Func_class@XU_Nil@std@@U12@U12@U12@U12@U12@U12@@std@@AAEX$$QAV<lambda_5d8c5ab464462ebb691e185ac4dda097>@@V?$allocator@V?$_Func_class@XU_Nil@std@@U12@U12@U12@U12@U12@U12@@std@@@1@@Z ; std::_Func_class<void,std::_Nil,std::_Nil,std::_Nil,std::_Nil,std::_Nil,std::_Nil,std::_Nil>::_Do_alloc<std::_Func_impl<std::_Callable_obj<<lambda_5d8c5ab464462ebb691e185ac4dda097>,0>,std::allocator<std::_Func_class<void,std::_Nil,std::_Nil,std::_Nil,std::_Nil,std::_Nil,std::_Nil,std::_Nil> >,void,std::_Nil,std::_Nil,std::_Nil,std::_Nil,std::_Nil,std::_Nil,std::_Nil>,<lambda_5d8c5ab464462ebb691e185ac4dda097>,std::allocator<std::_Func_class<void,std::_Nil,std::_Nil,std::_Nil,std::_Nil,std::_Nil,std::_Nil,std::_Nil> > >
PUBLIC	?_Get@?$_Callable_base@V<lambda_9eb754bdeb4f4749f734e866e5cd8484>@@$0A@@std@@QBEABV<lambda_9eb754bdeb4f4749f734e866e5cd8484>@@XZ ; std::_Callable_base<<lambda_9eb754bdeb4f4749f734e866e5cd8484>,0>::_Get
PUBLIC	?_Get@?$_Callable_base@V<lambda_9eb754bdeb4f4749f734e866e5cd8484>@@$0A@@std@@QAEAAV<lambda_9eb754bdeb4f4749f734e866e5cd8484>@@XZ ; std::_Callable_base<<lambda_9eb754bdeb4f4749f734e866e5cd8484>,0>::_Get
PUBLIC	??0?$_Callable_obj@V<lambda_9eb754bdeb4f4749f734e866e5cd8484>@@$0A@@std@@QAE@AAU01@@Z ; std::_Callable_obj<<lambda_9eb754bdeb4f4749f734e866e5cd8484>,0>::_Callable_obj<<lambda_9eb754bdeb4f4749f734e866e5cd8484>,0>
PUBLIC	??0?$_Callable_obj@V<lambda_9eb754bdeb4f4749f734e866e5cd8484>@@$0A@@std@@QAE@$$QAU01@@Z ; std::_Callable_obj<<lambda_9eb754bdeb4f4749f734e866e5cd8484>,0>::_Callable_obj<<lambda_9eb754bdeb4f4749f734e866e5cd8484>,0>
PUBLIC	??0?$_Func_impl@U?$_Callable_obj@V<lambda_9eb754bdeb4f4749f734e866e5cd8484>@@$0A@@std@@V?$allocator@V?$_Func_class@XU_Nil@std@@U12@U12@U12@U12@U12@U12@@std@@@2@XU_Nil@2@U42@U42@U42@U42@U42@U42@@std@@QAE@$$QAV<lambda_9eb754bdeb4f4749f734e866e5cd8484>@@ABV?$allocator@V?$_Func_impl@U?$_Callable_obj@V<lambda_9eb754bdeb4f4749f734e866e5cd8484>@@$0A@@std@@V?$allocator@V?$_Func_class@XU_Nil@std@@U12@U12@U12@U12@U12@U12@@std@@@2@XU_Nil@2@U42@U42@U42@U42@U42@U42@@std@@@1@@Z ; std::_Func_impl<std::_Callable_obj<<lambda_9eb754bdeb4f4749f734e866e5cd8484>,0>,std::allocator<std::_Func_class<void,std::_Nil,std::_Nil,std::_Nil,std::_Nil,std::_Nil,std::_Nil,std::_Nil> >,void,std::_Nil,std::_Nil,std::_Nil,std::_Nil,std::_Nil,std::_Nil,std::_Nil>::_Func_impl<std::_Callable_obj<<lambda_9eb754bdeb4f4749f734e866e5cd8484>,0>,std::allocator<std::_Func_class<void,std::_Nil,std::_Nil,std::_Nil,std::_Nil,std::_Nil,std::_Nil,std::_Nil> >,void,std::_Nil,std::_Nil,std::_Nil,std::_Nil,std::_Nil,std::_Nil,std::_Nil>
PUBLIC	?_Copy@?$_Func_impl@U?$_Callable_obj@V<lambda_9eb754bdeb4f4749f734e866e5cd8484>@@$0A@@std@@V?$allocator@V?$_Func_class@XU_Nil@std@@U12@U12@U12@U12@U12@U12@@std@@@2@XU_Nil@2@U42@U42@U42@U42@U42@U42@@std@@UAEPAV?$_Func_base@XU_Nil@std@@U12@U12@U12@U12@U12@U12@@2@PAX@Z ; std::_Func_impl<std::_Callable_obj<<lambda_9eb754bdeb4f4749f734e866e5cd8484>,0>,std::allocator<std::_Func_class<void,std::_Nil,std::_Nil,std::_Nil,std::_Nil,std::_Nil,std::_Nil,std::_Nil> >,void,std::_Nil,std::_Nil,std::_Nil,std::_Nil,std::_Nil,std::_Nil,std::_Nil>::_Copy
PUBLIC	?_Move@?$_Func_impl@U?$_Callable_obj@V<lambda_9eb754bdeb4f4749f734e866e5cd8484>@@$0A@@std@@V?$allocator@V?$_Func_class@XU_Nil@std@@U12@U12@U12@U12@U12@U12@@std@@@2@XU_Nil@2@U42@U42@U42@U42@U42@U42@@std@@UAEPAV?$_Func_base@XU_Nil@std@@U12@U12@U12@U12@U12@U12@@2@PAX@Z ; std::_Func_impl<std::_Callable_obj<<lambda_9eb754bdeb4f4749f734e866e5cd8484>,0>,std::allocator<std::_Func_class<void,std::_Nil,std::_Nil,std::_Nil,std::_Nil,std::_Nil,std::_Nil,std::_Nil> >,void,std::_Nil,std::_Nil,std::_Nil,std::_Nil,std::_Nil,std::_Nil,std::_Nil>::_Move
PUBLIC	??1?$_Func_impl@U?$_Callable_obj@V<lambda_9eb754bdeb4f4749f734e866e5cd8484>@@$0A@@std@@V?$allocator@V?$_Func_class@XU_Nil@std@@U12@U12@U12@U12@U12@U12@@std@@@2@XU_Nil@2@U42@U42@U42@U42@U42@U42@@std@@UAE@XZ ; std::_Func_impl<std::_Callable_obj<<lambda_9eb754bdeb4f4749f734e866e5cd8484>,0>,std::allocator<std::_Func_class<void,std::_Nil,std::_Nil,std::_Nil,std::_Nil,std::_Nil,std::_Nil,std::_Nil> >,void,std::_Nil,std::_Nil,std::_Nil,std::_Nil,std::_Nil,std::_Nil,std::_Nil>::~_Func_impl<std::_Callable_obj<<lambda_9eb754bdeb4f4749f734e866e5cd8484>,0>,std::allocator<std::_Func_class<void,std::_Nil,std::_Nil,std::_Nil,std::_Nil,std::_Nil,std::_Nil,std::_Nil> >,void,std::_Nil,std::_Nil,std::_Nil,std::_Nil,std::_Nil,std::_Nil,std::_Nil>
PUBLIC	?_Do_call@?$_Func_impl@U?$_Callable_obj@V<lambda_9eb754bdeb4f4749f734e866e5cd8484>@@$0A@@std@@V?$allocator@V?$_Func_class@XU_Nil@std@@U12@U12@U12@U12@U12@U12@@std@@@2@XU_Nil@2@U42@U42@U42@U42@U42@U42@@std@@UAEXXZ ; std::_Func_impl<std::_Callable_obj<<lambda_9eb754bdeb4f4749f734e866e5cd8484>,0>,std::allocator<std::_Func_class<void,std::_Nil,std::_Nil,std::_Nil,std::_Nil,std::_Nil,std::_Nil,std::_Nil> >,void,std::_Nil,std::_Nil,std::_Nil,std::_Nil,std::_Nil,std::_Nil,std::_Nil>::_Do_call
PUBLIC	?_Target_type@?$_Func_impl@U?$_Callable_obj@V<lambda_9eb754bdeb4f4749f734e866e5cd8484>@@$0A@@std@@V?$allocator@V?$_Func_class@XU_Nil@std@@U12@U12@U12@U12@U12@U12@@std@@@2@XU_Nil@2@U42@U42@U42@U42@U42@U42@@std@@UBEABVtype_info@@XZ ; std::_Func_impl<std::_Callable_obj<<lambda_9eb754bdeb4f4749f734e866e5cd8484>,0>,std::allocator<std::_Func_class<void,std::_Nil,std::_Nil,std::_Nil,std::_Nil,std::_Nil,std::_Nil,std::_Nil> >,void,std::_Nil,std::_Nil,std::_Nil,std::_Nil,std::_Nil,std::_Nil,std::_Nil>::_Target_type
PUBLIC	?_Get@?$_Func_impl@U?$_Callable_obj@V<lambda_9eb754bdeb4f4749f734e866e5cd8484>@@$0A@@std@@V?$allocator@V?$_Func_class@XU_Nil@std@@U12@U12@U12@U12@U12@U12@@std@@@2@XU_Nil@2@U42@U42@U42@U42@U42@U42@@std@@EBEPBXXZ ; std::_Func_impl<std::_Callable_obj<<lambda_9eb754bdeb4f4749f734e866e5cd8484>,0>,std::allocator<std::_Func_class<void,std::_Nil,std::_Nil,std::_Nil,std::_Nil,std::_Nil,std::_Nil,std::_Nil> >,void,std::_Nil,std::_Nil,std::_Nil,std::_Nil,std::_Nil,std::_Nil,std::_Nil>::_Get
PUBLIC	?_Delete_this@?$_Func_impl@U?$_Callable_obj@V<lambda_9eb754bdeb4f4749f734e866e5cd8484>@@$0A@@std@@V?$allocator@V?$_Func_class@XU_Nil@std@@U12@U12@U12@U12@U12@U12@@std@@@2@XU_Nil@2@U42@U42@U42@U42@U42@U42@@std@@EAEX_N@Z ; std::_Func_impl<std::_Callable_obj<<lambda_9eb754bdeb4f4749f734e866e5cd8484>,0>,std::allocator<std::_Func_class<void,std::_Nil,std::_Nil,std::_Nil,std::_Nil,std::_Nil,std::_Nil,std::_Nil> >,void,std::_Nil,std::_Nil,std::_Nil,std::_Nil,std::_Nil,std::_Nil,std::_Nil>::_Delete_this
PUBLIC	??0?$allocator@V?$_Func_impl@U?$_Callable_obj@V<lambda_9eb754bdeb4f4749f734e866e5cd8484>@@$0A@@std@@V?$allocator@V?$_Func_class@XU_Nil@std@@U12@U12@U12@U12@U12@U12@@std@@@2@XU_Nil@2@U42@U42@U42@U42@U42@U42@@std@@@std@@QAE@XZ ; std::allocator<std::_Func_impl<std::_Callable_obj<<lambda_9eb754bdeb4f4749f734e866e5cd8484>,0>,std::allocator<std::_Func_class<void,std::_Nil,std::_Nil,std::_Nil,std::_Nil,std::_Nil,std::_Nil,std::_Nil> >,void,std::_Nil,std::_Nil,std::_Nil,std::_Nil,std::_Nil,std::_Nil,std::_Nil> >::allocator<std::_Func_impl<std::_Callable_obj<<lambda_9eb754bdeb4f4749f734e866e5cd8484>,0>,std::allocator<std::_Func_class<void,std::_Nil,std::_Nil,std::_Nil,std::_Nil,std::_Nil,std::_Nil,std::_Nil> >,void,std::_Nil,std::_Nil,std::_Nil,std::_Nil,std::_Nil,std::_Nil,std::_Nil> >
PUBLIC	??0?$allocator@V?$_Func_impl@U?$_Callable_obj@V<lambda_9eb754bdeb4f4749f734e866e5cd8484>@@$0A@@std@@V?$allocator@V?$_Func_class@XU_Nil@std@@U12@U12@U12@U12@U12@U12@@std@@@2@XU_Nil@2@U42@U42@U42@U42@U42@U42@@std@@@std@@QAE@ABV01@@Z ; std::allocator<std::_Func_impl<std::_Callable_obj<<lambda_9eb754bdeb4f4749f734e866e5cd8484>,0>,std::allocator<std::_Func_class<void,std::_Nil,std::_Nil,std::_Nil,std::_Nil,std::_Nil,std::_Nil,std::_Nil> >,void,std::_Nil,std::_Nil,std::_Nil,std::_Nil,std::_Nil,std::_Nil,std::_Nil> >::allocator<std::_Func_impl<std::_Callable_obj<<lambda_9eb754bdeb4f4749f734e866e5cd8484>,0>,std::allocator<std::_Func_class<void,std::_Nil,std::_Nil,std::_Nil,std::_Nil,std::_Nil,std::_Nil,std::_Nil> >,void,std::_Nil,std::_Nil,std::_Nil,std::_Nil,std::_Nil,std::_Nil,std::_Nil> >
PUBLIC	?deallocate@?$allocator@V?$_Func_impl@U?$_Callable_obj@V<lambda_9eb754bdeb4f4749f734e866e5cd8484>@@$0A@@std@@V?$allocator@V?$_Func_class@XU_Nil@std@@U12@U12@U12@U12@U12@U12@@std@@@2@XU_Nil@2@U42@U42@U42@U42@U42@U42@@std@@@std@@QAEXPAV?$_Func_impl@U?$_Callable_obj@V<lambda_9eb754bdeb4f4749f734e866e5cd8484>@@$0A@@std@@V?$allocator@V?$_Func_class@XU_Nil@std@@U12@U12@U12@U12@U12@U12@@std@@@2@XU_Nil@2@U42@U42@U42@U42@U42@U42@@2@I@Z ; std::allocator<std::_Func_impl<std::_Callable_obj<<lambda_9eb754bdeb4f4749f734e866e5cd8484>,0>,std::allocator<std::_Func_class<void,std::_Nil,std::_Nil,std::_Nil,std::_Nil,std::_Nil,std::_Nil,std::_Nil> >,void,std::_Nil,std::_Nil,std::_Nil,std::_Nil,std::_Nil,std::_Nil,std::_Nil> >::deallocate
PUBLIC	?allocate@?$allocator@V?$_Func_impl@U?$_Callable_obj@V<lambda_9eb754bdeb4f4749f734e866e5cd8484>@@$0A@@std@@V?$allocator@V?$_Func_class@XU_Nil@std@@U12@U12@U12@U12@U12@U12@@std@@@2@XU_Nil@2@U42@U42@U42@U42@U42@U42@@std@@@std@@QAEPAV?$_Func_impl@U?$_Callable_obj@V<lambda_9eb754bdeb4f4749f734e866e5cd8484>@@$0A@@std@@V?$allocator@V?$_Func_class@XU_Nil@std@@U12@U12@U12@U12@U12@U12@@std@@@2@XU_Nil@2@U42@U42@U42@U42@U42@U42@@2@I@Z ; std::allocator<std::_Func_impl<std::_Callable_obj<<lambda_9eb754bdeb4f4749f734e866e5cd8484>,0>,std::allocator<std::_Func_class<void,std::_Nil,std::_Nil,std::_Nil,std::_Nil,std::_Nil,std::_Nil,std::_Nil> >,void,std::_Nil,std::_Nil,std::_Nil,std::_Nil,std::_Nil,std::_Nil,std::_Nil> >::allocate
PUBLIC	??_G?$_Func_impl@U?$_Callable_obj@V<lambda_9eb754bdeb4f4749f734e866e5cd8484>@@$0A@@std@@V?$allocator@V?$_Func_class@XU_Nil@std@@U12@U12@U12@U12@U12@U12@@std@@@2@XU_Nil@2@U42@U42@U42@U42@U42@U42@@std@@UAEPAXI@Z ; std::_Func_impl<std::_Callable_obj<<lambda_9eb754bdeb4f4749f734e866e5cd8484>,0>,std::allocator<std::_Func_class<void,std::_Nil,std::_Nil,std::_Nil,std::_Nil,std::_Nil,std::_Nil,std::_Nil> >,void,std::_Nil,std::_Nil,std::_Nil,std::_Nil,std::_Nil,std::_Nil,std::_Nil>::`scalar deleting destructor'
PUBLIC	??$?0V?$_Func_class@XU_Nil@std@@U12@U12@U12@U12@U12@U12@@std@@@?$allocator@V?$_Func_impl@U?$_Callable_obj@V<lambda_9eb754bdeb4f4749f734e866e5cd8484>@@$0A@@std@@V?$allocator@V?$_Func_class@XU_Nil@std@@U12@U12@U12@U12@U12@U12@@std@@@2@XU_Nil@2@U42@U42@U42@U42@U42@U42@@std@@@std@@QAE@ABV?$allocator@V?$_Func_class@XU_Nil@std@@U12@U12@U12@U12@U12@U12@@std@@@1@@Z ; std::allocator<std::_Func_impl<std::_Callable_obj<<lambda_9eb754bdeb4f4749f734e866e5cd8484>,0>,std::allocator<std::_Func_class<void,std::_Nil,std::_Nil,std::_Nil,std::_Nil,std::_Nil,std::_Nil,std::_Nil> >,void,std::_Nil,std::_Nil,std::_Nil,std::_Nil,std::_Nil,std::_Nil,std::_Nil> >::allocator<std::_Func_impl<std::_Callable_obj<<lambda_9eb754bdeb4f4749f734e866e5cd8484>,0>,std::allocator<std::_Func_class<void,std::_Nil,std::_Nil,std::_Nil,std::_Nil,std::_Nil,std::_Nil,std::_Nil> >,void,std::_Nil,std::_Nil,std::_Nil,std::_Nil,std::_Nil,std::_Nil,std::_Nil> ><std::_Func_class<void,std::_Nil,std::_Nil,std::_Nil,std::_Nil,std::_Nil,std::_Nil,std::_Nil> >
PUBLIC	?_Get@?$_Callable_base@V<lambda_5d8c5ab464462ebb691e185ac4dda097>@@$0A@@std@@QBEABV<lambda_5d8c5ab464462ebb691e185ac4dda097>@@XZ ; std::_Callable_base<<lambda_5d8c5ab464462ebb691e185ac4dda097>,0>::_Get
PUBLIC	?_Get@?$_Callable_base@V<lambda_5d8c5ab464462ebb691e185ac4dda097>@@$0A@@std@@QAEAAV<lambda_5d8c5ab464462ebb691e185ac4dda097>@@XZ ; std::_Callable_base<<lambda_5d8c5ab464462ebb691e185ac4dda097>,0>::_Get
PUBLIC	??0?$_Callable_obj@V<lambda_5d8c5ab464462ebb691e185ac4dda097>@@$0A@@std@@QAE@AAU01@@Z ; std::_Callable_obj<<lambda_5d8c5ab464462ebb691e185ac4dda097>,0>::_Callable_obj<<lambda_5d8c5ab464462ebb691e185ac4dda097>,0>
PUBLIC	??0?$_Callable_obj@V<lambda_5d8c5ab464462ebb691e185ac4dda097>@@$0A@@std@@QAE@$$QAU01@@Z ; std::_Callable_obj<<lambda_5d8c5ab464462ebb691e185ac4dda097>,0>::_Callable_obj<<lambda_5d8c5ab464462ebb691e185ac4dda097>,0>
PUBLIC	??0?$_Func_impl@U?$_Callable_obj@V<lambda_5d8c5ab464462ebb691e185ac4dda097>@@$0A@@std@@V?$allocator@V?$_Func_class@XU_Nil@std@@U12@U12@U12@U12@U12@U12@@std@@@2@XU_Nil@2@U42@U42@U42@U42@U42@U42@@std@@QAE@$$QAV<lambda_5d8c5ab464462ebb691e185ac4dda097>@@ABV?$allocator@V?$_Func_impl@U?$_Callable_obj@V<lambda_5d8c5ab464462ebb691e185ac4dda097>@@$0A@@std@@V?$allocator@V?$_Func_class@XU_Nil@std@@U12@U12@U12@U12@U12@U12@@std@@@2@XU_Nil@2@U42@U42@U42@U42@U42@U42@@std@@@1@@Z ; std::_Func_impl<std::_Callable_obj<<lambda_5d8c5ab464462ebb691e185ac4dda097>,0>,std::allocator<std::_Func_class<void,std::_Nil,std::_Nil,std::_Nil,std::_Nil,std::_Nil,std::_Nil,std::_Nil> >,void,std::_Nil,std::_Nil,std::_Nil,std::_Nil,std::_Nil,std::_Nil,std::_Nil>::_Func_impl<std::_Callable_obj<<lambda_5d8c5ab464462ebb691e185ac4dda097>,0>,std::allocator<std::_Func_class<void,std::_Nil,std::_Nil,std::_Nil,std::_Nil,std::_Nil,std::_Nil,std::_Nil> >,void,std::_Nil,std::_Nil,std::_Nil,std::_Nil,std::_Nil,std::_Nil,std::_Nil>
PUBLIC	?_Copy@?$_Func_impl@U?$_Callable_obj@V<lambda_5d8c5ab464462ebb691e185ac4dda097>@@$0A@@std@@V?$allocator@V?$_Func_class@XU_Nil@std@@U12@U12@U12@U12@U12@U12@@std@@@2@XU_Nil@2@U42@U42@U42@U42@U42@U42@@std@@UAEPAV?$_Func_base@XU_Nil@std@@U12@U12@U12@U12@U12@U12@@2@PAX@Z ; std::_Func_impl<std::_Callable_obj<<lambda_5d8c5ab464462ebb691e185ac4dda097>,0>,std::allocator<std::_Func_class<void,std::_Nil,std::_Nil,std::_Nil,std::_Nil,std::_Nil,std::_Nil,std::_Nil> >,void,std::_Nil,std::_Nil,std::_Nil,std::_Nil,std::_Nil,std::_Nil,std::_Nil>::_Copy
PUBLIC	?_Move@?$_Func_impl@U?$_Callable_obj@V<lambda_5d8c5ab464462ebb691e185ac4dda097>@@$0A@@std@@V?$allocator@V?$_Func_class@XU_Nil@std@@U12@U12@U12@U12@U12@U12@@std@@@2@XU_Nil@2@U42@U42@U42@U42@U42@U42@@std@@UAEPAV?$_Func_base@XU_Nil@std@@U12@U12@U12@U12@U12@U12@@2@PAX@Z ; std::_Func_impl<std::_Callable_obj<<lambda_5d8c5ab464462ebb691e185ac4dda097>,0>,std::allocator<std::_Func_class<void,std::_Nil,std::_Nil,std::_Nil,std::_Nil,std::_Nil,std::_Nil,std::_Nil> >,void,std::_Nil,std::_Nil,std::_Nil,std::_Nil,std::_Nil,std::_Nil,std::_Nil>::_Move
PUBLIC	??1?$_Func_impl@U?$_Callable_obj@V<lambda_5d8c5ab464462ebb691e185ac4dda097>@@$0A@@std@@V?$allocator@V?$_Func_class@XU_Nil@std@@U12@U12@U12@U12@U12@U12@@std@@@2@XU_Nil@2@U42@U42@U42@U42@U42@U42@@std@@UAE@XZ ; std::_Func_impl<std::_Callable_obj<<lambda_5d8c5ab464462ebb691e185ac4dda097>,0>,std::allocator<std::_Func_class<void,std::_Nil,std::_Nil,std::_Nil,std::_Nil,std::_Nil,std::_Nil,std::_Nil> >,void,std::_Nil,std::_Nil,std::_Nil,std::_Nil,std::_Nil,std::_Nil,std::_Nil>::~_Func_impl<std::_Callable_obj<<lambda_5d8c5ab464462ebb691e185ac4dda097>,0>,std::allocator<std::_Func_class<void,std::_Nil,std::_Nil,std::_Nil,std::_Nil,std::_Nil,std::_Nil,std::_Nil> >,void,std::_Nil,std::_Nil,std::_Nil,std::_Nil,std::_Nil,std::_Nil,std::_Nil>
PUBLIC	?_Do_call@?$_Func_impl@U?$_Callable_obj@V<lambda_5d8c5ab464462ebb691e185ac4dda097>@@$0A@@std@@V?$allocator@V?$_Func_class@XU_Nil@std@@U12@U12@U12@U12@U12@U12@@std@@@2@XU_Nil@2@U42@U42@U42@U42@U42@U42@@std@@UAEXXZ ; std::_Func_impl<std::_Callable_obj<<lambda_5d8c5ab464462ebb691e185ac4dda097>,0>,std::allocator<std::_Func_class<void,std::_Nil,std::_Nil,std::_Nil,std::_Nil,std::_Nil,std::_Nil,std::_Nil> >,void,std::_Nil,std::_Nil,std::_Nil,std::_Nil,std::_Nil,std::_Nil,std::_Nil>::_Do_call
PUBLIC	?_Target_type@?$_Func_impl@U?$_Callable_obj@V<lambda_5d8c5ab464462ebb691e185ac4dda097>@@$0A@@std@@V?$allocator@V?$_Func_class@XU_Nil@std@@U12@U12@U12@U12@U12@U12@@std@@@2@XU_Nil@2@U42@U42@U42@U42@U42@U42@@std@@UBEABVtype_info@@XZ ; std::_Func_impl<std::_Callable_obj<<lambda_5d8c5ab464462ebb691e185ac4dda097>,0>,std::allocator<std::_Func_class<void,std::_Nil,std::_Nil,std::_Nil,std::_Nil,std::_Nil,std::_Nil,std::_Nil> >,void,std::_Nil,std::_Nil,std::_Nil,std::_Nil,std::_Nil,std::_Nil,std::_Nil>::_Target_type
PUBLIC	?_Get@?$_Func_impl@U?$_Callable_obj@V<lambda_5d8c5ab464462ebb691e185ac4dda097>@@$0A@@std@@V?$allocator@V?$_Func_class@XU_Nil@std@@U12@U12@U12@U12@U12@U12@@std@@@2@XU_Nil@2@U42@U42@U42@U42@U42@U42@@std@@EBEPBXXZ ; std::_Func_impl<std::_Callable_obj<<lambda_5d8c5ab464462ebb691e185ac4dda097>,0>,std::allocator<std::_Func_class<void,std::_Nil,std::_Nil,std::_Nil,std::_Nil,std::_Nil,std::_Nil,std::_Nil> >,void,std::_Nil,std::_Nil,std::_Nil,std::_Nil,std::_Nil,std::_Nil,std::_Nil>::_Get
PUBLIC	?_Delete_this@?$_Func_impl@U?$_Callable_obj@V<lambda_5d8c5ab464462ebb691e185ac4dda097>@@$0A@@std@@V?$allocator@V?$_Func_class@XU_Nil@std@@U12@U12@U12@U12@U12@U12@@std@@@2@XU_Nil@2@U42@U42@U42@U42@U42@U42@@std@@EAEX_N@Z ; std::_Func_impl<std::_Callable_obj<<lambda_5d8c5ab464462ebb691e185ac4dda097>,0>,std::allocator<std::_Func_class<void,std::_Nil,std::_Nil,std::_Nil,std::_Nil,std::_Nil,std::_Nil,std::_Nil> >,void,std::_Nil,std::_Nil,std::_Nil,std::_Nil,std::_Nil,std::_Nil,std::_Nil>::_Delete_this
PUBLIC	??0?$allocator@V?$_Func_impl@U?$_Callable_obj@V<lambda_5d8c5ab464462ebb691e185ac4dda097>@@$0A@@std@@V?$allocator@V?$_Func_class@XU_Nil@std@@U12@U12@U12@U12@U12@U12@@std@@@2@XU_Nil@2@U42@U42@U42@U42@U42@U42@@std@@@std@@QAE@XZ ; std::allocator<std::_Func_impl<std::_Callable_obj<<lambda_5d8c5ab464462ebb691e185ac4dda097>,0>,std::allocator<std::_Func_class<void,std::_Nil,std::_Nil,std::_Nil,std::_Nil,std::_Nil,std::_Nil,std::_Nil> >,void,std::_Nil,std::_Nil,std::_Nil,std::_Nil,std::_Nil,std::_Nil,std::_Nil> >::allocator<std::_Func_impl<std::_Callable_obj<<lambda_5d8c5ab464462ebb691e185ac4dda097>,0>,std::allocator<std::_Func_class<void,std::_Nil,std::_Nil,std::_Nil,std::_Nil,std::_Nil,std::_Nil,std::_Nil> >,void,std::_Nil,std::_Nil,std::_Nil,std::_Nil,std::_Nil,std::_Nil,std::_Nil> >
PUBLIC	??0?$allocator@V?$_Func_impl@U?$_Callable_obj@V<lambda_5d8c5ab464462ebb691e185ac4dda097>@@$0A@@std@@V?$allocator@V?$_Func_class@XU_Nil@std@@U12@U12@U12@U12@U12@U12@@std@@@2@XU_Nil@2@U42@U42@U42@U42@U42@U42@@std@@@std@@QAE@ABV01@@Z ; std::allocator<std::_Func_impl<std::_Callable_obj<<lambda_5d8c5ab464462ebb691e185ac4dda097>,0>,std::allocator<std::_Func_class<void,std::_Nil,std::_Nil,std::_Nil,std::_Nil,std::_Nil,std::_Nil,std::_Nil> >,void,std::_Nil,std::_Nil,std::_Nil,std::_Nil,std::_Nil,std::_Nil,std::_Nil> >::allocator<std::_Func_impl<std::_Callable_obj<<lambda_5d8c5ab464462ebb691e185ac4dda097>,0>,std::allocator<std::_Func_class<void,std::_Nil,std::_Nil,std::_Nil,std::_Nil,std::_Nil,std::_Nil,std::_Nil> >,void,std::_Nil,std::_Nil,std::_Nil,std::_Nil,std::_Nil,std::_Nil,std::_Nil> >
PUBLIC	?deallocate@?$allocator@V?$_Func_impl@U?$_Callable_obj@V<lambda_5d8c5ab464462ebb691e185ac4dda097>@@$0A@@std@@V?$allocator@V?$_Func_class@XU_Nil@std@@U12@U12@U12@U12@U12@U12@@std@@@2@XU_Nil@2@U42@U42@U42@U42@U42@U42@@std@@@std@@QAEXPAV?$_Func_impl@U?$_Callable_obj@V<lambda_5d8c5ab464462ebb691e185ac4dda097>@@$0A@@std@@V?$allocator@V?$_Func_class@XU_Nil@std@@U12@U12@U12@U12@U12@U12@@std@@@2@XU_Nil@2@U42@U42@U42@U42@U42@U42@@2@I@Z ; std::allocator<std::_Func_impl<std::_Callable_obj<<lambda_5d8c5ab464462ebb691e185ac4dda097>,0>,std::allocator<std::_Func_class<void,std::_Nil,std::_Nil,std::_Nil,std::_Nil,std::_Nil,std::_Nil,std::_Nil> >,void,std::_Nil,std::_Nil,std::_Nil,std::_Nil,std::_Nil,std::_Nil,std::_Nil> >::deallocate
PUBLIC	?allocate@?$allocator@V?$_Func_impl@U?$_Callable_obj@V<lambda_5d8c5ab464462ebb691e185ac4dda097>@@$0A@@std@@V?$allocator@V?$_Func_class@XU_Nil@std@@U12@U12@U12@U12@U12@U12@@std@@@2@XU_Nil@2@U42@U42@U42@U42@U42@U42@@std@@@std@@QAEPAV?$_Func_impl@U?$_Callable_obj@V<lambda_5d8c5ab464462ebb691e185ac4dda097>@@$0A@@std@@V?$allocator@V?$_Func_class@XU_Nil@std@@U12@U12@U12@U12@U12@U12@@std@@@2@XU_Nil@2@U42@U42@U42@U42@U42@U42@@2@I@Z ; std::allocator<std::_Func_impl<std::_Callable_obj<<lambda_5d8c5ab464462ebb691e185ac4dda097>,0>,std::allocator<std::_Func_class<void,std::_Nil,std::_Nil,std::_Nil,std::_Nil,std::_Nil,std::_Nil,std::_Nil> >,void,std::_Nil,std::_Nil,std::_Nil,std::_Nil,std::_Nil,std::_Nil,std::_Nil> >::allocate
PUBLIC	??_G?$_Func_impl@U?$_Callable_obj@V<lambda_5d8c5ab464462ebb691e185ac4dda097>@@$0A@@std@@V?$allocator@V?$_Func_class@XU_Nil@std@@U12@U12@U12@U12@U12@U12@@std@@@2@XU_Nil@2@U42@U42@U42@U42@U42@U42@@std@@UAEPAXI@Z ; std::_Func_impl<std::_Callable_obj<<lambda_5d8c5ab464462ebb691e185ac4dda097>,0>,std::allocator<std::_Func_class<void,std::_Nil,std::_Nil,std::_Nil,std::_Nil,std::_Nil,std::_Nil,std::_Nil> >,void,std::_Nil,std::_Nil,std::_Nil,std::_Nil,std::_Nil,std::_Nil,std::_Nil>::`scalar deleting destructor'
PUBLIC	??$?0V?$_Func_class@XU_Nil@std@@U12@U12@U12@U12@U12@U12@@std@@@?$allocator@V?$_Func_impl@U?$_Callable_obj@V<lambda_5d8c5ab464462ebb691e185ac4dda097>@@$0A@@std@@V?$allocator@V?$_Func_class@XU_Nil@std@@U12@U12@U12@U12@U12@U12@@std@@@2@XU_Nil@2@U42@U42@U42@U42@U42@U42@@std@@@std@@QAE@ABV?$allocator@V?$_Func_class@XU_Nil@std@@U12@U12@U12@U12@U12@U12@@std@@@1@@Z ; std::allocator<std::_Func_impl<std::_Callable_obj<<lambda_5d8c5ab464462ebb691e185ac4dda097>,0>,std::allocator<std::_Func_class<void,std::_Nil,std::_Nil,std::_Nil,std::_Nil,std::_Nil,std::_Nil,std::_Nil> >,void,std::_Nil,std::_Nil,std::_Nil,std::_Nil,std::_Nil,std::_Nil,std::_Nil> >::allocator<std::_Func_impl<std::_Callable_obj<<lambda_5d8c5ab464462ebb691e185ac4dda097>,0>,std::allocator<std::_Func_class<void,std::_Nil,std::_Nil,std::_Nil,std::_Nil,std::_Nil,std::_Nil,std::_Nil> >,void,std::_Nil,std::_Nil,std::_Nil,std::_Nil,std::_Nil,std::_Nil,std::_Nil> ><std::_Func_class<void,std::_Nil,std::_Nil,std::_Nil,std::_Nil,std::_Nil,std::_Nil,std::_Nil> >
PUBLIC	??$?0V<lambda_9eb754bdeb4f4749f734e866e5cd8484>@@@?$_Callable_obj@V<lambda_9eb754bdeb4f4749f734e866e5cd8484>@@$0A@@std@@QAE@$$QAV<lambda_9eb754bdeb4f4749f734e866e5cd8484>@@@Z ; std::_Callable_obj<<lambda_9eb754bdeb4f4749f734e866e5cd8484>,0>::_Callable_obj<<lambda_9eb754bdeb4f4749f734e866e5cd8484>,0><<lambda_9eb754bdeb4f4749f734e866e5cd8484> >
PUBLIC	??$?0AAU?$_Callable_obj@V<lambda_9eb754bdeb4f4749f734e866e5cd8484>@@$0A@@std@@@?$_Func_impl@U?$_Callable_obj@V<lambda_9eb754bdeb4f4749f734e866e5cd8484>@@$0A@@std@@V?$allocator@V?$_Func_class@XU_Nil@std@@U12@U12@U12@U12@U12@U12@@std@@@2@XU_Nil@2@U42@U42@U42@U42@U42@U42@@std@@QAE@AAU?$_Callable_obj@V<lambda_9eb754bdeb4f4749f734e866e5cd8484>@@$0A@@1@ABV?$allocator@V?$_Func_impl@U?$_Callable_obj@V<lambda_9eb754bdeb4f4749f734e866e5cd8484>@@$0A@@std@@V?$allocator@V?$_Func_class@XU_Nil@std@@U12@U12@U12@U12@U12@U12@@std@@@2@XU_Nil@2@U42@U42@U42@U42@U42@U42@@std@@@1@@Z ; std::_Func_impl<std::_Callable_obj<<lambda_9eb754bdeb4f4749f734e866e5cd8484>,0>,std::allocator<std::_Func_class<void,std::_Nil,std::_Nil,std::_Nil,std::_Nil,std::_Nil,std::_Nil,std::_Nil> >,void,std::_Nil,std::_Nil,std::_Nil,std::_Nil,std::_Nil,std::_Nil,std::_Nil>::_Func_impl<std::_Callable_obj<<lambda_9eb754bdeb4f4749f734e866e5cd8484>,0>,std::allocator<std::_Func_class<void,std::_Nil,std::_Nil,std::_Nil,std::_Nil,std::_Nil,std::_Nil,std::_Nil> >,void,std::_Nil,std::_Nil,std::_Nil,std::_Nil,std::_Nil,std::_Nil,std::_Nil><std::_Callable_obj<<lambda_9eb754bdeb4f4749f734e866e5cd8484>,0> &>
PUBLIC	??$move@AAU?$_Callable_obj@V<lambda_9eb754bdeb4f4749f734e866e5cd8484>@@$0A@@std@@@std@@YA$$QAU?$_Callable_obj@V<lambda_9eb754bdeb4f4749f734e866e5cd8484>@@$0A@@0@AAU10@@Z ; std::move<std::_Callable_obj<<lambda_9eb754bdeb4f4749f734e866e5cd8484>,0> &>
PUBLIC	??$?0U?$_Callable_obj@V<lambda_9eb754bdeb4f4749f734e866e5cd8484>@@$0A@@std@@@?$_Func_impl@U?$_Callable_obj@V<lambda_9eb754bdeb4f4749f734e866e5cd8484>@@$0A@@std@@V?$allocator@V?$_Func_class@XU_Nil@std@@U12@U12@U12@U12@U12@U12@@std@@@2@XU_Nil@2@U42@U42@U42@U42@U42@U42@@std@@QAE@$$QAU?$_Callable_obj@V<lambda_9eb754bdeb4f4749f734e866e5cd8484>@@$0A@@1@ABV?$allocator@V?$_Func_impl@U?$_Callable_obj@V<lambda_9eb754bdeb4f4749f734e866e5cd8484>@@$0A@@std@@V?$allocator@V?$_Func_class@XU_Nil@std@@U12@U12@U12@U12@U12@U12@@std@@@2@XU_Nil@2@U42@U42@U42@U42@U42@U42@@std@@@1@@Z ; std::_Func_impl<std::_Callable_obj<<lambda_9eb754bdeb4f4749f734e866e5cd8484>,0>,std::allocator<std::_Func_class<void,std::_Nil,std::_Nil,std::_Nil,std::_Nil,std::_Nil,std::_Nil,std::_Nil> >,void,std::_Nil,std::_Nil,std::_Nil,std::_Nil,std::_Nil,std::_Nil,std::_Nil>::_Func_impl<std::_Callable_obj<<lambda_9eb754bdeb4f4749f734e866e5cd8484>,0>,std::allocator<std::_Func_class<void,std::_Nil,std::_Nil,std::_Nil,std::_Nil,std::_Nil,std::_Nil,std::_Nil> >,void,std::_Nil,std::_Nil,std::_Nil,std::_Nil,std::_Nil,std::_Nil,std::_Nil><std::_Callable_obj<<lambda_9eb754bdeb4f4749f734e866e5cd8484>,0> >
PUBLIC	??$_ApplyX@X@?$_Callable_obj@V<lambda_9eb754bdeb4f4749f734e866e5cd8484>@@$0A@@std@@QAEXXZ ; std::_Callable_obj<<lambda_9eb754bdeb4f4749f734e866e5cd8484>,0>::_ApplyX<void>
PUBLIC	??$destroy@V?$_Func_impl@U?$_Callable_obj@V<lambda_9eb754bdeb4f4749f734e866e5cd8484>@@$0A@@std@@V?$allocator@V?$_Func_class@XU_Nil@std@@U12@U12@U12@U12@U12@U12@@std@@@2@XU_Nil@2@U42@U42@U42@U42@U42@U42@@std@@@?$allocator@V?$_Func_impl@U?$_Callable_obj@V<lambda_9eb754bdeb4f4749f734e866e5cd8484>@@$0A@@std@@V?$allocator@V?$_Func_class@XU_Nil@std@@U12@U12@U12@U12@U12@U12@@std@@@2@XU_Nil@2@U42@U42@U42@U42@U42@U42@@std@@@std@@QAEXPAV?$_Func_impl@U?$_Callable_obj@V<lambda_9eb754bdeb4f4749f734e866e5cd8484>@@$0A@@std@@V?$allocator@V?$_Func_class@XU_Nil@std@@U12@U12@U12@U12@U12@U12@@std@@@2@XU_Nil@2@U42@U42@U42@U42@U42@U42@@1@@Z ; std::allocator<std::_Func_impl<std::_Callable_obj<<lambda_9eb754bdeb4f4749f734e866e5cd8484>,0>,std::allocator<std::_Func_class<void,std::_Nil,std::_Nil,std::_Nil,std::_Nil,std::_Nil,std::_Nil,std::_Nil> >,void,std::_Nil,std::_Nil,std::_Nil,std::_Nil,std::_Nil,std::_Nil,std::_Nil> >::destroy<std::_Func_impl<std::_Callable_obj<<lambda_9eb754bdeb4f4749f734e866e5cd8484>,0>,std::allocator<std::_Func_class<void,std::_Nil,std::_Nil,std::_Nil,std::_Nil,std::_Nil,std::_Nil,std::_Nil> >,void,std::_Nil,std::_Nil,std::_Nil,std::_Nil,std::_Nil,std::_Nil,std::_Nil> >
PUBLIC	??$_Allocate@V?$_Func_impl@U?$_Callable_obj@V<lambda_9eb754bdeb4f4749f734e866e5cd8484>@@$0A@@std@@V?$allocator@V?$_Func_class@XU_Nil@std@@U12@U12@U12@U12@U12@U12@@std@@@2@XU_Nil@2@U42@U42@U42@U42@U42@U42@@std@@@std@@YAPAV?$_Func_impl@U?$_Callable_obj@V<lambda_9eb754bdeb4f4749f734e866e5cd8484>@@$0A@@std@@V?$allocator@V?$_Func_class@XU_Nil@std@@U12@U12@U12@U12@U12@U12@@std@@@2@XU_Nil@2@U42@U42@U42@U42@U42@U42@@0@IPAV10@@Z ; std::_Allocate<std::_Func_impl<std::_Callable_obj<<lambda_9eb754bdeb4f4749f734e866e5cd8484>,0>,std::allocator<std::_Func_class<void,std::_Nil,std::_Nil,std::_Nil,std::_Nil,std::_Nil,std::_Nil,std::_Nil> >,void,std::_Nil,std::_Nil,std::_Nil,std::_Nil,std::_Nil,std::_Nil,std::_Nil> >
PUBLIC	??$?0V<lambda_5d8c5ab464462ebb691e185ac4dda097>@@@?$_Callable_obj@V<lambda_5d8c5ab464462ebb691e185ac4dda097>@@$0A@@std@@QAE@$$QAV<lambda_5d8c5ab464462ebb691e185ac4dda097>@@@Z ; std::_Callable_obj<<lambda_5d8c5ab464462ebb691e185ac4dda097>,0>::_Callable_obj<<lambda_5d8c5ab464462ebb691e185ac4dda097>,0><<lambda_5d8c5ab464462ebb691e185ac4dda097> >
PUBLIC	??$?0AAU?$_Callable_obj@V<lambda_5d8c5ab464462ebb691e185ac4dda097>@@$0A@@std@@@?$_Func_impl@U?$_Callable_obj@V<lambda_5d8c5ab464462ebb691e185ac4dda097>@@$0A@@std@@V?$allocator@V?$_Func_class@XU_Nil@std@@U12@U12@U12@U12@U12@U12@@std@@@2@XU_Nil@2@U42@U42@U42@U42@U42@U42@@std@@QAE@AAU?$_Callable_obj@V<lambda_5d8c5ab464462ebb691e185ac4dda097>@@$0A@@1@ABV?$allocator@V?$_Func_impl@U?$_Callable_obj@V<lambda_5d8c5ab464462ebb691e185ac4dda097>@@$0A@@std@@V?$allocator@V?$_Func_class@XU_Nil@std@@U12@U12@U12@U12@U12@U12@@std@@@2@XU_Nil@2@U42@U42@U42@U42@U42@U42@@std@@@1@@Z ; std::_Func_impl<std::_Callable_obj<<lambda_5d8c5ab464462ebb691e185ac4dda097>,0>,std::allocator<std::_Func_class<void,std::_Nil,std::_Nil,std::_Nil,std::_Nil,std::_Nil,std::_Nil,std::_Nil> >,void,std::_Nil,std::_Nil,std::_Nil,std::_Nil,std::_Nil,std::_Nil,std::_Nil>::_Func_impl<std::_Callable_obj<<lambda_5d8c5ab464462ebb691e185ac4dda097>,0>,std::allocator<std::_Func_class<void,std::_Nil,std::_Nil,std::_Nil,std::_Nil,std::_Nil,std::_Nil,std::_Nil> >,void,std::_Nil,std::_Nil,std::_Nil,std::_Nil,std::_Nil,std::_Nil,std::_Nil><std::_Callable_obj<<lambda_5d8c5ab464462ebb691e185ac4dda097>,0> &>
PUBLIC	??$move@AAU?$_Callable_obj@V<lambda_5d8c5ab464462ebb691e185ac4dda097>@@$0A@@std@@@std@@YA$$QAU?$_Callable_obj@V<lambda_5d8c5ab464462ebb691e185ac4dda097>@@$0A@@0@AAU10@@Z ; std::move<std::_Callable_obj<<lambda_5d8c5ab464462ebb691e185ac4dda097>,0> &>
PUBLIC	??$?0U?$_Callable_obj@V<lambda_5d8c5ab464462ebb691e185ac4dda097>@@$0A@@std@@@?$_Func_impl@U?$_Callable_obj@V<lambda_5d8c5ab464462ebb691e185ac4dda097>@@$0A@@std@@V?$allocator@V?$_Func_class@XU_Nil@std@@U12@U12@U12@U12@U12@U12@@std@@@2@XU_Nil@2@U42@U42@U42@U42@U42@U42@@std@@QAE@$$QAU?$_Callable_obj@V<lambda_5d8c5ab464462ebb691e185ac4dda097>@@$0A@@1@ABV?$allocator@V?$_Func_impl@U?$_Callable_obj@V<lambda_5d8c5ab464462ebb691e185ac4dda097>@@$0A@@std@@V?$allocator@V?$_Func_class@XU_Nil@std@@U12@U12@U12@U12@U12@U12@@std@@@2@XU_Nil@2@U42@U42@U42@U42@U42@U42@@std@@@1@@Z ; std::_Func_impl<std::_Callable_obj<<lambda_5d8c5ab464462ebb691e185ac4dda097>,0>,std::allocator<std::_Func_class<void,std::_Nil,std::_Nil,std::_Nil,std::_Nil,std::_Nil,std::_Nil,std::_Nil> >,void,std::_Nil,std::_Nil,std::_Nil,std::_Nil,std::_Nil,std::_Nil,std::_Nil>::_Func_impl<std::_Callable_obj<<lambda_5d8c5ab464462ebb691e185ac4dda097>,0>,std::allocator<std::_Func_class<void,std::_Nil,std::_Nil,std::_Nil,std::_Nil,std::_Nil,std::_Nil,std::_Nil> >,void,std::_Nil,std::_Nil,std::_Nil,std::_Nil,std::_Nil,std::_Nil,std::_Nil><std::_Callable_obj<<lambda_5d8c5ab464462ebb691e185ac4dda097>,0> >
PUBLIC	??$_ApplyX@X@?$_Callable_obj@V<lambda_5d8c5ab464462ebb691e185ac4dda097>@@$0A@@std@@QAEXXZ ; std::_Callable_obj<<lambda_5d8c5ab464462ebb691e185ac4dda097>,0>::_ApplyX<void>
PUBLIC	??$destroy@V?$_Func_impl@U?$_Callable_obj@V<lambda_5d8c5ab464462ebb691e185ac4dda097>@@$0A@@std@@V?$allocator@V?$_Func_class@XU_Nil@std@@U12@U12@U12@U12@U12@U12@@std@@@2@XU_Nil@2@U42@U42@U42@U42@U42@U42@@std@@@?$allocator@V?$_Func_impl@U?$_Callable_obj@V<lambda_5d8c5ab464462ebb691e185ac4dda097>@@$0A@@std@@V?$allocator@V?$_Func_class@XU_Nil@std@@U12@U12@U12@U12@U12@U12@@std@@@2@XU_Nil@2@U42@U42@U42@U42@U42@U42@@std@@@std@@QAEXPAV?$_Func_impl@U?$_Callable_obj@V<lambda_5d8c5ab464462ebb691e185ac4dda097>@@$0A@@std@@V?$allocator@V?$_Func_class@XU_Nil@std@@U12@U12@U12@U12@U12@U12@@std@@@2@XU_Nil@2@U42@U42@U42@U42@U42@U42@@1@@Z ; std::allocator<std::_Func_impl<std::_Callable_obj<<lambda_5d8c5ab464462ebb691e185ac4dda097>,0>,std::allocator<std::_Func_class<void,std::_Nil,std::_Nil,std::_Nil,std::_Nil,std::_Nil,std::_Nil,std::_Nil> >,void,std::_Nil,std::_Nil,std::_Nil,std::_Nil,std::_Nil,std::_Nil,std::_Nil> >::destroy<std::_Func_impl<std::_Callable_obj<<lambda_5d8c5ab464462ebb691e185ac4dda097>,0>,std::allocator<std::_Func_class<void,std::_Nil,std::_Nil,std::_Nil,std::_Nil,std::_Nil,std::_Nil,std::_Nil> >,void,std::_Nil,std::_Nil,std::_Nil,std::_Nil,std::_Nil,std::_Nil,std::_Nil> >
PUBLIC	??$_Allocate@V?$_Func_impl@U?$_Callable_obj@V<lambda_5d8c5ab464462ebb691e185ac4dda097>@@$0A@@std@@V?$allocator@V?$_Func_class@XU_Nil@std@@U12@U12@U12@U12@U12@U12@@std@@@2@XU_Nil@2@U42@U42@U42@U42@U42@U42@@std@@@std@@YAPAV?$_Func_impl@U?$_Callable_obj@V<lambda_5d8c5ab464462ebb691e185ac4dda097>@@$0A@@std@@V?$allocator@V?$_Func_class@XU_Nil@std@@U12@U12@U12@U12@U12@U12@@std@@@2@XU_Nil@2@U42@U42@U42@U42@U42@U42@@0@IPAV10@@Z ; std::_Allocate<std::_Func_impl<std::_Callable_obj<<lambda_5d8c5ab464462ebb691e185ac4dda097>,0>,std::allocator<std::_Func_class<void,std::_Nil,std::_Nil,std::_Nil,std::_Nil,std::_Nil,std::_Nil,std::_Nil> >,void,std::_Nil,std::_Nil,std::_Nil,std::_Nil,std::_Nil,std::_Nil,std::_Nil> >
PUBLIC	??$?0V<lambda_9eb754bdeb4f4749f734e866e5cd8484>@@@?$_Callable_base@V<lambda_9eb754bdeb4f4749f734e866e5cd8484>@@$0A@@std@@QAE@$$QAV<lambda_9eb754bdeb4f4749f734e866e5cd8484>@@@Z ; std::_Callable_base<<lambda_9eb754bdeb4f4749f734e866e5cd8484>,0>::_Callable_base<<lambda_9eb754bdeb4f4749f734e866e5cd8484>,0><<lambda_9eb754bdeb4f4749f734e866e5cd8484> >
PUBLIC	??$forward@AAU?$_Callable_obj@V<lambda_9eb754bdeb4f4749f734e866e5cd8484>@@$0A@@std@@@std@@YAAAU?$_Callable_obj@V<lambda_9eb754bdeb4f4749f734e866e5cd8484>@@$0A@@0@AAU10@@Z ; std::forward<std::_Callable_obj<<lambda_9eb754bdeb4f4749f734e866e5cd8484>,0> &>
PUBLIC	??$forward@U?$_Callable_obj@V<lambda_9eb754bdeb4f4749f734e866e5cd8484>@@$0A@@std@@@std@@YA$$QAU?$_Callable_obj@V<lambda_9eb754bdeb4f4749f734e866e5cd8484>@@$0A@@0@AAU10@@Z ; std::forward<std::_Callable_obj<<lambda_9eb754bdeb4f4749f734e866e5cd8484>,0> >
PUBLIC	??$?0V<lambda_5d8c5ab464462ebb691e185ac4dda097>@@@?$_Callable_base@V<lambda_5d8c5ab464462ebb691e185ac4dda097>@@$0A@@std@@QAE@$$QAV<lambda_5d8c5ab464462ebb691e185ac4dda097>@@@Z ; std::_Callable_base<<lambda_5d8c5ab464462ebb691e185ac4dda097>,0>::_Callable_base<<lambda_5d8c5ab464462ebb691e185ac4dda097>,0><<lambda_5d8c5ab464462ebb691e185ac4dda097> >
PUBLIC	??$forward@AAU?$_Callable_obj@V<lambda_5d8c5ab464462ebb691e185ac4dda097>@@$0A@@std@@@std@@YAAAU?$_Callable_obj@V<lambda_5d8c5ab464462ebb691e185ac4dda097>@@$0A@@0@AAU10@@Z ; std::forward<std::_Callable_obj<<lambda_5d8c5ab464462ebb691e185ac4dda097>,0> &>
PUBLIC	??$forward@U?$_Callable_obj@V<lambda_5d8c5ab464462ebb691e185ac4dda097>@@$0A@@std@@@std@@YA$$QAU?$_Callable_obj@V<lambda_5d8c5ab464462ebb691e185ac4dda097>@@$0A@@0@AAU10@@Z ; std::forward<std::_Callable_obj<<lambda_5d8c5ab464462ebb691e185ac4dda097>,0> >
PUBLIC	??$?0AAV<lambda_9eb754bdeb4f4749f734e866e5cd8484>@@@?$_Callable_base@V<lambda_9eb754bdeb4f4749f734e866e5cd8484>@@$0A@@std@@QAE@AAV<lambda_9eb754bdeb4f4749f734e866e5cd8484>@@@Z ; std::_Callable_base<<lambda_9eb754bdeb4f4749f734e866e5cd8484>,0>::_Callable_base<<lambda_9eb754bdeb4f4749f734e866e5cd8484>,0><<lambda_9eb754bdeb4f4749f734e866e5cd8484> &>
PUBLIC	??$?0AAV<lambda_5d8c5ab464462ebb691e185ac4dda097>@@@?$_Callable_base@V<lambda_5d8c5ab464462ebb691e185ac4dda097>@@$0A@@std@@QAE@AAV<lambda_5d8c5ab464462ebb691e185ac4dda097>@@@Z ; std::_Callable_base<<lambda_5d8c5ab464462ebb691e185ac4dda097>,0>::_Callable_base<<lambda_5d8c5ab464462ebb691e185ac4dda097>,0><<lambda_5d8c5ab464462ebb691e185ac4dda097> &>
PUBLIC	??$forward@AAV<lambda_9eb754bdeb4f4749f734e866e5cd8484>@@@std@@YAAAV<lambda_9eb754bdeb4f4749f734e866e5cd8484>@@AAV1@@Z ; std::forward<<lambda_9eb754bdeb4f4749f734e866e5cd8484> &>
PUBLIC	??$forward@AAV<lambda_5d8c5ab464462ebb691e185ac4dda097>@@@std@@YAAAV<lambda_5d8c5ab464462ebb691e185ac4dda097>@@AAV1@@Z ; std::forward<<lambda_5d8c5ab464462ebb691e185ac4dda097> &>
PUBLIC	??_C@_15GANGMFKL@?$AA?$CF?$AAs?$AA?$AA@		; `string'
PUBLIC	??_C@_1JC@OFINEDFE@?$AAC?$AA?3?$AA?2?$AAP?$AAr?$AAo?$AAg?$AAr?$AAa?$AAm?$AA?5?$AAF?$AAi?$AAl?$AAe?$AAs?$AA?5?$AA?$CI?$AAx?$AA8?$AA6?$AA?$CJ?$AA?2?$AAM?$AAi?$AAc?$AAr?$AAo?$AAs?$AAo?$AAf?$AAt@ ; `string'
PUBLIC	??_C@_1CK@BEGEBJJG@?$AAI?$AAn?$AAv?$AAa?$AAl?$AAi?$AAd?$AA?5?$AAm?$AAe?$AAm?$AAo?$AAr?$AAy?$AA_?$AAo?$AAr?$AAd?$AAe?$AAr?$AA?$AA@ ; `string'
PUBLIC	??_C@_0CI@FNPHFCCM@Standard?5C?$CL?$CL?5Libraries?5Invalid?5A@ ; `string'
PUBLIC	??_C@_1FO@GJIHNDLM@?$AA?$CC?$AAS?$AAt?$AAa?$AAn?$AAd?$AAa?$AAr?$AAd?$AA?5?$AAC?$AA?$CL?$AA?$CL?$AA?5?$AAL?$AAi?$AAb?$AAr?$AAa?$AAr?$AAi?$AAe?$AAs?$AA?5?$AAI?$AAn?$AAv?$AAa?$AAl?$AAi?$AAd?$AA?5@ ; `string'
PUBLIC	??_C@_1CG@JNLFBNGN@?$AA?$CC?$AAi?$AAn?$AAv?$AAa?$AAl?$AAi?$AAd?$AA?5?$AAa?$AAr?$AAg?$AAu?$AAm?$AAe?$AAn?$AAt?$AA?$CC?$AA?$AA@ ; `string'
PUBLIC	??_C@_1CK@CDMMNGHP@?$AAs?$AAt?$AAd?$AA?3?$AA?3?$AA_?$AAA?$AAt?$AAo?$AAm?$AAi?$AAc?$AA_?$AAs?$AAt?$AAo?$AAr?$AAe?$AA_?$AA1?$AA?$AA@ ; `string'
PUBLIC	??_7Component@gb@emulation@@6B@			; emulation::gb::Component::`vftable'
PUBLIC	??_7Cartridge@gb@emulation@@6B@			; emulation::gb::Cartridge::`vftable'
PUBLIC	??_7Memory@gb@emulation@@6B@			; emulation::gb::Memory::`vftable'
PUBLIC	??_7LCDDriver@gb@emulation@@6B@			; emulation::gb::LCDDriver::`vftable'
PUBLIC	??_7SoundController@gb@emulation@@6B@		; emulation::gb::SoundController::`vftable'
PUBLIC	??_7Timer@gb@emulation@@6B@			; emulation::gb::Timer::`vftable'
PUBLIC	??_7DisplayWindow@app@@6B@			; app::DisplayWindow::`vftable'
PUBLIC	??_7?$_Func_base@XU_Nil@std@@U12@U12@U12@U12@U12@U12@@std@@6B@ ; std::_Func_base<void,std::_Nil,std::_Nil,std::_Nil,std::_Nil,std::_Nil,std::_Nil,std::_Nil>::`vftable'
PUBLIC	??_7?$_Func_impl@U?$_Callable_obj@V<lambda_9eb754bdeb4f4749f734e866e5cd8484>@@$0A@@std@@V?$allocator@V?$_Func_class@XU_Nil@std@@U12@U12@U12@U12@U12@U12@@std@@@2@XU_Nil@2@U42@U42@U42@U42@U42@U42@@std@@6B@ ; std::_Func_impl<std::_Callable_obj<<lambda_9eb754bdeb4f4749f734e866e5cd8484>,0>,std::allocator<std::_Func_class<void,std::_Nil,std::_Nil,std::_Nil,std::_Nil,std::_Nil,std::_Nil,std::_Nil> >,void,std::_Nil,std::_Nil,std::_Nil,std::_Nil,std::_Nil,std::_Nil,std::_Nil>::`vftable'
PUBLIC	??_7?$_Func_impl@U?$_Callable_obj@V<lambda_5d8c5ab464462ebb691e185ac4dda097>@@$0A@@std@@V?$allocator@V?$_Func_class@XU_Nil@std@@U12@U12@U12@U12@U12@U12@@std@@@2@XU_Nil@2@U42@U42@U42@U42@U42@U42@@std@@6B@ ; std::_Func_impl<std::_Callable_obj<<lambda_5d8c5ab464462ebb691e185ac4dda097>,0>,std::allocator<std::_Func_class<void,std::_Nil,std::_Nil,std::_Nil,std::_Nil,std::_Nil,std::_Nil,std::_Nil> >,void,std::_Nil,std::_Nil,std::_Nil,std::_Nil,std::_Nil,std::_Nil,std::_Nil>::`vftable'
PUBLIC	??_R0?AV<lambda_9eb754bdeb4f4749f734e866e5cd8484>@@@8 ; <lambda_9eb754bdeb4f4749f734e866e5cd8484> `RTTI Type Descriptor'
PUBLIC	??_R0?AV<lambda_5d8c5ab464462ebb691e185ac4dda097>@@@8 ; <lambda_5d8c5ab464462ebb691e185ac4dda097> `RTTI Type Descriptor'
PUBLIC	??_R4Memory@gb@emulation@@6B@			; emulation::gb::Memory::`RTTI Complete Object Locator'
PUBLIC	??_R0?AVMemory@gb@emulation@@@8			; emulation::gb::Memory `RTTI Type Descriptor'
PUBLIC	??_R3Memory@gb@emulation@@8			; emulation::gb::Memory::`RTTI Class Hierarchy Descriptor'
PUBLIC	??_R2Memory@gb@emulation@@8			; emulation::gb::Memory::`RTTI Base Class Array'
PUBLIC	??_R1A@?0A@EA@Memory@gb@emulation@@8		; emulation::gb::Memory::`RTTI Base Class Descriptor at (0,-1,0,64)'
PUBLIC	??_R1A@?0A@EA@Component@gb@emulation@@8		; emulation::gb::Component::`RTTI Base Class Descriptor at (0,-1,0,64)'
PUBLIC	??_R0?AVComponent@gb@emulation@@@8		; emulation::gb::Component `RTTI Type Descriptor'
PUBLIC	??_R3Component@gb@emulation@@8			; emulation::gb::Component::`RTTI Class Hierarchy Descriptor'
PUBLIC	??_R2Component@gb@emulation@@8			; emulation::gb::Component::`RTTI Base Class Array'
PUBLIC	??_R4Cartridge@gb@emulation@@6B@		; emulation::gb::Cartridge::`RTTI Complete Object Locator'
PUBLIC	??_R0?AVCartridge@gb@emulation@@@8		; emulation::gb::Cartridge `RTTI Type Descriptor'
PUBLIC	??_R3Cartridge@gb@emulation@@8			; emulation::gb::Cartridge::`RTTI Class Hierarchy Descriptor'
PUBLIC	??_R2Cartridge@gb@emulation@@8			; emulation::gb::Cartridge::`RTTI Base Class Array'
PUBLIC	??_R1A@?0A@EA@Cartridge@gb@emulation@@8		; emulation::gb::Cartridge::`RTTI Base Class Descriptor at (0,-1,0,64)'
PUBLIC	??_R4LCDDriver@gb@emulation@@6B@		; emulation::gb::LCDDriver::`RTTI Complete Object Locator'
PUBLIC	??_R0?AVLCDDriver@gb@emulation@@@8		; emulation::gb::LCDDriver `RTTI Type Descriptor'
PUBLIC	??_R3LCDDriver@gb@emulation@@8			; emulation::gb::LCDDriver::`RTTI Class Hierarchy Descriptor'
PUBLIC	??_R2LCDDriver@gb@emulation@@8			; emulation::gb::LCDDriver::`RTTI Base Class Array'
PUBLIC	??_R1A@?0A@EA@LCDDriver@gb@emulation@@8		; emulation::gb::LCDDriver::`RTTI Base Class Descriptor at (0,-1,0,64)'
PUBLIC	??_R4SoundController@gb@emulation@@6B@		; emulation::gb::SoundController::`RTTI Complete Object Locator'
PUBLIC	??_R0?AVSoundController@gb@emulation@@@8	; emulation::gb::SoundController `RTTI Type Descriptor'
PUBLIC	??_R3SoundController@gb@emulation@@8		; emulation::gb::SoundController::`RTTI Class Hierarchy Descriptor'
PUBLIC	??_R2SoundController@gb@emulation@@8		; emulation::gb::SoundController::`RTTI Base Class Array'
PUBLIC	??_R1A@?0A@EA@SoundController@gb@emulation@@8	; emulation::gb::SoundController::`RTTI Base Class Descriptor at (0,-1,0,64)'
PUBLIC	??_R4Timer@gb@emulation@@6B@			; emulation::gb::Timer::`RTTI Complete Object Locator'
PUBLIC	??_R0?AVTimer@gb@emulation@@@8			; emulation::gb::Timer `RTTI Type Descriptor'
PUBLIC	??_R3Timer@gb@emulation@@8			; emulation::gb::Timer::`RTTI Class Hierarchy Descriptor'
PUBLIC	??_R2Timer@gb@emulation@@8			; emulation::gb::Timer::`RTTI Base Class Array'
PUBLIC	??_R1A@?0A@EA@Timer@gb@emulation@@8		; emulation::gb::Timer::`RTTI Base Class Descriptor at (0,-1,0,64)'
PUBLIC	??_R4Component@gb@emulation@@6B@		; emulation::gb::Component::`RTTI Complete Object Locator'
PUBLIC	??_R4?$_Func_base@XU_Nil@std@@U12@U12@U12@U12@U12@U12@@std@@6B@ ; std::_Func_base<void,std::_Nil,std::_Nil,std::_Nil,std::_Nil,std::_Nil,std::_Nil,std::_Nil>::`RTTI Complete Object Locator'
PUBLIC	??_R0?AV?$_Func_base@XU_Nil@std@@U12@U12@U12@U12@U12@U12@@std@@@8 ; std::_Func_base<void,std::_Nil,std::_Nil,std::_Nil,std::_Nil,std::_Nil,std::_Nil,std::_Nil> `RTTI Type Descriptor'
PUBLIC	??_R3?$_Func_base@XU_Nil@std@@U12@U12@U12@U12@U12@U12@@std@@8 ; std::_Func_base<void,std::_Nil,std::_Nil,std::_Nil,std::_Nil,std::_Nil,std::_Nil,std::_Nil>::`RTTI Class Hierarchy Descriptor'
PUBLIC	??_R2?$_Func_base@XU_Nil@std@@U12@U12@U12@U12@U12@U12@@std@@8 ; std::_Func_base<void,std::_Nil,std::_Nil,std::_Nil,std::_Nil,std::_Nil,std::_Nil,std::_Nil>::`RTTI Base Class Array'
PUBLIC	??_R1A@?0A@EA@?$_Func_base@XU_Nil@std@@U12@U12@U12@U12@U12@U12@@std@@8 ; std::_Func_base<void,std::_Nil,std::_Nil,std::_Nil,std::_Nil,std::_Nil,std::_Nil,std::_Nil>::`RTTI Base Class Descriptor at (0,-1,0,64)'
PUBLIC	??_R4DisplayWindow@app@@6B@			; app::DisplayWindow::`RTTI Complete Object Locator'
PUBLIC	??_R0?AVDisplayWindow@app@@@8			; app::DisplayWindow `RTTI Type Descriptor'
PUBLIC	??_R3DisplayWindow@app@@8			; app::DisplayWindow::`RTTI Class Hierarchy Descriptor'
PUBLIC	??_R2DisplayWindow@app@@8			; app::DisplayWindow::`RTTI Base Class Array'
PUBLIC	??_R1A@?0A@EA@DisplayWindow@app@@8		; app::DisplayWindow::`RTTI Base Class Descriptor at (0,-1,0,64)'
PUBLIC	??_R1A@?0A@EA@Window@windows@core@@8		; core::windows::Window::`RTTI Base Class Descriptor at (0,-1,0,64)'
PUBLIC	??_R0?AVWindow@windows@core@@@8			; core::windows::Window `RTTI Type Descriptor'
PUBLIC	??_R3Window@windows@core@@8			; core::windows::Window::`RTTI Class Hierarchy Descriptor'
PUBLIC	??_R2Window@windows@core@@8			; core::windows::Window::`RTTI Base Class Array'
PUBLIC	??_R4?$_Func_impl@U?$_Callable_obj@V<lambda_9eb754bdeb4f4749f734e866e5cd8484>@@$0A@@std@@V?$allocator@V?$_Func_class@XU_Nil@std@@U12@U12@U12@U12@U12@U12@@std@@@2@XU_Nil@2@U42@U42@U42@U42@U42@U42@@std@@6B@ ; std::_Func_impl<std::_Callable_obj<<lambda_9eb754bdeb4f4749f734e866e5cd8484>,0>,std::allocator<std::_Func_class<void,std::_Nil,std::_Nil,std::_Nil,std::_Nil,std::_Nil,std::_Nil,std::_Nil> >,void,std::_Nil,std::_Nil,std::_Nil,std::_Nil,std::_Nil,std::_Nil,std::_Nil>::`RTTI Complete Object Locator'
PUBLIC	??_R0?AV?$_Func_impl@U?$_Callable_obj@V<lambda_9eb754bdeb4f4749f734e866e5cd8484>@@$0A@@std@@V?$allocator@V?$_Func_class@XU_Nil@std@@U12@U12@U12@U12@U12@U12@@std@@@2@XU_Nil@2@U42@U42@U42@U42@U42@U42@@std@@@8 ; std::_Func_impl<std::_Callable_obj<<lambda_9eb754bdeb4f4749f734e866e5cd8484>,0>,std::allocator<std::_Func_class<void,std::_Nil,std::_Nil,std::_Nil,std::_Nil,std::_Nil,std::_Nil,std::_Nil> >,void,std::_Nil,std::_Nil,std::_Nil,std::_Nil,std::_Nil,std::_Nil,std::_Nil> `RTTI Type Descriptor'
PUBLIC	??_R3?$_Func_impl@U?$_Callable_obj@V<lambda_9eb754bdeb4f4749f734e866e5cd8484>@@$0A@@std@@V?$allocator@V?$_Func_class@XU_Nil@std@@U12@U12@U12@U12@U12@U12@@std@@@2@XU_Nil@2@U42@U42@U42@U42@U42@U42@@std@@8 ; std::_Func_impl<std::_Callable_obj<<lambda_9eb754bdeb4f4749f734e866e5cd8484>,0>,std::allocator<std::_Func_class<void,std::_Nil,std::_Nil,std::_Nil,std::_Nil,std::_Nil,std::_Nil,std::_Nil> >,void,std::_Nil,std::_Nil,std::_Nil,std::_Nil,std::_Nil,std::_Nil,std::_Nil>::`RTTI Class Hierarchy Descriptor'
PUBLIC	??_R2?$_Func_impl@U?$_Callable_obj@V<lambda_9eb754bdeb4f4749f734e866e5cd8484>@@$0A@@std@@V?$allocator@V?$_Func_class@XU_Nil@std@@U12@U12@U12@U12@U12@U12@@std@@@2@XU_Nil@2@U42@U42@U42@U42@U42@U42@@std@@8 ; std::_Func_impl<std::_Callable_obj<<lambda_9eb754bdeb4f4749f734e866e5cd8484>,0>,std::allocator<std::_Func_class<void,std::_Nil,std::_Nil,std::_Nil,std::_Nil,std::_Nil,std::_Nil,std::_Nil> >,void,std::_Nil,std::_Nil,std::_Nil,std::_Nil,std::_Nil,std::_Nil,std::_Nil>::`RTTI Base Class Array'
PUBLIC	??_R1A@?0A@EA@?$_Func_impl@U?$_Callable_obj@V<lambda_9eb754bdeb4f4749f734e866e5cd8484>@@$0A@@std@@V?$allocator@V?$_Func_class@XU_Nil@std@@U12@U12@U12@U12@U12@U12@@std@@@2@XU_Nil@2@U42@U42@U42@U42@U42@U42@@std@@8 ; std::_Func_impl<std::_Callable_obj<<lambda_9eb754bdeb4f4749f734e866e5cd8484>,0>,std::allocator<std::_Func_class<void,std::_Nil,std::_Nil,std::_Nil,std::_Nil,std::_Nil,std::_Nil,std::_Nil> >,void,std::_Nil,std::_Nil,std::_Nil,std::_Nil,std::_Nil,std::_Nil,std::_Nil>::`RTTI Base Class Descriptor at (0,-1,0,64)'
PUBLIC	??_R4?$_Func_impl@U?$_Callable_obj@V<lambda_5d8c5ab464462ebb691e185ac4dda097>@@$0A@@std@@V?$allocator@V?$_Func_class@XU_Nil@std@@U12@U12@U12@U12@U12@U12@@std@@@2@XU_Nil@2@U42@U42@U42@U42@U42@U42@@std@@6B@ ; std::_Func_impl<std::_Callable_obj<<lambda_5d8c5ab464462ebb691e185ac4dda097>,0>,std::allocator<std::_Func_class<void,std::_Nil,std::_Nil,std::_Nil,std::_Nil,std::_Nil,std::_Nil,std::_Nil> >,void,std::_Nil,std::_Nil,std::_Nil,std::_Nil,std::_Nil,std::_Nil,std::_Nil>::`RTTI Complete Object Locator'
PUBLIC	??_R0?AV?$_Func_impl@U?$_Callable_obj@V<lambda_5d8c5ab464462ebb691e185ac4dda097>@@$0A@@std@@V?$allocator@V?$_Func_class@XU_Nil@std@@U12@U12@U12@U12@U12@U12@@std@@@2@XU_Nil@2@U42@U42@U42@U42@U42@U42@@std@@@8 ; std::_Func_impl<std::_Callable_obj<<lambda_5d8c5ab464462ebb691e185ac4dda097>,0>,std::allocator<std::_Func_class<void,std::_Nil,std::_Nil,std::_Nil,std::_Nil,std::_Nil,std::_Nil,std::_Nil> >,void,std::_Nil,std::_Nil,std::_Nil,std::_Nil,std::_Nil,std::_Nil,std::_Nil> `RTTI Type Descriptor'
PUBLIC	??_R3?$_Func_impl@U?$_Callable_obj@V<lambda_5d8c5ab464462ebb691e185ac4dda097>@@$0A@@std@@V?$allocator@V?$_Func_class@XU_Nil@std@@U12@U12@U12@U12@U12@U12@@std@@@2@XU_Nil@2@U42@U42@U42@U42@U42@U42@@std@@8 ; std::_Func_impl<std::_Callable_obj<<lambda_5d8c5ab464462ebb691e185ac4dda097>,0>,std::allocator<std::_Func_class<void,std::_Nil,std::_Nil,std::_Nil,std::_Nil,std::_Nil,std::_Nil,std::_Nil> >,void,std::_Nil,std::_Nil,std::_Nil,std::_Nil,std::_Nil,std::_Nil,std::_Nil>::`RTTI Class Hierarchy Descriptor'
PUBLIC	??_R2?$_Func_impl@U?$_Callable_obj@V<lambda_5d8c5ab464462ebb691e185ac4dda097>@@$0A@@std@@V?$allocator@V?$_Func_class@XU_Nil@std@@U12@U12@U12@U12@U12@U12@@std@@@2@XU_Nil@2@U42@U42@U42@U42@U42@U42@@std@@8 ; std::_Func_impl<std::_Callable_obj<<lambda_5d8c5ab464462ebb691e185ac4dda097>,0>,std::allocator<std::_Func_class<void,std::_Nil,std::_Nil,std::_Nil,std::_Nil,std::_Nil,std::_Nil,std::_Nil> >,void,std::_Nil,std::_Nil,std::_Nil,std::_Nil,std::_Nil,std::_Nil,std::_Nil>::`RTTI Base Class Array'
PUBLIC	??_R1A@?0A@EA@?$_Func_impl@U?$_Callable_obj@V<lambda_5d8c5ab464462ebb691e185ac4dda097>@@$0A@@std@@V?$allocator@V?$_Func_class@XU_Nil@std@@U12@U12@U12@U12@U12@U12@@std@@@2@XU_Nil@2@U42@U42@U42@U42@U42@U42@@std@@8 ; std::_Func_impl<std::_Callable_obj<<lambda_5d8c5ab464462ebb691e185ac4dda097>,0>,std::allocator<std::_Func_class<void,std::_Nil,std::_Nil,std::_Nil,std::_Nil,std::_Nil,std::_Nil,std::_Nil> >,void,std::_Nil,std::_Nil,std::_Nil,std::_Nil,std::_Nil,std::_Nil,std::_Nil>::`RTTI Base Class Descriptor at (0,-1,0,64)'
PUBLIC	__real@0000000000000000
PUBLIC	__real@3fe2000000000000
PUBLIC	__real@3fe4000000000000
PUBLIC	__real@3ff0000000000000
PUBLIC	__real@406f400000000000
PUBLIC	__real@4072000000000000
PUBLIC	__real@4074000000000000
PUBLIC	__real@407e000000000000
PUBLIC	__real@4080000000000000
PUBLIC	__real@408f400000000000
PUBLIC	__real@46180400
EXTRN	__purecall:PROC
EXTRN	??2@YAPAXI@Z:PROC				; operator new
EXTRN	??3@YAXPAX@Z:PROC				; operator delete
EXTRN	__imp___invalid_parameter:PROC
EXTRN	__imp___CrtDbgReportW:PROC
EXTRN	??_U@YAPAXIHPBDH@Z:PROC				; operator new[]
EXTRN	??_V@YAXPAX@Z:PROC				; operator delete[]
EXTRN	__imp__tolower:PROC
EXTRN	_memcpy:PROC
EXTRN	_memset:PROC
EXTRN	_strcmp:PROC
EXTRN	_strlen:PROC
EXTRN	__imp__strrchr:PROC
EXTRN	__imp__QueryPerformanceCounter@4:PROC
EXTRN	__imp__QueryPerformanceFrequency@4:PROC
EXTRN	__imp__GetModuleHandleA@4:PROC
EXTRN	__imp__PostQuitMessage@4:PROC
EXTRN	__imp__ShowWindow@8:PROC
EXTRN	__imp__LoadMenuA@8:PROC
EXTRN	__imp__CheckMenuItem@12:PROC
EXTRN	__imp__UpdateWindow@4:PROC
EXTRN	__imp__SetWindowTextA@8:PROC
EXTRN	__imp__LoadImageA@24:PROC
EXTRN	??0Window@windows@core@@QAE@XZ:PROC		; core::windows::Window::Window
EXTRN	??1Window@windows@core@@QAE@XZ:PROC		; core::windows::Window::~Window
EXTRN	?SetMenu@Window@windows@core@@QAEXPAUHMENU__@@@Z:PROC ; core::windows::Window::SetMenu
EXTRN	?SetClientSize@Window@windows@core@@QAEXHH@Z:PROC ; core::windows::Window::SetClientSize
EXTRN	?Center@Window@windows@core@@QAEXXZ:PROC	; core::windows::Window::Center
EXTRN	?PrepareClass@Window@windows@core@@IAEXPAD@Z:PROC ; core::windows::Window::PrepareClass
EXTRN	?Create@Window@windows@core@@IAEXXZ:PROC	; core::windows::Window::Create
EXTRN	__imp__DragQueryFileA@16:PROC
EXTRN	__imp__DragAcceptFiles@8:PROC
EXTRN	__imp__sprintf:PROC
EXTRN	__imp_?_Debug_message@std@@YAXPB_W0I@Z:PROC
EXTRN	__imp_?_Xbad_alloc@std@@YAXXZ:PROC
EXTRN	?Initialize@Cartridge@gb@emulation@@UAEXPAVEmu@23@@Z:PROC ; emulation::gb::Cartridge::Initialize
EXTRN	?Deinitialize@Cartridge@gb@emulation@@UAEXXZ:PROC ; emulation::gb::Cartridge::Deinitialize
EXTRN	?Initialize@Memory@gb@emulation@@UAEXPAVEmu@23@@Z:PROC ; emulation::gb::Memory::Initialize
EXTRN	?Deinitialize@Memory@gb@emulation@@UAEXXZ:PROC	; emulation::gb::Memory::Deinitialize
EXTRN	?Reset@Memory@gb@emulation@@UAEXXZ:PROC		; emulation::gb::Memory::Reset
EXTRN	?JoypadPress@Memory@gb@emulation@@QAEXW4JoypadKeys@23@@Z:PROC ; emulation::gb::Memory::JoypadPress
EXTRN	?Initialize@LCDDriver@gb@emulation@@UAEXPAVEmu@23@@Z:PROC ; emulation::gb::LCDDriver::Initialize
EXTRN	?Deinitialize@LCDDriver@gb@emulation@@UAEXXZ:PROC ; emulation::gb::LCDDriver::Deinitialize
EXTRN	??0SquareOscillator@synth@audio@@QAE@XZ:PROC	; audio::synth::SquareOscillator::SquareOscillator
EXTRN	??1SquareOscillator@synth@audio@@UAE@XZ:PROC	; audio::synth::SquareOscillator::~SquareOscillator
EXTRN	??0NoiseSynth@synth@audio@@QAE@XZ:PROC		; audio::synth::NoiseSynth::NoiseSynth
EXTRN	??1NoiseSynth@synth@audio@@UAE@XZ:PROC		; audio::synth::NoiseSynth::~NoiseSynth
EXTRN	?Initialize@SoundController@gb@emulation@@UAEXPAVEmu@23@@Z:PROC ; emulation::gb::SoundController::Initialize
EXTRN	?Deinitialize@SoundController@gb@emulation@@UAEXXZ:PROC ; emulation::gb::SoundController::Deinitialize
EXTRN	?Reset@SoundController@gb@emulation@@UAEXXZ:PROC ; emulation::gb::SoundController::Reset
EXTRN	?Initialize@Timer@gb@emulation@@UAEXPAVEmu@23@@Z:PROC ; emulation::gb::Timer::Initialize
EXTRN	?Deinitialize@Timer@gb@emulation@@UAEXXZ:PROC	; emulation::gb::Timer::Deinitialize
EXTRN	??0Cpu@gb@emulation@@QAE@XZ:PROC		; emulation::gb::Cpu::Cpu
EXTRN	??1Cpu@gb@emulation@@QAE@XZ:PROC		; emulation::gb::Cpu::~Cpu
EXTRN	?Initialize@Emu@gb@emulation@@QAEXXZ:PROC	; emulation::gb::Emu::Initialize
EXTRN	?Deinitialize@Emu@gb@emulation@@QAEXXZ:PROC	; emulation::gb::Emu::Deinitialize
EXTRN	?Step@Emu@gb@emulation@@QAENN@Z:PROC		; emulation::gb::Emu::Step
EXTRN	__imp__glBegin@4:PROC
EXTRN	__imp__glBindTexture@8:PROC
EXTRN	__imp__glDeleteTextures@8:PROC
EXTRN	__imp__glEnable@4:PROC
EXTRN	__imp__glEnd@0:PROC
EXTRN	__imp__glGenTextures@8:PROC
EXTRN	__imp__glGetError@0:PROC
EXTRN	__imp__glTexCoord2d@16:PROC
EXTRN	__imp__glTexImage2D@36:PROC
EXTRN	__imp__glTexParameterf@12:PROC
EXTRN	__imp__glVertex2d@16:PROC
EXTRN	??0OpenGL@graphics@@QAE@XZ:PROC			; graphics::OpenGL::OpenGL
EXTRN	??1OpenGL@graphics@@UAE@XZ:PROC			; graphics::OpenGL::~OpenGL
EXTRN	?Initialize@OpenGL@graphics@@QAEXPAUHWND__@@HH@Z:PROC ; graphics::OpenGL::Initialize
EXTRN	?Deinitialize@OpenGL@graphics@@QAEXXZ:PROC	; graphics::OpenGL::Deinitialize
EXTRN	?SetDisplaySize@OpenGL@graphics@@QAEXHH@Z:PROC	; graphics::OpenGL::SetDisplaySize
EXTRN	??0Options@dialogs@app@@QAE@XZ:PROC		; app::dialogs::Options::Options
EXTRN	??1Options@dialogs@app@@QAE@XZ:PROC		; app::dialogs::Options::~Options
EXTRN	?Show@Options@dialogs@app@@QAEXPAVWindow@windows@core@@@Z:PROC ; app::dialogs::Options::Show
EXTRN	??_E?$_Func_base@XU_Nil@std@@U12@U12@U12@U12@U12@U12@@std@@UAEPAXI@Z:PROC ; std::_Func_base<void,std::_Nil,std::_Nil,std::_Nil,std::_Nil,std::_Nil,std::_Nil,std::_Nil>::`vector deleting destructor'
EXTRN	??_E?$_Func_impl@U?$_Callable_obj@V<lambda_9eb754bdeb4f4749f734e866e5cd8484>@@$0A@@std@@V?$allocator@V?$_Func_class@XU_Nil@std@@U12@U12@U12@U12@U12@U12@@std@@@2@XU_Nil@2@U42@U42@U42@U42@U42@U42@@std@@UAEPAXI@Z:PROC ; std::_Func_impl<std::_Callable_obj<<lambda_9eb754bdeb4f4749f734e866e5cd8484>,0>,std::allocator<std::_Func_class<void,std::_Nil,std::_Nil,std::_Nil,std::_Nil,std::_Nil,std::_Nil,std::_Nil> >,void,std::_Nil,std::_Nil,std::_Nil,std::_Nil,std::_Nil,std::_Nil,std::_Nil>::`vector deleting destructor'
EXTRN	??_E?$_Func_impl@U?$_Callable_obj@V<lambda_5d8c5ab464462ebb691e185ac4dda097>@@$0A@@std@@V?$allocator@V?$_Func_class@XU_Nil@std@@U12@U12@U12@U12@U12@U12@@std@@@2@XU_Nil@2@U42@U42@U42@U42@U42@U42@@std@@UAEPAXI@Z:PROC ; std::_Func_impl<std::_Callable_obj<<lambda_5d8c5ab464462ebb691e185ac4dda097>,0>,std::allocator<std::_Func_class<void,std::_Nil,std::_Nil,std::_Nil,std::_Nil,std::_Nil,std::_Nil,std::_Nil> >,void,std::_Nil,std::_Nil,std::_Nil,std::_Nil,std::_Nil,std::_Nil,std::_Nil>::`vector deleting destructor'
EXTRN	@_RTC_CheckStackVars@8:PROC
EXTRN	@__security_check_cookie@4:PROC
EXTRN	__RTC_CheckEsp:PROC
EXTRN	__RTC_InitBase:PROC
EXTRN	__RTC_Shutdown:PROC
EXTRN	___CxxFrameHandler3:PROC
EXTRN	__aulldiv:PROC
EXTRN	??_7type_info@@6B@:QWORD			; type_info::`vftable'
EXTRN	___security_cookie:DWORD
EXTRN	__fltused:DWORD
_BSS	SEGMENT
_piecewise_construct DB 01H DUP (?)
_allocator_arg DB 01H DUP (?)
_ignore	DB	01H DUP (?)
__Tuple_alloc DB 01H DUP (?)
_BSS	ENDS
CRT$XCU	SEGMENT
_piecewise_construct$initializer$ DD FLAT:??__Epiecewise_construct@std@@YAXXZ
CRT$XCU	ENDS
;	COMDAT __real@46180400
CONST	SEGMENT
__real@46180400 DD 046180400r			; 9729
CONST	ENDS
;	COMDAT __real@408f400000000000
CONST	SEGMENT
__real@408f400000000000 DQ 0408f400000000000r	; 1000
CONST	ENDS
;	COMDAT __real@4080000000000000
CONST	SEGMENT
__real@4080000000000000 DQ 04080000000000000r	; 512
CONST	ENDS
;	COMDAT __real@407e000000000000
CONST	SEGMENT
__real@407e000000000000 DQ 0407e000000000000r	; 480
CONST	ENDS
;	COMDAT __real@4074000000000000
CONST	SEGMENT
__real@4074000000000000 DQ 04074000000000000r	; 320
CONST	ENDS
;	COMDAT __real@4072000000000000
CONST	SEGMENT
__real@4072000000000000 DQ 04072000000000000r	; 288
CONST	ENDS
;	COMDAT __real@406f400000000000
CONST	SEGMENT
__real@406f400000000000 DQ 0406f400000000000r	; 250
CONST	ENDS
;	COMDAT __real@3ff0000000000000
CONST	SEGMENT
__real@3ff0000000000000 DQ 03ff0000000000000r	; 1
CONST	ENDS
;	COMDAT __real@3fe4000000000000
CONST	SEGMENT
__real@3fe4000000000000 DQ 03fe4000000000000r	; 0.625
CONST	ENDS
;	COMDAT __real@3fe2000000000000
CONST	SEGMENT
__real@3fe2000000000000 DQ 03fe2000000000000r	; 0.5625
CONST	ENDS
;	COMDAT __real@0000000000000000
CONST	SEGMENT
__real@0000000000000000 DQ 00000000000000000r	; 0
CONST	ENDS
;	COMDAT rtc$TMZ
rtc$TMZ	SEGMENT
__RTC_Shutdown.rtc$TMZ DD FLAT:__RTC_Shutdown
rtc$TMZ	ENDS
;	COMDAT rtc$IMZ
rtc$IMZ	SEGMENT
__RTC_InitBase.rtc$IMZ DD FLAT:__RTC_InitBase
rtc$IMZ	ENDS
;	COMDAT ??_R1A@?0A@EA@?$_Func_impl@U?$_Callable_obj@V<lambda_5d8c5ab464462ebb691e185ac4dda097>@@$0A@@std@@V?$allocator@V?$_Func_class@XU_Nil@std@@U12@U12@U12@U12@U12@U12@@std@@@2@XU_Nil@2@U42@U42@U42@U42@U42@U42@@std@@8
rdata$r	SEGMENT
??_R1A@?0A@EA@?$_Func_impl@U?$_Callable_obj@V<lambda_5d8c5ab464462ebb691e185ac4dda097>@@$0A@@std@@V?$allocator@V?$_Func_class@XU_Nil@std@@U12@U12@U12@U12@U12@U12@@std@@@2@XU_Nil@2@U42@U42@U42@U42@U42@U42@@std@@8 DD FLAT:??_R0?AV?$_Func_impl@U?$_Callable_obj@V<lambda_5d8c5ab464462ebb691e185ac4dda097>@@$0A@@std@@V?$allocator@V?$_Func_class@XU_Nil@std@@U12@U12@U12@U12@U12@U12@@std@@@2@XU_Nil@2@U42@U42@U42@U42@U42@U42@@std@@@8 ; std::_Func_impl<std::_Callable_obj<<lambda_5d8c5ab464462ebb691e185ac4dda097>,0>,std::allocator<std::_Func_class<void,std::_Nil,std::_Nil,std::_Nil,std::_Nil,std::_Nil,std::_Nil,std::_Nil> >,void,std::_Nil,std::_Nil,std::_Nil,std::_Nil,std::_Nil,std::_Nil,std::_Nil>::`RTTI Base Class Descriptor at (0,-1,0,64)'
	DD	01H
	DD	00H
	DD	0ffffffffH
	DD	00H
	DD	040H
	DD	FLAT:??_R3?$_Func_impl@U?$_Callable_obj@V<lambda_5d8c5ab464462ebb691e185ac4dda097>@@$0A@@std@@V?$allocator@V?$_Func_class@XU_Nil@std@@U12@U12@U12@U12@U12@U12@@std@@@2@XU_Nil@2@U42@U42@U42@U42@U42@U42@@std@@8
rdata$r	ENDS
;	COMDAT ??_R2?$_Func_impl@U?$_Callable_obj@V<lambda_5d8c5ab464462ebb691e185ac4dda097>@@$0A@@std@@V?$allocator@V?$_Func_class@XU_Nil@std@@U12@U12@U12@U12@U12@U12@@std@@@2@XU_Nil@2@U42@U42@U42@U42@U42@U42@@std@@8
rdata$r	SEGMENT
??_R2?$_Func_impl@U?$_Callable_obj@V<lambda_5d8c5ab464462ebb691e185ac4dda097>@@$0A@@std@@V?$allocator@V?$_Func_class@XU_Nil@std@@U12@U12@U12@U12@U12@U12@@std@@@2@XU_Nil@2@U42@U42@U42@U42@U42@U42@@std@@8 DD FLAT:??_R1A@?0A@EA@?$_Func_impl@U?$_Callable_obj@V<lambda_5d8c5ab464462ebb691e185ac4dda097>@@$0A@@std@@V?$allocator@V?$_Func_class@XU_Nil@std@@U12@U12@U12@U12@U12@U12@@std@@@2@XU_Nil@2@U42@U42@U42@U42@U42@U42@@std@@8 ; std::_Func_impl<std::_Callable_obj<<lambda_5d8c5ab464462ebb691e185ac4dda097>,0>,std::allocator<std::_Func_class<void,std::_Nil,std::_Nil,std::_Nil,std::_Nil,std::_Nil,std::_Nil,std::_Nil> >,void,std::_Nil,std::_Nil,std::_Nil,std::_Nil,std::_Nil,std::_Nil,std::_Nil>::`RTTI Base Class Array'
	DD	FLAT:??_R1A@?0A@EA@?$_Func_base@XU_Nil@std@@U12@U12@U12@U12@U12@U12@@std@@8
rdata$r	ENDS
;	COMDAT ??_R3?$_Func_impl@U?$_Callable_obj@V<lambda_5d8c5ab464462ebb691e185ac4dda097>@@$0A@@std@@V?$allocator@V?$_Func_class@XU_Nil@std@@U12@U12@U12@U12@U12@U12@@std@@@2@XU_Nil@2@U42@U42@U42@U42@U42@U42@@std@@8
rdata$r	SEGMENT
??_R3?$_Func_impl@U?$_Callable_obj@V<lambda_5d8c5ab464462ebb691e185ac4dda097>@@$0A@@std@@V?$allocator@V?$_Func_class@XU_Nil@std@@U12@U12@U12@U12@U12@U12@@std@@@2@XU_Nil@2@U42@U42@U42@U42@U42@U42@@std@@8 DD 00H ; std::_Func_impl<std::_Callable_obj<<lambda_5d8c5ab464462ebb691e185ac4dda097>,0>,std::allocator<std::_Func_class<void,std::_Nil,std::_Nil,std::_Nil,std::_Nil,std::_Nil,std::_Nil,std::_Nil> >,void,std::_Nil,std::_Nil,std::_Nil,std::_Nil,std::_Nil,std::_Nil,std::_Nil>::`RTTI Class Hierarchy Descriptor'
	DD	00H
	DD	02H
	DD	FLAT:??_R2?$_Func_impl@U?$_Callable_obj@V<lambda_5d8c5ab464462ebb691e185ac4dda097>@@$0A@@std@@V?$allocator@V?$_Func_class@XU_Nil@std@@U12@U12@U12@U12@U12@U12@@std@@@2@XU_Nil@2@U42@U42@U42@U42@U42@U42@@std@@8
rdata$r	ENDS
;	COMDAT ??_R0?AV?$_Func_impl@U?$_Callable_obj@V<lambda_5d8c5ab464462ebb691e185ac4dda097>@@$0A@@std@@V?$allocator@V?$_Func_class@XU_Nil@std@@U12@U12@U12@U12@U12@U12@@std@@@2@XU_Nil@2@U42@U42@U42@U42@U42@U42@@std@@@8
_DATA	SEGMENT
??_R0?AV?$_Func_impl@U?$_Callable_obj@V<lambda_5d8c5ab464462ebb691e185ac4dda097>@@$0A@@std@@V?$allocator@V?$_Func_class@XU_Nil@std@@U12@U12@U12@U12@U12@U12@@std@@@2@XU_Nil@2@U42@U42@U42@U42@U42@U42@@std@@@8 DD FLAT:??_7type_info@@6B@ ; std::_Func_impl<std::_Callable_obj<<lambda_5d8c5ab464462ebb691e185ac4dda097>,0>,std::allocator<std::_Func_class<void,std::_Nil,std::_Nil,std::_Nil,std::_Nil,std::_Nil,std::_Nil,std::_Nil> >,void,std::_Nil,std::_Nil,std::_Nil,std::_Nil,std::_Nil,std::_Nil,std::_Nil> `RTTI Type Descriptor'
	DD	00H
	DB	'.?AV?$_Func_impl@U?$_Callable_obj@V<lambda_5d8c5ab464462'
	DB	'ebb691e185ac4dda097>@@$0A@@std@@V?$allocator@V?$_Func_class@X'
	DB	'U_Nil@std@@U12@U12@U12@U12@U12@U12@@std@@@2@XU_Nil@2@U42@U42@'
	DB	'U42@U42@U42@U42@@std@@', 00H
_DATA	ENDS
;	COMDAT ??_R4?$_Func_impl@U?$_Callable_obj@V<lambda_5d8c5ab464462ebb691e185ac4dda097>@@$0A@@std@@V?$allocator@V?$_Func_class@XU_Nil@std@@U12@U12@U12@U12@U12@U12@@std@@@2@XU_Nil@2@U42@U42@U42@U42@U42@U42@@std@@6B@
rdata$r	SEGMENT
??_R4?$_Func_impl@U?$_Callable_obj@V<lambda_5d8c5ab464462ebb691e185ac4dda097>@@$0A@@std@@V?$allocator@V?$_Func_class@XU_Nil@std@@U12@U12@U12@U12@U12@U12@@std@@@2@XU_Nil@2@U42@U42@U42@U42@U42@U42@@std@@6B@ DD 00H ; std::_Func_impl<std::_Callable_obj<<lambda_5d8c5ab464462ebb691e185ac4dda097>,0>,std::allocator<std::_Func_class<void,std::_Nil,std::_Nil,std::_Nil,std::_Nil,std::_Nil,std::_Nil,std::_Nil> >,void,std::_Nil,std::_Nil,std::_Nil,std::_Nil,std::_Nil,std::_Nil,std::_Nil>::`RTTI Complete Object Locator'
	DD	00H
	DD	00H
	DD	FLAT:??_R0?AV?$_Func_impl@U?$_Callable_obj@V<lambda_5d8c5ab464462ebb691e185ac4dda097>@@$0A@@std@@V?$allocator@V?$_Func_class@XU_Nil@std@@U12@U12@U12@U12@U12@U12@@std@@@2@XU_Nil@2@U42@U42@U42@U42@U42@U42@@std@@@8
	DD	FLAT:??_R3?$_Func_impl@U?$_Callable_obj@V<lambda_5d8c5ab464462ebb691e185ac4dda097>@@$0A@@std@@V?$allocator@V?$_Func_class@XU_Nil@std@@U12@U12@U12@U12@U12@U12@@std@@@2@XU_Nil@2@U42@U42@U42@U42@U42@U42@@std@@8
rdata$r	ENDS
;	COMDAT ??_R1A@?0A@EA@?$_Func_impl@U?$_Callable_obj@V<lambda_9eb754bdeb4f4749f734e866e5cd8484>@@$0A@@std@@V?$allocator@V?$_Func_class@XU_Nil@std@@U12@U12@U12@U12@U12@U12@@std@@@2@XU_Nil@2@U42@U42@U42@U42@U42@U42@@std@@8
rdata$r	SEGMENT
??_R1A@?0A@EA@?$_Func_impl@U?$_Callable_obj@V<lambda_9eb754bdeb4f4749f734e866e5cd8484>@@$0A@@std@@V?$allocator@V?$_Func_class@XU_Nil@std@@U12@U12@U12@U12@U12@U12@@std@@@2@XU_Nil@2@U42@U42@U42@U42@U42@U42@@std@@8 DD FLAT:??_R0?AV?$_Func_impl@U?$_Callable_obj@V<lambda_9eb754bdeb4f4749f734e866e5cd8484>@@$0A@@std@@V?$allocator@V?$_Func_class@XU_Nil@std@@U12@U12@U12@U12@U12@U12@@std@@@2@XU_Nil@2@U42@U42@U42@U42@U42@U42@@std@@@8 ; std::_Func_impl<std::_Callable_obj<<lambda_9eb754bdeb4f4749f734e866e5cd8484>,0>,std::allocator<std::_Func_class<void,std::_Nil,std::_Nil,std::_Nil,std::_Nil,std::_Nil,std::_Nil,std::_Nil> >,void,std::_Nil,std::_Nil,std::_Nil,std::_Nil,std::_Nil,std::_Nil,std::_Nil>::`RTTI Base Class Descriptor at (0,-1,0,64)'
	DD	01H
	DD	00H
	DD	0ffffffffH
	DD	00H
	DD	040H
	DD	FLAT:??_R3?$_Func_impl@U?$_Callable_obj@V<lambda_9eb754bdeb4f4749f734e866e5cd8484>@@$0A@@std@@V?$allocator@V?$_Func_class@XU_Nil@std@@U12@U12@U12@U12@U12@U12@@std@@@2@XU_Nil@2@U42@U42@U42@U42@U42@U42@@std@@8
rdata$r	ENDS
;	COMDAT ??_R2?$_Func_impl@U?$_Callable_obj@V<lambda_9eb754bdeb4f4749f734e866e5cd8484>@@$0A@@std@@V?$allocator@V?$_Func_class@XU_Nil@std@@U12@U12@U12@U12@U12@U12@@std@@@2@XU_Nil@2@U42@U42@U42@U42@U42@U42@@std@@8
rdata$r	SEGMENT
??_R2?$_Func_impl@U?$_Callable_obj@V<lambda_9eb754bdeb4f4749f734e866e5cd8484>@@$0A@@std@@V?$allocator@V?$_Func_class@XU_Nil@std@@U12@U12@U12@U12@U12@U12@@std@@@2@XU_Nil@2@U42@U42@U42@U42@U42@U42@@std@@8 DD FLAT:??_R1A@?0A@EA@?$_Func_impl@U?$_Callable_obj@V<lambda_9eb754bdeb4f4749f734e866e5cd8484>@@$0A@@std@@V?$allocator@V?$_Func_class@XU_Nil@std@@U12@U12@U12@U12@U12@U12@@std@@@2@XU_Nil@2@U42@U42@U42@U42@U42@U42@@std@@8 ; std::_Func_impl<std::_Callable_obj<<lambda_9eb754bdeb4f4749f734e866e5cd8484>,0>,std::allocator<std::_Func_class<void,std::_Nil,std::_Nil,std::_Nil,std::_Nil,std::_Nil,std::_Nil,std::_Nil> >,void,std::_Nil,std::_Nil,std::_Nil,std::_Nil,std::_Nil,std::_Nil,std::_Nil>::`RTTI Base Class Array'
	DD	FLAT:??_R1A@?0A@EA@?$_Func_base@XU_Nil@std@@U12@U12@U12@U12@U12@U12@@std@@8
rdata$r	ENDS
;	COMDAT ??_R3?$_Func_impl@U?$_Callable_obj@V<lambda_9eb754bdeb4f4749f734e866e5cd8484>@@$0A@@std@@V?$allocator@V?$_Func_class@XU_Nil@std@@U12@U12@U12@U12@U12@U12@@std@@@2@XU_Nil@2@U42@U42@U42@U42@U42@U42@@std@@8
rdata$r	SEGMENT
??_R3?$_Func_impl@U?$_Callable_obj@V<lambda_9eb754bdeb4f4749f734e866e5cd8484>@@$0A@@std@@V?$allocator@V?$_Func_class@XU_Nil@std@@U12@U12@U12@U12@U12@U12@@std@@@2@XU_Nil@2@U42@U42@U42@U42@U42@U42@@std@@8 DD 00H ; std::_Func_impl<std::_Callable_obj<<lambda_9eb754bdeb4f4749f734e866e5cd8484>,0>,std::allocator<std::_Func_class<void,std::_Nil,std::_Nil,std::_Nil,std::_Nil,std::_Nil,std::_Nil,std::_Nil> >,void,std::_Nil,std::_Nil,std::_Nil,std::_Nil,std::_Nil,std::_Nil,std::_Nil>::`RTTI Class Hierarchy Descriptor'
	DD	00H
	DD	02H
	DD	FLAT:??_R2?$_Func_impl@U?$_Callable_obj@V<lambda_9eb754bdeb4f4749f734e866e5cd8484>@@$0A@@std@@V?$allocator@V?$_Func_class@XU_Nil@std@@U12@U12@U12@U12@U12@U12@@std@@@2@XU_Nil@2@U42@U42@U42@U42@U42@U42@@std@@8
rdata$r	ENDS
;	COMDAT ??_R0?AV?$_Func_impl@U?$_Callable_obj@V<lambda_9eb754bdeb4f4749f734e866e5cd8484>@@$0A@@std@@V?$allocator@V?$_Func_class@XU_Nil@std@@U12@U12@U12@U12@U12@U12@@std@@@2@XU_Nil@2@U42@U42@U42@U42@U42@U42@@std@@@8
_DATA	SEGMENT
??_R0?AV?$_Func_impl@U?$_Callable_obj@V<lambda_9eb754bdeb4f4749f734e866e5cd8484>@@$0A@@std@@V?$allocator@V?$_Func_class@XU_Nil@std@@U12@U12@U12@U12@U12@U12@@std@@@2@XU_Nil@2@U42@U42@U42@U42@U42@U42@@std@@@8 DD FLAT:??_7type_info@@6B@ ; std::_Func_impl<std::_Callable_obj<<lambda_9eb754bdeb4f4749f734e866e5cd8484>,0>,std::allocator<std::_Func_class<void,std::_Nil,std::_Nil,std::_Nil,std::_Nil,std::_Nil,std::_Nil,std::_Nil> >,void,std::_Nil,std::_Nil,std::_Nil,std::_Nil,std::_Nil,std::_Nil,std::_Nil> `RTTI Type Descriptor'
	DD	00H
	DB	'.?AV?$_Func_impl@U?$_Callable_obj@V<lambda_9eb754bdeb4f4'
	DB	'749f734e866e5cd8484>@@$0A@@std@@V?$allocator@V?$_Func_class@X'
	DB	'U_Nil@std@@U12@U12@U12@U12@U12@U12@@std@@@2@XU_Nil@2@U42@U42@'
	DB	'U42@U42@U42@U42@@std@@', 00H
_DATA	ENDS
;	COMDAT ??_R4?$_Func_impl@U?$_Callable_obj@V<lambda_9eb754bdeb4f4749f734e866e5cd8484>@@$0A@@std@@V?$allocator@V?$_Func_class@XU_Nil@std@@U12@U12@U12@U12@U12@U12@@std@@@2@XU_Nil@2@U42@U42@U42@U42@U42@U42@@std@@6B@
rdata$r	SEGMENT
??_R4?$_Func_impl@U?$_Callable_obj@V<lambda_9eb754bdeb4f4749f734e866e5cd8484>@@$0A@@std@@V?$allocator@V?$_Func_class@XU_Nil@std@@U12@U12@U12@U12@U12@U12@@std@@@2@XU_Nil@2@U42@U42@U42@U42@U42@U42@@std@@6B@ DD 00H ; std::_Func_impl<std::_Callable_obj<<lambda_9eb754bdeb4f4749f734e866e5cd8484>,0>,std::allocator<std::_Func_class<void,std::_Nil,std::_Nil,std::_Nil,std::_Nil,std::_Nil,std::_Nil,std::_Nil> >,void,std::_Nil,std::_Nil,std::_Nil,std::_Nil,std::_Nil,std::_Nil,std::_Nil>::`RTTI Complete Object Locator'
	DD	00H
	DD	00H
	DD	FLAT:??_R0?AV?$_Func_impl@U?$_Callable_obj@V<lambda_9eb754bdeb4f4749f734e866e5cd8484>@@$0A@@std@@V?$allocator@V?$_Func_class@XU_Nil@std@@U12@U12@U12@U12@U12@U12@@std@@@2@XU_Nil@2@U42@U42@U42@U42@U42@U42@@std@@@8
	DD	FLAT:??_R3?$_Func_impl@U?$_Callable_obj@V<lambda_9eb754bdeb4f4749f734e866e5cd8484>@@$0A@@std@@V?$allocator@V?$_Func_class@XU_Nil@std@@U12@U12@U12@U12@U12@U12@@std@@@2@XU_Nil@2@U42@U42@U42@U42@U42@U42@@std@@8
rdata$r	ENDS
;	COMDAT ??_R2Window@windows@core@@8
rdata$r	SEGMENT
??_R2Window@windows@core@@8 DD FLAT:??_R1A@?0A@EA@Window@windows@core@@8 ; core::windows::Window::`RTTI Base Class Array'
rdata$r	ENDS
;	COMDAT ??_R3Window@windows@core@@8
rdata$r	SEGMENT
??_R3Window@windows@core@@8 DD 00H			; core::windows::Window::`RTTI Class Hierarchy Descriptor'
	DD	00H
	DD	01H
	DD	FLAT:??_R2Window@windows@core@@8
rdata$r	ENDS
;	COMDAT ??_R0?AVWindow@windows@core@@@8
_DATA	SEGMENT
??_R0?AVWindow@windows@core@@@8 DD FLAT:??_7type_info@@6B@ ; core::windows::Window `RTTI Type Descriptor'
	DD	00H
	DB	'.?AVWindow@windows@core@@', 00H
_DATA	ENDS
;	COMDAT ??_R1A@?0A@EA@Window@windows@core@@8
rdata$r	SEGMENT
??_R1A@?0A@EA@Window@windows@core@@8 DD FLAT:??_R0?AVWindow@windows@core@@@8 ; core::windows::Window::`RTTI Base Class Descriptor at (0,-1,0,64)'
	DD	00H
	DD	00H
	DD	0ffffffffH
	DD	00H
	DD	040H
	DD	FLAT:??_R3Window@windows@core@@8
rdata$r	ENDS
;	COMDAT ??_R1A@?0A@EA@DisplayWindow@app@@8
rdata$r	SEGMENT
??_R1A@?0A@EA@DisplayWindow@app@@8 DD FLAT:??_R0?AVDisplayWindow@app@@@8 ; app::DisplayWindow::`RTTI Base Class Descriptor at (0,-1,0,64)'
	DD	01H
	DD	00H
	DD	0ffffffffH
	DD	00H
	DD	040H
	DD	FLAT:??_R3DisplayWindow@app@@8
rdata$r	ENDS
;	COMDAT ??_R2DisplayWindow@app@@8
rdata$r	SEGMENT
??_R2DisplayWindow@app@@8 DD FLAT:??_R1A@?0A@EA@DisplayWindow@app@@8 ; app::DisplayWindow::`RTTI Base Class Array'
	DD	FLAT:??_R1A@?0A@EA@Window@windows@core@@8
rdata$r	ENDS
;	COMDAT ??_R3DisplayWindow@app@@8
rdata$r	SEGMENT
??_R3DisplayWindow@app@@8 DD 00H			; app::DisplayWindow::`RTTI Class Hierarchy Descriptor'
	DD	00H
	DD	02H
	DD	FLAT:??_R2DisplayWindow@app@@8
rdata$r	ENDS
;	COMDAT ??_R0?AVDisplayWindow@app@@@8
_DATA	SEGMENT
??_R0?AVDisplayWindow@app@@@8 DD FLAT:??_7type_info@@6B@ ; app::DisplayWindow `RTTI Type Descriptor'
	DD	00H
	DB	'.?AVDisplayWindow@app@@', 00H
_DATA	ENDS
;	COMDAT ??_R4DisplayWindow@app@@6B@
rdata$r	SEGMENT
??_R4DisplayWindow@app@@6B@ DD 00H			; app::DisplayWindow::`RTTI Complete Object Locator'
	DD	00H
	DD	00H
	DD	FLAT:??_R0?AVDisplayWindow@app@@@8
	DD	FLAT:??_R3DisplayWindow@app@@8
rdata$r	ENDS
;	COMDAT ??_R1A@?0A@EA@?$_Func_base@XU_Nil@std@@U12@U12@U12@U12@U12@U12@@std@@8
rdata$r	SEGMENT
??_R1A@?0A@EA@?$_Func_base@XU_Nil@std@@U12@U12@U12@U12@U12@U12@@std@@8 DD FLAT:??_R0?AV?$_Func_base@XU_Nil@std@@U12@U12@U12@U12@U12@U12@@std@@@8 ; std::_Func_base<void,std::_Nil,std::_Nil,std::_Nil,std::_Nil,std::_Nil,std::_Nil,std::_Nil>::`RTTI Base Class Descriptor at (0,-1,0,64)'
	DD	00H
	DD	00H
	DD	0ffffffffH
	DD	00H
	DD	040H
	DD	FLAT:??_R3?$_Func_base@XU_Nil@std@@U12@U12@U12@U12@U12@U12@@std@@8
rdata$r	ENDS
;	COMDAT ??_R2?$_Func_base@XU_Nil@std@@U12@U12@U12@U12@U12@U12@@std@@8
rdata$r	SEGMENT
??_R2?$_Func_base@XU_Nil@std@@U12@U12@U12@U12@U12@U12@@std@@8 DD FLAT:??_R1A@?0A@EA@?$_Func_base@XU_Nil@std@@U12@U12@U12@U12@U12@U12@@std@@8 ; std::_Func_base<void,std::_Nil,std::_Nil,std::_Nil,std::_Nil,std::_Nil,std::_Nil,std::_Nil>::`RTTI Base Class Array'
rdata$r	ENDS
;	COMDAT ??_R3?$_Func_base@XU_Nil@std@@U12@U12@U12@U12@U12@U12@@std@@8
rdata$r	SEGMENT
??_R3?$_Func_base@XU_Nil@std@@U12@U12@U12@U12@U12@U12@@std@@8 DD 00H ; std::_Func_base<void,std::_Nil,std::_Nil,std::_Nil,std::_Nil,std::_Nil,std::_Nil,std::_Nil>::`RTTI Class Hierarchy Descriptor'
	DD	00H
	DD	01H
	DD	FLAT:??_R2?$_Func_base@XU_Nil@std@@U12@U12@U12@U12@U12@U12@@std@@8
rdata$r	ENDS
;	COMDAT ??_R0?AV?$_Func_base@XU_Nil@std@@U12@U12@U12@U12@U12@U12@@std@@@8
_DATA	SEGMENT
??_R0?AV?$_Func_base@XU_Nil@std@@U12@U12@U12@U12@U12@U12@@std@@@8 DD FLAT:??_7type_info@@6B@ ; std::_Func_base<void,std::_Nil,std::_Nil,std::_Nil,std::_Nil,std::_Nil,std::_Nil,std::_Nil> `RTTI Type Descriptor'
	DD	00H
	DB	'.?AV?$_Func_base@XU_Nil@std@@U12@U12@U12@U12@U12@U12@@st'
	DB	'd@@', 00H
_DATA	ENDS
;	COMDAT ??_R4?$_Func_base@XU_Nil@std@@U12@U12@U12@U12@U12@U12@@std@@6B@
rdata$r	SEGMENT
??_R4?$_Func_base@XU_Nil@std@@U12@U12@U12@U12@U12@U12@@std@@6B@ DD 00H ; std::_Func_base<void,std::_Nil,std::_Nil,std::_Nil,std::_Nil,std::_Nil,std::_Nil,std::_Nil>::`RTTI Complete Object Locator'
	DD	00H
	DD	00H
	DD	FLAT:??_R0?AV?$_Func_base@XU_Nil@std@@U12@U12@U12@U12@U12@U12@@std@@@8
	DD	FLAT:??_R3?$_Func_base@XU_Nil@std@@U12@U12@U12@U12@U12@U12@@std@@8
rdata$r	ENDS
;	COMDAT ??_R4Component@gb@emulation@@6B@
rdata$r	SEGMENT
??_R4Component@gb@emulation@@6B@ DD 00H			; emulation::gb::Component::`RTTI Complete Object Locator'
	DD	00H
	DD	00H
	DD	FLAT:??_R0?AVComponent@gb@emulation@@@8
	DD	FLAT:??_R3Component@gb@emulation@@8
rdata$r	ENDS
;	COMDAT ??_R1A@?0A@EA@Timer@gb@emulation@@8
rdata$r	SEGMENT
??_R1A@?0A@EA@Timer@gb@emulation@@8 DD FLAT:??_R0?AVTimer@gb@emulation@@@8 ; emulation::gb::Timer::`RTTI Base Class Descriptor at (0,-1,0,64)'
	DD	01H
	DD	00H
	DD	0ffffffffH
	DD	00H
	DD	040H
	DD	FLAT:??_R3Timer@gb@emulation@@8
rdata$r	ENDS
;	COMDAT ??_R2Timer@gb@emulation@@8
rdata$r	SEGMENT
??_R2Timer@gb@emulation@@8 DD FLAT:??_R1A@?0A@EA@Timer@gb@emulation@@8 ; emulation::gb::Timer::`RTTI Base Class Array'
	DD	FLAT:??_R1A@?0A@EA@Component@gb@emulation@@8
rdata$r	ENDS
;	COMDAT ??_R3Timer@gb@emulation@@8
rdata$r	SEGMENT
??_R3Timer@gb@emulation@@8 DD 00H			; emulation::gb::Timer::`RTTI Class Hierarchy Descriptor'
	DD	00H
	DD	02H
	DD	FLAT:??_R2Timer@gb@emulation@@8
rdata$r	ENDS
;	COMDAT ??_R0?AVTimer@gb@emulation@@@8
_DATA	SEGMENT
??_R0?AVTimer@gb@emulation@@@8 DD FLAT:??_7type_info@@6B@ ; emulation::gb::Timer `RTTI Type Descriptor'
	DD	00H
	DB	'.?AVTimer@gb@emulation@@', 00H
_DATA	ENDS
;	COMDAT ??_R4Timer@gb@emulation@@6B@
rdata$r	SEGMENT
??_R4Timer@gb@emulation@@6B@ DD 00H			; emulation::gb::Timer::`RTTI Complete Object Locator'
	DD	00H
	DD	00H
	DD	FLAT:??_R0?AVTimer@gb@emulation@@@8
	DD	FLAT:??_R3Timer@gb@emulation@@8
rdata$r	ENDS
;	COMDAT ??_R1A@?0A@EA@SoundController@gb@emulation@@8
rdata$r	SEGMENT
??_R1A@?0A@EA@SoundController@gb@emulation@@8 DD FLAT:??_R0?AVSoundController@gb@emulation@@@8 ; emulation::gb::SoundController::`RTTI Base Class Descriptor at (0,-1,0,64)'
	DD	01H
	DD	00H
	DD	0ffffffffH
	DD	00H
	DD	040H
	DD	FLAT:??_R3SoundController@gb@emulation@@8
rdata$r	ENDS
;	COMDAT ??_R2SoundController@gb@emulation@@8
rdata$r	SEGMENT
??_R2SoundController@gb@emulation@@8 DD FLAT:??_R1A@?0A@EA@SoundController@gb@emulation@@8 ; emulation::gb::SoundController::`RTTI Base Class Array'
	DD	FLAT:??_R1A@?0A@EA@Component@gb@emulation@@8
rdata$r	ENDS
;	COMDAT ??_R3SoundController@gb@emulation@@8
rdata$r	SEGMENT
??_R3SoundController@gb@emulation@@8 DD 00H		; emulation::gb::SoundController::`RTTI Class Hierarchy Descriptor'
	DD	00H
	DD	02H
	DD	FLAT:??_R2SoundController@gb@emulation@@8
rdata$r	ENDS
;	COMDAT ??_R0?AVSoundController@gb@emulation@@@8
_DATA	SEGMENT
??_R0?AVSoundController@gb@emulation@@@8 DD FLAT:??_7type_info@@6B@ ; emulation::gb::SoundController `RTTI Type Descriptor'
	DD	00H
	DB	'.?AVSoundController@gb@emulation@@', 00H
_DATA	ENDS
;	COMDAT ??_R4SoundController@gb@emulation@@6B@
rdata$r	SEGMENT
??_R4SoundController@gb@emulation@@6B@ DD 00H		; emulation::gb::SoundController::`RTTI Complete Object Locator'
	DD	00H
	DD	00H
	DD	FLAT:??_R0?AVSoundController@gb@emulation@@@8
	DD	FLAT:??_R3SoundController@gb@emulation@@8
rdata$r	ENDS
;	COMDAT ??_R1A@?0A@EA@LCDDriver@gb@emulation@@8
rdata$r	SEGMENT
??_R1A@?0A@EA@LCDDriver@gb@emulation@@8 DD FLAT:??_R0?AVLCDDriver@gb@emulation@@@8 ; emulation::gb::LCDDriver::`RTTI Base Class Descriptor at (0,-1,0,64)'
	DD	01H
	DD	00H
	DD	0ffffffffH
	DD	00H
	DD	040H
	DD	FLAT:??_R3LCDDriver@gb@emulation@@8
rdata$r	ENDS
;	COMDAT ??_R2LCDDriver@gb@emulation@@8
rdata$r	SEGMENT
??_R2LCDDriver@gb@emulation@@8 DD FLAT:??_R1A@?0A@EA@LCDDriver@gb@emulation@@8 ; emulation::gb::LCDDriver::`RTTI Base Class Array'
	DD	FLAT:??_R1A@?0A@EA@Component@gb@emulation@@8
rdata$r	ENDS
;	COMDAT ??_R3LCDDriver@gb@emulation@@8
rdata$r	SEGMENT
??_R3LCDDriver@gb@emulation@@8 DD 00H			; emulation::gb::LCDDriver::`RTTI Class Hierarchy Descriptor'
	DD	00H
	DD	02H
	DD	FLAT:??_R2LCDDriver@gb@emulation@@8
rdata$r	ENDS
;	COMDAT ??_R0?AVLCDDriver@gb@emulation@@@8
_DATA	SEGMENT
??_R0?AVLCDDriver@gb@emulation@@@8 DD FLAT:??_7type_info@@6B@ ; emulation::gb::LCDDriver `RTTI Type Descriptor'
	DD	00H
	DB	'.?AVLCDDriver@gb@emulation@@', 00H
_DATA	ENDS
;	COMDAT ??_R4LCDDriver@gb@emulation@@6B@
rdata$r	SEGMENT
??_R4LCDDriver@gb@emulation@@6B@ DD 00H			; emulation::gb::LCDDriver::`RTTI Complete Object Locator'
	DD	00H
	DD	00H
	DD	FLAT:??_R0?AVLCDDriver@gb@emulation@@@8
	DD	FLAT:??_R3LCDDriver@gb@emulation@@8
rdata$r	ENDS
;	COMDAT ??_R1A@?0A@EA@Cartridge@gb@emulation@@8
rdata$r	SEGMENT
??_R1A@?0A@EA@Cartridge@gb@emulation@@8 DD FLAT:??_R0?AVCartridge@gb@emulation@@@8 ; emulation::gb::Cartridge::`RTTI Base Class Descriptor at (0,-1,0,64)'
	DD	01H
	DD	00H
	DD	0ffffffffH
	DD	00H
	DD	040H
	DD	FLAT:??_R3Cartridge@gb@emulation@@8
rdata$r	ENDS
;	COMDAT ??_R2Cartridge@gb@emulation@@8
rdata$r	SEGMENT
??_R2Cartridge@gb@emulation@@8 DD FLAT:??_R1A@?0A@EA@Cartridge@gb@emulation@@8 ; emulation::gb::Cartridge::`RTTI Base Class Array'
	DD	FLAT:??_R1A@?0A@EA@Component@gb@emulation@@8
rdata$r	ENDS
;	COMDAT ??_R3Cartridge@gb@emulation@@8
rdata$r	SEGMENT
??_R3Cartridge@gb@emulation@@8 DD 00H			; emulation::gb::Cartridge::`RTTI Class Hierarchy Descriptor'
	DD	00H
	DD	02H
	DD	FLAT:??_R2Cartridge@gb@emulation@@8
rdata$r	ENDS
;	COMDAT ??_R0?AVCartridge@gb@emulation@@@8
_DATA	SEGMENT
??_R0?AVCartridge@gb@emulation@@@8 DD FLAT:??_7type_info@@6B@ ; emulation::gb::Cartridge `RTTI Type Descriptor'
	DD	00H
	DB	'.?AVCartridge@gb@emulation@@', 00H
_DATA	ENDS
;	COMDAT ??_R4Cartridge@gb@emulation@@6B@
rdata$r	SEGMENT
??_R4Cartridge@gb@emulation@@6B@ DD 00H			; emulation::gb::Cartridge::`RTTI Complete Object Locator'
	DD	00H
	DD	00H
	DD	FLAT:??_R0?AVCartridge@gb@emulation@@@8
	DD	FLAT:??_R3Cartridge@gb@emulation@@8
rdata$r	ENDS
;	COMDAT ??_R2Component@gb@emulation@@8
rdata$r	SEGMENT
??_R2Component@gb@emulation@@8 DD FLAT:??_R1A@?0A@EA@Component@gb@emulation@@8 ; emulation::gb::Component::`RTTI Base Class Array'
rdata$r	ENDS
;	COMDAT ??_R3Component@gb@emulation@@8
rdata$r	SEGMENT
??_R3Component@gb@emulation@@8 DD 00H			; emulation::gb::Component::`RTTI Class Hierarchy Descriptor'
	DD	00H
	DD	01H
	DD	FLAT:??_R2Component@gb@emulation@@8
rdata$r	ENDS
;	COMDAT ??_R0?AVComponent@gb@emulation@@@8
_DATA	SEGMENT
??_R0?AVComponent@gb@emulation@@@8 DD FLAT:??_7type_info@@6B@ ; emulation::gb::Component `RTTI Type Descriptor'
	DD	00H
	DB	'.?AVComponent@gb@emulation@@', 00H
_DATA	ENDS
;	COMDAT ??_R1A@?0A@EA@Component@gb@emulation@@8
rdata$r	SEGMENT
??_R1A@?0A@EA@Component@gb@emulation@@8 DD FLAT:??_R0?AVComponent@gb@emulation@@@8 ; emulation::gb::Component::`RTTI Base Class Descriptor at (0,-1,0,64)'
	DD	00H
	DD	00H
	DD	0ffffffffH
	DD	00H
	DD	040H
	DD	FLAT:??_R3Component@gb@emulation@@8
rdata$r	ENDS
;	COMDAT ??_R1A@?0A@EA@Memory@gb@emulation@@8
rdata$r	SEGMENT
??_R1A@?0A@EA@Memory@gb@emulation@@8 DD FLAT:??_R0?AVMemory@gb@emulation@@@8 ; emulation::gb::Memory::`RTTI Base Class Descriptor at (0,-1,0,64)'
	DD	01H
	DD	00H
	DD	0ffffffffH
	DD	00H
	DD	040H
	DD	FLAT:??_R3Memory@gb@emulation@@8
rdata$r	ENDS
;	COMDAT ??_R2Memory@gb@emulation@@8
rdata$r	SEGMENT
??_R2Memory@gb@emulation@@8 DD FLAT:??_R1A@?0A@EA@Memory@gb@emulation@@8 ; emulation::gb::Memory::`RTTI Base Class Array'
	DD	FLAT:??_R1A@?0A@EA@Component@gb@emulation@@8
rdata$r	ENDS
;	COMDAT ??_R3Memory@gb@emulation@@8
rdata$r	SEGMENT
??_R3Memory@gb@emulation@@8 DD 00H			; emulation::gb::Memory::`RTTI Class Hierarchy Descriptor'
	DD	00H
	DD	02H
	DD	FLAT:??_R2Memory@gb@emulation@@8
rdata$r	ENDS
;	COMDAT ??_R0?AVMemory@gb@emulation@@@8
_DATA	SEGMENT
??_R0?AVMemory@gb@emulation@@@8 DD FLAT:??_7type_info@@6B@ ; emulation::gb::Memory `RTTI Type Descriptor'
	DD	00H
	DB	'.?AVMemory@gb@emulation@@', 00H
_DATA	ENDS
;	COMDAT ??_R4Memory@gb@emulation@@6B@
rdata$r	SEGMENT
??_R4Memory@gb@emulation@@6B@ DD 00H			; emulation::gb::Memory::`RTTI Complete Object Locator'
	DD	00H
	DD	00H
	DD	FLAT:??_R0?AVMemory@gb@emulation@@@8
	DD	FLAT:??_R3Memory@gb@emulation@@8
rdata$r	ENDS
;	COMDAT ??_R0?AV<lambda_5d8c5ab464462ebb691e185ac4dda097>@@@8
_DATA	SEGMENT
??_R0?AV<lambda_5d8c5ab464462ebb691e185ac4dda097>@@@8 DD FLAT:??_7type_info@@6B@ ; <lambda_5d8c5ab464462ebb691e185ac4dda097> `RTTI Type Descriptor'
	DD	00H
	DB	'.?AV<lambda_5d8c5ab464462ebb691e185ac4dda097>@@', 00H
_DATA	ENDS
;	COMDAT ??_R0?AV<lambda_9eb754bdeb4f4749f734e866e5cd8484>@@@8
_DATA	SEGMENT
??_R0?AV<lambda_9eb754bdeb4f4749f734e866e5cd8484>@@@8 DD FLAT:??_7type_info@@6B@ ; <lambda_9eb754bdeb4f4749f734e866e5cd8484> `RTTI Type Descriptor'
	DD	00H
	DB	'.?AV<lambda_9eb754bdeb4f4749f734e866e5cd8484>@@', 00H
_DATA	ENDS
;	COMDAT ??_7?$_Func_impl@U?$_Callable_obj@V<lambda_5d8c5ab464462ebb691e185ac4dda097>@@$0A@@std@@V?$allocator@V?$_Func_class@XU_Nil@std@@U12@U12@U12@U12@U12@U12@@std@@@2@XU_Nil@2@U42@U42@U42@U42@U42@U42@@std@@6B@
CONST	SEGMENT
??_7?$_Func_impl@U?$_Callable_obj@V<lambda_5d8c5ab464462ebb691e185ac4dda097>@@$0A@@std@@V?$allocator@V?$_Func_class@XU_Nil@std@@U12@U12@U12@U12@U12@U12@@std@@@2@XU_Nil@2@U42@U42@U42@U42@U42@U42@@std@@6B@ DD FLAT:??_R4?$_Func_impl@U?$_Callable_obj@V<lambda_5d8c5ab464462ebb691e185ac4dda097>@@$0A@@std@@V?$allocator@V?$_Func_class@XU_Nil@std@@U12@U12@U12@U12@U12@U12@@std@@@2@XU_Nil@2@U42@U42@U42@U42@U42@U42@@std@@6B@ ; std::_Func_impl<std::_Callable_obj<<lambda_5d8c5ab464462ebb691e185ac4dda097>,0>,std::allocator<std::_Func_class<void,std::_Nil,std::_Nil,std::_Nil,std::_Nil,std::_Nil,std::_Nil,std::_Nil> >,void,std::_Nil,std::_Nil,std::_Nil,std::_Nil,std::_Nil,std::_Nil,std::_Nil>::`vftable'
	DD	FLAT:?_Copy@?$_Func_impl@U?$_Callable_obj@V<lambda_5d8c5ab464462ebb691e185ac4dda097>@@$0A@@std@@V?$allocator@V?$_Func_class@XU_Nil@std@@U12@U12@U12@U12@U12@U12@@std@@@2@XU_Nil@2@U42@U42@U42@U42@U42@U42@@std@@UAEPAV?$_Func_base@XU_Nil@std@@U12@U12@U12@U12@U12@U12@@2@PAX@Z
	DD	FLAT:?_Move@?$_Func_impl@U?$_Callable_obj@V<lambda_5d8c5ab464462ebb691e185ac4dda097>@@$0A@@std@@V?$allocator@V?$_Func_class@XU_Nil@std@@U12@U12@U12@U12@U12@U12@@std@@@2@XU_Nil@2@U42@U42@U42@U42@U42@U42@@std@@UAEPAV?$_Func_base@XU_Nil@std@@U12@U12@U12@U12@U12@U12@@2@PAX@Z
	DD	FLAT:?_Do_call@?$_Func_impl@U?$_Callable_obj@V<lambda_5d8c5ab464462ebb691e185ac4dda097>@@$0A@@std@@V?$allocator@V?$_Func_class@XU_Nil@std@@U12@U12@U12@U12@U12@U12@@std@@@2@XU_Nil@2@U42@U42@U42@U42@U42@U42@@std@@UAEXXZ
	DD	FLAT:?_Target_type@?$_Func_impl@U?$_Callable_obj@V<lambda_5d8c5ab464462ebb691e185ac4dda097>@@$0A@@std@@V?$allocator@V?$_Func_class@XU_Nil@std@@U12@U12@U12@U12@U12@U12@@std@@@2@XU_Nil@2@U42@U42@U42@U42@U42@U42@@std@@UBEABVtype_info@@XZ
	DD	FLAT:?_Delete_this@?$_Func_impl@U?$_Callable_obj@V<lambda_5d8c5ab464462ebb691e185ac4dda097>@@$0A@@std@@V?$allocator@V?$_Func_class@XU_Nil@std@@U12@U12@U12@U12@U12@U12@@std@@@2@XU_Nil@2@U42@U42@U42@U42@U42@U42@@std@@EAEX_N@Z
	DD	FLAT:??_E?$_Func_impl@U?$_Callable_obj@V<lambda_5d8c5ab464462ebb691e185ac4dda097>@@$0A@@std@@V?$allocator@V?$_Func_class@XU_Nil@std@@U12@U12@U12@U12@U12@U12@@std@@@2@XU_Nil@2@U42@U42@U42@U42@U42@U42@@std@@UAEPAXI@Z
	DD	FLAT:?_Get@?$_Func_impl@U?$_Callable_obj@V<lambda_5d8c5ab464462ebb691e185ac4dda097>@@$0A@@std@@V?$allocator@V?$_Func_class@XU_Nil@std@@U12@U12@U12@U12@U12@U12@@std@@@2@XU_Nil@2@U42@U42@U42@U42@U42@U42@@std@@EBEPBXXZ
CONST	ENDS
;	COMDAT ??_7?$_Func_impl@U?$_Callable_obj@V<lambda_9eb754bdeb4f4749f734e866e5cd8484>@@$0A@@std@@V?$allocator@V?$_Func_class@XU_Nil@std@@U12@U12@U12@U12@U12@U12@@std@@@2@XU_Nil@2@U42@U42@U42@U42@U42@U42@@std@@6B@
CONST	SEGMENT
??_7?$_Func_impl@U?$_Callable_obj@V<lambda_9eb754bdeb4f4749f734e866e5cd8484>@@$0A@@std@@V?$allocator@V?$_Func_class@XU_Nil@std@@U12@U12@U12@U12@U12@U12@@std@@@2@XU_Nil@2@U42@U42@U42@U42@U42@U42@@std@@6B@ DD FLAT:??_R4?$_Func_impl@U?$_Callable_obj@V<lambda_9eb754bdeb4f4749f734e866e5cd8484>@@$0A@@std@@V?$allocator@V?$_Func_class@XU_Nil@std@@U12@U12@U12@U12@U12@U12@@std@@@2@XU_Nil@2@U42@U42@U42@U42@U42@U42@@std@@6B@ ; std::_Func_impl<std::_Callable_obj<<lambda_9eb754bdeb4f4749f734e866e5cd8484>,0>,std::allocator<std::_Func_class<void,std::_Nil,std::_Nil,std::_Nil,std::_Nil,std::_Nil,std::_Nil,std::_Nil> >,void,std::_Nil,std::_Nil,std::_Nil,std::_Nil,std::_Nil,std::_Nil,std::_Nil>::`vftable'
	DD	FLAT:?_Copy@?$_Func_impl@U?$_Callable_obj@V<lambda_9eb754bdeb4f4749f734e866e5cd8484>@@$0A@@std@@V?$allocator@V?$_Func_class@XU_Nil@std@@U12@U12@U12@U12@U12@U12@@std@@@2@XU_Nil@2@U42@U42@U42@U42@U42@U42@@std@@UAEPAV?$_Func_base@XU_Nil@std@@U12@U12@U12@U12@U12@U12@@2@PAX@Z
	DD	FLAT:?_Move@?$_Func_impl@U?$_Callable_obj@V<lambda_9eb754bdeb4f4749f734e866e5cd8484>@@$0A@@std@@V?$allocator@V?$_Func_class@XU_Nil@std@@U12@U12@U12@U12@U12@U12@@std@@@2@XU_Nil@2@U42@U42@U42@U42@U42@U42@@std@@UAEPAV?$_Func_base@XU_Nil@std@@U12@U12@U12@U12@U12@U12@@2@PAX@Z
	DD	FLAT:?_Do_call@?$_Func_impl@U?$_Callable_obj@V<lambda_9eb754bdeb4f4749f734e866e5cd8484>@@$0A@@std@@V?$allocator@V?$_Func_class@XU_Nil@std@@U12@U12@U12@U12@U12@U12@@std@@@2@XU_Nil@2@U42@U42@U42@U42@U42@U42@@std@@UAEXXZ
	DD	FLAT:?_Target_type@?$_Func_impl@U?$_Callable_obj@V<lambda_9eb754bdeb4f4749f734e866e5cd8484>@@$0A@@std@@V?$allocator@V?$_Func_class@XU_Nil@std@@U12@U12@U12@U12@U12@U12@@std@@@2@XU_Nil@2@U42@U42@U42@U42@U42@U42@@std@@UBEABVtype_info@@XZ
	DD	FLAT:?_Delete_this@?$_Func_impl@U?$_Callable_obj@V<lambda_9eb754bdeb4f4749f734e866e5cd8484>@@$0A@@std@@V?$allocator@V?$_Func_class@XU_Nil@std@@U12@U12@U12@U12@U12@U12@@std@@@2@XU_Nil@2@U42@U42@U42@U42@U42@U42@@std@@EAEX_N@Z
	DD	FLAT:??_E?$_Func_impl@U?$_Callable_obj@V<lambda_9eb754bdeb4f4749f734e866e5cd8484>@@$0A@@std@@V?$allocator@V?$_Func_class@XU_Nil@std@@U12@U12@U12@U12@U12@U12@@std@@@2@XU_Nil@2@U42@U42@U42@U42@U42@U42@@std@@UAEPAXI@Z
	DD	FLAT:?_Get@?$_Func_impl@U?$_Callable_obj@V<lambda_9eb754bdeb4f4749f734e866e5cd8484>@@$0A@@std@@V?$allocator@V?$_Func_class@XU_Nil@std@@U12@U12@U12@U12@U12@U12@@std@@@2@XU_Nil@2@U42@U42@U42@U42@U42@U42@@std@@EBEPBXXZ
CONST	ENDS
;	COMDAT ??_7?$_Func_base@XU_Nil@std@@U12@U12@U12@U12@U12@U12@@std@@6B@
CONST	SEGMENT
??_7?$_Func_base@XU_Nil@std@@U12@U12@U12@U12@U12@U12@@std@@6B@ DD FLAT:??_R4?$_Func_base@XU_Nil@std@@U12@U12@U12@U12@U12@U12@@std@@6B@ ; std::_Func_base<void,std::_Nil,std::_Nil,std::_Nil,std::_Nil,std::_Nil,std::_Nil,std::_Nil>::`vftable'
	DD	FLAT:__purecall
	DD	FLAT:__purecall
	DD	FLAT:__purecall
	DD	FLAT:__purecall
	DD	FLAT:__purecall
	DD	FLAT:??_E?$_Func_base@XU_Nil@std@@U12@U12@U12@U12@U12@U12@@std@@UAEPAXI@Z
	DD	FLAT:__purecall
CONST	ENDS
;	COMDAT ??_7DisplayWindow@app@@6B@
CONST	SEGMENT
??_7DisplayWindow@app@@6B@ DD FLAT:??_R4DisplayWindow@app@@6B@ ; app::DisplayWindow::`vftable'
	DD	FLAT:?OnCreate@DisplayWindow@app@@MAEHIJ@Z
	DD	FLAT:?OnDestroy@DisplayWindow@app@@MAEHIJ@Z
	DD	FLAT:?OnCommand@DisplayWindow@app@@MAEHIJ@Z
	DD	FLAT:?OnResize@Window@windows@core@@MAEHIJ@Z
	DD	FLAT:?OnMouseMove@Window@windows@core@@MAEHIJ@Z
	DD	FLAT:?OnMouseWheel@Window@windows@core@@MAEHIJ@Z
	DD	FLAT:?OnLeftButtonDown@Window@windows@core@@MAEHIJ@Z
	DD	FLAT:?OnLeftButtonUp@Window@windows@core@@MAEHIJ@Z
	DD	FLAT:?OnMiddleButtonDown@Window@windows@core@@MAEHIJ@Z
	DD	FLAT:?OnMiddleButtonUp@Window@windows@core@@MAEHIJ@Z
	DD	FLAT:?OnRightButtonDown@Window@windows@core@@MAEHIJ@Z
	DD	FLAT:?OnRightButtonUp@Window@windows@core@@MAEHIJ@Z
	DD	FLAT:?OnCaptureChanged@Window@windows@core@@MAEHIJ@Z
	DD	FLAT:?OnInput@Window@windows@core@@MAEHIJ@Z
	DD	FLAT:?OnKeyDown@DisplayWindow@app@@MAEHIJ@Z
	DD	FLAT:?OnKeyUp@DisplayWindow@app@@MAEHIJ@Z
	DD	FLAT:?OnSysKeyDown@Window@windows@core@@MAEHIJ@Z
	DD	FLAT:?OnSysKeyUp@Window@windows@core@@MAEHIJ@Z
	DD	FLAT:?OnSysCommand@Window@windows@core@@MAEHIJ@Z
	DD	FLAT:?OnClose@Window@windows@core@@MAEHIJ@Z
	DD	FLAT:?OnActivate@Window@windows@core@@MAEHIJ@Z
	DD	FLAT:?OnDropFiles@DisplayWindow@app@@MAEHIJ@Z
	DD	FLAT:?PreProcessMessages@Window@windows@core@@MAEHPAUHWND__@@IIJ@Z
CONST	ENDS
;	COMDAT ??_7Timer@gb@emulation@@6B@
CONST	SEGMENT
??_7Timer@gb@emulation@@6B@ DD FLAT:??_R4Timer@gb@emulation@@6B@ ; emulation::gb::Timer::`vftable'
	DD	FLAT:?Initialize@Timer@gb@emulation@@UAEXPAVEmu@23@@Z
	DD	FLAT:?Deinitialize@Timer@gb@emulation@@UAEXXZ
	DD	FLAT:?Reset@Component@gb@emulation@@UAEXXZ
CONST	ENDS
;	COMDAT ??_7SoundController@gb@emulation@@6B@
CONST	SEGMENT
??_7SoundController@gb@emulation@@6B@ DD FLAT:??_R4SoundController@gb@emulation@@6B@ ; emulation::gb::SoundController::`vftable'
	DD	FLAT:?Initialize@SoundController@gb@emulation@@UAEXPAVEmu@23@@Z
	DD	FLAT:?Deinitialize@SoundController@gb@emulation@@UAEXXZ
	DD	FLAT:?Reset@SoundController@gb@emulation@@UAEXXZ
CONST	ENDS
;	COMDAT ??_7LCDDriver@gb@emulation@@6B@
CONST	SEGMENT
??_7LCDDriver@gb@emulation@@6B@ DD FLAT:??_R4LCDDriver@gb@emulation@@6B@ ; emulation::gb::LCDDriver::`vftable'
	DD	FLAT:?Initialize@LCDDriver@gb@emulation@@UAEXPAVEmu@23@@Z
	DD	FLAT:?Deinitialize@LCDDriver@gb@emulation@@UAEXXZ
	DD	FLAT:?Reset@Component@gb@emulation@@UAEXXZ
CONST	ENDS
;	COMDAT ??_7Memory@gb@emulation@@6B@
CONST	SEGMENT
??_7Memory@gb@emulation@@6B@ DD FLAT:??_R4Memory@gb@emulation@@6B@ ; emulation::gb::Memory::`vftable'
	DD	FLAT:?Initialize@Memory@gb@emulation@@UAEXPAVEmu@23@@Z
	DD	FLAT:?Deinitialize@Memory@gb@emulation@@UAEXXZ
	DD	FLAT:?Reset@Memory@gb@emulation@@UAEXXZ
CONST	ENDS
;	COMDAT ??_7Cartridge@gb@emulation@@6B@
CONST	SEGMENT
??_7Cartridge@gb@emulation@@6B@ DD FLAT:??_R4Cartridge@gb@emulation@@6B@ ; emulation::gb::Cartridge::`vftable'
	DD	FLAT:?Initialize@Cartridge@gb@emulation@@UAEXPAVEmu@23@@Z
	DD	FLAT:?Deinitialize@Cartridge@gb@emulation@@UAEXXZ
	DD	FLAT:?Reset@Component@gb@emulation@@UAEXXZ
CONST	ENDS
;	COMDAT ??_7Component@gb@emulation@@6B@
CONST	SEGMENT
??_7Component@gb@emulation@@6B@ DD FLAT:??_R4Component@gb@emulation@@6B@ ; emulation::gb::Component::`vftable'
	DD	FLAT:?Initialize@Component@gb@emulation@@UAEXPAVEmu@23@@Z
	DD	FLAT:?Deinitialize@Component@gb@emulation@@UAEXXZ
	DD	FLAT:?Reset@Component@gb@emulation@@UAEXXZ
CONST	ENDS
;	COMDAT ??_C@_1CK@CDMMNGHP@?$AAs?$AAt?$AAd?$AA?3?$AA?3?$AA_?$AAA?$AAt?$AAo?$AAm?$AAi?$AAc?$AA_?$AAs?$AAt?$AAo?$AAr?$AAe?$AA_?$AA1?$AA?$AA@
CONST	SEGMENT
??_C@_1CK@CDMMNGHP@?$AAs?$AAt?$AAd?$AA?3?$AA?3?$AA_?$AAA?$AAt?$AAo?$AAm?$AAi?$AAc?$AA_?$AAs?$AAt?$AAo?$AAr?$AAe?$AA_?$AA1?$AA?$AA@ DB 's'
	DB	00H, 't', 00H, 'd', 00H, ':', 00H, ':', 00H, '_', 00H, 'A', 00H
	DB	't', 00H, 'o', 00H, 'm', 00H, 'i', 00H, 'c', 00H, '_', 00H, 's'
	DB	00H, 't', 00H, 'o', 00H, 'r', 00H, 'e', 00H, '_', 00H, '1', 00H
	DB	00H, 00H					; `string'
CONST	ENDS
;	COMDAT ??_C@_1CG@JNLFBNGN@?$AA?$CC?$AAi?$AAn?$AAv?$AAa?$AAl?$AAi?$AAd?$AA?5?$AAa?$AAr?$AAg?$AAu?$AAm?$AAe?$AAn?$AAt?$AA?$CC?$AA?$AA@
CONST	SEGMENT
??_C@_1CG@JNLFBNGN@?$AA?$CC?$AAi?$AAn?$AAv?$AAa?$AAl?$AAi?$AAd?$AA?5?$AAa?$AAr?$AAg?$AAu?$AAm?$AAe?$AAn?$AAt?$AA?$CC?$AA?$AA@ DB '"'
	DB	00H, 'i', 00H, 'n', 00H, 'v', 00H, 'a', 00H, 'l', 00H, 'i', 00H
	DB	'd', 00H, ' ', 00H, 'a', 00H, 'r', 00H, 'g', 00H, 'u', 00H, 'm'
	DB	00H, 'e', 00H, 'n', 00H, 't', 00H, '"', 00H, 00H, 00H ; `string'
CONST	ENDS
;	COMDAT ??_C@_1FO@GJIHNDLM@?$AA?$CC?$AAS?$AAt?$AAa?$AAn?$AAd?$AAa?$AAr?$AAd?$AA?5?$AAC?$AA?$CL?$AA?$CL?$AA?5?$AAL?$AAi?$AAb?$AAr?$AAa?$AAr?$AAi?$AAe?$AAs?$AA?5?$AAI?$AAn?$AAv?$AAa?$AAl?$AAi?$AAd?$AA?5@
CONST	SEGMENT
??_C@_1FO@GJIHNDLM@?$AA?$CC?$AAS?$AAt?$AAa?$AAn?$AAd?$AAa?$AAr?$AAd?$AA?5?$AAC?$AA?$CL?$AA?$CL?$AA?5?$AAL?$AAi?$AAb?$AAr?$AAa?$AAr?$AAi?$AAe?$AAs?$AA?5?$AAI?$AAn?$AAv?$AAa?$AAl?$AAi?$AAd?$AA?5@ DB '"'
	DB	00H, 'S', 00H, 't', 00H, 'a', 00H, 'n', 00H, 'd', 00H, 'a', 00H
	DB	'r', 00H, 'd', 00H, ' ', 00H, 'C', 00H, '+', 00H, '+', 00H, ' '
	DB	00H, 'L', 00H, 'i', 00H, 'b', 00H, 'r', 00H, 'a', 00H, 'r', 00H
	DB	'i', 00H, 'e', 00H, 's', 00H, ' ', 00H, 'I', 00H, 'n', 00H, 'v'
	DB	00H, 'a', 00H, 'l', 00H, 'i', 00H, 'd', 00H, ' ', 00H, 'A', 00H
	DB	'r', 00H, 'g', 00H, 'u', 00H, 'm', 00H, 'e', 00H, 'n', 00H, 't'
	DB	00H, '"', 00H, ' ', 00H, '&', 00H, '&', 00H, ' ', 00H, '0', 00H
	DB	00H, 00H					; `string'
CONST	ENDS
;	COMDAT ??_C@_0CI@FNPHFCCM@Standard?5C?$CL?$CL?5Libraries?5Invalid?5A@
CONST	SEGMENT
??_C@_0CI@FNPHFCCM@Standard?5C?$CL?$CL?5Libraries?5Invalid?5A@ DB 'Standa'
	DB	'rd C++ Libraries Invalid Argument', 00H	; `string'
CONST	ENDS
;	COMDAT ??_C@_1CK@BEGEBJJG@?$AAI?$AAn?$AAv?$AAa?$AAl?$AAi?$AAd?$AA?5?$AAm?$AAe?$AAm?$AAo?$AAr?$AAy?$AA_?$AAo?$AAr?$AAd?$AAe?$AAr?$AA?$AA@
CONST	SEGMENT
??_C@_1CK@BEGEBJJG@?$AAI?$AAn?$AAv?$AAa?$AAl?$AAi?$AAd?$AA?5?$AAm?$AAe?$AAm?$AAo?$AAr?$AAy?$AA_?$AAo?$AAr?$AAd?$AAe?$AAr?$AA?$AA@ DB 'I'
	DB	00H, 'n', 00H, 'v', 00H, 'a', 00H, 'l', 00H, 'i', 00H, 'd', 00H
	DB	' ', 00H, 'm', 00H, 'e', 00H, 'm', 00H, 'o', 00H, 'r', 00H, 'y'
	DB	00H, '_', 00H, 'o', 00H, 'r', 00H, 'd', 00H, 'e', 00H, 'r', 00H
	DB	00H, 00H					; `string'
CONST	ENDS
;	COMDAT ??_C@_1JC@OFINEDFE@?$AAC?$AA?3?$AA?2?$AAP?$AAr?$AAo?$AAg?$AAr?$AAa?$AAm?$AA?5?$AAF?$AAi?$AAl?$AAe?$AAs?$AA?5?$AA?$CI?$AAx?$AA8?$AA6?$AA?$CJ?$AA?2?$AAM?$AAi?$AAc?$AAr?$AAo?$AAs?$AAo?$AAf?$AAt@
CONST	SEGMENT
??_C@_1JC@OFINEDFE@?$AAC?$AA?3?$AA?2?$AAP?$AAr?$AAo?$AAg?$AAr?$AAa?$AAm?$AA?5?$AAF?$AAi?$AAl?$AAe?$AAs?$AA?5?$AA?$CI?$AAx?$AA8?$AA6?$AA?$CJ?$AA?2?$AAM?$AAi?$AAc?$AAr?$AAo?$AAs?$AAo?$AAf?$AAt@ DB 'C'
	DB	00H, ':', 00H, '\', 00H, 'P', 00H, 'r', 00H, 'o', 00H, 'g', 00H
	DB	'r', 00H, 'a', 00H, 'm', 00H, ' ', 00H, 'F', 00H, 'i', 00H, 'l'
	DB	00H, 'e', 00H, 's', 00H, ' ', 00H, '(', 00H, 'x', 00H, '8', 00H
	DB	'6', 00H, ')', 00H, '\', 00H, 'M', 00H, 'i', 00H, 'c', 00H, 'r'
	DB	00H, 'o', 00H, 's', 00H, 'o', 00H, 'f', 00H, 't', 00H, ' ', 00H
	DB	'V', 00H, 'i', 00H, 's', 00H, 'u', 00H, 'a', 00H, 'l', 00H, ' '
	DB	00H, 'S', 00H, 't', 00H, 'u', 00H, 'd', 00H, 'i', 00H, 'o', 00H
	DB	' ', 00H, '1', 00H, '1', 00H, '.', 00H, '0', 00H, '\', 00H, 'V'
	DB	00H, 'C', 00H, '\', 00H, 'i', 00H, 'n', 00H, 'c', 00H, 'l', 00H
	DB	'u', 00H, 'd', 00H, 'e', 00H, '\', 00H, 'x', 00H, 'a', 00H, 't'
	DB	00H, 'o', 00H, 'm', 00H, 'i', 00H, 'c', 00H, '.', 00H, 'h', 00H
	DB	00H, 00H					; `string'
CONST	ENDS
;	COMDAT ??_C@_15GANGMFKL@?$AA?$CF?$AAs?$AA?$AA@
CONST	SEGMENT
??_C@_15GANGMFKL@?$AA?$CF?$AAs?$AA?$AA@ DB '%', 00H, 's', 00H, 00H, 00H ; `string'
CONST	ENDS
;	COMDAT xdata$x
xdata$x	SEGMENT
__unwindtable$??$?0U?$_Callable_obj@V<lambda_5d8c5ab464462ebb691e185ac4dda097>@@$0A@@std@@@?$_Func_impl@U?$_Callable_obj@V<lambda_5d8c5ab464462ebb691e185ac4dda097>@@$0A@@std@@V?$allocator@V?$_Func_class@XU_Nil@std@@U12@U12@U12@U12@U12@U12@@std@@@2@XU_Nil@2@U42@U42@U42@U42@U42@U42@@std@@QAE@$$QAU?$_Callable_obj@V<lambda_5d8c5ab464462ebb691e185ac4dda097>@@$0A@@1@ABV?$allocator@V?$_Func_impl@U?$_Callable_obj@V<lambda_5d8c5ab464462ebb691e185ac4dda097>@@$0A@@std@@V?$allocator@V?$_Func_class@XU_Nil@std@@U12@U12@U12@U12@U12@U12@@std@@@2@XU_Nil@2@U42@U42@U42@U42@U42@U42@@std@@@1@@Z DD 0ffffffffH
	DD	FLAT:__unwindfunclet$??$?0U?$_Callable_obj@V<lambda_5d8c5ab464462ebb691e185ac4dda097>@@$0A@@std@@@?$_Func_impl@U?$_Callable_obj@V<lambda_5d8c5ab464462ebb691e185ac4dda097>@@$0A@@std@@V?$allocator@V?$_Func_class@XU_Nil@std@@U12@U12@U12@U12@U12@U12@@std@@@2@XU_Nil@2@U42@U42@U42@U42@U42@U42@@std@@QAE@$$QAU?$_Callable_obj@V<lambda_5d8c5ab464462ebb691e185ac4dda097>@@$0A@@1@ABV?$allocator@V?$_Func_impl@U?$_Callable_obj@V<lambda_5d8c5ab464462ebb691e185ac4dda097>@@$0A@@std@@V?$allocator@V?$_Func_class@XU_Nil@std@@U12@U12@U12@U12@U12@U12@@std@@@2@XU_Nil@2@U42@U42@U42@U42@U42@U42@@std@@@1@@Z$0
__ehfuncinfo$??$?0U?$_Callable_obj@V<lambda_5d8c5ab464462ebb691e185ac4dda097>@@$0A@@std@@@?$_Func_impl@U?$_Callable_obj@V<lambda_5d8c5ab464462ebb691e185ac4dda097>@@$0A@@std@@V?$allocator@V?$_Func_class@XU_Nil@std@@U12@U12@U12@U12@U12@U12@@std@@@2@XU_Nil@2@U42@U42@U42@U42@U42@U42@@std@@QAE@$$QAU?$_Callable_obj@V<lambda_5d8c5ab464462ebb691e185ac4dda097>@@$0A@@1@ABV?$allocator@V?$_Func_impl@U?$_Callable_obj@V<lambda_5d8c5ab464462ebb691e185ac4dda097>@@$0A@@std@@V?$allocator@V?$_Func_class@XU_Nil@std@@U12@U12@U12@U12@U12@U12@@std@@@2@XU_Nil@2@U42@U42@U42@U42@U42@U42@@std@@@1@@Z DD 019930522H
	DD	01H
	DD	FLAT:__unwindtable$??$?0U?$_Callable_obj@V<lambda_5d8c5ab464462ebb691e185ac4dda097>@@$0A@@std@@@?$_Func_impl@U?$_Callable_obj@V<lambda_5d8c5ab464462ebb691e185ac4dda097>@@$0A@@std@@V?$allocator@V?$_Func_class@XU_Nil@std@@U12@U12@U12@U12@U12@U12@@std@@@2@XU_Nil@2@U42@U42@U42@U42@U42@U42@@std@@QAE@$$QAU?$_Callable_obj@V<lambda_5d8c5ab464462ebb691e185ac4dda097>@@$0A@@1@ABV?$allocator@V?$_Func_impl@U?$_Callable_obj@V<lambda_5d8c5ab464462ebb691e185ac4dda097>@@$0A@@std@@V?$allocator@V?$_Func_class@XU_Nil@std@@U12@U12@U12@U12@U12@U12@@std@@@2@XU_Nil@2@U42@U42@U42@U42@U42@U42@@std@@@1@@Z
	DD	2 DUP(00H)
	DD	2 DUP(00H)
	DD	00H
	DD	01H
xdata$x	ENDS
;	COMDAT xdata$x
xdata$x	SEGMENT
__unwindtable$??$?0AAU?$_Callable_obj@V<lambda_5d8c5ab464462ebb691e185ac4dda097>@@$0A@@std@@@?$_Func_impl@U?$_Callable_obj@V<lambda_5d8c5ab464462ebb691e185ac4dda097>@@$0A@@std@@V?$allocator@V?$_Func_class@XU_Nil@std@@U12@U12@U12@U12@U12@U12@@std@@@2@XU_Nil@2@U42@U42@U42@U42@U42@U42@@std@@QAE@AAU?$_Callable_obj@V<lambda_5d8c5ab464462ebb691e185ac4dda097>@@$0A@@1@ABV?$allocator@V?$_Func_impl@U?$_Callable_obj@V<lambda_5d8c5ab464462ebb691e185ac4dda097>@@$0A@@std@@V?$allocator@V?$_Func_class@XU_Nil@std@@U12@U12@U12@U12@U12@U12@@std@@@2@XU_Nil@2@U42@U42@U42@U42@U42@U42@@std@@@1@@Z DD 0ffffffffH
	DD	FLAT:__unwindfunclet$??$?0AAU?$_Callable_obj@V<lambda_5d8c5ab464462ebb691e185ac4dda097>@@$0A@@std@@@?$_Func_impl@U?$_Callable_obj@V<lambda_5d8c5ab464462ebb691e185ac4dda097>@@$0A@@std@@V?$allocator@V?$_Func_class@XU_Nil@std@@U12@U12@U12@U12@U12@U12@@std@@@2@XU_Nil@2@U42@U42@U42@U42@U42@U42@@std@@QAE@AAU?$_Callable_obj@V<lambda_5d8c5ab464462ebb691e185ac4dda097>@@$0A@@1@ABV?$allocator@V?$_Func_impl@U?$_Callable_obj@V<lambda_5d8c5ab464462ebb691e185ac4dda097>@@$0A@@std@@V?$allocator@V?$_Func_class@XU_Nil@std@@U12@U12@U12@U12@U12@U12@@std@@@2@XU_Nil@2@U42@U42@U42@U42@U42@U42@@std@@@1@@Z$0
__ehfuncinfo$??$?0AAU?$_Callable_obj@V<lambda_5d8c5ab464462ebb691e185ac4dda097>@@$0A@@std@@@?$_Func_impl@U?$_Callable_obj@V<lambda_5d8c5ab464462ebb691e185ac4dda097>@@$0A@@std@@V?$allocator@V?$_Func_class@XU_Nil@std@@U12@U12@U12@U12@U12@U12@@std@@@2@XU_Nil@2@U42@U42@U42@U42@U42@U42@@std@@QAE@AAU?$_Callable_obj@V<lambda_5d8c5ab464462ebb691e185ac4dda097>@@$0A@@1@ABV?$allocator@V?$_Func_impl@U?$_Callable_obj@V<lambda_5d8c5ab464462ebb691e185ac4dda097>@@$0A@@std@@V?$allocator@V?$_Func_class@XU_Nil@std@@U12@U12@U12@U12@U12@U12@@std@@@2@XU_Nil@2@U42@U42@U42@U42@U42@U42@@std@@@1@@Z DD 019930522H
	DD	01H
	DD	FLAT:__unwindtable$??$?0AAU?$_Callable_obj@V<lambda_5d8c5ab464462ebb691e185ac4dda097>@@$0A@@std@@@?$_Func_impl@U?$_Callable_obj@V<lambda_5d8c5ab464462ebb691e185ac4dda097>@@$0A@@std@@V?$allocator@V?$_Func_class@XU_Nil@std@@U12@U12@U12@U12@U12@U12@@std@@@2@XU_Nil@2@U42@U42@U42@U42@U42@U42@@std@@QAE@AAU?$_Callable_obj@V<lambda_5d8c5ab464462ebb691e185ac4dda097>@@$0A@@1@ABV?$allocator@V?$_Func_impl@U?$_Callable_obj@V<lambda_5d8c5ab464462ebb691e185ac4dda097>@@$0A@@std@@V?$allocator@V?$_Func_class@XU_Nil@std@@U12@U12@U12@U12@U12@U12@@std@@@2@XU_Nil@2@U42@U42@U42@U42@U42@U42@@std@@@1@@Z
	DD	2 DUP(00H)
	DD	2 DUP(00H)
	DD	00H
	DD	01H
xdata$x	ENDS
;	COMDAT xdata$x
xdata$x	SEGMENT
__unwindtable$??$?0U?$_Callable_obj@V<lambda_9eb754bdeb4f4749f734e866e5cd8484>@@$0A@@std@@@?$_Func_impl@U?$_Callable_obj@V<lambda_9eb754bdeb4f4749f734e866e5cd8484>@@$0A@@std@@V?$allocator@V?$_Func_class@XU_Nil@std@@U12@U12@U12@U12@U12@U12@@std@@@2@XU_Nil@2@U42@U42@U42@U42@U42@U42@@std@@QAE@$$QAU?$_Callable_obj@V<lambda_9eb754bdeb4f4749f734e866e5cd8484>@@$0A@@1@ABV?$allocator@V?$_Func_impl@U?$_Callable_obj@V<lambda_9eb754bdeb4f4749f734e866e5cd8484>@@$0A@@std@@V?$allocator@V?$_Func_class@XU_Nil@std@@U12@U12@U12@U12@U12@U12@@std@@@2@XU_Nil@2@U42@U42@U42@U42@U42@U42@@std@@@1@@Z DD 0ffffffffH
	DD	FLAT:__unwindfunclet$??$?0U?$_Callable_obj@V<lambda_9eb754bdeb4f4749f734e866e5cd8484>@@$0A@@std@@@?$_Func_impl@U?$_Callable_obj@V<lambda_9eb754bdeb4f4749f734e866e5cd8484>@@$0A@@std@@V?$allocator@V?$_Func_class@XU_Nil@std@@U12@U12@U12@U12@U12@U12@@std@@@2@XU_Nil@2@U42@U42@U42@U42@U42@U42@@std@@QAE@$$QAU?$_Callable_obj@V<lambda_9eb754bdeb4f4749f734e866e5cd8484>@@$0A@@1@ABV?$allocator@V?$_Func_impl@U?$_Callable_obj@V<lambda_9eb754bdeb4f4749f734e866e5cd8484>@@$0A@@std@@V?$allocator@V?$_Func_class@XU_Nil@std@@U12@U12@U12@U12@U12@U12@@std@@@2@XU_Nil@2@U42@U42@U42@U42@U42@U42@@std@@@1@@Z$0
__ehfuncinfo$??$?0U?$_Callable_obj@V<lambda_9eb754bdeb4f4749f734e866e5cd8484>@@$0A@@std@@@?$_Func_impl@U?$_Callable_obj@V<lambda_9eb754bdeb4f4749f734e866e5cd8484>@@$0A@@std@@V?$allocator@V?$_Func_class@XU_Nil@std@@U12@U12@U12@U12@U12@U12@@std@@@2@XU_Nil@2@U42@U42@U42@U42@U42@U42@@std@@QAE@$$QAU?$_Callable_obj@V<lambda_9eb754bdeb4f4749f734e866e5cd8484>@@$0A@@1@ABV?$allocator@V?$_Func_impl@U?$_Callable_obj@V<lambda_9eb754bdeb4f4749f734e866e5cd8484>@@$0A@@std@@V?$allocator@V?$_Func_class@XU_Nil@std@@U12@U12@U12@U12@U12@U12@@std@@@2@XU_Nil@2@U42@U42@U42@U42@U42@U42@@std@@@1@@Z DD 019930522H
	DD	01H
	DD	FLAT:__unwindtable$??$?0U?$_Callable_obj@V<lambda_9eb754bdeb4f4749f734e866e5cd8484>@@$0A@@std@@@?$_Func_impl@U?$_Callable_obj@V<lambda_9eb754bdeb4f4749f734e866e5cd8484>@@$0A@@std@@V?$allocator@V?$_Func_class@XU_Nil@std@@U12@U12@U12@U12@U12@U12@@std@@@2@XU_Nil@2@U42@U42@U42@U42@U42@U42@@std@@QAE@$$QAU?$_Callable_obj@V<lambda_9eb754bdeb4f4749f734e866e5cd8484>@@$0A@@1@ABV?$allocator@V?$_Func_impl@U?$_Callable_obj@V<lambda_9eb754bdeb4f4749f734e866e5cd8484>@@$0A@@std@@V?$allocator@V?$_Func_class@XU_Nil@std@@U12@U12@U12@U12@U12@U12@@std@@@2@XU_Nil@2@U42@U42@U42@U42@U42@U42@@std@@@1@@Z
	DD	2 DUP(00H)
	DD	2 DUP(00H)
	DD	00H
	DD	01H
xdata$x	ENDS
;	COMDAT xdata$x
xdata$x	SEGMENT
__unwindtable$??$?0AAU?$_Callable_obj@V<lambda_9eb754bdeb4f4749f734e866e5cd8484>@@$0A@@std@@@?$_Func_impl@U?$_Callable_obj@V<lambda_9eb754bdeb4f4749f734e866e5cd8484>@@$0A@@std@@V?$allocator@V?$_Func_class@XU_Nil@std@@U12@U12@U12@U12@U12@U12@@std@@@2@XU_Nil@2@U42@U42@U42@U42@U42@U42@@std@@QAE@AAU?$_Callable_obj@V<lambda_9eb754bdeb4f4749f734e866e5cd8484>@@$0A@@1@ABV?$allocator@V?$_Func_impl@U?$_Callable_obj@V<lambda_9eb754bdeb4f4749f734e866e5cd8484>@@$0A@@std@@V?$allocator@V?$_Func_class@XU_Nil@std@@U12@U12@U12@U12@U12@U12@@std@@@2@XU_Nil@2@U42@U42@U42@U42@U42@U42@@std@@@1@@Z DD 0ffffffffH
	DD	FLAT:__unwindfunclet$??$?0AAU?$_Callable_obj@V<lambda_9eb754bdeb4f4749f734e866e5cd8484>@@$0A@@std@@@?$_Func_impl@U?$_Callable_obj@V<lambda_9eb754bdeb4f4749f734e866e5cd8484>@@$0A@@std@@V?$allocator@V?$_Func_class@XU_Nil@std@@U12@U12@U12@U12@U12@U12@@std@@@2@XU_Nil@2@U42@U42@U42@U42@U42@U42@@std@@QAE@AAU?$_Callable_obj@V<lambda_9eb754bdeb4f4749f734e866e5cd8484>@@$0A@@1@ABV?$allocator@V?$_Func_impl@U?$_Callable_obj@V<lambda_9eb754bdeb4f4749f734e866e5cd8484>@@$0A@@std@@V?$allocator@V?$_Func_class@XU_Nil@std@@U12@U12@U12@U12@U12@U12@@std@@@2@XU_Nil@2@U42@U42@U42@U42@U42@U42@@std@@@1@@Z$0
__ehfuncinfo$??$?0AAU?$_Callable_obj@V<lambda_9eb754bdeb4f4749f734e866e5cd8484>@@$0A@@std@@@?$_Func_impl@U?$_Callable_obj@V<lambda_9eb754bdeb4f4749f734e866e5cd8484>@@$0A@@std@@V?$allocator@V?$_Func_class@XU_Nil@std@@U12@U12@U12@U12@U12@U12@@std@@@2@XU_Nil@2@U42@U42@U42@U42@U42@U42@@std@@QAE@AAU?$_Callable_obj@V<lambda_9eb754bdeb4f4749f734e866e5cd8484>@@$0A@@1@ABV?$allocator@V?$_Func_impl@U?$_Callable_obj@V<lambda_9eb754bdeb4f4749f734e866e5cd8484>@@$0A@@std@@V?$allocator@V?$_Func_class@XU_Nil@std@@U12@U12@U12@U12@U12@U12@@std@@@2@XU_Nil@2@U42@U42@U42@U42@U42@U42@@std@@@1@@Z DD 019930522H
	DD	01H
	DD	FLAT:__unwindtable$??$?0AAU?$_Callable_obj@V<lambda_9eb754bdeb4f4749f734e866e5cd8484>@@$0A@@std@@@?$_Func_impl@U?$_Callable_obj@V<lambda_9eb754bdeb4f4749f734e866e5cd8484>@@$0A@@std@@V?$allocator@V?$_Func_class@XU_Nil@std@@U12@U12@U12@U12@U12@U12@@std@@@2@XU_Nil@2@U42@U42@U42@U42@U42@U42@@std@@QAE@AAU?$_Callable_obj@V<lambda_9eb754bdeb4f4749f734e866e5cd8484>@@$0A@@1@ABV?$allocator@V?$_Func_impl@U?$_Callable_obj@V<lambda_9eb754bdeb4f4749f734e866e5cd8484>@@$0A@@std@@V?$allocator@V?$_Func_class@XU_Nil@std@@U12@U12@U12@U12@U12@U12@@std@@@2@XU_Nil@2@U42@U42@U42@U42@U42@U42@@std@@@1@@Z
	DD	2 DUP(00H)
	DD	2 DUP(00H)
	DD	00H
	DD	01H
xdata$x	ENDS
;	COMDAT xdata$x
xdata$x	SEGMENT
__unwindtable$?_Move@?$_Func_impl@U?$_Callable_obj@V<lambda_5d8c5ab464462ebb691e185ac4dda097>@@$0A@@std@@V?$allocator@V?$_Func_class@XU_Nil@std@@U12@U12@U12@U12@U12@U12@@std@@@2@XU_Nil@2@U42@U42@U42@U42@U42@U42@@std@@UAEPAV?$_Func_base@XU_Nil@std@@U12@U12@U12@U12@U12@U12@@2@PAX@Z DD 0ffffffffH
	DD	FLAT:__unwindfunclet$?_Move@?$_Func_impl@U?$_Callable_obj@V<lambda_5d8c5ab464462ebb691e185ac4dda097>@@$0A@@std@@V?$allocator@V?$_Func_class@XU_Nil@std@@U12@U12@U12@U12@U12@U12@@std@@@2@XU_Nil@2@U42@U42@U42@U42@U42@U42@@std@@UAEPAV?$_Func_base@XU_Nil@std@@U12@U12@U12@U12@U12@U12@@2@PAX@Z$0
__ehfuncinfo$?_Move@?$_Func_impl@U?$_Callable_obj@V<lambda_5d8c5ab464462ebb691e185ac4dda097>@@$0A@@std@@V?$allocator@V?$_Func_class@XU_Nil@std@@U12@U12@U12@U12@U12@U12@@std@@@2@XU_Nil@2@U42@U42@U42@U42@U42@U42@@std@@UAEPAV?$_Func_base@XU_Nil@std@@U12@U12@U12@U12@U12@U12@@2@PAX@Z DD 019930522H
	DD	01H
	DD	FLAT:__unwindtable$?_Move@?$_Func_impl@U?$_Callable_obj@V<lambda_5d8c5ab464462ebb691e185ac4dda097>@@$0A@@std@@V?$allocator@V?$_Func_class@XU_Nil@std@@U12@U12@U12@U12@U12@U12@@std@@@2@XU_Nil@2@U42@U42@U42@U42@U42@U42@@std@@UAEPAV?$_Func_base@XU_Nil@std@@U12@U12@U12@U12@U12@U12@@2@PAX@Z
	DD	2 DUP(00H)
	DD	2 DUP(00H)
	DD	00H
	DD	01H
xdata$x	ENDS
;	COMDAT xdata$x
xdata$x	SEGMENT
__unwindtable$?_Copy@?$_Func_impl@U?$_Callable_obj@V<lambda_5d8c5ab464462ebb691e185ac4dda097>@@$0A@@std@@V?$allocator@V?$_Func_class@XU_Nil@std@@U12@U12@U12@U12@U12@U12@@std@@@2@XU_Nil@2@U42@U42@U42@U42@U42@U42@@std@@UAEPAV?$_Func_base@XU_Nil@std@@U12@U12@U12@U12@U12@U12@@2@PAX@Z DD 0ffffffffH
	DD	FLAT:__unwindfunclet$?_Copy@?$_Func_impl@U?$_Callable_obj@V<lambda_5d8c5ab464462ebb691e185ac4dda097>@@$0A@@std@@V?$allocator@V?$_Func_class@XU_Nil@std@@U12@U12@U12@U12@U12@U12@@std@@@2@XU_Nil@2@U42@U42@U42@U42@U42@U42@@std@@UAEPAV?$_Func_base@XU_Nil@std@@U12@U12@U12@U12@U12@U12@@2@PAX@Z$0
__ehfuncinfo$?_Copy@?$_Func_impl@U?$_Callable_obj@V<lambda_5d8c5ab464462ebb691e185ac4dda097>@@$0A@@std@@V?$allocator@V?$_Func_class@XU_Nil@std@@U12@U12@U12@U12@U12@U12@@std@@@2@XU_Nil@2@U42@U42@U42@U42@U42@U42@@std@@UAEPAV?$_Func_base@XU_Nil@std@@U12@U12@U12@U12@U12@U12@@2@PAX@Z DD 019930522H
	DD	01H
	DD	FLAT:__unwindtable$?_Copy@?$_Func_impl@U?$_Callable_obj@V<lambda_5d8c5ab464462ebb691e185ac4dda097>@@$0A@@std@@V?$allocator@V?$_Func_class@XU_Nil@std@@U12@U12@U12@U12@U12@U12@@std@@@2@XU_Nil@2@U42@U42@U42@U42@U42@U42@@std@@UAEPAV?$_Func_base@XU_Nil@std@@U12@U12@U12@U12@U12@U12@@2@PAX@Z
	DD	2 DUP(00H)
	DD	2 DUP(00H)
	DD	00H
	DD	01H
xdata$x	ENDS
;	COMDAT xdata$x
xdata$x	SEGMENT
__unwindtable$??0?$_Func_impl@U?$_Callable_obj@V<lambda_5d8c5ab464462ebb691e185ac4dda097>@@$0A@@std@@V?$allocator@V?$_Func_class@XU_Nil@std@@U12@U12@U12@U12@U12@U12@@std@@@2@XU_Nil@2@U42@U42@U42@U42@U42@U42@@std@@QAE@$$QAV<lambda_5d8c5ab464462ebb691e185ac4dda097>@@ABV?$allocator@V?$_Func_impl@U?$_Callable_obj@V<lambda_5d8c5ab464462ebb691e185ac4dda097>@@$0A@@std@@V?$allocator@V?$_Func_class@XU_Nil@std@@U12@U12@U12@U12@U12@U12@@std@@@2@XU_Nil@2@U42@U42@U42@U42@U42@U42@@std@@@1@@Z DD 0ffffffffH
	DD	FLAT:__unwindfunclet$??0?$_Func_impl@U?$_Callable_obj@V<lambda_5d8c5ab464462ebb691e185ac4dda097>@@$0A@@std@@V?$allocator@V?$_Func_class@XU_Nil@std@@U12@U12@U12@U12@U12@U12@@std@@@2@XU_Nil@2@U42@U42@U42@U42@U42@U42@@std@@QAE@$$QAV<lambda_5d8c5ab464462ebb691e185ac4dda097>@@ABV?$allocator@V?$_Func_impl@U?$_Callable_obj@V<lambda_5d8c5ab464462ebb691e185ac4dda097>@@$0A@@std@@V?$allocator@V?$_Func_class@XU_Nil@std@@U12@U12@U12@U12@U12@U12@@std@@@2@XU_Nil@2@U42@U42@U42@U42@U42@U42@@std@@@1@@Z$0
__ehfuncinfo$??0?$_Func_impl@U?$_Callable_obj@V<lambda_5d8c5ab464462ebb691e185ac4dda097>@@$0A@@std@@V?$allocator@V?$_Func_class@XU_Nil@std@@U12@U12@U12@U12@U12@U12@@std@@@2@XU_Nil@2@U42@U42@U42@U42@U42@U42@@std@@QAE@$$QAV<lambda_5d8c5ab464462ebb691e185ac4dda097>@@ABV?$allocator@V?$_Func_impl@U?$_Callable_obj@V<lambda_5d8c5ab464462ebb691e185ac4dda097>@@$0A@@std@@V?$allocator@V?$_Func_class@XU_Nil@std@@U12@U12@U12@U12@U12@U12@@std@@@2@XU_Nil@2@U42@U42@U42@U42@U42@U42@@std@@@1@@Z DD 019930522H
	DD	01H
	DD	FLAT:__unwindtable$??0?$_Func_impl@U?$_Callable_obj@V<lambda_5d8c5ab464462ebb691e185ac4dda097>@@$0A@@std@@V?$allocator@V?$_Func_class@XU_Nil@std@@U12@U12@U12@U12@U12@U12@@std@@@2@XU_Nil@2@U42@U42@U42@U42@U42@U42@@std@@QAE@$$QAV<lambda_5d8c5ab464462ebb691e185ac4dda097>@@ABV?$allocator@V?$_Func_impl@U?$_Callable_obj@V<lambda_5d8c5ab464462ebb691e185ac4dda097>@@$0A@@std@@V?$allocator@V?$_Func_class@XU_Nil@std@@U12@U12@U12@U12@U12@U12@@std@@@2@XU_Nil@2@U42@U42@U42@U42@U42@U42@@std@@@1@@Z
	DD	2 DUP(00H)
	DD	2 DUP(00H)
	DD	00H
	DD	01H
xdata$x	ENDS
;	COMDAT xdata$x
xdata$x	SEGMENT
__unwindtable$?_Move@?$_Func_impl@U?$_Callable_obj@V<lambda_9eb754bdeb4f4749f734e866e5cd8484>@@$0A@@std@@V?$allocator@V?$_Func_class@XU_Nil@std@@U12@U12@U12@U12@U12@U12@@std@@@2@XU_Nil@2@U42@U42@U42@U42@U42@U42@@std@@UAEPAV?$_Func_base@XU_Nil@std@@U12@U12@U12@U12@U12@U12@@2@PAX@Z DD 0ffffffffH
	DD	FLAT:__unwindfunclet$?_Move@?$_Func_impl@U?$_Callable_obj@V<lambda_9eb754bdeb4f4749f734e866e5cd8484>@@$0A@@std@@V?$allocator@V?$_Func_class@XU_Nil@std@@U12@U12@U12@U12@U12@U12@@std@@@2@XU_Nil@2@U42@U42@U42@U42@U42@U42@@std@@UAEPAV?$_Func_base@XU_Nil@std@@U12@U12@U12@U12@U12@U12@@2@PAX@Z$0
__ehfuncinfo$?_Move@?$_Func_impl@U?$_Callable_obj@V<lambda_9eb754bdeb4f4749f734e866e5cd8484>@@$0A@@std@@V?$allocator@V?$_Func_class@XU_Nil@std@@U12@U12@U12@U12@U12@U12@@std@@@2@XU_Nil@2@U42@U42@U42@U42@U42@U42@@std@@UAEPAV?$_Func_base@XU_Nil@std@@U12@U12@U12@U12@U12@U12@@2@PAX@Z DD 019930522H
	DD	01H
	DD	FLAT:__unwindtable$?_Move@?$_Func_impl@U?$_Callable_obj@V<lambda_9eb754bdeb4f4749f734e866e5cd8484>@@$0A@@std@@V?$allocator@V?$_Func_class@XU_Nil@std@@U12@U12@U12@U12@U12@U12@@std@@@2@XU_Nil@2@U42@U42@U42@U42@U42@U42@@std@@UAEPAV?$_Func_base@XU_Nil@std@@U12@U12@U12@U12@U12@U12@@2@PAX@Z
	DD	2 DUP(00H)
	DD	2 DUP(00H)
	DD	00H
	DD	01H
xdata$x	ENDS
;	COMDAT xdata$x
xdata$x	SEGMENT
__unwindtable$?_Copy@?$_Func_impl@U?$_Callable_obj@V<lambda_9eb754bdeb4f4749f734e866e5cd8484>@@$0A@@std@@V?$allocator@V?$_Func_class@XU_Nil@std@@U12@U12@U12@U12@U12@U12@@std@@@2@XU_Nil@2@U42@U42@U42@U42@U42@U42@@std@@UAEPAV?$_Func_base@XU_Nil@std@@U12@U12@U12@U12@U12@U12@@2@PAX@Z DD 0ffffffffH
	DD	FLAT:__unwindfunclet$?_Copy@?$_Func_impl@U?$_Callable_obj@V<lambda_9eb754bdeb4f4749f734e866e5cd8484>@@$0A@@std@@V?$allocator@V?$_Func_class@XU_Nil@std@@U12@U12@U12@U12@U12@U12@@std@@@2@XU_Nil@2@U42@U42@U42@U42@U42@U42@@std@@UAEPAV?$_Func_base@XU_Nil@std@@U12@U12@U12@U12@U12@U12@@2@PAX@Z$0
__ehfuncinfo$?_Copy@?$_Func_impl@U?$_Callable_obj@V<lambda_9eb754bdeb4f4749f734e866e5cd8484>@@$0A@@std@@V?$allocator@V?$_Func_class@XU_Nil@std@@U12@U12@U12@U12@U12@U12@@std@@@2@XU_Nil@2@U42@U42@U42@U42@U42@U42@@std@@UAEPAV?$_Func_base@XU_Nil@std@@U12@U12@U12@U12@U12@U12@@2@PAX@Z DD 019930522H
	DD	01H
	DD	FLAT:__unwindtable$?_Copy@?$_Func_impl@U?$_Callable_obj@V<lambda_9eb754bdeb4f4749f734e866e5cd8484>@@$0A@@std@@V?$allocator@V?$_Func_class@XU_Nil@std@@U12@U12@U12@U12@U12@U12@@std@@@2@XU_Nil@2@U42@U42@U42@U42@U42@U42@@std@@UAEPAV?$_Func_base@XU_Nil@std@@U12@U12@U12@U12@U12@U12@@2@PAX@Z
	DD	2 DUP(00H)
	DD	2 DUP(00H)
	DD	00H
	DD	01H
xdata$x	ENDS
;	COMDAT xdata$x
xdata$x	SEGMENT
__unwindtable$??0?$_Func_impl@U?$_Callable_obj@V<lambda_9eb754bdeb4f4749f734e866e5cd8484>@@$0A@@std@@V?$allocator@V?$_Func_class@XU_Nil@std@@U12@U12@U12@U12@U12@U12@@std@@@2@XU_Nil@2@U42@U42@U42@U42@U42@U42@@std@@QAE@$$QAV<lambda_9eb754bdeb4f4749f734e866e5cd8484>@@ABV?$allocator@V?$_Func_impl@U?$_Callable_obj@V<lambda_9eb754bdeb4f4749f734e866e5cd8484>@@$0A@@std@@V?$allocator@V?$_Func_class@XU_Nil@std@@U12@U12@U12@U12@U12@U12@@std@@@2@XU_Nil@2@U42@U42@U42@U42@U42@U42@@std@@@1@@Z DD 0ffffffffH
	DD	FLAT:__unwindfunclet$??0?$_Func_impl@U?$_Callable_obj@V<lambda_9eb754bdeb4f4749f734e866e5cd8484>@@$0A@@std@@V?$allocator@V?$_Func_class@XU_Nil@std@@U12@U12@U12@U12@U12@U12@@std@@@2@XU_Nil@2@U42@U42@U42@U42@U42@U42@@std@@QAE@$$QAV<lambda_9eb754bdeb4f4749f734e866e5cd8484>@@ABV?$allocator@V?$_Func_impl@U?$_Callable_obj@V<lambda_9eb754bdeb4f4749f734e866e5cd8484>@@$0A@@std@@V?$allocator@V?$_Func_class@XU_Nil@std@@U12@U12@U12@U12@U12@U12@@std@@@2@XU_Nil@2@U42@U42@U42@U42@U42@U42@@std@@@1@@Z$0
__ehfuncinfo$??0?$_Func_impl@U?$_Callable_obj@V<lambda_9eb754bdeb4f4749f734e866e5cd8484>@@$0A@@std@@V?$allocator@V?$_Func_class@XU_Nil@std@@U12@U12@U12@U12@U12@U12@@std@@@2@XU_Nil@2@U42@U42@U42@U42@U42@U42@@std@@QAE@$$QAV<lambda_9eb754bdeb4f4749f734e866e5cd8484>@@ABV?$allocator@V?$_Func_impl@U?$_Callable_obj@V<lambda_9eb754bdeb4f4749f734e866e5cd8484>@@$0A@@std@@V?$allocator@V?$_Func_class@XU_Nil@std@@U12@U12@U12@U12@U12@U12@@std@@@2@XU_Nil@2@U42@U42@U42@U42@U42@U42@@std@@@1@@Z DD 019930522H
	DD	01H
	DD	FLAT:__unwindtable$??0?$_Func_impl@U?$_Callable_obj@V<lambda_9eb754bdeb4f4749f734e866e5cd8484>@@$0A@@std@@V?$allocator@V?$_Func_class@XU_Nil@std@@U12@U12@U12@U12@U12@U12@@std@@@2@XU_Nil@2@U42@U42@U42@U42@U42@U42@@std@@QAE@$$QAV<lambda_9eb754bdeb4f4749f734e866e5cd8484>@@ABV?$allocator@V?$_Func_impl@U?$_Callable_obj@V<lambda_9eb754bdeb4f4749f734e866e5cd8484>@@$0A@@std@@V?$allocator@V?$_Func_class@XU_Nil@std@@U12@U12@U12@U12@U12@U12@@std@@@2@XU_Nil@2@U42@U42@U42@U42@U42@U42@@std@@@1@@Z
	DD	2 DUP(00H)
	DD	2 DUP(00H)
	DD	00H
	DD	01H
xdata$x	ENDS
;	COMDAT xdata$x
xdata$x	SEGMENT
__unwindtable$??$_Do_alloc@V?$_Func_impl@U?$_Callable_obj@V<lambda_5d8c5ab464462ebb691e185ac4dda097>@@$0A@@std@@V?$allocator@V?$_Func_class@XU_Nil@std@@U12@U12@U12@U12@U12@U12@@std@@@2@XU_Nil@2@U42@U42@U42@U42@U42@U42@@std@@V<lambda_5d8c5ab464462ebb691e185ac4dda097>@@V?$allocator@V?$_Func_class@XU_Nil@std@@U12@U12@U12@U12@U12@U12@@std@@@2@@?$_Func_class@XU_Nil@std@@U12@U12@U12@U12@U12@U12@@std@@AAEX$$QAV<lambda_5d8c5ab464462ebb691e185ac4dda097>@@V?$allocator@V?$_Func_class@XU_Nil@std@@U12@U12@U12@U12@U12@U12@@std@@@1@@Z DD 0ffffffffH
	DD	FLAT:__unwindfunclet$??$_Do_alloc@V?$_Func_impl@U?$_Callable_obj@V<lambda_5d8c5ab464462ebb691e185ac4dda097>@@$0A@@std@@V?$allocator@V?$_Func_class@XU_Nil@std@@U12@U12@U12@U12@U12@U12@@std@@@2@XU_Nil@2@U42@U42@U42@U42@U42@U42@@std@@V<lambda_5d8c5ab464462ebb691e185ac4dda097>@@V?$allocator@V?$_Func_class@XU_Nil@std@@U12@U12@U12@U12@U12@U12@@std@@@2@@?$_Func_class@XU_Nil@std@@U12@U12@U12@U12@U12@U12@@std@@AAEX$$QAV<lambda_5d8c5ab464462ebb691e185ac4dda097>@@V?$allocator@V?$_Func_class@XU_Nil@std@@U12@U12@U12@U12@U12@U12@@std@@@1@@Z$0
	DD	0ffffffffH
	DD	FLAT:__unwindfunclet$??$_Do_alloc@V?$_Func_impl@U?$_Callable_obj@V<lambda_5d8c5ab464462ebb691e185ac4dda097>@@$0A@@std@@V?$allocator@V?$_Func_class@XU_Nil@std@@U12@U12@U12@U12@U12@U12@@std@@@2@XU_Nil@2@U42@U42@U42@U42@U42@U42@@std@@V<lambda_5d8c5ab464462ebb691e185ac4dda097>@@V?$allocator@V?$_Func_class@XU_Nil@std@@U12@U12@U12@U12@U12@U12@@std@@@2@@?$_Func_class@XU_Nil@std@@U12@U12@U12@U12@U12@U12@@std@@AAEX$$QAV<lambda_5d8c5ab464462ebb691e185ac4dda097>@@V?$allocator@V?$_Func_class@XU_Nil@std@@U12@U12@U12@U12@U12@U12@@std@@@1@@Z$1
__ehfuncinfo$??$_Do_alloc@V?$_Func_impl@U?$_Callable_obj@V<lambda_5d8c5ab464462ebb691e185ac4dda097>@@$0A@@std@@V?$allocator@V?$_Func_class@XU_Nil@std@@U12@U12@U12@U12@U12@U12@@std@@@2@XU_Nil@2@U42@U42@U42@U42@U42@U42@@std@@V<lambda_5d8c5ab464462ebb691e185ac4dda097>@@V?$allocator@V?$_Func_class@XU_Nil@std@@U12@U12@U12@U12@U12@U12@@std@@@2@@?$_Func_class@XU_Nil@std@@U12@U12@U12@U12@U12@U12@@std@@AAEX$$QAV<lambda_5d8c5ab464462ebb691e185ac4dda097>@@V?$allocator@V?$_Func_class@XU_Nil@std@@U12@U12@U12@U12@U12@U12@@std@@@1@@Z DD 019930522H
	DD	02H
	DD	FLAT:__unwindtable$??$_Do_alloc@V?$_Func_impl@U?$_Callable_obj@V<lambda_5d8c5ab464462ebb691e185ac4dda097>@@$0A@@std@@V?$allocator@V?$_Func_class@XU_Nil@std@@U12@U12@U12@U12@U12@U12@@std@@@2@XU_Nil@2@U42@U42@U42@U42@U42@U42@@std@@V<lambda_5d8c5ab464462ebb691e185ac4dda097>@@V?$allocator@V?$_Func_class@XU_Nil@std@@U12@U12@U12@U12@U12@U12@@std@@@2@@?$_Func_class@XU_Nil@std@@U12@U12@U12@U12@U12@U12@@std@@AAEX$$QAV<lambda_5d8c5ab464462ebb691e185ac4dda097>@@V?$allocator@V?$_Func_class@XU_Nil@std@@U12@U12@U12@U12@U12@U12@@std@@@1@@Z
	DD	2 DUP(00H)
	DD	2 DUP(00H)
	DD	00H
	DD	01H
xdata$x	ENDS
;	COMDAT xdata$x
xdata$x	SEGMENT
__unwindtable$??$_Do_alloc@V?$_Func_impl@U?$_Callable_obj@V<lambda_9eb754bdeb4f4749f734e866e5cd8484>@@$0A@@std@@V?$allocator@V?$_Func_class@XU_Nil@std@@U12@U12@U12@U12@U12@U12@@std@@@2@XU_Nil@2@U42@U42@U42@U42@U42@U42@@std@@V<lambda_9eb754bdeb4f4749f734e866e5cd8484>@@V?$allocator@V?$_Func_class@XU_Nil@std@@U12@U12@U12@U12@U12@U12@@std@@@2@@?$_Func_class@XU_Nil@std@@U12@U12@U12@U12@U12@U12@@std@@AAEX$$QAV<lambda_9eb754bdeb4f4749f734e866e5cd8484>@@V?$allocator@V?$_Func_class@XU_Nil@std@@U12@U12@U12@U12@U12@U12@@std@@@1@@Z DD 0ffffffffH
	DD	FLAT:__unwindfunclet$??$_Do_alloc@V?$_Func_impl@U?$_Callable_obj@V<lambda_9eb754bdeb4f4749f734e866e5cd8484>@@$0A@@std@@V?$allocator@V?$_Func_class@XU_Nil@std@@U12@U12@U12@U12@U12@U12@@std@@@2@XU_Nil@2@U42@U42@U42@U42@U42@U42@@std@@V<lambda_9eb754bdeb4f4749f734e866e5cd8484>@@V?$allocator@V?$_Func_class@XU_Nil@std@@U12@U12@U12@U12@U12@U12@@std@@@2@@?$_Func_class@XU_Nil@std@@U12@U12@U12@U12@U12@U12@@std@@AAEX$$QAV<lambda_9eb754bdeb4f4749f734e866e5cd8484>@@V?$allocator@V?$_Func_class@XU_Nil@std@@U12@U12@U12@U12@U12@U12@@std@@@1@@Z$0
	DD	0ffffffffH
	DD	FLAT:__unwindfunclet$??$_Do_alloc@V?$_Func_impl@U?$_Callable_obj@V<lambda_9eb754bdeb4f4749f734e866e5cd8484>@@$0A@@std@@V?$allocator@V?$_Func_class@XU_Nil@std@@U12@U12@U12@U12@U12@U12@@std@@@2@XU_Nil@2@U42@U42@U42@U42@U42@U42@@std@@V<lambda_9eb754bdeb4f4749f734e866e5cd8484>@@V?$allocator@V?$_Func_class@XU_Nil@std@@U12@U12@U12@U12@U12@U12@@std@@@2@@?$_Func_class@XU_Nil@std@@U12@U12@U12@U12@U12@U12@@std@@AAEX$$QAV<lambda_9eb754bdeb4f4749f734e866e5cd8484>@@V?$allocator@V?$_Func_class@XU_Nil@std@@U12@U12@U12@U12@U12@U12@@std@@@1@@Z$1
__ehfuncinfo$??$_Do_alloc@V?$_Func_impl@U?$_Callable_obj@V<lambda_9eb754bdeb4f4749f734e866e5cd8484>@@$0A@@std@@V?$allocator@V?$_Func_class@XU_Nil@std@@U12@U12@U12@U12@U12@U12@@std@@@2@XU_Nil@2@U42@U42@U42@U42@U42@U42@@std@@V<lambda_9eb754bdeb4f4749f734e866e5cd8484>@@V?$allocator@V?$_Func_class@XU_Nil@std@@U12@U12@U12@U12@U12@U12@@std@@@2@@?$_Func_class@XU_Nil@std@@U12@U12@U12@U12@U12@U12@@std@@AAEX$$QAV<lambda_9eb754bdeb4f4749f734e866e5cd8484>@@V?$allocator@V?$_Func_class@XU_Nil@std@@U12@U12@U12@U12@U12@U12@@std@@@1@@Z DD 019930522H
	DD	02H
	DD	FLAT:__unwindtable$??$_Do_alloc@V?$_Func_impl@U?$_Callable_obj@V<lambda_9eb754bdeb4f4749f734e866e5cd8484>@@$0A@@std@@V?$allocator@V?$_Func_class@XU_Nil@std@@U12@U12@U12@U12@U12@U12@@std@@@2@XU_Nil@2@U42@U42@U42@U42@U42@U42@@std@@V<lambda_9eb754bdeb4f4749f734e866e5cd8484>@@V?$allocator@V?$_Func_class@XU_Nil@std@@U12@U12@U12@U12@U12@U12@@std@@@2@@?$_Func_class@XU_Nil@std@@U12@U12@U12@U12@U12@U12@@std@@AAEX$$QAV<lambda_9eb754bdeb4f4749f734e866e5cd8484>@@V?$allocator@V?$_Func_class@XU_Nil@std@@U12@U12@U12@U12@U12@U12@@std@@@1@@Z
	DD	2 DUP(00H)
	DD	2 DUP(00H)
	DD	00H
	DD	01H
xdata$x	ENDS
;	COMDAT xdata$x
xdata$x	SEGMENT
__unwindtable$??$?0V<lambda_5d8c5ab464462ebb691e185ac4dda097>@@@?$function@$$A6AXXZ@std@@QAE@$$QAV<lambda_5d8c5ab464462ebb691e185ac4dda097>@@@Z DD 0ffffffffH
	DD	FLAT:__unwindfunclet$??$?0V<lambda_5d8c5ab464462ebb691e185ac4dda097>@@@?$function@$$A6AXXZ@std@@QAE@$$QAV<lambda_5d8c5ab464462ebb691e185ac4dda097>@@@Z$0
__ehfuncinfo$??$?0V<lambda_5d8c5ab464462ebb691e185ac4dda097>@@@?$function@$$A6AXXZ@std@@QAE@$$QAV<lambda_5d8c5ab464462ebb691e185ac4dda097>@@@Z DD 019930522H
	DD	01H
	DD	FLAT:__unwindtable$??$?0V<lambda_5d8c5ab464462ebb691e185ac4dda097>@@@?$function@$$A6AXXZ@std@@QAE@$$QAV<lambda_5d8c5ab464462ebb691e185ac4dda097>@@@Z
	DD	2 DUP(00H)
	DD	2 DUP(00H)
	DD	00H
	DD	01H
xdata$x	ENDS
;	COMDAT xdata$x
xdata$x	SEGMENT
__unwindtable$??$?0V<lambda_9eb754bdeb4f4749f734e866e5cd8484>@@@?$function@$$A6AXXZ@std@@QAE@$$QAV<lambda_9eb754bdeb4f4749f734e866e5cd8484>@@@Z DD 0ffffffffH
	DD	FLAT:__unwindfunclet$??$?0V<lambda_9eb754bdeb4f4749f734e866e5cd8484>@@@?$function@$$A6AXXZ@std@@QAE@$$QAV<lambda_9eb754bdeb4f4749f734e866e5cd8484>@@@Z$0
__ehfuncinfo$??$?0V<lambda_9eb754bdeb4f4749f734e866e5cd8484>@@@?$function@$$A6AXXZ@std@@QAE@$$QAV<lambda_9eb754bdeb4f4749f734e866e5cd8484>@@@Z DD 019930522H
	DD	01H
	DD	FLAT:__unwindtable$??$?0V<lambda_9eb754bdeb4f4749f734e866e5cd8484>@@@?$function@$$A6AXXZ@std@@QAE@$$QAV<lambda_9eb754bdeb4f4749f734e866e5cd8484>@@@Z
	DD	2 DUP(00H)
	DD	2 DUP(00H)
	DD	00H
	DD	01H
xdata$x	ENDS
xdata$x	SEGMENT
__unwindtable$?Init@DisplayWindow@app@@QAEXXZ DD 0ffffffffH
	DD	FLAT:__unwindfunclet$?Init@DisplayWindow@app@@QAEXXZ$0
	DD	0ffffffffH
	DD	FLAT:__unwindfunclet$?Init@DisplayWindow@app@@QAEXXZ$1
__unwindtable$??1DisplayWindow@app@@QAE@XZ DD 0ffffffffH
	DD	FLAT:__unwindfunclet$??1DisplayWindow@app@@QAE@XZ$0
	DD	00H
	DD	FLAT:__unwindfunclet$??1DisplayWindow@app@@QAE@XZ$1
	DD	01H
	DD	FLAT:__unwindfunclet$??1DisplayWindow@app@@QAE@XZ$2
__unwindtable$??0DisplayWindow@app@@QAE@XZ DD 0ffffffffH
	DD	FLAT:__unwindfunclet$??0DisplayWindow@app@@QAE@XZ$0
	DD	00H
	DD	FLAT:__unwindfunclet$??0DisplayWindow@app@@QAE@XZ$1
	DD	01H
	DD	FLAT:__unwindfunclet$??0DisplayWindow@app@@QAE@XZ$2
	DD	02H
	DD	FLAT:__unwindfunclet$??0DisplayWindow@app@@QAE@XZ$3
__ehfuncinfo$?Init@DisplayWindow@app@@QAEXXZ DD 019930522H
	DD	02H
	DD	FLAT:__unwindtable$?Init@DisplayWindow@app@@QAEXXZ
	DD	2 DUP(00H)
	DD	2 DUP(00H)
	DD	00H
	DD	01H
__ehfuncinfo$??1DisplayWindow@app@@QAE@XZ DD 019930522H
	DD	03H
	DD	FLAT:__unwindtable$??1DisplayWindow@app@@QAE@XZ
	DD	2 DUP(00H)
	DD	2 DUP(00H)
	DD	00H
	DD	01H
__ehfuncinfo$??0DisplayWindow@app@@QAE@XZ DD 019930522H
	DD	04H
	DD	FLAT:__unwindtable$??0DisplayWindow@app@@QAE@XZ
	DD	2 DUP(00H)
	DD	2 DUP(00H)
	DD	00H
	DD	01H
xdata$x	ENDS
;	COMDAT xdata$x
xdata$x	SEGMENT
__ehfuncinfo$??1Emu@gb@emulation@@QAE@XZ DD 019930522H
	DD	07H
	DD	FLAT:__unwindtable$??1Emu@gb@emulation@@QAE@XZ
	DD	2 DUP(00H)
	DD	2 DUP(00H)
	DD	00H
	DD	01H
__unwindtable$??1Emu@gb@emulation@@QAE@XZ DD 0ffffffffH
	DD	FLAT:__unwindfunclet$??1Emu@gb@emulation@@QAE@XZ$0
	DD	00H
	DD	FLAT:__unwindfunclet$??1Emu@gb@emulation@@QAE@XZ$1
	DD	01H
	DD	FLAT:__unwindfunclet$??1Emu@gb@emulation@@QAE@XZ$2
	DD	02H
	DD	FLAT:__unwindfunclet$??1Emu@gb@emulation@@QAE@XZ$3
	DD	03H
	DD	FLAT:__unwindfunclet$??1Emu@gb@emulation@@QAE@XZ$4
	DD	04H
	DD	FLAT:__unwindfunclet$??1Emu@gb@emulation@@QAE@XZ$5
	DD	05H
	DD	FLAT:__unwindfunclet$??1Emu@gb@emulation@@QAE@XZ$6
xdata$x	ENDS
;	COMDAT xdata$x
xdata$x	SEGMENT
__ehfuncinfo$??0Emu@gb@emulation@@QAE@XZ DD 019930522H
	DD	07H
	DD	FLAT:__unwindtable$??0Emu@gb@emulation@@QAE@XZ
	DD	2 DUP(00H)
	DD	2 DUP(00H)
	DD	00H
	DD	01H
__unwindtable$??0Emu@gb@emulation@@QAE@XZ DD 0ffffffffH
	DD	FLAT:__unwindfunclet$??0Emu@gb@emulation@@QAE@XZ$0
	DD	00H
	DD	FLAT:__unwindfunclet$??0Emu@gb@emulation@@QAE@XZ$1
	DD	01H
	DD	FLAT:__unwindfunclet$??0Emu@gb@emulation@@QAE@XZ$2
	DD	02H
	DD	FLAT:__unwindfunclet$??0Emu@gb@emulation@@QAE@XZ$3
	DD	03H
	DD	FLAT:__unwindfunclet$??0Emu@gb@emulation@@QAE@XZ$4
	DD	04H
	DD	FLAT:__unwindfunclet$??0Emu@gb@emulation@@QAE@XZ$5
	DD	05H
	DD	FLAT:__unwindfunclet$??0Emu@gb@emulation@@QAE@XZ$6
xdata$x	ENDS
;	COMDAT xdata$x
xdata$x	SEGMENT
__unwindtable$??1SoundController@gb@emulation@@QAE@XZ DD 0ffffffffH
	DD	FLAT:__unwindfunclet$??1SoundController@gb@emulation@@QAE@XZ$0
	DD	00H
	DD	FLAT:__unwindfunclet$??1SoundController@gb@emulation@@QAE@XZ$1
__ehfuncinfo$??1SoundController@gb@emulation@@QAE@XZ DD 019930522H
	DD	02H
	DD	FLAT:__unwindtable$??1SoundController@gb@emulation@@QAE@XZ
	DD	2 DUP(00H)
	DD	2 DUP(00H)
	DD	00H
	DD	01H
xdata$x	ENDS
;	COMDAT xdata$x
xdata$x	SEGMENT
__unwindtable$??0SoundController@gb@emulation@@QAE@XZ DD 0ffffffffH
	DD	FLAT:__unwindfunclet$??0SoundController@gb@emulation@@QAE@XZ$0
	DD	00H
	DD	FLAT:__unwindfunclet$??0SoundController@gb@emulation@@QAE@XZ$1
__ehfuncinfo$??0SoundController@gb@emulation@@QAE@XZ DD 019930522H
	DD	02H
	DD	FLAT:__unwindtable$??0SoundController@gb@emulation@@QAE@XZ
	DD	2 DUP(00H)
	DD	2 DUP(00H)
	DD	00H
	DD	01H
xdata$x	ENDS
CRT$XCU	SEGMENT
_allocator_arg$initializer$ DD FLAT:??__Eallocator_arg@std@@YAXXZ
CRT$XCU	ENDS
CRT$XCU	SEGMENT
_ignore$initializer$ DD FLAT:??__Eignore@std@@YAXXZ
CRT$XCU	ENDS
CRT$XCU	SEGMENT
__Tuple_alloc$initializer$ DD FLAT:??__E_Tuple_alloc@std@@YAXXZ
CRT$XCU	ENDS
; Function compile flags: /Odtp /RTCsu
; File c:\program files (x86)\microsoft visual studio 11.0\vc\include\type_traits
;	COMDAT ??$forward@AAV<lambda_5d8c5ab464462ebb691e185ac4dda097>@@@std@@YAAAV<lambda_5d8c5ab464462ebb691e185ac4dda097>@@AAV1@@Z
_TEXT	SEGMENT
__Arg$ = 8						; size = 4
??$forward@AAV<lambda_5d8c5ab464462ebb691e185ac4dda097>@@@std@@YAAAV<lambda_5d8c5ab464462ebb691e185ac4dda097>@@AAV1@@Z PROC ; std::forward<<lambda_5d8c5ab464462ebb691e185ac4dda097> &>, COMDAT

; 1775 : 	{	// forward an lvalue

	push	ebp
	mov	ebp, esp

; 1776 : 	return (static_cast<_Ty&&>(_Arg));

	mov	eax, DWORD PTR __Arg$[ebp]

; 1777 : 	}

	pop	ebp
	ret	0
??$forward@AAV<lambda_5d8c5ab464462ebb691e185ac4dda097>@@@std@@YAAAV<lambda_5d8c5ab464462ebb691e185ac4dda097>@@AAV1@@Z ENDP ; std::forward<<lambda_5d8c5ab464462ebb691e185ac4dda097> &>
_TEXT	ENDS
; Function compile flags: /Odtp /RTCsu
; File c:\program files (x86)\microsoft visual studio 11.0\vc\include\type_traits
;	COMDAT ??$forward@AAV<lambda_9eb754bdeb4f4749f734e866e5cd8484>@@@std@@YAAAV<lambda_9eb754bdeb4f4749f734e866e5cd8484>@@AAV1@@Z
_TEXT	SEGMENT
__Arg$ = 8						; size = 4
??$forward@AAV<lambda_9eb754bdeb4f4749f734e866e5cd8484>@@@std@@YAAAV<lambda_9eb754bdeb4f4749f734e866e5cd8484>@@AAV1@@Z PROC ; std::forward<<lambda_9eb754bdeb4f4749f734e866e5cd8484> &>, COMDAT

; 1775 : 	{	// forward an lvalue

	push	ebp
	mov	ebp, esp

; 1776 : 	return (static_cast<_Ty&&>(_Arg));

	mov	eax, DWORD PTR __Arg$[ebp]

; 1777 : 	}

	pop	ebp
	ret	0
??$forward@AAV<lambda_9eb754bdeb4f4749f734e866e5cd8484>@@@std@@YAAAV<lambda_9eb754bdeb4f4749f734e866e5cd8484>@@AAV1@@Z ENDP ; std::forward<<lambda_9eb754bdeb4f4749f734e866e5cd8484> &>
_TEXT	ENDS
; Function compile flags: /Odtp /RTCsu
; File c:\program files (x86)\microsoft visual studio 11.0\vc\include\xrefwrap
;	COMDAT ??$?0AAV<lambda_5d8c5ab464462ebb691e185ac4dda097>@@@?$_Callable_base@V<lambda_5d8c5ab464462ebb691e185ac4dda097>@@$0A@@std@@QAE@AAV<lambda_5d8c5ab464462ebb691e185ac4dda097>@@@Z
_TEXT	SEGMENT
_this$ = -4						; size = 4
__Val$ = 8						; size = 4
??$?0AAV<lambda_5d8c5ab464462ebb691e185ac4dda097>@@@?$_Callable_base@V<lambda_5d8c5ab464462ebb691e185ac4dda097>@@$0A@@std@@QAE@AAV<lambda_5d8c5ab464462ebb691e185ac4dda097>@@@Z PROC ; std::_Callable_base<<lambda_5d8c5ab464462ebb691e185ac4dda097>,0>::_Callable_base<<lambda_5d8c5ab464462ebb691e185ac4dda097>,0><<lambda_5d8c5ab464462ebb691e185ac4dda097> &>, COMDAT
; _this$ = ecx

; 317  : 		{	// construct by forwarding

	push	ebp
	mov	ebp, esp
	push	ecx
	mov	DWORD PTR [ebp-4], -858993460		; ccccccccH
	mov	DWORD PTR _this$[ebp], ecx
	mov	eax, DWORD PTR __Val$[ebp]
	push	eax
	call	??$forward@AAV<lambda_5d8c5ab464462ebb691e185ac4dda097>@@@std@@YAAAV<lambda_5d8c5ab464462ebb691e185ac4dda097>@@AAV1@@Z ; std::forward<<lambda_5d8c5ab464462ebb691e185ac4dda097> &>
	add	esp, 4
	mov	ecx, DWORD PTR [eax]
	mov	edx, DWORD PTR _this$[ebp]
	mov	DWORD PTR [edx], ecx

; 318  : 		}

	mov	eax, DWORD PTR _this$[ebp]
	add	esp, 4
	cmp	ebp, esp
	call	__RTC_CheckEsp
	mov	esp, ebp
	pop	ebp
	ret	4
??$?0AAV<lambda_5d8c5ab464462ebb691e185ac4dda097>@@@?$_Callable_base@V<lambda_5d8c5ab464462ebb691e185ac4dda097>@@$0A@@std@@QAE@AAV<lambda_5d8c5ab464462ebb691e185ac4dda097>@@@Z ENDP ; std::_Callable_base<<lambda_5d8c5ab464462ebb691e185ac4dda097>,0>::_Callable_base<<lambda_5d8c5ab464462ebb691e185ac4dda097>,0><<lambda_5d8c5ab464462ebb691e185ac4dda097> &>
_TEXT	ENDS
; Function compile flags: /Odtp /RTCsu
; File c:\program files (x86)\microsoft visual studio 11.0\vc\include\xrefwrap
;	COMDAT ??$?0AAV<lambda_9eb754bdeb4f4749f734e866e5cd8484>@@@?$_Callable_base@V<lambda_9eb754bdeb4f4749f734e866e5cd8484>@@$0A@@std@@QAE@AAV<lambda_9eb754bdeb4f4749f734e866e5cd8484>@@@Z
_TEXT	SEGMENT
_this$ = -4						; size = 4
__Val$ = 8						; size = 4
??$?0AAV<lambda_9eb754bdeb4f4749f734e866e5cd8484>@@@?$_Callable_base@V<lambda_9eb754bdeb4f4749f734e866e5cd8484>@@$0A@@std@@QAE@AAV<lambda_9eb754bdeb4f4749f734e866e5cd8484>@@@Z PROC ; std::_Callable_base<<lambda_9eb754bdeb4f4749f734e866e5cd8484>,0>::_Callable_base<<lambda_9eb754bdeb4f4749f734e866e5cd8484>,0><<lambda_9eb754bdeb4f4749f734e866e5cd8484> &>, COMDAT
; _this$ = ecx

; 317  : 		{	// construct by forwarding

	push	ebp
	mov	ebp, esp
	push	ecx
	mov	DWORD PTR [ebp-4], -858993460		; ccccccccH
	mov	DWORD PTR _this$[ebp], ecx
	mov	eax, DWORD PTR __Val$[ebp]
	push	eax
	call	??$forward@AAV<lambda_9eb754bdeb4f4749f734e866e5cd8484>@@@std@@YAAAV<lambda_9eb754bdeb4f4749f734e866e5cd8484>@@AAV1@@Z ; std::forward<<lambda_9eb754bdeb4f4749f734e866e5cd8484> &>
	add	esp, 4
	mov	ecx, DWORD PTR [eax]
	mov	edx, DWORD PTR _this$[ebp]
	mov	DWORD PTR [edx], ecx

; 318  : 		}

	mov	eax, DWORD PTR _this$[ebp]
	add	esp, 4
	cmp	ebp, esp
	call	__RTC_CheckEsp
	mov	esp, ebp
	pop	ebp
	ret	4
??$?0AAV<lambda_9eb754bdeb4f4749f734e866e5cd8484>@@@?$_Callable_base@V<lambda_9eb754bdeb4f4749f734e866e5cd8484>@@$0A@@std@@QAE@AAV<lambda_9eb754bdeb4f4749f734e866e5cd8484>@@@Z ENDP ; std::_Callable_base<<lambda_9eb754bdeb4f4749f734e866e5cd8484>,0>::_Callable_base<<lambda_9eb754bdeb4f4749f734e866e5cd8484>,0><<lambda_9eb754bdeb4f4749f734e866e5cd8484> &>
_TEXT	ENDS
; Function compile flags: /Odtp /RTCsu
; File c:\program files (x86)\microsoft visual studio 11.0\vc\include\type_traits
;	COMDAT ??$forward@U?$_Callable_obj@V<lambda_5d8c5ab464462ebb691e185ac4dda097>@@$0A@@std@@@std@@YA$$QAU?$_Callable_obj@V<lambda_5d8c5ab464462ebb691e185ac4dda097>@@$0A@@0@AAU10@@Z
_TEXT	SEGMENT
__Arg$ = 8						; size = 4
??$forward@U?$_Callable_obj@V<lambda_5d8c5ab464462ebb691e185ac4dda097>@@$0A@@std@@@std@@YA$$QAU?$_Callable_obj@V<lambda_5d8c5ab464462ebb691e185ac4dda097>@@$0A@@0@AAU10@@Z PROC ; std::forward<std::_Callable_obj<<lambda_5d8c5ab464462ebb691e185ac4dda097>,0> >, COMDAT

; 1775 : 	{	// forward an lvalue

	push	ebp
	mov	ebp, esp

; 1776 : 	return (static_cast<_Ty&&>(_Arg));

	mov	eax, DWORD PTR __Arg$[ebp]

; 1777 : 	}

	pop	ebp
	ret	0
??$forward@U?$_Callable_obj@V<lambda_5d8c5ab464462ebb691e185ac4dda097>@@$0A@@std@@@std@@YA$$QAU?$_Callable_obj@V<lambda_5d8c5ab464462ebb691e185ac4dda097>@@$0A@@0@AAU10@@Z ENDP ; std::forward<std::_Callable_obj<<lambda_5d8c5ab464462ebb691e185ac4dda097>,0> >
_TEXT	ENDS
; Function compile flags: /Odtp /RTCsu
; File c:\program files (x86)\microsoft visual studio 11.0\vc\include\type_traits
;	COMDAT ??$forward@AAU?$_Callable_obj@V<lambda_5d8c5ab464462ebb691e185ac4dda097>@@$0A@@std@@@std@@YAAAU?$_Callable_obj@V<lambda_5d8c5ab464462ebb691e185ac4dda097>@@$0A@@0@AAU10@@Z
_TEXT	SEGMENT
__Arg$ = 8						; size = 4
??$forward@AAU?$_Callable_obj@V<lambda_5d8c5ab464462ebb691e185ac4dda097>@@$0A@@std@@@std@@YAAAU?$_Callable_obj@V<lambda_5d8c5ab464462ebb691e185ac4dda097>@@$0A@@0@AAU10@@Z PROC ; std::forward<std::_Callable_obj<<lambda_5d8c5ab464462ebb691e185ac4dda097>,0> &>, COMDAT

; 1775 : 	{	// forward an lvalue

	push	ebp
	mov	ebp, esp

; 1776 : 	return (static_cast<_Ty&&>(_Arg));

	mov	eax, DWORD PTR __Arg$[ebp]

; 1777 : 	}

	pop	ebp
	ret	0
??$forward@AAU?$_Callable_obj@V<lambda_5d8c5ab464462ebb691e185ac4dda097>@@$0A@@std@@@std@@YAAAU?$_Callable_obj@V<lambda_5d8c5ab464462ebb691e185ac4dda097>@@$0A@@0@AAU10@@Z ENDP ; std::forward<std::_Callable_obj<<lambda_5d8c5ab464462ebb691e185ac4dda097>,0> &>
_TEXT	ENDS
; Function compile flags: /Odtp /RTCsu
; File c:\program files (x86)\microsoft visual studio 11.0\vc\include\xrefwrap
;	COMDAT ??$?0V<lambda_5d8c5ab464462ebb691e185ac4dda097>@@@?$_Callable_base@V<lambda_5d8c5ab464462ebb691e185ac4dda097>@@$0A@@std@@QAE@$$QAV<lambda_5d8c5ab464462ebb691e185ac4dda097>@@@Z
_TEXT	SEGMENT
_this$ = -4						; size = 4
__Val$ = 8						; size = 4
??$?0V<lambda_5d8c5ab464462ebb691e185ac4dda097>@@@?$_Callable_base@V<lambda_5d8c5ab464462ebb691e185ac4dda097>@@$0A@@std@@QAE@$$QAV<lambda_5d8c5ab464462ebb691e185ac4dda097>@@@Z PROC ; std::_Callable_base<<lambda_5d8c5ab464462ebb691e185ac4dda097>,0>::_Callable_base<<lambda_5d8c5ab464462ebb691e185ac4dda097>,0><<lambda_5d8c5ab464462ebb691e185ac4dda097> >, COMDAT
; _this$ = ecx

; 317  : 		{	// construct by forwarding

	push	ebp
	mov	ebp, esp
	push	ecx
	mov	DWORD PTR [ebp-4], -858993460		; ccccccccH
	mov	DWORD PTR _this$[ebp], ecx
	mov	eax, DWORD PTR __Val$[ebp]
	push	eax
	call	??$forward@V<lambda_5d8c5ab464462ebb691e185ac4dda097>@@@std@@YA$$QAV<lambda_5d8c5ab464462ebb691e185ac4dda097>@@AAV1@@Z ; std::forward<<lambda_5d8c5ab464462ebb691e185ac4dda097> >
	add	esp, 4
	mov	ecx, DWORD PTR [eax]
	mov	edx, DWORD PTR _this$[ebp]
	mov	DWORD PTR [edx], ecx

; 318  : 		}

	mov	eax, DWORD PTR _this$[ebp]
	add	esp, 4
	cmp	ebp, esp
	call	__RTC_CheckEsp
	mov	esp, ebp
	pop	ebp
	ret	4
??$?0V<lambda_5d8c5ab464462ebb691e185ac4dda097>@@@?$_Callable_base@V<lambda_5d8c5ab464462ebb691e185ac4dda097>@@$0A@@std@@QAE@$$QAV<lambda_5d8c5ab464462ebb691e185ac4dda097>@@@Z ENDP ; std::_Callable_base<<lambda_5d8c5ab464462ebb691e185ac4dda097>,0>::_Callable_base<<lambda_5d8c5ab464462ebb691e185ac4dda097>,0><<lambda_5d8c5ab464462ebb691e185ac4dda097> >
_TEXT	ENDS
; Function compile flags: /Odtp /RTCsu
; File c:\program files (x86)\microsoft visual studio 11.0\vc\include\type_traits
;	COMDAT ??$forward@U?$_Callable_obj@V<lambda_9eb754bdeb4f4749f734e866e5cd8484>@@$0A@@std@@@std@@YA$$QAU?$_Callable_obj@V<lambda_9eb754bdeb4f4749f734e866e5cd8484>@@$0A@@0@AAU10@@Z
_TEXT	SEGMENT
__Arg$ = 8						; size = 4
??$forward@U?$_Callable_obj@V<lambda_9eb754bdeb4f4749f734e866e5cd8484>@@$0A@@std@@@std@@YA$$QAU?$_Callable_obj@V<lambda_9eb754bdeb4f4749f734e866e5cd8484>@@$0A@@0@AAU10@@Z PROC ; std::forward<std::_Callable_obj<<lambda_9eb754bdeb4f4749f734e866e5cd8484>,0> >, COMDAT

; 1775 : 	{	// forward an lvalue

	push	ebp
	mov	ebp, esp

; 1776 : 	return (static_cast<_Ty&&>(_Arg));

	mov	eax, DWORD PTR __Arg$[ebp]

; 1777 : 	}

	pop	ebp
	ret	0
??$forward@U?$_Callable_obj@V<lambda_9eb754bdeb4f4749f734e866e5cd8484>@@$0A@@std@@@std@@YA$$QAU?$_Callable_obj@V<lambda_9eb754bdeb4f4749f734e866e5cd8484>@@$0A@@0@AAU10@@Z ENDP ; std::forward<std::_Callable_obj<<lambda_9eb754bdeb4f4749f734e866e5cd8484>,0> >
_TEXT	ENDS
; Function compile flags: /Odtp /RTCsu
; File c:\program files (x86)\microsoft visual studio 11.0\vc\include\type_traits
;	COMDAT ??$forward@AAU?$_Callable_obj@V<lambda_9eb754bdeb4f4749f734e866e5cd8484>@@$0A@@std@@@std@@YAAAU?$_Callable_obj@V<lambda_9eb754bdeb4f4749f734e866e5cd8484>@@$0A@@0@AAU10@@Z
_TEXT	SEGMENT
__Arg$ = 8						; size = 4
??$forward@AAU?$_Callable_obj@V<lambda_9eb754bdeb4f4749f734e866e5cd8484>@@$0A@@std@@@std@@YAAAU?$_Callable_obj@V<lambda_9eb754bdeb4f4749f734e866e5cd8484>@@$0A@@0@AAU10@@Z PROC ; std::forward<std::_Callable_obj<<lambda_9eb754bdeb4f4749f734e866e5cd8484>,0> &>, COMDAT

; 1775 : 	{	// forward an lvalue

	push	ebp
	mov	ebp, esp

; 1776 : 	return (static_cast<_Ty&&>(_Arg));

	mov	eax, DWORD PTR __Arg$[ebp]

; 1777 : 	}

	pop	ebp
	ret	0
??$forward@AAU?$_Callable_obj@V<lambda_9eb754bdeb4f4749f734e866e5cd8484>@@$0A@@std@@@std@@YAAAU?$_Callable_obj@V<lambda_9eb754bdeb4f4749f734e866e5cd8484>@@$0A@@0@AAU10@@Z ENDP ; std::forward<std::_Callable_obj<<lambda_9eb754bdeb4f4749f734e866e5cd8484>,0> &>
_TEXT	ENDS
; Function compile flags: /Odtp /RTCsu
; File c:\program files (x86)\microsoft visual studio 11.0\vc\include\xrefwrap
;	COMDAT ??$?0V<lambda_9eb754bdeb4f4749f734e866e5cd8484>@@@?$_Callable_base@V<lambda_9eb754bdeb4f4749f734e866e5cd8484>@@$0A@@std@@QAE@$$QAV<lambda_9eb754bdeb4f4749f734e866e5cd8484>@@@Z
_TEXT	SEGMENT
_this$ = -4						; size = 4
__Val$ = 8						; size = 4
??$?0V<lambda_9eb754bdeb4f4749f734e866e5cd8484>@@@?$_Callable_base@V<lambda_9eb754bdeb4f4749f734e866e5cd8484>@@$0A@@std@@QAE@$$QAV<lambda_9eb754bdeb4f4749f734e866e5cd8484>@@@Z PROC ; std::_Callable_base<<lambda_9eb754bdeb4f4749f734e866e5cd8484>,0>::_Callable_base<<lambda_9eb754bdeb4f4749f734e866e5cd8484>,0><<lambda_9eb754bdeb4f4749f734e866e5cd8484> >, COMDAT
; _this$ = ecx

; 317  : 		{	// construct by forwarding

	push	ebp
	mov	ebp, esp
	push	ecx
	mov	DWORD PTR [ebp-4], -858993460		; ccccccccH
	mov	DWORD PTR _this$[ebp], ecx
	mov	eax, DWORD PTR __Val$[ebp]
	push	eax
	call	??$forward@V<lambda_9eb754bdeb4f4749f734e866e5cd8484>@@@std@@YA$$QAV<lambda_9eb754bdeb4f4749f734e866e5cd8484>@@AAV1@@Z ; std::forward<<lambda_9eb754bdeb4f4749f734e866e5cd8484> >
	add	esp, 4
	mov	ecx, DWORD PTR [eax]
	mov	edx, DWORD PTR _this$[ebp]
	mov	DWORD PTR [edx], ecx

; 318  : 		}

	mov	eax, DWORD PTR _this$[ebp]
	add	esp, 4
	cmp	ebp, esp
	call	__RTC_CheckEsp
	mov	esp, ebp
	pop	ebp
	ret	4
??$?0V<lambda_9eb754bdeb4f4749f734e866e5cd8484>@@@?$_Callable_base@V<lambda_9eb754bdeb4f4749f734e866e5cd8484>@@$0A@@std@@QAE@$$QAV<lambda_9eb754bdeb4f4749f734e866e5cd8484>@@@Z ENDP ; std::_Callable_base<<lambda_9eb754bdeb4f4749f734e866e5cd8484>,0>::_Callable_base<<lambda_9eb754bdeb4f4749f734e866e5cd8484>,0><<lambda_9eb754bdeb4f4749f734e866e5cd8484> >
_TEXT	ENDS
; Function compile flags: /Odtp /RTCsu
; File c:\program files (x86)\microsoft visual studio 11.0\vc\include\xmemory0
;	COMDAT ??$_Allocate@V?$_Func_impl@U?$_Callable_obj@V<lambda_5d8c5ab464462ebb691e185ac4dda097>@@$0A@@std@@V?$allocator@V?$_Func_class@XU_Nil@std@@U12@U12@U12@U12@U12@U12@@std@@@2@XU_Nil@2@U42@U42@U42@U42@U42@U42@@std@@@std@@YAPAV?$_Func_impl@U?$_Callable_obj@V<lambda_5d8c5ab464462ebb691e185ac4dda097>@@$0A@@std@@V?$allocator@V?$_Func_class@XU_Nil@std@@U12@U12@U12@U12@U12@U12@@std@@@2@XU_Nil@2@U42@U42@U42@U42@U42@U42@@0@IPAV10@@Z
_TEXT	SEGMENT
__Ptr$ = -4						; size = 4
__Count$ = 8						; size = 4
___formal$ = 12						; size = 4
??$_Allocate@V?$_Func_impl@U?$_Callable_obj@V<lambda_5d8c5ab464462ebb691e185ac4dda097>@@$0A@@std@@V?$allocator@V?$_Func_class@XU_Nil@std@@U12@U12@U12@U12@U12@U12@@std@@@2@XU_Nil@2@U42@U42@U42@U42@U42@U42@@std@@@std@@YAPAV?$_Func_impl@U?$_Callable_obj@V<lambda_5d8c5ab464462ebb691e185ac4dda097>@@$0A@@std@@V?$allocator@V?$_Func_class@XU_Nil@std@@U12@U12@U12@U12@U12@U12@@std@@@2@XU_Nil@2@U42@U42@U42@U42@U42@U42@@0@IPAV10@@Z PROC ; std::_Allocate<std::_Func_impl<std::_Callable_obj<<lambda_5d8c5ab464462ebb691e185ac4dda097>,0>,std::allocator<std::_Func_class<void,std::_Nil,std::_Nil,std::_Nil,std::_Nil,std::_Nil,std::_Nil,std::_Nil> >,void,std::_Nil,std::_Nil,std::_Nil,std::_Nil,std::_Nil,std::_Nil,std::_Nil> >, COMDAT

; 22   : 	{	// allocate storage for _Count elements of type _Ty

	push	ebp
	mov	ebp, esp
	push	ecx
	push	esi
	mov	DWORD PTR [ebp-4], -858993460		; ccccccccH

; 23   : 	void *_Ptr = 0;

	mov	DWORD PTR __Ptr$[ebp], 0

; 24   : 
; 25   : 	if (_Count == 0)

	cmp	DWORD PTR __Count$[ebp], 0
	jne	SHORT $LN4@Allocate

; 26   : 		;
; 27   : 	else if (((size_t)(-1) / sizeof (_Ty) < _Count)

	jmp	SHORT $LN3@Allocate
$LN4@Allocate:

; 28   : 		|| (_Ptr = ::operator new(_Count * sizeof (_Ty))) == 0)

	cmp	DWORD PTR __Count$[ebp], 357913941	; 15555555H
	ja	SHORT $LN1@Allocate
	mov	eax, DWORD PTR __Count$[ebp]
	imul	eax, 12					; 0000000cH
	push	eax
	call	??2@YAPAXI@Z				; operator new
	add	esp, 4
	mov	DWORD PTR __Ptr$[ebp], eax
	cmp	DWORD PTR __Ptr$[ebp], 0
	jne	SHORT $LN3@Allocate
$LN1@Allocate:

; 29   : 		_Xbad_alloc();	// report no memory

	mov	esi, esp
	call	DWORD PTR __imp_?_Xbad_alloc@std@@YAXXZ
	cmp	esi, esp
	call	__RTC_CheckEsp
$LN3@Allocate:

; 30   : 
; 31   : 	return ((_Ty *)_Ptr);

	mov	eax, DWORD PTR __Ptr$[ebp]
$LN6@Allocate:

; 32   : 	}

	pop	esi
	add	esp, 4
	cmp	ebp, esp
	call	__RTC_CheckEsp
	mov	esp, ebp
	pop	ebp
	ret	0
??$_Allocate@V?$_Func_impl@U?$_Callable_obj@V<lambda_5d8c5ab464462ebb691e185ac4dda097>@@$0A@@std@@V?$allocator@V?$_Func_class@XU_Nil@std@@U12@U12@U12@U12@U12@U12@@std@@@2@XU_Nil@2@U42@U42@U42@U42@U42@U42@@std@@@std@@YAPAV?$_Func_impl@U?$_Callable_obj@V<lambda_5d8c5ab464462ebb691e185ac4dda097>@@$0A@@std@@V?$allocator@V?$_Func_class@XU_Nil@std@@U12@U12@U12@U12@U12@U12@@std@@@2@XU_Nil@2@U42@U42@U42@U42@U42@U42@@0@IPAV10@@Z ENDP ; std::_Allocate<std::_Func_impl<std::_Callable_obj<<lambda_5d8c5ab464462ebb691e185ac4dda097>,0>,std::allocator<std::_Func_class<void,std::_Nil,std::_Nil,std::_Nil,std::_Nil,std::_Nil,std::_Nil,std::_Nil> >,void,std::_Nil,std::_Nil,std::_Nil,std::_Nil,std::_Nil,std::_Nil,std::_Nil> >
_TEXT	ENDS
; Function compile flags: /Odtp /RTCsu
; File c:\program files (x86)\microsoft visual studio 11.0\vc\include\xmemory0
;	COMDAT ??$destroy@V?$_Func_impl@U?$_Callable_obj@V<lambda_5d8c5ab464462ebb691e185ac4dda097>@@$0A@@std@@V?$allocator@V?$_Func_class@XU_Nil@std@@U12@U12@U12@U12@U12@U12@@std@@@2@XU_Nil@2@U42@U42@U42@U42@U42@U42@@std@@@?$allocator@V?$_Func_impl@U?$_Callable_obj@V<lambda_5d8c5ab464462ebb691e185ac4dda097>@@$0A@@std@@V?$allocator@V?$_Func_class@XU_Nil@std@@U12@U12@U12@U12@U12@U12@@std@@@2@XU_Nil@2@U42@U42@U42@U42@U42@U42@@std@@@std@@QAEXPAV?$_Func_impl@U?$_Callable_obj@V<lambda_5d8c5ab464462ebb691e185ac4dda097>@@$0A@@std@@V?$allocator@V?$_Func_class@XU_Nil@std@@U12@U12@U12@U12@U12@U12@@std@@@2@XU_Nil@2@U42@U42@U42@U42@U42@U42@@1@@Z
_TEXT	SEGMENT
_this$ = -4						; size = 4
__Ptr$ = 8						; size = 4
??$destroy@V?$_Func_impl@U?$_Callable_obj@V<lambda_5d8c5ab464462ebb691e185ac4dda097>@@$0A@@std@@V?$allocator@V?$_Func_class@XU_Nil@std@@U12@U12@U12@U12@U12@U12@@std@@@2@XU_Nil@2@U42@U42@U42@U42@U42@U42@@std@@@?$allocator@V?$_Func_impl@U?$_Callable_obj@V<lambda_5d8c5ab464462ebb691e185ac4dda097>@@$0A@@std@@V?$allocator@V?$_Func_class@XU_Nil@std@@U12@U12@U12@U12@U12@U12@@std@@@2@XU_Nil@2@U42@U42@U42@U42@U42@U42@@std@@@std@@QAEXPAV?$_Func_impl@U?$_Callable_obj@V<lambda_5d8c5ab464462ebb691e185ac4dda097>@@$0A@@std@@V?$allocator@V?$_Func_class@XU_Nil@std@@U12@U12@U12@U12@U12@U12@@std@@@2@XU_Nil@2@U42@U42@U42@U42@U42@U42@@1@@Z PROC ; std::allocator<std::_Func_impl<std::_Callable_obj<<lambda_5d8c5ab464462ebb691e185ac4dda097>,0>,std::allocator<std::_Func_class<void,std::_Nil,std::_Nil,std::_Nil,std::_Nil,std::_Nil,std::_Nil,std::_Nil> >,void,std::_Nil,std::_Nil,std::_Nil,std::_Nil,std::_Nil,std::_Nil,std::_Nil> >::destroy<std::_Func_impl<std::_Callable_obj<<lambda_5d8c5ab464462ebb691e185ac4dda097>,0>,std::allocator<std::_Func_class<void,std::_Nil,std::_Nil,std::_Nil,std::_Nil,std::_Nil,std::_Nil,std::_Nil> >,void,std::_Nil,std::_Nil,std::_Nil,std::_Nil,std::_Nil,std::_Nil,std::_Nil> >, COMDAT
; _this$ = ecx

; 621  : 		void destroy(_Uty *_Ptr)

	push	ebp
	mov	ebp, esp
	push	ecx
	push	esi
	mov	DWORD PTR [ebp-4], -858993460		; ccccccccH
	mov	DWORD PTR _this$[ebp], ecx

; 622  : 		{	// destroy object at _Ptr
; 623  : 		_Ptr->~_Uty();

	mov	esi, esp
	push	0
	mov	eax, DWORD PTR __Ptr$[ebp]
	mov	edx, DWORD PTR [eax]
	mov	ecx, DWORD PTR __Ptr$[ebp]
	mov	eax, DWORD PTR [edx+20]
	call	eax
	cmp	esi, esp
	call	__RTC_CheckEsp

; 624  : 		}

	pop	esi
	add	esp, 4
	cmp	ebp, esp
	call	__RTC_CheckEsp
	mov	esp, ebp
	pop	ebp
	ret	4
??$destroy@V?$_Func_impl@U?$_Callable_obj@V<lambda_5d8c5ab464462ebb691e185ac4dda097>@@$0A@@std@@V?$allocator@V?$_Func_class@XU_Nil@std@@U12@U12@U12@U12@U12@U12@@std@@@2@XU_Nil@2@U42@U42@U42@U42@U42@U42@@std@@@?$allocator@V?$_Func_impl@U?$_Callable_obj@V<lambda_5d8c5ab464462ebb691e185ac4dda097>@@$0A@@std@@V?$allocator@V?$_Func_class@XU_Nil@std@@U12@U12@U12@U12@U12@U12@@std@@@2@XU_Nil@2@U42@U42@U42@U42@U42@U42@@std@@@std@@QAEXPAV?$_Func_impl@U?$_Callable_obj@V<lambda_5d8c5ab464462ebb691e185ac4dda097>@@$0A@@std@@V?$allocator@V?$_Func_class@XU_Nil@std@@U12@U12@U12@U12@U12@U12@@std@@@2@XU_Nil@2@U42@U42@U42@U42@U42@U42@@1@@Z ENDP ; std::allocator<std::_Func_impl<std::_Callable_obj<<lambda_5d8c5ab464462ebb691e185ac4dda097>,0>,std::allocator<std::_Func_class<void,std::_Nil,std::_Nil,std::_Nil,std::_Nil,std::_Nil,std::_Nil,std::_Nil> >,void,std::_Nil,std::_Nil,std::_Nil,std::_Nil,std::_Nil,std::_Nil,std::_Nil> >::destroy<std::_Func_impl<std::_Callable_obj<<lambda_5d8c5ab464462ebb691e185ac4dda097>,0>,std::allocator<std::_Func_class<void,std::_Nil,std::_Nil,std::_Nil,std::_Nil,std::_Nil,std::_Nil,std::_Nil> >,void,std::_Nil,std::_Nil,std::_Nil,std::_Nil,std::_Nil,std::_Nil,std::_Nil> >
_TEXT	ENDS
; Function compile flags: /Odtp /RTCsu
; File c:\program files (x86)\microsoft visual studio 11.0\vc\include\xrefwrap
;	COMDAT ??$_ApplyX@X@?$_Callable_obj@V<lambda_5d8c5ab464462ebb691e185ac4dda097>@@$0A@@std@@QAEXXZ
_TEXT	SEGMENT
_this$ = -4						; size = 4
??$_ApplyX@X@?$_Callable_obj@V<lambda_5d8c5ab464462ebb691e185ac4dda097>@@$0A@@std@@QAEXXZ PROC ; std::_Callable_obj<<lambda_5d8c5ab464462ebb691e185ac4dda097>,0>::_ApplyX<void>, COMDAT
; _this$ = ecx

; 431  : _VARIADIC_EXPAND_0X(_APPLYX_CALLOBJ, , , , )

	push	ebp
	mov	ebp, esp
	push	ecx
	mov	DWORD PTR [ebp-4], -858993460		; ccccccccH
	mov	DWORD PTR _this$[ebp], ecx
	mov	ecx, DWORD PTR _this$[ebp]
	call	?_Get@?$_Callable_base@V<lambda_5d8c5ab464462ebb691e185ac4dda097>@@$0A@@std@@QAEAAV<lambda_5d8c5ab464462ebb691e185ac4dda097>@@XZ ; std::_Callable_base<<lambda_5d8c5ab464462ebb691e185ac4dda097>,0>::_Get
	mov	ecx, eax
	call	??R<lambda_5d8c5ab464462ebb691e185ac4dda097>@@QBEXXZ ; <lambda_5d8c5ab464462ebb691e185ac4dda097>::operator()
	add	esp, 4
	cmp	ebp, esp
	call	__RTC_CheckEsp
	mov	esp, ebp
	pop	ebp
	ret	0
??$_ApplyX@X@?$_Callable_obj@V<lambda_5d8c5ab464462ebb691e185ac4dda097>@@$0A@@std@@QAEXXZ ENDP ; std::_Callable_obj<<lambda_5d8c5ab464462ebb691e185ac4dda097>,0>::_ApplyX<void>
_TEXT	ENDS
; Function compile flags: /Odtp /RTCsu
; File c:\program files (x86)\microsoft visual studio 11.0\vc\include\functional
;	COMDAT ??$?0U?$_Callable_obj@V<lambda_5d8c5ab464462ebb691e185ac4dda097>@@$0A@@std@@@?$_Func_impl@U?$_Callable_obj@V<lambda_5d8c5ab464462ebb691e185ac4dda097>@@$0A@@std@@V?$allocator@V?$_Func_class@XU_Nil@std@@U12@U12@U12@U12@U12@U12@@std@@@2@XU_Nil@2@U42@U42@U42@U42@U42@U42@@std@@QAE@$$QAU?$_Callable_obj@V<lambda_5d8c5ab464462ebb691e185ac4dda097>@@$0A@@1@ABV?$allocator@V?$_Func_impl@U?$_Callable_obj@V<lambda_5d8c5ab464462ebb691e185ac4dda097>@@$0A@@std@@V?$allocator@V?$_Func_class@XU_Nil@std@@U12@U12@U12@U12@U12@U12@@std@@@2@XU_Nil@2@U42@U42@U42@U42@U42@U42@@std@@@1@@Z
_TEXT	SEGMENT
_this$ = -16						; size = 4
__$EHRec$ = -12						; size = 12
__Val$ = 8						; size = 4
__Ax$ = 12						; size = 4
??$?0U?$_Callable_obj@V<lambda_5d8c5ab464462ebb691e185ac4dda097>@@$0A@@std@@@?$_Func_impl@U?$_Callable_obj@V<lambda_5d8c5ab464462ebb691e185ac4dda097>@@$0A@@std@@V?$allocator@V?$_Func_class@XU_Nil@std@@U12@U12@U12@U12@U12@U12@@std@@@2@XU_Nil@2@U42@U42@U42@U42@U42@U42@@std@@QAE@$$QAU?$_Callable_obj@V<lambda_5d8c5ab464462ebb691e185ac4dda097>@@$0A@@1@ABV?$allocator@V?$_Func_impl@U?$_Callable_obj@V<lambda_5d8c5ab464462ebb691e185ac4dda097>@@$0A@@std@@V?$allocator@V?$_Func_class@XU_Nil@std@@U12@U12@U12@U12@U12@U12@@std@@@2@XU_Nil@2@U42@U42@U42@U42@U42@U42@@std@@@1@@Z PROC ; std::_Func_impl<std::_Callable_obj<<lambda_5d8c5ab464462ebb691e185ac4dda097>,0>,std::allocator<std::_Func_class<void,std::_Nil,std::_Nil,std::_Nil,std::_Nil,std::_Nil,std::_Nil,std::_Nil> >,void,std::_Nil,std::_Nil,std::_Nil,std::_Nil,std::_Nil,std::_Nil,std::_Nil>::_Func_impl<std::_Callable_obj<<lambda_5d8c5ab464462ebb691e185ac4dda097>,0>,std::allocator<std::_Func_class<void,std::_Nil,std::_Nil,std::_Nil,std::_Nil,std::_Nil,std::_Nil,std::_Nil> >,void,std::_Nil,std::_Nil,std::_Nil,std::_Nil,std::_Nil,std::_Nil,std::_Nil><std::_Callable_obj<<lambda_5d8c5ab464462ebb691e185ac4dda097>,0> >, COMDAT
; _this$ = ecx

; 239  : _VARIADIC_EXPAND_0X(_CLASS_FUNC_IMPL, , , , )

	push	ebp
	mov	ebp, esp
	push	-1
	push	__ehhandler$??$?0U?$_Callable_obj@V<lambda_5d8c5ab464462ebb691e185ac4dda097>@@$0A@@std@@@?$_Func_impl@U?$_Callable_obj@V<lambda_5d8c5ab464462ebb691e185ac4dda097>@@$0A@@std@@V?$allocator@V?$_Func_class@XU_Nil@std@@U12@U12@U12@U12@U12@U12@@std@@@2@XU_Nil@2@U42@U42@U42@U42@U42@U42@@std@@QAE@$$QAU?$_Callable_obj@V<lambda_5d8c5ab464462ebb691e185ac4dda097>@@$0A@@1@ABV?$allocator@V?$_Func_impl@U?$_Callable_obj@V<lambda_5d8c5ab464462ebb691e185ac4dda097>@@$0A@@std@@V?$allocator@V?$_Func_class@XU_Nil@std@@U12@U12@U12@U12@U12@U12@@std@@@2@XU_Nil@2@U42@U42@U42@U42@U42@U42@@std@@@1@@Z
	mov	eax, DWORD PTR fs:0
	push	eax
	push	ecx
	mov	DWORD PTR [ebp-16], -858993460		; ccccccccH
	mov	eax, DWORD PTR ___security_cookie
	xor	eax, ebp
	push	eax
	lea	eax, DWORD PTR __$EHRec$[ebp]
	mov	DWORD PTR fs:0, eax
	mov	DWORD PTR _this$[ebp], ecx
	mov	ecx, DWORD PTR _this$[ebp]
	call	??0?$_Func_base@XU_Nil@std@@U12@U12@U12@U12@U12@U12@@std@@QAE@XZ
	mov	DWORD PTR __$EHRec$[ebp+8], 0
	mov	eax, DWORD PTR _this$[ebp]
	mov	DWORD PTR [eax], OFFSET ??_7?$_Func_impl@U?$_Callable_obj@V<lambda_5d8c5ab464462ebb691e185ac4dda097>@@$0A@@std@@V?$allocator@V?$_Func_class@XU_Nil@std@@U12@U12@U12@U12@U12@U12@@std@@@2@XU_Nil@2@U42@U42@U42@U42@U42@U42@@std@@6B@
	mov	ecx, DWORD PTR __Val$[ebp]
	push	ecx
	call	??$forward@U?$_Callable_obj@V<lambda_5d8c5ab464462ebb691e185ac4dda097>@@$0A@@std@@@std@@YA$$QAU?$_Callable_obj@V<lambda_5d8c5ab464462ebb691e185ac4dda097>@@$0A@@0@AAU10@@Z ; std::forward<std::_Callable_obj<<lambda_5d8c5ab464462ebb691e185ac4dda097>,0> >
	add	esp, 4
	push	eax
	mov	ecx, DWORD PTR _this$[ebp]
	add	ecx, 4
	call	??0?$_Callable_obj@V<lambda_5d8c5ab464462ebb691e185ac4dda097>@@$0A@@std@@QAE@$$QAU01@@Z ; std::_Callable_obj<<lambda_5d8c5ab464462ebb691e185ac4dda097>,0>::_Callable_obj<<lambda_5d8c5ab464462ebb691e185ac4dda097>,0>
	mov	edx, DWORD PTR __Ax$[ebp]
	push	edx
	mov	ecx, DWORD PTR _this$[ebp]
	add	ecx, 8
	call	??0?$allocator@V?$_Func_impl@U?$_Callable_obj@V<lambda_5d8c5ab464462ebb691e185ac4dda097>@@$0A@@std@@V?$allocator@V?$_Func_class@XU_Nil@std@@U12@U12@U12@U12@U12@U12@@std@@@2@XU_Nil@2@U42@U42@U42@U42@U42@U42@@std@@@std@@QAE@ABV01@@Z ; std::allocator<std::_Func_impl<std::_Callable_obj<<lambda_5d8c5ab464462ebb691e185ac4dda097>,0>,std::allocator<std::_Func_class<void,std::_Nil,std::_Nil,std::_Nil,std::_Nil,std::_Nil,std::_Nil,std::_Nil> >,void,std::_Nil,std::_Nil,std::_Nil,std::_Nil,std::_Nil,std::_Nil,std::_Nil> >::allocator<std::_Func_impl<std::_Callable_obj<<lambda_5d8c5ab464462ebb691e185ac4dda097>,0>,std::allocator<std::_Func_class<void,std::_Nil,std::_Nil,std::_Nil,std::_Nil,std::_Nil,std::_Nil,std::_Nil> >,void,std::_Nil,std::_Nil,std::_Nil,std::_Nil,std::_Nil,std::_Nil,std::_Nil> >
	mov	DWORD PTR __$EHRec$[ebp+8], -1
	mov	eax, DWORD PTR _this$[ebp]
	mov	ecx, DWORD PTR __$EHRec$[ebp]
	mov	DWORD PTR fs:0, ecx
	pop	ecx
	add	esp, 16					; 00000010H
	cmp	ebp, esp
	call	__RTC_CheckEsp
	mov	esp, ebp
	pop	ebp
	ret	8
_TEXT	ENDS
;	COMDAT text$x
text$x	SEGMENT
__unwindfunclet$??$?0U?$_Callable_obj@V<lambda_5d8c5ab464462ebb691e185ac4dda097>@@$0A@@std@@@?$_Func_impl@U?$_Callable_obj@V<lambda_5d8c5ab464462ebb691e185ac4dda097>@@$0A@@std@@V?$allocator@V?$_Func_class@XU_Nil@std@@U12@U12@U12@U12@U12@U12@@std@@@2@XU_Nil@2@U42@U42@U42@U42@U42@U42@@std@@QAE@$$QAU?$_Callable_obj@V<lambda_5d8c5ab464462ebb691e185ac4dda097>@@$0A@@1@ABV?$allocator@V?$_Func_impl@U?$_Callable_obj@V<lambda_5d8c5ab464462ebb691e185ac4dda097>@@$0A@@std@@V?$allocator@V?$_Func_class@XU_Nil@std@@U12@U12@U12@U12@U12@U12@@std@@@2@XU_Nil@2@U42@U42@U42@U42@U42@U42@@std@@@1@@Z$0:
	mov	ecx, DWORD PTR _this$[ebp]
	jmp	??1?$_Func_base@XU_Nil@std@@U12@U12@U12@U12@U12@U12@@std@@UAE@XZ ; std::_Func_base<void,std::_Nil,std::_Nil,std::_Nil,std::_Nil,std::_Nil,std::_Nil,std::_Nil>::~_Func_base<void,std::_Nil,std::_Nil,std::_Nil,std::_Nil,std::_Nil,std::_Nil,std::_Nil>
__ehhandler$??$?0U?$_Callable_obj@V<lambda_5d8c5ab464462ebb691e185ac4dda097>@@$0A@@std@@@?$_Func_impl@U?$_Callable_obj@V<lambda_5d8c5ab464462ebb691e185ac4dda097>@@$0A@@std@@V?$allocator@V?$_Func_class@XU_Nil@std@@U12@U12@U12@U12@U12@U12@@std@@@2@XU_Nil@2@U42@U42@U42@U42@U42@U42@@std@@QAE@$$QAU?$_Callable_obj@V<lambda_5d8c5ab464462ebb691e185ac4dda097>@@$0A@@1@ABV?$allocator@V?$_Func_impl@U?$_Callable_obj@V<lambda_5d8c5ab464462ebb691e185ac4dda097>@@$0A@@std@@V?$allocator@V?$_Func_class@XU_Nil@std@@U12@U12@U12@U12@U12@U12@@std@@@2@XU_Nil@2@U42@U42@U42@U42@U42@U42@@std@@@1@@Z:
	mov	edx, DWORD PTR [esp+8]
	lea	eax, DWORD PTR [edx+12]
	mov	ecx, DWORD PTR [edx-8]
	xor	ecx, eax
	call	@__security_check_cookie@4
	mov	eax, OFFSET __ehfuncinfo$??$?0U?$_Callable_obj@V<lambda_5d8c5ab464462ebb691e185ac4dda097>@@$0A@@std@@@?$_Func_impl@U?$_Callable_obj@V<lambda_5d8c5ab464462ebb691e185ac4dda097>@@$0A@@std@@V?$allocator@V?$_Func_class@XU_Nil@std@@U12@U12@U12@U12@U12@U12@@std@@@2@XU_Nil@2@U42@U42@U42@U42@U42@U42@@std@@QAE@$$QAU?$_Callable_obj@V<lambda_5d8c5ab464462ebb691e185ac4dda097>@@$0A@@1@ABV?$allocator@V?$_Func_impl@U?$_Callable_obj@V<lambda_5d8c5ab464462ebb691e185ac4dda097>@@$0A@@std@@V?$allocator@V?$_Func_class@XU_Nil@std@@U12@U12@U12@U12@U12@U12@@std@@@2@XU_Nil@2@U42@U42@U42@U42@U42@U42@@std@@@1@@Z
	jmp	___CxxFrameHandler3
text$x	ENDS
??$?0U?$_Callable_obj@V<lambda_5d8c5ab464462ebb691e185ac4dda097>@@$0A@@std@@@?$_Func_impl@U?$_Callable_obj@V<lambda_5d8c5ab464462ebb691e185ac4dda097>@@$0A@@std@@V?$allocator@V?$_Func_class@XU_Nil@std@@U12@U12@U12@U12@U12@U12@@std@@@2@XU_Nil@2@U42@U42@U42@U42@U42@U42@@std@@QAE@$$QAU?$_Callable_obj@V<lambda_5d8c5ab464462ebb691e185ac4dda097>@@$0A@@1@ABV?$allocator@V?$_Func_impl@U?$_Callable_obj@V<lambda_5d8c5ab464462ebb691e185ac4dda097>@@$0A@@std@@V?$allocator@V?$_Func_class@XU_Nil@std@@U12@U12@U12@U12@U12@U12@@std@@@2@XU_Nil@2@U42@U42@U42@U42@U42@U42@@std@@@1@@Z ENDP ; std::_Func_impl<std::_Callable_obj<<lambda_5d8c5ab464462ebb691e185ac4dda097>,0>,std::allocator<std::_Func_class<void,std::_Nil,std::_Nil,std::_Nil,std::_Nil,std::_Nil,std::_Nil,std::_Nil> >,void,std::_Nil,std::_Nil,std::_Nil,std::_Nil,std::_Nil,std::_Nil,std::_Nil>::_Func_impl<std::_Callable_obj<<lambda_5d8c5ab464462ebb691e185ac4dda097>,0>,std::allocator<std::_Func_class<void,std::_Nil,std::_Nil,std::_Nil,std::_Nil,std::_Nil,std::_Nil,std::_Nil> >,void,std::_Nil,std::_Nil,std::_Nil,std::_Nil,std::_Nil,std::_Nil,std::_Nil><std::_Callable_obj<<lambda_5d8c5ab464462ebb691e185ac4dda097>,0> >
; Function compile flags: /Odtp /RTCsu
; File c:\program files (x86)\microsoft visual studio 11.0\vc\include\type_traits
;	COMDAT ??$move@AAU?$_Callable_obj@V<lambda_5d8c5ab464462ebb691e185ac4dda097>@@$0A@@std@@@std@@YA$$QAU?$_Callable_obj@V<lambda_5d8c5ab464462ebb691e185ac4dda097>@@$0A@@0@AAU10@@Z
_TEXT	SEGMENT
__Arg$ = 8						; size = 4
??$move@AAU?$_Callable_obj@V<lambda_5d8c5ab464462ebb691e185ac4dda097>@@$0A@@std@@@std@@YA$$QAU?$_Callable_obj@V<lambda_5d8c5ab464462ebb691e185ac4dda097>@@$0A@@0@AAU10@@Z PROC ; std::move<std::_Callable_obj<<lambda_5d8c5ab464462ebb691e185ac4dda097>,0> &>, COMDAT

; 1790 : 	{	// forward _Arg as movable

	push	ebp
	mov	ebp, esp

; 1791 : 	return ((typename remove_reference<_Ty>::type&&)_Arg);

	mov	eax, DWORD PTR __Arg$[ebp]

; 1792 : 	}

	pop	ebp
	ret	0
??$move@AAU?$_Callable_obj@V<lambda_5d8c5ab464462ebb691e185ac4dda097>@@$0A@@std@@@std@@YA$$QAU?$_Callable_obj@V<lambda_5d8c5ab464462ebb691e185ac4dda097>@@$0A@@0@AAU10@@Z ENDP ; std::move<std::_Callable_obj<<lambda_5d8c5ab464462ebb691e185ac4dda097>,0> &>
_TEXT	ENDS
; Function compile flags: /Odtp /RTCsu
; File c:\program files (x86)\microsoft visual studio 11.0\vc\include\functional
;	COMDAT ??$?0AAU?$_Callable_obj@V<lambda_5d8c5ab464462ebb691e185ac4dda097>@@$0A@@std@@@?$_Func_impl@U?$_Callable_obj@V<lambda_5d8c5ab464462ebb691e185ac4dda097>@@$0A@@std@@V?$allocator@V?$_Func_class@XU_Nil@std@@U12@U12@U12@U12@U12@U12@@std@@@2@XU_Nil@2@U42@U42@U42@U42@U42@U42@@std@@QAE@AAU?$_Callable_obj@V<lambda_5d8c5ab464462ebb691e185ac4dda097>@@$0A@@1@ABV?$allocator@V?$_Func_impl@U?$_Callable_obj@V<lambda_5d8c5ab464462ebb691e185ac4dda097>@@$0A@@std@@V?$allocator@V?$_Func_class@XU_Nil@std@@U12@U12@U12@U12@U12@U12@@std@@@2@XU_Nil@2@U42@U42@U42@U42@U42@U42@@std@@@1@@Z
_TEXT	SEGMENT
_this$ = -16						; size = 4
__$EHRec$ = -12						; size = 12
__Val$ = 8						; size = 4
__Ax$ = 12						; size = 4
??$?0AAU?$_Callable_obj@V<lambda_5d8c5ab464462ebb691e185ac4dda097>@@$0A@@std@@@?$_Func_impl@U?$_Callable_obj@V<lambda_5d8c5ab464462ebb691e185ac4dda097>@@$0A@@std@@V?$allocator@V?$_Func_class@XU_Nil@std@@U12@U12@U12@U12@U12@U12@@std@@@2@XU_Nil@2@U42@U42@U42@U42@U42@U42@@std@@QAE@AAU?$_Callable_obj@V<lambda_5d8c5ab464462ebb691e185ac4dda097>@@$0A@@1@ABV?$allocator@V?$_Func_impl@U?$_Callable_obj@V<lambda_5d8c5ab464462ebb691e185ac4dda097>@@$0A@@std@@V?$allocator@V?$_Func_class@XU_Nil@std@@U12@U12@U12@U12@U12@U12@@std@@@2@XU_Nil@2@U42@U42@U42@U42@U42@U42@@std@@@1@@Z PROC ; std::_Func_impl<std::_Callable_obj<<lambda_5d8c5ab464462ebb691e185ac4dda097>,0>,std::allocator<std::_Func_class<void,std::_Nil,std::_Nil,std::_Nil,std::_Nil,std::_Nil,std::_Nil,std::_Nil> >,void,std::_Nil,std::_Nil,std::_Nil,std::_Nil,std::_Nil,std::_Nil,std::_Nil>::_Func_impl<std::_Callable_obj<<lambda_5d8c5ab464462ebb691e185ac4dda097>,0>,std::allocator<std::_Func_class<void,std::_Nil,std::_Nil,std::_Nil,std::_Nil,std::_Nil,std::_Nil,std::_Nil> >,void,std::_Nil,std::_Nil,std::_Nil,std::_Nil,std::_Nil,std::_Nil,std::_Nil><std::_Callable_obj<<lambda_5d8c5ab464462ebb691e185ac4dda097>,0> &>, COMDAT
; _this$ = ecx

; 239  : _VARIADIC_EXPAND_0X(_CLASS_FUNC_IMPL, , , , )

	push	ebp
	mov	ebp, esp
	push	-1
	push	__ehhandler$??$?0AAU?$_Callable_obj@V<lambda_5d8c5ab464462ebb691e185ac4dda097>@@$0A@@std@@@?$_Func_impl@U?$_Callable_obj@V<lambda_5d8c5ab464462ebb691e185ac4dda097>@@$0A@@std@@V?$allocator@V?$_Func_class@XU_Nil@std@@U12@U12@U12@U12@U12@U12@@std@@@2@XU_Nil@2@U42@U42@U42@U42@U42@U42@@std@@QAE@AAU?$_Callable_obj@V<lambda_5d8c5ab464462ebb691e185ac4dda097>@@$0A@@1@ABV?$allocator@V?$_Func_impl@U?$_Callable_obj@V<lambda_5d8c5ab464462ebb691e185ac4dda097>@@$0A@@std@@V?$allocator@V?$_Func_class@XU_Nil@std@@U12@U12@U12@U12@U12@U12@@std@@@2@XU_Nil@2@U42@U42@U42@U42@U42@U42@@std@@@1@@Z
	mov	eax, DWORD PTR fs:0
	push	eax
	push	ecx
	mov	DWORD PTR [ebp-16], -858993460		; ccccccccH
	mov	eax, DWORD PTR ___security_cookie
	xor	eax, ebp
	push	eax
	lea	eax, DWORD PTR __$EHRec$[ebp]
	mov	DWORD PTR fs:0, eax
	mov	DWORD PTR _this$[ebp], ecx
	mov	ecx, DWORD PTR _this$[ebp]
	call	??0?$_Func_base@XU_Nil@std@@U12@U12@U12@U12@U12@U12@@std@@QAE@XZ
	mov	DWORD PTR __$EHRec$[ebp+8], 0
	mov	eax, DWORD PTR _this$[ebp]
	mov	DWORD PTR [eax], OFFSET ??_7?$_Func_impl@U?$_Callable_obj@V<lambda_5d8c5ab464462ebb691e185ac4dda097>@@$0A@@std@@V?$allocator@V?$_Func_class@XU_Nil@std@@U12@U12@U12@U12@U12@U12@@std@@@2@XU_Nil@2@U42@U42@U42@U42@U42@U42@@std@@6B@
	mov	ecx, DWORD PTR __Val$[ebp]
	push	ecx
	call	??$forward@AAU?$_Callable_obj@V<lambda_5d8c5ab464462ebb691e185ac4dda097>@@$0A@@std@@@std@@YAAAU?$_Callable_obj@V<lambda_5d8c5ab464462ebb691e185ac4dda097>@@$0A@@0@AAU10@@Z ; std::forward<std::_Callable_obj<<lambda_5d8c5ab464462ebb691e185ac4dda097>,0> &>
	add	esp, 4
	push	eax
	mov	ecx, DWORD PTR _this$[ebp]
	add	ecx, 4
	call	??0?$_Callable_obj@V<lambda_5d8c5ab464462ebb691e185ac4dda097>@@$0A@@std@@QAE@AAU01@@Z ; std::_Callable_obj<<lambda_5d8c5ab464462ebb691e185ac4dda097>,0>::_Callable_obj<<lambda_5d8c5ab464462ebb691e185ac4dda097>,0>
	mov	edx, DWORD PTR __Ax$[ebp]
	push	edx
	mov	ecx, DWORD PTR _this$[ebp]
	add	ecx, 8
	call	??0?$allocator@V?$_Func_impl@U?$_Callable_obj@V<lambda_5d8c5ab464462ebb691e185ac4dda097>@@$0A@@std@@V?$allocator@V?$_Func_class@XU_Nil@std@@U12@U12@U12@U12@U12@U12@@std@@@2@XU_Nil@2@U42@U42@U42@U42@U42@U42@@std@@@std@@QAE@ABV01@@Z ; std::allocator<std::_Func_impl<std::_Callable_obj<<lambda_5d8c5ab464462ebb691e185ac4dda097>,0>,std::allocator<std::_Func_class<void,std::_Nil,std::_Nil,std::_Nil,std::_Nil,std::_Nil,std::_Nil,std::_Nil> >,void,std::_Nil,std::_Nil,std::_Nil,std::_Nil,std::_Nil,std::_Nil,std::_Nil> >::allocator<std::_Func_impl<std::_Callable_obj<<lambda_5d8c5ab464462ebb691e185ac4dda097>,0>,std::allocator<std::_Func_class<void,std::_Nil,std::_Nil,std::_Nil,std::_Nil,std::_Nil,std::_Nil,std::_Nil> >,void,std::_Nil,std::_Nil,std::_Nil,std::_Nil,std::_Nil,std::_Nil,std::_Nil> >
	mov	DWORD PTR __$EHRec$[ebp+8], -1
	mov	eax, DWORD PTR _this$[ebp]
	mov	ecx, DWORD PTR __$EHRec$[ebp]
	mov	DWORD PTR fs:0, ecx
	pop	ecx
	add	esp, 16					; 00000010H
	cmp	ebp, esp
	call	__RTC_CheckEsp
	mov	esp, ebp
	pop	ebp
	ret	8
_TEXT	ENDS
;	COMDAT text$x
text$x	SEGMENT
__unwindfunclet$??$?0AAU?$_Callable_obj@V<lambda_5d8c5ab464462ebb691e185ac4dda097>@@$0A@@std@@@?$_Func_impl@U?$_Callable_obj@V<lambda_5d8c5ab464462ebb691e185ac4dda097>@@$0A@@std@@V?$allocator@V?$_Func_class@XU_Nil@std@@U12@U12@U12@U12@U12@U12@@std@@@2@XU_Nil@2@U42@U42@U42@U42@U42@U42@@std@@QAE@AAU?$_Callable_obj@V<lambda_5d8c5ab464462ebb691e185ac4dda097>@@$0A@@1@ABV?$allocator@V?$_Func_impl@U?$_Callable_obj@V<lambda_5d8c5ab464462ebb691e185ac4dda097>@@$0A@@std@@V?$allocator@V?$_Func_class@XU_Nil@std@@U12@U12@U12@U12@U12@U12@@std@@@2@XU_Nil@2@U42@U42@U42@U42@U42@U42@@std@@@1@@Z$0:
	mov	ecx, DWORD PTR _this$[ebp]
	jmp	??1?$_Func_base@XU_Nil@std@@U12@U12@U12@U12@U12@U12@@std@@UAE@XZ ; std::_Func_base<void,std::_Nil,std::_Nil,std::_Nil,std::_Nil,std::_Nil,std::_Nil,std::_Nil>::~_Func_base<void,std::_Nil,std::_Nil,std::_Nil,std::_Nil,std::_Nil,std::_Nil,std::_Nil>
__ehhandler$??$?0AAU?$_Callable_obj@V<lambda_5d8c5ab464462ebb691e185ac4dda097>@@$0A@@std@@@?$_Func_impl@U?$_Callable_obj@V<lambda_5d8c5ab464462ebb691e185ac4dda097>@@$0A@@std@@V?$allocator@V?$_Func_class@XU_Nil@std@@U12@U12@U12@U12@U12@U12@@std@@@2@XU_Nil@2@U42@U42@U42@U42@U42@U42@@std@@QAE@AAU?$_Callable_obj@V<lambda_5d8c5ab464462ebb691e185ac4dda097>@@$0A@@1@ABV?$allocator@V?$_Func_impl@U?$_Callable_obj@V<lambda_5d8c5ab464462ebb691e185ac4dda097>@@$0A@@std@@V?$allocator@V?$_Func_class@XU_Nil@std@@U12@U12@U12@U12@U12@U12@@std@@@2@XU_Nil@2@U42@U42@U42@U42@U42@U42@@std@@@1@@Z:
	mov	edx, DWORD PTR [esp+8]
	lea	eax, DWORD PTR [edx+12]
	mov	ecx, DWORD PTR [edx-8]
	xor	ecx, eax
	call	@__security_check_cookie@4
	mov	eax, OFFSET __ehfuncinfo$??$?0AAU?$_Callable_obj@V<lambda_5d8c5ab464462ebb691e185ac4dda097>@@$0A@@std@@@?$_Func_impl@U?$_Callable_obj@V<lambda_5d8c5ab464462ebb691e185ac4dda097>@@$0A@@std@@V?$allocator@V?$_Func_class@XU_Nil@std@@U12@U12@U12@U12@U12@U12@@std@@@2@XU_Nil@2@U42@U42@U42@U42@U42@U42@@std@@QAE@AAU?$_Callable_obj@V<lambda_5d8c5ab464462ebb691e185ac4dda097>@@$0A@@1@ABV?$allocator@V?$_Func_impl@U?$_Callable_obj@V<lambda_5d8c5ab464462ebb691e185ac4dda097>@@$0A@@std@@V?$allocator@V?$_Func_class@XU_Nil@std@@U12@U12@U12@U12@U12@U12@@std@@@2@XU_Nil@2@U42@U42@U42@U42@U42@U42@@std@@@1@@Z
	jmp	___CxxFrameHandler3
text$x	ENDS
??$?0AAU?$_Callable_obj@V<lambda_5d8c5ab464462ebb691e185ac4dda097>@@$0A@@std@@@?$_Func_impl@U?$_Callable_obj@V<lambda_5d8c5ab464462ebb691e185ac4dda097>@@$0A@@std@@V?$allocator@V?$_Func_class@XU_Nil@std@@U12@U12@U12@U12@U12@U12@@std@@@2@XU_Nil@2@U42@U42@U42@U42@U42@U42@@std@@QAE@AAU?$_Callable_obj@V<lambda_5d8c5ab464462ebb691e185ac4dda097>@@$0A@@1@ABV?$allocator@V?$_Func_impl@U?$_Callable_obj@V<lambda_5d8c5ab464462ebb691e185ac4dda097>@@$0A@@std@@V?$allocator@V?$_Func_class@XU_Nil@std@@U12@U12@U12@U12@U12@U12@@std@@@2@XU_Nil@2@U42@U42@U42@U42@U42@U42@@std@@@1@@Z ENDP ; std::_Func_impl<std::_Callable_obj<<lambda_5d8c5ab464462ebb691e185ac4dda097>,0>,std::allocator<std::_Func_class<void,std::_Nil,std::_Nil,std::_Nil,std::_Nil,std::_Nil,std::_Nil,std::_Nil> >,void,std::_Nil,std::_Nil,std::_Nil,std::_Nil,std::_Nil,std::_Nil,std::_Nil>::_Func_impl<std::_Callable_obj<<lambda_5d8c5ab464462ebb691e185ac4dda097>,0>,std::allocator<std::_Func_class<void,std::_Nil,std::_Nil,std::_Nil,std::_Nil,std::_Nil,std::_Nil,std::_Nil> >,void,std::_Nil,std::_Nil,std::_Nil,std::_Nil,std::_Nil,std::_Nil,std::_Nil><std::_Callable_obj<<lambda_5d8c5ab464462ebb691e185ac4dda097>,0> &>
; Function compile flags: /Odtp /RTCsu
; File c:\program files (x86)\microsoft visual studio 11.0\vc\include\xrefwrap
;	COMDAT ??$?0V<lambda_5d8c5ab464462ebb691e185ac4dda097>@@@?$_Callable_obj@V<lambda_5d8c5ab464462ebb691e185ac4dda097>@@$0A@@std@@QAE@$$QAV<lambda_5d8c5ab464462ebb691e185ac4dda097>@@@Z
_TEXT	SEGMENT
_this$ = -4						; size = 4
__Val$ = 8						; size = 4
??$?0V<lambda_5d8c5ab464462ebb691e185ac4dda097>@@@?$_Callable_obj@V<lambda_5d8c5ab464462ebb691e185ac4dda097>@@$0A@@std@@QAE@$$QAV<lambda_5d8c5ab464462ebb691e185ac4dda097>@@@Z PROC ; std::_Callable_obj<<lambda_5d8c5ab464462ebb691e185ac4dda097>,0>::_Callable_obj<<lambda_5d8c5ab464462ebb691e185ac4dda097>,0><<lambda_5d8c5ab464462ebb691e185ac4dda097> >, COMDAT
; _this$ = ecx

; 415  : 		{	// construct

	push	ebp
	mov	ebp, esp
	push	ecx
	mov	DWORD PTR [ebp-4], -858993460		; ccccccccH
	mov	DWORD PTR _this$[ebp], ecx
	mov	eax, DWORD PTR __Val$[ebp]
	push	eax
	call	??$forward@V<lambda_5d8c5ab464462ebb691e185ac4dda097>@@@std@@YA$$QAV<lambda_5d8c5ab464462ebb691e185ac4dda097>@@AAV1@@Z ; std::forward<<lambda_5d8c5ab464462ebb691e185ac4dda097> >
	add	esp, 4
	push	eax
	mov	ecx, DWORD PTR _this$[ebp]
	call	??$?0V<lambda_5d8c5ab464462ebb691e185ac4dda097>@@@?$_Callable_base@V<lambda_5d8c5ab464462ebb691e185ac4dda097>@@$0A@@std@@QAE@$$QAV<lambda_5d8c5ab464462ebb691e185ac4dda097>@@@Z ; std::_Callable_base<<lambda_5d8c5ab464462ebb691e185ac4dda097>,0>::_Callable_base<<lambda_5d8c5ab464462ebb691e185ac4dda097>,0><<lambda_5d8c5ab464462ebb691e185ac4dda097> >

; 416  : 		}

	mov	eax, DWORD PTR _this$[ebp]
	add	esp, 4
	cmp	ebp, esp
	call	__RTC_CheckEsp
	mov	esp, ebp
	pop	ebp
	ret	4
??$?0V<lambda_5d8c5ab464462ebb691e185ac4dda097>@@@?$_Callable_obj@V<lambda_5d8c5ab464462ebb691e185ac4dda097>@@$0A@@std@@QAE@$$QAV<lambda_5d8c5ab464462ebb691e185ac4dda097>@@@Z ENDP ; std::_Callable_obj<<lambda_5d8c5ab464462ebb691e185ac4dda097>,0>::_Callable_obj<<lambda_5d8c5ab464462ebb691e185ac4dda097>,0><<lambda_5d8c5ab464462ebb691e185ac4dda097> >
_TEXT	ENDS
; Function compile flags: /Odtp /RTCsu
; File c:\program files (x86)\microsoft visual studio 11.0\vc\include\xmemory0
;	COMDAT ??$_Allocate@V?$_Func_impl@U?$_Callable_obj@V<lambda_9eb754bdeb4f4749f734e866e5cd8484>@@$0A@@std@@V?$allocator@V?$_Func_class@XU_Nil@std@@U12@U12@U12@U12@U12@U12@@std@@@2@XU_Nil@2@U42@U42@U42@U42@U42@U42@@std@@@std@@YAPAV?$_Func_impl@U?$_Callable_obj@V<lambda_9eb754bdeb4f4749f734e866e5cd8484>@@$0A@@std@@V?$allocator@V?$_Func_class@XU_Nil@std@@U12@U12@U12@U12@U12@U12@@std@@@2@XU_Nil@2@U42@U42@U42@U42@U42@U42@@0@IPAV10@@Z
_TEXT	SEGMENT
__Ptr$ = -4						; size = 4
__Count$ = 8						; size = 4
___formal$ = 12						; size = 4
??$_Allocate@V?$_Func_impl@U?$_Callable_obj@V<lambda_9eb754bdeb4f4749f734e866e5cd8484>@@$0A@@std@@V?$allocator@V?$_Func_class@XU_Nil@std@@U12@U12@U12@U12@U12@U12@@std@@@2@XU_Nil@2@U42@U42@U42@U42@U42@U42@@std@@@std@@YAPAV?$_Func_impl@U?$_Callable_obj@V<lambda_9eb754bdeb4f4749f734e866e5cd8484>@@$0A@@std@@V?$allocator@V?$_Func_class@XU_Nil@std@@U12@U12@U12@U12@U12@U12@@std@@@2@XU_Nil@2@U42@U42@U42@U42@U42@U42@@0@IPAV10@@Z PROC ; std::_Allocate<std::_Func_impl<std::_Callable_obj<<lambda_9eb754bdeb4f4749f734e866e5cd8484>,0>,std::allocator<std::_Func_class<void,std::_Nil,std::_Nil,std::_Nil,std::_Nil,std::_Nil,std::_Nil,std::_Nil> >,void,std::_Nil,std::_Nil,std::_Nil,std::_Nil,std::_Nil,std::_Nil,std::_Nil> >, COMDAT

; 22   : 	{	// allocate storage for _Count elements of type _Ty

	push	ebp
	mov	ebp, esp
	push	ecx
	push	esi
	mov	DWORD PTR [ebp-4], -858993460		; ccccccccH

; 23   : 	void *_Ptr = 0;

	mov	DWORD PTR __Ptr$[ebp], 0

; 24   : 
; 25   : 	if (_Count == 0)

	cmp	DWORD PTR __Count$[ebp], 0
	jne	SHORT $LN4@Allocate

; 26   : 		;
; 27   : 	else if (((size_t)(-1) / sizeof (_Ty) < _Count)

	jmp	SHORT $LN3@Allocate
$LN4@Allocate:

; 28   : 		|| (_Ptr = ::operator new(_Count * sizeof (_Ty))) == 0)

	cmp	DWORD PTR __Count$[ebp], 357913941	; 15555555H
	ja	SHORT $LN1@Allocate
	mov	eax, DWORD PTR __Count$[ebp]
	imul	eax, 12					; 0000000cH
	push	eax
	call	??2@YAPAXI@Z				; operator new
	add	esp, 4
	mov	DWORD PTR __Ptr$[ebp], eax
	cmp	DWORD PTR __Ptr$[ebp], 0
	jne	SHORT $LN3@Allocate
$LN1@Allocate:

; 29   : 		_Xbad_alloc();	// report no memory

	mov	esi, esp
	call	DWORD PTR __imp_?_Xbad_alloc@std@@YAXXZ
	cmp	esi, esp
	call	__RTC_CheckEsp
$LN3@Allocate:

; 30   : 
; 31   : 	return ((_Ty *)_Ptr);

	mov	eax, DWORD PTR __Ptr$[ebp]
$LN6@Allocate:

; 32   : 	}

	pop	esi
	add	esp, 4
	cmp	ebp, esp
	call	__RTC_CheckEsp
	mov	esp, ebp
	pop	ebp
	ret	0
??$_Allocate@V?$_Func_impl@U?$_Callable_obj@V<lambda_9eb754bdeb4f4749f734e866e5cd8484>@@$0A@@std@@V?$allocator@V?$_Func_class@XU_Nil@std@@U12@U12@U12@U12@U12@U12@@std@@@2@XU_Nil@2@U42@U42@U42@U42@U42@U42@@std@@@std@@YAPAV?$_Func_impl@U?$_Callable_obj@V<lambda_9eb754bdeb4f4749f734e866e5cd8484>@@$0A@@std@@V?$allocator@V?$_Func_class@XU_Nil@std@@U12@U12@U12@U12@U12@U12@@std@@@2@XU_Nil@2@U42@U42@U42@U42@U42@U42@@0@IPAV10@@Z ENDP ; std::_Allocate<std::_Func_impl<std::_Callable_obj<<lambda_9eb754bdeb4f4749f734e866e5cd8484>,0>,std::allocator<std::_Func_class<void,std::_Nil,std::_Nil,std::_Nil,std::_Nil,std::_Nil,std::_Nil,std::_Nil> >,void,std::_Nil,std::_Nil,std::_Nil,std::_Nil,std::_Nil,std::_Nil,std::_Nil> >
_TEXT	ENDS
; Function compile flags: /Odtp /RTCsu
; File c:\program files (x86)\microsoft visual studio 11.0\vc\include\xmemory0
;	COMDAT ??$destroy@V?$_Func_impl@U?$_Callable_obj@V<lambda_9eb754bdeb4f4749f734e866e5cd8484>@@$0A@@std@@V?$allocator@V?$_Func_class@XU_Nil@std@@U12@U12@U12@U12@U12@U12@@std@@@2@XU_Nil@2@U42@U42@U42@U42@U42@U42@@std@@@?$allocator@V?$_Func_impl@U?$_Callable_obj@V<lambda_9eb754bdeb4f4749f734e866e5cd8484>@@$0A@@std@@V?$allocator@V?$_Func_class@XU_Nil@std@@U12@U12@U12@U12@U12@U12@@std@@@2@XU_Nil@2@U42@U42@U42@U42@U42@U42@@std@@@std@@QAEXPAV?$_Func_impl@U?$_Callable_obj@V<lambda_9eb754bdeb4f4749f734e866e5cd8484>@@$0A@@std@@V?$allocator@V?$_Func_class@XU_Nil@std@@U12@U12@U12@U12@U12@U12@@std@@@2@XU_Nil@2@U42@U42@U42@U42@U42@U42@@1@@Z
_TEXT	SEGMENT
_this$ = -4						; size = 4
__Ptr$ = 8						; size = 4
??$destroy@V?$_Func_impl@U?$_Callable_obj@V<lambda_9eb754bdeb4f4749f734e866e5cd8484>@@$0A@@std@@V?$allocator@V?$_Func_class@XU_Nil@std@@U12@U12@U12@U12@U12@U12@@std@@@2@XU_Nil@2@U42@U42@U42@U42@U42@U42@@std@@@?$allocator@V?$_Func_impl@U?$_Callable_obj@V<lambda_9eb754bdeb4f4749f734e866e5cd8484>@@$0A@@std@@V?$allocator@V?$_Func_class@XU_Nil@std@@U12@U12@U12@U12@U12@U12@@std@@@2@XU_Nil@2@U42@U42@U42@U42@U42@U42@@std@@@std@@QAEXPAV?$_Func_impl@U?$_Callable_obj@V<lambda_9eb754bdeb4f4749f734e866e5cd8484>@@$0A@@std@@V?$allocator@V?$_Func_class@XU_Nil@std@@U12@U12@U12@U12@U12@U12@@std@@@2@XU_Nil@2@U42@U42@U42@U42@U42@U42@@1@@Z PROC ; std::allocator<std::_Func_impl<std::_Callable_obj<<lambda_9eb754bdeb4f4749f734e866e5cd8484>,0>,std::allocator<std::_Func_class<void,std::_Nil,std::_Nil,std::_Nil,std::_Nil,std::_Nil,std::_Nil,std::_Nil> >,void,std::_Nil,std::_Nil,std::_Nil,std::_Nil,std::_Nil,std::_Nil,std::_Nil> >::destroy<std::_Func_impl<std::_Callable_obj<<lambda_9eb754bdeb4f4749f734e866e5cd8484>,0>,std::allocator<std::_Func_class<void,std::_Nil,std::_Nil,std::_Nil,std::_Nil,std::_Nil,std::_Nil,std::_Nil> >,void,std::_Nil,std::_Nil,std::_Nil,std::_Nil,std::_Nil,std::_Nil,std::_Nil> >, COMDAT
; _this$ = ecx

; 621  : 		void destroy(_Uty *_Ptr)

	push	ebp
	mov	ebp, esp
	push	ecx
	push	esi
	mov	DWORD PTR [ebp-4], -858993460		; ccccccccH
	mov	DWORD PTR _this$[ebp], ecx

; 622  : 		{	// destroy object at _Ptr
; 623  : 		_Ptr->~_Uty();

	mov	esi, esp
	push	0
	mov	eax, DWORD PTR __Ptr$[ebp]
	mov	edx, DWORD PTR [eax]
	mov	ecx, DWORD PTR __Ptr$[ebp]
	mov	eax, DWORD PTR [edx+20]
	call	eax
	cmp	esi, esp
	call	__RTC_CheckEsp

; 624  : 		}

	pop	esi
	add	esp, 4
	cmp	ebp, esp
	call	__RTC_CheckEsp
	mov	esp, ebp
	pop	ebp
	ret	4
??$destroy@V?$_Func_impl@U?$_Callable_obj@V<lambda_9eb754bdeb4f4749f734e866e5cd8484>@@$0A@@std@@V?$allocator@V?$_Func_class@XU_Nil@std@@U12@U12@U12@U12@U12@U12@@std@@@2@XU_Nil@2@U42@U42@U42@U42@U42@U42@@std@@@?$allocator@V?$_Func_impl@U?$_Callable_obj@V<lambda_9eb754bdeb4f4749f734e866e5cd8484>@@$0A@@std@@V?$allocator@V?$_Func_class@XU_Nil@std@@U12@U12@U12@U12@U12@U12@@std@@@2@XU_Nil@2@U42@U42@U42@U42@U42@U42@@std@@@std@@QAEXPAV?$_Func_impl@U?$_Callable_obj@V<lambda_9eb754bdeb4f4749f734e866e5cd8484>@@$0A@@std@@V?$allocator@V?$_Func_class@XU_Nil@std@@U12@U12@U12@U12@U12@U12@@std@@@2@XU_Nil@2@U42@U42@U42@U42@U42@U42@@1@@Z ENDP ; std::allocator<std::_Func_impl<std::_Callable_obj<<lambda_9eb754bdeb4f4749f734e866e5cd8484>,0>,std::allocator<std::_Func_class<void,std::_Nil,std::_Nil,std::_Nil,std::_Nil,std::_Nil,std::_Nil,std::_Nil> >,void,std::_Nil,std::_Nil,std::_Nil,std::_Nil,std::_Nil,std::_Nil,std::_Nil> >::destroy<std::_Func_impl<std::_Callable_obj<<lambda_9eb754bdeb4f4749f734e866e5cd8484>,0>,std::allocator<std::_Func_class<void,std::_Nil,std::_Nil,std::_Nil,std::_Nil,std::_Nil,std::_Nil,std::_Nil> >,void,std::_Nil,std::_Nil,std::_Nil,std::_Nil,std::_Nil,std::_Nil,std::_Nil> >
_TEXT	ENDS
; Function compile flags: /Odtp /RTCsu
; File c:\program files (x86)\microsoft visual studio 11.0\vc\include\xrefwrap
;	COMDAT ??$_ApplyX@X@?$_Callable_obj@V<lambda_9eb754bdeb4f4749f734e866e5cd8484>@@$0A@@std@@QAEXXZ
_TEXT	SEGMENT
_this$ = -4						; size = 4
??$_ApplyX@X@?$_Callable_obj@V<lambda_9eb754bdeb4f4749f734e866e5cd8484>@@$0A@@std@@QAEXXZ PROC ; std::_Callable_obj<<lambda_9eb754bdeb4f4749f734e866e5cd8484>,0>::_ApplyX<void>, COMDAT
; _this$ = ecx

; 431  : _VARIADIC_EXPAND_0X(_APPLYX_CALLOBJ, , , , )

	push	ebp
	mov	ebp, esp
	push	ecx
	mov	DWORD PTR [ebp-4], -858993460		; ccccccccH
	mov	DWORD PTR _this$[ebp], ecx
	mov	ecx, DWORD PTR _this$[ebp]
	call	?_Get@?$_Callable_base@V<lambda_9eb754bdeb4f4749f734e866e5cd8484>@@$0A@@std@@QAEAAV<lambda_9eb754bdeb4f4749f734e866e5cd8484>@@XZ ; std::_Callable_base<<lambda_9eb754bdeb4f4749f734e866e5cd8484>,0>::_Get
	mov	ecx, eax
	call	??R<lambda_9eb754bdeb4f4749f734e866e5cd8484>@@QBEXXZ ; <lambda_9eb754bdeb4f4749f734e866e5cd8484>::operator()
	add	esp, 4
	cmp	ebp, esp
	call	__RTC_CheckEsp
	mov	esp, ebp
	pop	ebp
	ret	0
??$_ApplyX@X@?$_Callable_obj@V<lambda_9eb754bdeb4f4749f734e866e5cd8484>@@$0A@@std@@QAEXXZ ENDP ; std::_Callable_obj<<lambda_9eb754bdeb4f4749f734e866e5cd8484>,0>::_ApplyX<void>
_TEXT	ENDS
; Function compile flags: /Odtp /RTCsu
; File c:\program files (x86)\microsoft visual studio 11.0\vc\include\functional
;	COMDAT ??$?0U?$_Callable_obj@V<lambda_9eb754bdeb4f4749f734e866e5cd8484>@@$0A@@std@@@?$_Func_impl@U?$_Callable_obj@V<lambda_9eb754bdeb4f4749f734e866e5cd8484>@@$0A@@std@@V?$allocator@V?$_Func_class@XU_Nil@std@@U12@U12@U12@U12@U12@U12@@std@@@2@XU_Nil@2@U42@U42@U42@U42@U42@U42@@std@@QAE@$$QAU?$_Callable_obj@V<lambda_9eb754bdeb4f4749f734e866e5cd8484>@@$0A@@1@ABV?$allocator@V?$_Func_impl@U?$_Callable_obj@V<lambda_9eb754bdeb4f4749f734e866e5cd8484>@@$0A@@std@@V?$allocator@V?$_Func_class@XU_Nil@std@@U12@U12@U12@U12@U12@U12@@std@@@2@XU_Nil@2@U42@U42@U42@U42@U42@U42@@std@@@1@@Z
_TEXT	SEGMENT
_this$ = -16						; size = 4
__$EHRec$ = -12						; size = 12
__Val$ = 8						; size = 4
__Ax$ = 12						; size = 4
??$?0U?$_Callable_obj@V<lambda_9eb754bdeb4f4749f734e866e5cd8484>@@$0A@@std@@@?$_Func_impl@U?$_Callable_obj@V<lambda_9eb754bdeb4f4749f734e866e5cd8484>@@$0A@@std@@V?$allocator@V?$_Func_class@XU_Nil@std@@U12@U12@U12@U12@U12@U12@@std@@@2@XU_Nil@2@U42@U42@U42@U42@U42@U42@@std@@QAE@$$QAU?$_Callable_obj@V<lambda_9eb754bdeb4f4749f734e866e5cd8484>@@$0A@@1@ABV?$allocator@V?$_Func_impl@U?$_Callable_obj@V<lambda_9eb754bdeb4f4749f734e866e5cd8484>@@$0A@@std@@V?$allocator@V?$_Func_class@XU_Nil@std@@U12@U12@U12@U12@U12@U12@@std@@@2@XU_Nil@2@U42@U42@U42@U42@U42@U42@@std@@@1@@Z PROC ; std::_Func_impl<std::_Callable_obj<<lambda_9eb754bdeb4f4749f734e866e5cd8484>,0>,std::allocator<std::_Func_class<void,std::_Nil,std::_Nil,std::_Nil,std::_Nil,std::_Nil,std::_Nil,std::_Nil> >,void,std::_Nil,std::_Nil,std::_Nil,std::_Nil,std::_Nil,std::_Nil,std::_Nil>::_Func_impl<std::_Callable_obj<<lambda_9eb754bdeb4f4749f734e866e5cd8484>,0>,std::allocator<std::_Func_class<void,std::_Nil,std::_Nil,std::_Nil,std::_Nil,std::_Nil,std::_Nil,std::_Nil> >,void,std::_Nil,std::_Nil,std::_Nil,std::_Nil,std::_Nil,std::_Nil,std::_Nil><std::_Callable_obj<<lambda_9eb754bdeb4f4749f734e866e5cd8484>,0> >, COMDAT
; _this$ = ecx

; 239  : _VARIADIC_EXPAND_0X(_CLASS_FUNC_IMPL, , , , )

	push	ebp
	mov	ebp, esp
	push	-1
	push	__ehhandler$??$?0U?$_Callable_obj@V<lambda_9eb754bdeb4f4749f734e866e5cd8484>@@$0A@@std@@@?$_Func_impl@U?$_Callable_obj@V<lambda_9eb754bdeb4f4749f734e866e5cd8484>@@$0A@@std@@V?$allocator@V?$_Func_class@XU_Nil@std@@U12@U12@U12@U12@U12@U12@@std@@@2@XU_Nil@2@U42@U42@U42@U42@U42@U42@@std@@QAE@$$QAU?$_Callable_obj@V<lambda_9eb754bdeb4f4749f734e866e5cd8484>@@$0A@@1@ABV?$allocator@V?$_Func_impl@U?$_Callable_obj@V<lambda_9eb754bdeb4f4749f734e866e5cd8484>@@$0A@@std@@V?$allocator@V?$_Func_class@XU_Nil@std@@U12@U12@U12@U12@U12@U12@@std@@@2@XU_Nil@2@U42@U42@U42@U42@U42@U42@@std@@@1@@Z
	mov	eax, DWORD PTR fs:0
	push	eax
	push	ecx
	mov	DWORD PTR [ebp-16], -858993460		; ccccccccH
	mov	eax, DWORD PTR ___security_cookie
	xor	eax, ebp
	push	eax
	lea	eax, DWORD PTR __$EHRec$[ebp]
	mov	DWORD PTR fs:0, eax
	mov	DWORD PTR _this$[ebp], ecx
	mov	ecx, DWORD PTR _this$[ebp]
	call	??0?$_Func_base@XU_Nil@std@@U12@U12@U12@U12@U12@U12@@std@@QAE@XZ
	mov	DWORD PTR __$EHRec$[ebp+8], 0
	mov	eax, DWORD PTR _this$[ebp]
	mov	DWORD PTR [eax], OFFSET ??_7?$_Func_impl@U?$_Callable_obj@V<lambda_9eb754bdeb4f4749f734e866e5cd8484>@@$0A@@std@@V?$allocator@V?$_Func_class@XU_Nil@std@@U12@U12@U12@U12@U12@U12@@std@@@2@XU_Nil@2@U42@U42@U42@U42@U42@U42@@std@@6B@
	mov	ecx, DWORD PTR __Val$[ebp]
	push	ecx
	call	??$forward@U?$_Callable_obj@V<lambda_9eb754bdeb4f4749f734e866e5cd8484>@@$0A@@std@@@std@@YA$$QAU?$_Callable_obj@V<lambda_9eb754bdeb4f4749f734e866e5cd8484>@@$0A@@0@AAU10@@Z ; std::forward<std::_Callable_obj<<lambda_9eb754bdeb4f4749f734e866e5cd8484>,0> >
	add	esp, 4
	push	eax
	mov	ecx, DWORD PTR _this$[ebp]
	add	ecx, 4
	call	??0?$_Callable_obj@V<lambda_9eb754bdeb4f4749f734e866e5cd8484>@@$0A@@std@@QAE@$$QAU01@@Z ; std::_Callable_obj<<lambda_9eb754bdeb4f4749f734e866e5cd8484>,0>::_Callable_obj<<lambda_9eb754bdeb4f4749f734e866e5cd8484>,0>
	mov	edx, DWORD PTR __Ax$[ebp]
	push	edx
	mov	ecx, DWORD PTR _this$[ebp]
	add	ecx, 8
	call	??0?$allocator@V?$_Func_impl@U?$_Callable_obj@V<lambda_9eb754bdeb4f4749f734e866e5cd8484>@@$0A@@std@@V?$allocator@V?$_Func_class@XU_Nil@std@@U12@U12@U12@U12@U12@U12@@std@@@2@XU_Nil@2@U42@U42@U42@U42@U42@U42@@std@@@std@@QAE@ABV01@@Z ; std::allocator<std::_Func_impl<std::_Callable_obj<<lambda_9eb754bdeb4f4749f734e866e5cd8484>,0>,std::allocator<std::_Func_class<void,std::_Nil,std::_Nil,std::_Nil,std::_Nil,std::_Nil,std::_Nil,std::_Nil> >,void,std::_Nil,std::_Nil,std::_Nil,std::_Nil,std::_Nil,std::_Nil,std::_Nil> >::allocator<std::_Func_impl<std::_Callable_obj<<lambda_9eb754bdeb4f4749f734e866e5cd8484>,0>,std::allocator<std::_Func_class<void,std::_Nil,std::_Nil,std::_Nil,std::_Nil,std::_Nil,std::_Nil,std::_Nil> >,void,std::_Nil,std::_Nil,std::_Nil,std::_Nil,std::_Nil,std::_Nil,std::_Nil> >
	mov	DWORD PTR __$EHRec$[ebp+8], -1
	mov	eax, DWORD PTR _this$[ebp]
	mov	ecx, DWORD PTR __$EHRec$[ebp]
	mov	DWORD PTR fs:0, ecx
	pop	ecx
	add	esp, 16					; 00000010H
	cmp	ebp, esp
	call	__RTC_CheckEsp
	mov	esp, ebp
	pop	ebp
	ret	8
_TEXT	ENDS
;	COMDAT text$x
text$x	SEGMENT
__unwindfunclet$??$?0U?$_Callable_obj@V<lambda_9eb754bdeb4f4749f734e866e5cd8484>@@$0A@@std@@@?$_Func_impl@U?$_Callable_obj@V<lambda_9eb754bdeb4f4749f734e866e5cd8484>@@$0A@@std@@V?$allocator@V?$_Func_class@XU_Nil@std@@U12@U12@U12@U12@U12@U12@@std@@@2@XU_Nil@2@U42@U42@U42@U42@U42@U42@@std@@QAE@$$QAU?$_Callable_obj@V<lambda_9eb754bdeb4f4749f734e866e5cd8484>@@$0A@@1@ABV?$allocator@V?$_Func_impl@U?$_Callable_obj@V<lambda_9eb754bdeb4f4749f734e866e5cd8484>@@$0A@@std@@V?$allocator@V?$_Func_class@XU_Nil@std@@U12@U12@U12@U12@U12@U12@@std@@@2@XU_Nil@2@U42@U42@U42@U42@U42@U42@@std@@@1@@Z$0:
	mov	ecx, DWORD PTR _this$[ebp]
	jmp	??1?$_Func_base@XU_Nil@std@@U12@U12@U12@U12@U12@U12@@std@@UAE@XZ ; std::_Func_base<void,std::_Nil,std::_Nil,std::_Nil,std::_Nil,std::_Nil,std::_Nil,std::_Nil>::~_Func_base<void,std::_Nil,std::_Nil,std::_Nil,std::_Nil,std::_Nil,std::_Nil,std::_Nil>
__ehhandler$??$?0U?$_Callable_obj@V<lambda_9eb754bdeb4f4749f734e866e5cd8484>@@$0A@@std@@@?$_Func_impl@U?$_Callable_obj@V<lambda_9eb754bdeb4f4749f734e866e5cd8484>@@$0A@@std@@V?$allocator@V?$_Func_class@XU_Nil@std@@U12@U12@U12@U12@U12@U12@@std@@@2@XU_Nil@2@U42@U42@U42@U42@U42@U42@@std@@QAE@$$QAU?$_Callable_obj@V<lambda_9eb754bdeb4f4749f734e866e5cd8484>@@$0A@@1@ABV?$allocator@V?$_Func_impl@U?$_Callable_obj@V<lambda_9eb754bdeb4f4749f734e866e5cd8484>@@$0A@@std@@V?$allocator@V?$_Func_class@XU_Nil@std@@U12@U12@U12@U12@U12@U12@@std@@@2@XU_Nil@2@U42@U42@U42@U42@U42@U42@@std@@@1@@Z:
	mov	edx, DWORD PTR [esp+8]
	lea	eax, DWORD PTR [edx+12]
	mov	ecx, DWORD PTR [edx-8]
	xor	ecx, eax
	call	@__security_check_cookie@4
	mov	eax, OFFSET __ehfuncinfo$??$?0U?$_Callable_obj@V<lambda_9eb754bdeb4f4749f734e866e5cd8484>@@$0A@@std@@@?$_Func_impl@U?$_Callable_obj@V<lambda_9eb754bdeb4f4749f734e866e5cd8484>@@$0A@@std@@V?$allocator@V?$_Func_class@XU_Nil@std@@U12@U12@U12@U12@U12@U12@@std@@@2@XU_Nil@2@U42@U42@U42@U42@U42@U42@@std@@QAE@$$QAU?$_Callable_obj@V<lambda_9eb754bdeb4f4749f734e866e5cd8484>@@$0A@@1@ABV?$allocator@V?$_Func_impl@U?$_Callable_obj@V<lambda_9eb754bdeb4f4749f734e866e5cd8484>@@$0A@@std@@V?$allocator@V?$_Func_class@XU_Nil@std@@U12@U12@U12@U12@U12@U12@@std@@@2@XU_Nil@2@U42@U42@U42@U42@U42@U42@@std@@@1@@Z
	jmp	___CxxFrameHandler3
text$x	ENDS
??$?0U?$_Callable_obj@V<lambda_9eb754bdeb4f4749f734e866e5cd8484>@@$0A@@std@@@?$_Func_impl@U?$_Callable_obj@V<lambda_9eb754bdeb4f4749f734e866e5cd8484>@@$0A@@std@@V?$allocator@V?$_Func_class@XU_Nil@std@@U12@U12@U12@U12@U12@U12@@std@@@2@XU_Nil@2@U42@U42@U42@U42@U42@U42@@std@@QAE@$$QAU?$_Callable_obj@V<lambda_9eb754bdeb4f4749f734e866e5cd8484>@@$0A@@1@ABV?$allocator@V?$_Func_impl@U?$_Callable_obj@V<lambda_9eb754bdeb4f4749f734e866e5cd8484>@@$0A@@std@@V?$allocator@V?$_Func_class@XU_Nil@std@@U12@U12@U12@U12@U12@U12@@std@@@2@XU_Nil@2@U42@U42@U42@U42@U42@U42@@std@@@1@@Z ENDP ; std::_Func_impl<std::_Callable_obj<<lambda_9eb754bdeb4f4749f734e866e5cd8484>,0>,std::allocator<std::_Func_class<void,std::_Nil,std::_Nil,std::_Nil,std::_Nil,std::_Nil,std::_Nil,std::_Nil> >,void,std::_Nil,std::_Nil,std::_Nil,std::_Nil,std::_Nil,std::_Nil,std::_Nil>::_Func_impl<std::_Callable_obj<<lambda_9eb754bdeb4f4749f734e866e5cd8484>,0>,std::allocator<std::_Func_class<void,std::_Nil,std::_Nil,std::_Nil,std::_Nil,std::_Nil,std::_Nil,std::_Nil> >,void,std::_Nil,std::_Nil,std::_Nil,std::_Nil,std::_Nil,std::_Nil,std::_Nil><std::_Callable_obj<<lambda_9eb754bdeb4f4749f734e866e5cd8484>,0> >
; Function compile flags: /Odtp /RTCsu
; File c:\program files (x86)\microsoft visual studio 11.0\vc\include\type_traits
;	COMDAT ??$move@AAU?$_Callable_obj@V<lambda_9eb754bdeb4f4749f734e866e5cd8484>@@$0A@@std@@@std@@YA$$QAU?$_Callable_obj@V<lambda_9eb754bdeb4f4749f734e866e5cd8484>@@$0A@@0@AAU10@@Z
_TEXT	SEGMENT
__Arg$ = 8						; size = 4
??$move@AAU?$_Callable_obj@V<lambda_9eb754bdeb4f4749f734e866e5cd8484>@@$0A@@std@@@std@@YA$$QAU?$_Callable_obj@V<lambda_9eb754bdeb4f4749f734e866e5cd8484>@@$0A@@0@AAU10@@Z PROC ; std::move<std::_Callable_obj<<lambda_9eb754bdeb4f4749f734e866e5cd8484>,0> &>, COMDAT

; 1790 : 	{	// forward _Arg as movable

	push	ebp
	mov	ebp, esp

; 1791 : 	return ((typename remove_reference<_Ty>::type&&)_Arg);

	mov	eax, DWORD PTR __Arg$[ebp]

; 1792 : 	}

	pop	ebp
	ret	0
??$move@AAU?$_Callable_obj@V<lambda_9eb754bdeb4f4749f734e866e5cd8484>@@$0A@@std@@@std@@YA$$QAU?$_Callable_obj@V<lambda_9eb754bdeb4f4749f734e866e5cd8484>@@$0A@@0@AAU10@@Z ENDP ; std::move<std::_Callable_obj<<lambda_9eb754bdeb4f4749f734e866e5cd8484>,0> &>
_TEXT	ENDS
; Function compile flags: /Odtp /RTCsu
; File c:\program files (x86)\microsoft visual studio 11.0\vc\include\functional
;	COMDAT ??$?0AAU?$_Callable_obj@V<lambda_9eb754bdeb4f4749f734e866e5cd8484>@@$0A@@std@@@?$_Func_impl@U?$_Callable_obj@V<lambda_9eb754bdeb4f4749f734e866e5cd8484>@@$0A@@std@@V?$allocator@V?$_Func_class@XU_Nil@std@@U12@U12@U12@U12@U12@U12@@std@@@2@XU_Nil@2@U42@U42@U42@U42@U42@U42@@std@@QAE@AAU?$_Callable_obj@V<lambda_9eb754bdeb4f4749f734e866e5cd8484>@@$0A@@1@ABV?$allocator@V?$_Func_impl@U?$_Callable_obj@V<lambda_9eb754bdeb4f4749f734e866e5cd8484>@@$0A@@std@@V?$allocator@V?$_Func_class@XU_Nil@std@@U12@U12@U12@U12@U12@U12@@std@@@2@XU_Nil@2@U42@U42@U42@U42@U42@U42@@std@@@1@@Z
_TEXT	SEGMENT
_this$ = -16						; size = 4
__$EHRec$ = -12						; size = 12
__Val$ = 8						; size = 4
__Ax$ = 12						; size = 4
??$?0AAU?$_Callable_obj@V<lambda_9eb754bdeb4f4749f734e866e5cd8484>@@$0A@@std@@@?$_Func_impl@U?$_Callable_obj@V<lambda_9eb754bdeb4f4749f734e866e5cd8484>@@$0A@@std@@V?$allocator@V?$_Func_class@XU_Nil@std@@U12@U12@U12@U12@U12@U12@@std@@@2@XU_Nil@2@U42@U42@U42@U42@U42@U42@@std@@QAE@AAU?$_Callable_obj@V<lambda_9eb754bdeb4f4749f734e866e5cd8484>@@$0A@@1@ABV?$allocator@V?$_Func_impl@U?$_Callable_obj@V<lambda_9eb754bdeb4f4749f734e866e5cd8484>@@$0A@@std@@V?$allocator@V?$_Func_class@XU_Nil@std@@U12@U12@U12@U12@U12@U12@@std@@@2@XU_Nil@2@U42@U42@U42@U42@U42@U42@@std@@@1@@Z PROC ; std::_Func_impl<std::_Callable_obj<<lambda_9eb754bdeb4f4749f734e866e5cd8484>,0>,std::allocator<std::_Func_class<void,std::_Nil,std::_Nil,std::_Nil,std::_Nil,std::_Nil,std::_Nil,std::_Nil> >,void,std::_Nil,std::_Nil,std::_Nil,std::_Nil,std::_Nil,std::_Nil,std::_Nil>::_Func_impl<std::_Callable_obj<<lambda_9eb754bdeb4f4749f734e866e5cd8484>,0>,std::allocator<std::_Func_class<void,std::_Nil,std::_Nil,std::_Nil,std::_Nil,std::_Nil,std::_Nil,std::_Nil> >,void,std::_Nil,std::_Nil,std::_Nil,std::_Nil,std::_Nil,std::_Nil,std::_Nil><std::_Callable_obj<<lambda_9eb754bdeb4f4749f734e866e5cd8484>,0> &>, COMDAT
; _this$ = ecx

; 239  : _VARIADIC_EXPAND_0X(_CLASS_FUNC_IMPL, , , , )

	push	ebp
	mov	ebp, esp
	push	-1
	push	__ehhandler$??$?0AAU?$_Callable_obj@V<lambda_9eb754bdeb4f4749f734e866e5cd8484>@@$0A@@std@@@?$_Func_impl@U?$_Callable_obj@V<lambda_9eb754bdeb4f4749f734e866e5cd8484>@@$0A@@std@@V?$allocator@V?$_Func_class@XU_Nil@std@@U12@U12@U12@U12@U12@U12@@std@@@2@XU_Nil@2@U42@U42@U42@U42@U42@U42@@std@@QAE@AAU?$_Callable_obj@V<lambda_9eb754bdeb4f4749f734e866e5cd8484>@@$0A@@1@ABV?$allocator@V?$_Func_impl@U?$_Callable_obj@V<lambda_9eb754bdeb4f4749f734e866e5cd8484>@@$0A@@std@@V?$allocator@V?$_Func_class@XU_Nil@std@@U12@U12@U12@U12@U12@U12@@std@@@2@XU_Nil@2@U42@U42@U42@U42@U42@U42@@std@@@1@@Z
	mov	eax, DWORD PTR fs:0
	push	eax
	push	ecx
	mov	DWORD PTR [ebp-16], -858993460		; ccccccccH
	mov	eax, DWORD PTR ___security_cookie
	xor	eax, ebp
	push	eax
	lea	eax, DWORD PTR __$EHRec$[ebp]
	mov	DWORD PTR fs:0, eax
	mov	DWORD PTR _this$[ebp], ecx
	mov	ecx, DWORD PTR _this$[ebp]
	call	??0?$_Func_base@XU_Nil@std@@U12@U12@U12@U12@U12@U12@@std@@QAE@XZ
	mov	DWORD PTR __$EHRec$[ebp+8], 0
	mov	eax, DWORD PTR _this$[ebp]
	mov	DWORD PTR [eax], OFFSET ??_7?$_Func_impl@U?$_Callable_obj@V<lambda_9eb754bdeb4f4749f734e866e5cd8484>@@$0A@@std@@V?$allocator@V?$_Func_class@XU_Nil@std@@U12@U12@U12@U12@U12@U12@@std@@@2@XU_Nil@2@U42@U42@U42@U42@U42@U42@@std@@6B@
	mov	ecx, DWORD PTR __Val$[ebp]
	push	ecx
	call	??$forward@AAU?$_Callable_obj@V<lambda_9eb754bdeb4f4749f734e866e5cd8484>@@$0A@@std@@@std@@YAAAU?$_Callable_obj@V<lambda_9eb754bdeb4f4749f734e866e5cd8484>@@$0A@@0@AAU10@@Z ; std::forward<std::_Callable_obj<<lambda_9eb754bdeb4f4749f734e866e5cd8484>,0> &>
	add	esp, 4
	push	eax
	mov	ecx, DWORD PTR _this$[ebp]
	add	ecx, 4
	call	??0?$_Callable_obj@V<lambda_9eb754bdeb4f4749f734e866e5cd8484>@@$0A@@std@@QAE@AAU01@@Z ; std::_Callable_obj<<lambda_9eb754bdeb4f4749f734e866e5cd8484>,0>::_Callable_obj<<lambda_9eb754bdeb4f4749f734e866e5cd8484>,0>
	mov	edx, DWORD PTR __Ax$[ebp]
	push	edx
	mov	ecx, DWORD PTR _this$[ebp]
	add	ecx, 8
	call	??0?$allocator@V?$_Func_impl@U?$_Callable_obj@V<lambda_9eb754bdeb4f4749f734e866e5cd8484>@@$0A@@std@@V?$allocator@V?$_Func_class@XU_Nil@std@@U12@U12@U12@U12@U12@U12@@std@@@2@XU_Nil@2@U42@U42@U42@U42@U42@U42@@std@@@std@@QAE@ABV01@@Z ; std::allocator<std::_Func_impl<std::_Callable_obj<<lambda_9eb754bdeb4f4749f734e866e5cd8484>,0>,std::allocator<std::_Func_class<void,std::_Nil,std::_Nil,std::_Nil,std::_Nil,std::_Nil,std::_Nil,std::_Nil> >,void,std::_Nil,std::_Nil,std::_Nil,std::_Nil,std::_Nil,std::_Nil,std::_Nil> >::allocator<std::_Func_impl<std::_Callable_obj<<lambda_9eb754bdeb4f4749f734e866e5cd8484>,0>,std::allocator<std::_Func_class<void,std::_Nil,std::_Nil,std::_Nil,std::_Nil,std::_Nil,std::_Nil,std::_Nil> >,void,std::_Nil,std::_Nil,std::_Nil,std::_Nil,std::_Nil,std::_Nil,std::_Nil> >
	mov	DWORD PTR __$EHRec$[ebp+8], -1
	mov	eax, DWORD PTR _this$[ebp]
	mov	ecx, DWORD PTR __$EHRec$[ebp]
	mov	DWORD PTR fs:0, ecx
	pop	ecx
	add	esp, 16					; 00000010H
	cmp	ebp, esp
	call	__RTC_CheckEsp
	mov	esp, ebp
	pop	ebp
	ret	8
_TEXT	ENDS
;	COMDAT text$x
text$x	SEGMENT
__unwindfunclet$??$?0AAU?$_Callable_obj@V<lambda_9eb754bdeb4f4749f734e866e5cd8484>@@$0A@@std@@@?$_Func_impl@U?$_Callable_obj@V<lambda_9eb754bdeb4f4749f734e866e5cd8484>@@$0A@@std@@V?$allocator@V?$_Func_class@XU_Nil@std@@U12@U12@U12@U12@U12@U12@@std@@@2@XU_Nil@2@U42@U42@U42@U42@U42@U42@@std@@QAE@AAU?$_Callable_obj@V<lambda_9eb754bdeb4f4749f734e866e5cd8484>@@$0A@@1@ABV?$allocator@V?$_Func_impl@U?$_Callable_obj@V<lambda_9eb754bdeb4f4749f734e866e5cd8484>@@$0A@@std@@V?$allocator@V?$_Func_class@XU_Nil@std@@U12@U12@U12@U12@U12@U12@@std@@@2@XU_Nil@2@U42@U42@U42@U42@U42@U42@@std@@@1@@Z$0:
	mov	ecx, DWORD PTR _this$[ebp]
	jmp	??1?$_Func_base@XU_Nil@std@@U12@U12@U12@U12@U12@U12@@std@@UAE@XZ ; std::_Func_base<void,std::_Nil,std::_Nil,std::_Nil,std::_Nil,std::_Nil,std::_Nil,std::_Nil>::~_Func_base<void,std::_Nil,std::_Nil,std::_Nil,std::_Nil,std::_Nil,std::_Nil,std::_Nil>
__ehhandler$??$?0AAU?$_Callable_obj@V<lambda_9eb754bdeb4f4749f734e866e5cd8484>@@$0A@@std@@@?$_Func_impl@U?$_Callable_obj@V<lambda_9eb754bdeb4f4749f734e866e5cd8484>@@$0A@@std@@V?$allocator@V?$_Func_class@XU_Nil@std@@U12@U12@U12@U12@U12@U12@@std@@@2@XU_Nil@2@U42@U42@U42@U42@U42@U42@@std@@QAE@AAU?$_Callable_obj@V<lambda_9eb754bdeb4f4749f734e866e5cd8484>@@$0A@@1@ABV?$allocator@V?$_Func_impl@U?$_Callable_obj@V<lambda_9eb754bdeb4f4749f734e866e5cd8484>@@$0A@@std@@V?$allocator@V?$_Func_class@XU_Nil@std@@U12@U12@U12@U12@U12@U12@@std@@@2@XU_Nil@2@U42@U42@U42@U42@U42@U42@@std@@@1@@Z:
	mov	edx, DWORD PTR [esp+8]
	lea	eax, DWORD PTR [edx+12]
	mov	ecx, DWORD PTR [edx-8]
	xor	ecx, eax
	call	@__security_check_cookie@4
	mov	eax, OFFSET __ehfuncinfo$??$?0AAU?$_Callable_obj@V<lambda_9eb754bdeb4f4749f734e866e5cd8484>@@$0A@@std@@@?$_Func_impl@U?$_Callable_obj@V<lambda_9eb754bdeb4f4749f734e866e5cd8484>@@$0A@@std@@V?$allocator@V?$_Func_class@XU_Nil@std@@U12@U12@U12@U12@U12@U12@@std@@@2@XU_Nil@2@U42@U42@U42@U42@U42@U42@@std@@QAE@AAU?$_Callable_obj@V<lambda_9eb754bdeb4f4749f734e866e5cd8484>@@$0A@@1@ABV?$allocator@V?$_Func_impl@U?$_Callable_obj@V<lambda_9eb754bdeb4f4749f734e866e5cd8484>@@$0A@@std@@V?$allocator@V?$_Func_class@XU_Nil@std@@U12@U12@U12@U12@U12@U12@@std@@@2@XU_Nil@2@U42@U42@U42@U42@U42@U42@@std@@@1@@Z
	jmp	___CxxFrameHandler3
text$x	ENDS
??$?0AAU?$_Callable_obj@V<lambda_9eb754bdeb4f4749f734e866e5cd8484>@@$0A@@std@@@?$_Func_impl@U?$_Callable_obj@V<lambda_9eb754bdeb4f4749f734e866e5cd8484>@@$0A@@std@@V?$allocator@V?$_Func_class@XU_Nil@std@@U12@U12@U12@U12@U12@U12@@std@@@2@XU_Nil@2@U42@U42@U42@U42@U42@U42@@std@@QAE@AAU?$_Callable_obj@V<lambda_9eb754bdeb4f4749f734e866e5cd8484>@@$0A@@1@ABV?$allocator@V?$_Func_impl@U?$_Callable_obj@V<lambda_9eb754bdeb4f4749f734e866e5cd8484>@@$0A@@std@@V?$allocator@V?$_Func_class@XU_Nil@std@@U12@U12@U12@U12@U12@U12@@std@@@2@XU_Nil@2@U42@U42@U42@U42@U42@U42@@std@@@1@@Z ENDP ; std::_Func_impl<std::_Callable_obj<<lambda_9eb754bdeb4f4749f734e866e5cd8484>,0>,std::allocator<std::_Func_class<void,std::_Nil,std::_Nil,std::_Nil,std::_Nil,std::_Nil,std::_Nil,std::_Nil> >,void,std::_Nil,std::_Nil,std::_Nil,std::_Nil,std::_Nil,std::_Nil,std::_Nil>::_Func_impl<std::_Callable_obj<<lambda_9eb754bdeb4f4749f734e866e5cd8484>,0>,std::allocator<std::_Func_class<void,std::_Nil,std::_Nil,std::_Nil,std::_Nil,std::_Nil,std::_Nil,std::_Nil> >,void,std::_Nil,std::_Nil,std::_Nil,std::_Nil,std::_Nil,std::_Nil,std::_Nil><std::_Callable_obj<<lambda_9eb754bdeb4f4749f734e866e5cd8484>,0> &>
; Function compile flags: /Odtp /RTCsu
; File c:\program files (x86)\microsoft visual studio 11.0\vc\include\xrefwrap
;	COMDAT ??$?0V<lambda_9eb754bdeb4f4749f734e866e5cd8484>@@@?$_Callable_obj@V<lambda_9eb754bdeb4f4749f734e866e5cd8484>@@$0A@@std@@QAE@$$QAV<lambda_9eb754bdeb4f4749f734e866e5cd8484>@@@Z
_TEXT	SEGMENT
_this$ = -4						; size = 4
__Val$ = 8						; size = 4
??$?0V<lambda_9eb754bdeb4f4749f734e866e5cd8484>@@@?$_Callable_obj@V<lambda_9eb754bdeb4f4749f734e866e5cd8484>@@$0A@@std@@QAE@$$QAV<lambda_9eb754bdeb4f4749f734e866e5cd8484>@@@Z PROC ; std::_Callable_obj<<lambda_9eb754bdeb4f4749f734e866e5cd8484>,0>::_Callable_obj<<lambda_9eb754bdeb4f4749f734e866e5cd8484>,0><<lambda_9eb754bdeb4f4749f734e866e5cd8484> >, COMDAT
; _this$ = ecx

; 415  : 		{	// construct

	push	ebp
	mov	ebp, esp
	push	ecx
	mov	DWORD PTR [ebp-4], -858993460		; ccccccccH
	mov	DWORD PTR _this$[ebp], ecx
	mov	eax, DWORD PTR __Val$[ebp]
	push	eax
	call	??$forward@V<lambda_9eb754bdeb4f4749f734e866e5cd8484>@@@std@@YA$$QAV<lambda_9eb754bdeb4f4749f734e866e5cd8484>@@AAV1@@Z ; std::forward<<lambda_9eb754bdeb4f4749f734e866e5cd8484> >
	add	esp, 4
	push	eax
	mov	ecx, DWORD PTR _this$[ebp]
	call	??$?0V<lambda_9eb754bdeb4f4749f734e866e5cd8484>@@@?$_Callable_base@V<lambda_9eb754bdeb4f4749f734e866e5cd8484>@@$0A@@std@@QAE@$$QAV<lambda_9eb754bdeb4f4749f734e866e5cd8484>@@@Z ; std::_Callable_base<<lambda_9eb754bdeb4f4749f734e866e5cd8484>,0>::_Callable_base<<lambda_9eb754bdeb4f4749f734e866e5cd8484>,0><<lambda_9eb754bdeb4f4749f734e866e5cd8484> >

; 416  : 		}

	mov	eax, DWORD PTR _this$[ebp]
	add	esp, 4
	cmp	ebp, esp
	call	__RTC_CheckEsp
	mov	esp, ebp
	pop	ebp
	ret	4
??$?0V<lambda_9eb754bdeb4f4749f734e866e5cd8484>@@@?$_Callable_obj@V<lambda_9eb754bdeb4f4749f734e866e5cd8484>@@$0A@@std@@QAE@$$QAV<lambda_9eb754bdeb4f4749f734e866e5cd8484>@@@Z ENDP ; std::_Callable_obj<<lambda_9eb754bdeb4f4749f734e866e5cd8484>,0>::_Callable_obj<<lambda_9eb754bdeb4f4749f734e866e5cd8484>,0><<lambda_9eb754bdeb4f4749f734e866e5cd8484> >
_TEXT	ENDS
; Function compile flags: /Odtp /RTCsu
; File c:\program files (x86)\microsoft visual studio 11.0\vc\include\xmemory0
;	COMDAT ??$?0V?$_Func_class@XU_Nil@std@@U12@U12@U12@U12@U12@U12@@std@@@?$allocator@V?$_Func_impl@U?$_Callable_obj@V<lambda_5d8c5ab464462ebb691e185ac4dda097>@@$0A@@std@@V?$allocator@V?$_Func_class@XU_Nil@std@@U12@U12@U12@U12@U12@U12@@std@@@2@XU_Nil@2@U42@U42@U42@U42@U42@U42@@std@@@std@@QAE@ABV?$allocator@V?$_Func_class@XU_Nil@std@@U12@U12@U12@U12@U12@U12@@std@@@1@@Z
_TEXT	SEGMENT
_this$ = -4						; size = 4
___formal$ = 8						; size = 4
