; Listing generated by Microsoft (R) Optimizing Compiler Version 17.00.60610.1 

	TITLE	D:\Personal\Projects\GBEmu\Solution\Code\emulation\gb\memory.cpp
	.686P
	.XMM
	include listing.inc
	.model	flat

INCLUDELIB MSVCRTD
INCLUDELIB OLDNAMES

PUBLIC	?is_signed@?$numeric_limits@_W@std@@2_NB	; std::numeric_limits<wchar_t>::is_signed
PUBLIC	?digits@?$numeric_limits@_W@std@@2HB		; std::numeric_limits<wchar_t>::digits
PUBLIC	?digits10@?$numeric_limits@_W@std@@2HB		; std::numeric_limits<wchar_t>::digits10
PUBLIC	?is_modulo@?$numeric_limits@_N@std@@2_NB	; std::numeric_limits<bool>::is_modulo
PUBLIC	?is_signed@?$numeric_limits@_N@std@@2_NB	; std::numeric_limits<bool>::is_signed
PUBLIC	?digits@?$numeric_limits@_N@std@@2HB		; std::numeric_limits<bool>::digits
PUBLIC	?digits10@?$numeric_limits@_N@std@@2HB		; std::numeric_limits<bool>::digits10
PUBLIC	?is_signed@?$numeric_limits@C@std@@2_NB		; std::numeric_limits<signed char>::is_signed
PUBLIC	?digits@?$numeric_limits@C@std@@2HB		; std::numeric_limits<signed char>::digits
PUBLIC	?digits10@?$numeric_limits@C@std@@2HB		; std::numeric_limits<signed char>::digits10
PUBLIC	?is_signed@?$numeric_limits@E@std@@2_NB		; std::numeric_limits<unsigned char>::is_signed
PUBLIC	?digits@?$numeric_limits@E@std@@2HB		; std::numeric_limits<unsigned char>::digits
PUBLIC	?digits10@?$numeric_limits@E@std@@2HB		; std::numeric_limits<unsigned char>::digits10
PUBLIC	?value@?$integral_constant@I$0A@@std@@2IB	; std::integral_constant<unsigned int,0>::value
PUBLIC	?value@?$_Abs@$0GE@@std@@2_JB			; std::_Abs<100>::value
PUBLIC	?value@?$_Abs@$0DLJKMKAA@@std@@2_JB		; std::_Abs<1000000000>::value
PUBLIC	?is_signed@?$numeric_limits@F@std@@2_NB		; std::numeric_limits<short>::is_signed
PUBLIC	?digits@?$numeric_limits@F@std@@2HB		; std::numeric_limits<short>::digits
PUBLIC	?value@?$integral_constant@_N$0A@@std@@2_NB	; std::integral_constant<bool,0>::value
PUBLIC	?digits10@?$numeric_limits@F@std@@2HB		; std::numeric_limits<short>::digits10
PUBLIC	?value@?$_GcdX@$0GE@$0A@@std@@2_JB		; std::_GcdX<100,0>::value
PUBLIC	?value@?$integral_constant@_N$00@std@@2_NB	; std::integral_constant<bool,1>::value
PUBLIC	?value@?$_GcdX@$0DLJKMKAA@$0GE@@std@@2_JB	; std::_GcdX<1000000000,100>::value
PUBLIC	?_STATE_CLEAR@_CancellationTokenRegistration@details@Concurrency@@0JB ; Concurrency::details::_CancellationTokenRegistration::_STATE_CLEAR
PUBLIC	?_STATE_DEFER_DELETE@_CancellationTokenRegistration@details@Concurrency@@0JB ; Concurrency::details::_CancellationTokenRegistration::_STATE_DEFER_DELETE
PUBLIC	?value@?$_GcdX@$0GE@$0DLJKMKAA@@std@@2_JB	; std::_GcdX<100,1000000000>::value
PUBLIC	?_STATE_SYNCHRONIZE@_CancellationTokenRegistration@details@Concurrency@@0JB ; Concurrency::details::_CancellationTokenRegistration::_STATE_SYNCHRONIZE
PUBLIC	?_STATE_CALLED@_CancellationTokenRegistration@details@Concurrency@@0JB ; Concurrency::details::_CancellationTokenRegistration::_STATE_CALLED
PUBLIC	?value@?$_Gcd@$0GE@$0DLJKMKAA@@std@@2_JB	; std::_Gcd<100,1000000000>::value
PUBLIC	?is_signed@?$numeric_limits@G@std@@2_NB		; std::numeric_limits<unsigned short>::is_signed
PUBLIC	?digits@?$numeric_limits@G@std@@2HB		; std::numeric_limits<unsigned short>::digits
PUBLIC	?_G1@?$_Ratio_multiply2@U?$ratio@$0GE@$00@std@@U?$ratio@$00$0DLJKMKAA@@2@@std@@2_JB ; std::_Ratio_multiply2<std::ratio<100,1>,std::ratio<1,1000000000> >::_G1
PUBLIC	?digits10@?$numeric_limits@G@std@@2HB		; std::numeric_limits<unsigned short>::digits10
PUBLIC	?value@?$_Abs@$00@std@@2_JB			; std::_Abs<1>::value
PUBLIC	?value@?$_GcdX@$00$0A@@std@@2_JB		; std::_GcdX<1,0>::value
PUBLIC	?value@?$_GcdX@$00$00@std@@2_JB			; std::_GcdX<1,1>::value
PUBLIC	?is_signed@?$numeric_limits@H@std@@2_NB		; std::numeric_limits<int>::is_signed
PUBLIC	?digits@?$numeric_limits@H@std@@2HB		; std::numeric_limits<int>::digits
PUBLIC	?value@?$_Gcd@$00$00@std@@2_JB			; std::_Gcd<1,1>::value
PUBLIC	?digits10@?$numeric_limits@H@std@@2HB		; std::numeric_limits<int>::digits10
PUBLIC	?_G2@?$_Ratio_multiply2@U?$ratio@$0GE@$00@std@@U?$ratio@$00$0DLJKMKAA@@2@@std@@2_JB ; std::_Ratio_multiply2<std::ratio<100,1>,std::ratio<1,1000000000> >::_G2
PUBLIC	?is_signed@?$numeric_limits@I@std@@2_NB		; std::numeric_limits<unsigned int>::is_signed
PUBLIC	?digits@?$numeric_limits@I@std@@2HB		; std::numeric_limits<unsigned int>::digits
PUBLIC	?digits10@?$numeric_limits@I@std@@2HB		; std::numeric_limits<unsigned int>::digits10
PUBLIC	?is_monotonic@system_clock@chrono@std@@2_NB	; std::chrono::system_clock::is_monotonic
PUBLIC	?value@?$_Is_ratio@U?$ratio@$00$0JIJGIA@@std@@@chrono@std@@2_NB ; std::chrono::_Is_ratio<std::ratio<1,10000000> >::value
PUBLIC	?is_steady@system_clock@chrono@std@@2_NB	; std::chrono::system_clock::is_steady
PUBLIC	?value@?$_GcdX@$0JIJGIA@$00@std@@2_JB		; std::_GcdX<10000000,1>::value
PUBLIC	?is_signed@?$numeric_limits@J@std@@2_NB		; std::numeric_limits<long>::is_signed
PUBLIC	?digits@?$numeric_limits@J@std@@2HB		; std::numeric_limits<long>::digits
PUBLIC	?value@?$_GcdX@$00$0JIJGIA@@std@@2_JB		; std::_GcdX<1,10000000>::value
PUBLIC	?digits10@?$numeric_limits@J@std@@2HB		; std::numeric_limits<long>::digits10
PUBLIC	?value@?$_Gcd@$00$0JIJGIA@@std@@2_JB		; std::_Gcd<1,10000000>::value
PUBLIC	?num@?$ratio@$00$0JIJGIA@@std@@2_JB		; std::ratio<1,10000000>::num
PUBLIC	?den@?$ratio@$00$0JIJGIA@@std@@2_JB		; std::ratio<1,10000000>::den
PUBLIC	?is_signed@?$numeric_limits@K@std@@2_NB		; std::numeric_limits<unsigned long>::is_signed
PUBLIC	?digits@?$numeric_limits@K@std@@2HB		; std::numeric_limits<unsigned long>::digits
PUBLIC	?digits10@?$numeric_limits@K@std@@2HB		; std::numeric_limits<unsigned long>::digits10
PUBLIC	?is_signed@?$numeric_limits@_J@std@@2_NB	; std::numeric_limits<__int64>::is_signed
PUBLIC	?digits@?$numeric_limits@_J@std@@2HB		; std::numeric_limits<__int64>::digits
PUBLIC	?digits10@?$numeric_limits@_J@std@@2HB		; std::numeric_limits<__int64>::digits10
PUBLIC	?value@?$integral_constant@H$0A@@std@@2HB	; std::integral_constant<int,0>::value
PUBLIC	?is_signed@?$numeric_limits@_K@std@@2_NB	; std::numeric_limits<unsigned __int64>::is_signed
PUBLIC	?digits@?$numeric_limits@_K@std@@2HB		; std::numeric_limits<unsigned __int64>::digits
PUBLIC	?digits10@?$numeric_limits@_K@std@@2HB		; std::numeric_limits<unsigned __int64>::digits10
PUBLIC	?digits@?$numeric_limits@M@std@@2HB		; std::numeric_limits<float>::digits
PUBLIC	?digits10@?$numeric_limits@M@std@@2HB		; std::numeric_limits<float>::digits10
PUBLIC	?max_digits10@?$numeric_limits@M@std@@2HB	; std::numeric_limits<float>::max_digits10
PUBLIC	?_S_cancelBitsMask@_TaskCollectionBase@details@Concurrency@@1IB ; Concurrency::details::_TaskCollectionBase::_S_cancelBitsMask
PUBLIC	?max_exponent@?$numeric_limits@M@std@@2HB	; std::numeric_limits<float>::max_exponent
PUBLIC	?_S_cancelNone@_TaskCollectionBase@details@Concurrency@@1IB ; Concurrency::details::_TaskCollectionBase::_S_cancelNone
PUBLIC	?_S_cancelStarted@_TaskCollectionBase@details@Concurrency@@1IB ; Concurrency::details::_TaskCollectionBase::_S_cancelStarted
PUBLIC	?max_exponent10@?$numeric_limits@M@std@@2HB	; std::numeric_limits<float>::max_exponent10
PUBLIC	?_S_cancelDeferredShootdownOwner@_TaskCollectionBase@details@Concurrency@@1IB ; Concurrency::details::_TaskCollectionBase::_S_cancelDeferredShootdownOwner
PUBLIC	?_S_cancelShotdownOwner@_TaskCollectionBase@details@Concurrency@@1IB ; Concurrency::details::_TaskCollectionBase::_S_cancelShotdownOwner
PUBLIC	?min_exponent@?$numeric_limits@M@std@@2HB	; std::numeric_limits<float>::min_exponent
PUBLIC	?_S_nonNull@_TaskCollectionBase@details@Concurrency@@1IB ; Concurrency::details::_TaskCollectionBase::_S_nonNull
PUBLIC	?_S_cancelException@_TaskCollectionBase@details@Concurrency@@1IB ; Concurrency::details::_TaskCollectionBase::_S_cancelException
PUBLIC	?min_exponent10@?$numeric_limits@M@std@@2HB	; std::numeric_limits<float>::min_exponent10
PUBLIC	?_S_notInlined@_TaskCollectionBase@details@Concurrency@@1HB ; Concurrency::details::_TaskCollectionBase::_S_notInlined
PUBLIC	?_S_structured@_TaskCollectionBase@details@Concurrency@@1HB ; Concurrency::details::_TaskCollectionBase::_S_structured
PUBLIC	?_S_localCancel@_TaskCollectionBase@details@Concurrency@@1HB ; Concurrency::details::_TaskCollectionBase::_S_localCancel
PUBLIC	?_S_reserved@_TaskCollectionBase@details@Concurrency@@1HB ; Concurrency::details::_TaskCollectionBase::_S_reserved
PUBLIC	?digits@?$numeric_limits@N@std@@2HB		; std::numeric_limits<double>::digits
PUBLIC	?digits10@?$numeric_limits@N@std@@2HB		; std::numeric_limits<double>::digits10
PUBLIC	?max_digits10@?$numeric_limits@N@std@@2HB	; std::numeric_limits<double>::max_digits10
PUBLIC	?max_exponent@?$numeric_limits@N@std@@2HB	; std::numeric_limits<double>::max_exponent
PUBLIC	?max_exponent10@?$numeric_limits@N@std@@2HB	; std::numeric_limits<double>::max_exponent10
PUBLIC	?min_exponent@?$numeric_limits@N@std@@2HB	; std::numeric_limits<double>::min_exponent
PUBLIC	?min_exponent10@?$numeric_limits@N@std@@2HB	; std::numeric_limits<double>::min_exponent10
PUBLIC	?value@?$_Sizeof@HU_Nil@std@@U12@U12@U12@U12@U12@U12@@std@@2IB ; std::_Sizeof<int,std::_Nil,std::_Nil,std::_Nil,std::_Nil,std::_Nil,std::_Nil,std::_Nil>::value
PUBLIC	?digits@?$numeric_limits@O@std@@2HB		; std::numeric_limits<long double>::digits
PUBLIC	?digits10@?$numeric_limits@O@std@@2HB		; std::numeric_limits<long double>::digits10
PUBLIC	?max_digits10@?$numeric_limits@O@std@@2HB	; std::numeric_limits<long double>::max_digits10
PUBLIC	?max_exponent@?$numeric_limits@O@std@@2HB	; std::numeric_limits<long double>::max_exponent
PUBLIC	?max_exponent10@?$numeric_limits@O@std@@2HB	; std::numeric_limits<long double>::max_exponent10
PUBLIC	?min_exponent@?$numeric_limits@O@std@@2HB	; std::numeric_limits<long double>::min_exponent
PUBLIC	?min_exponent10@?$numeric_limits@O@std@@2HB	; std::numeric_limits<long double>::min_exponent10
PUBLIC	?_G1@?$_Ratio_multiply2@U?$ratio@$00$0JIJGIA@@std@@U?$ratio@$0JIJGIA@$00@2@@std@@2_JB ; std::_Ratio_multiply2<std::ratio<1,10000000>,std::ratio<10000000,1> >::_G1
PUBLIC	?value@?$_Abs@$0JIJGIA@@std@@2_JB		; std::_Abs<10000000>::value
PUBLIC	?value@?$_GcdX@$0JIJGIA@$0A@@std@@2_JB		; std::_GcdX<10000000,0>::value
PUBLIC	?value@?$_GcdX@$0JIJGIA@$0JIJGIA@@std@@2_JB	; std::_GcdX<10000000,10000000>::value
PUBLIC	?value@?$_Gcd@$0JIJGIA@$0JIJGIA@@std@@2_JB	; std::_Gcd<10000000,10000000>::value
PUBLIC	?_G2@?$_Ratio_multiply2@U?$ratio@$00$0JIJGIA@@std@@U?$ratio@$0JIJGIA@$00@2@@std@@2_JB ; std::_Ratio_multiply2<std::ratio<1,10000000>,std::ratio<10000000,1> >::_G2
PUBLIC	?value@?$_Sizeof@U_Nil@std@@U12@U12@U12@U12@U12@U12@U12@@std@@2IB ; std::_Sizeof<std::_Nil,std::_Nil,std::_Nil,std::_Nil,std::_Nil,std::_Nil,std::_Nil,std::_Nil>::value
PUBLIC	?num@?$ratio@$00$00@std@@2_JB			; std::ratio<1,1>::num
PUBLIC	?den@?$ratio@$00$00@std@@2_JB			; std::ratio<1,1>::den
PUBLIC	?has_denorm@_Num_base@std@@2W4float_denorm_style@2@B ; std::_Num_base::has_denorm
PUBLIC	?has_denorm_loss@_Num_base@std@@2_NB		; std::_Num_base::has_denorm_loss
PUBLIC	?has_infinity@_Num_base@std@@2_NB		; std::_Num_base::has_infinity
PUBLIC	?has_quiet_NaN@_Num_base@std@@2_NB		; std::_Num_base::has_quiet_NaN
PUBLIC	?is_monotonic@steady_clock@chrono@std@@2_NB	; std::chrono::steady_clock::is_monotonic
PUBLIC	?is_steady@steady_clock@chrono@std@@2_NB	; std::chrono::steady_clock::is_steady
PUBLIC	?has_signaling_NaN@_Num_base@std@@2_NB		; std::_Num_base::has_signaling_NaN
PUBLIC	?is_bounded@_Num_base@std@@2_NB			; std::_Num_base::is_bounded
PUBLIC	?is_exact@_Num_base@std@@2_NB			; std::_Num_base::is_exact
PUBLIC	?is_iec559@_Num_base@std@@2_NB			; std::_Num_base::is_iec559
PUBLIC	?is_integer@_Num_base@std@@2_NB			; std::_Num_base::is_integer
PUBLIC	?is_modulo@_Num_base@std@@2_NB			; std::_Num_base::is_modulo
PUBLIC	?is_signed@_Num_base@std@@2_NB			; std::_Num_base::is_signed
PUBLIC	?is_specialized@_Num_base@std@@2_NB		; std::_Num_base::is_specialized
PUBLIC	?tinyness_before@_Num_base@std@@2_NB		; std::_Num_base::tinyness_before
PUBLIC	?traps@_Num_base@std@@2_NB			; std::_Num_base::traps
PUBLIC	?round_style@_Num_base@std@@2W4float_round_style@2@B ; std::_Num_base::round_style
PUBLIC	?digits@_Num_base@std@@2HB			; std::_Num_base::digits
PUBLIC	?digits10@_Num_base@std@@2HB			; std::_Num_base::digits10
PUBLIC	?max_digits10@_Num_base@std@@2HB		; std::_Num_base::max_digits10
PUBLIC	?max_exponent@_Num_base@std@@2HB		; std::_Num_base::max_exponent
PUBLIC	?max_exponent10@_Num_base@std@@2HB		; std::_Num_base::max_exponent10
PUBLIC	?min_exponent@_Num_base@std@@2HB		; std::_Num_base::min_exponent
PUBLIC	?min_exponent10@_Num_base@std@@2HB		; std::_Num_base::min_exponent10
PUBLIC	_ConcRT_ProviderGuid
PUBLIC	_ConcRTEventGuid
PUBLIC	_SchedulerEventGuid
PUBLIC	?radix@_Num_base@std@@2HB			; std::_Num_base::radix
PUBLIC	_ScheduleGroupEventGuid
PUBLIC	_ContextEventGuid
PUBLIC	_ChoreEventGuid
PUBLIC	_VirtualProcessorEventGuid
PUBLIC	_LockEventGuid
PUBLIC	_ResourceManagerEventGuid
PUBLIC	_PPLParallelInvokeEventGuid
PUBLIC	_PPLParallelForEventGuid
PUBLIC	_PPLParallelForeachEventGuid
PUBLIC	_AgentEventGuid
PUBLIC	?is_bounded@_Num_int_base@std@@2_NB		; std::_Num_int_base::is_bounded
PUBLIC	?is_exact@_Num_int_base@std@@2_NB		; std::_Num_int_base::is_exact
PUBLIC	?is_integer@_Num_int_base@std@@2_NB		; std::_Num_int_base::is_integer
PUBLIC	?is_modulo@_Num_int_base@std@@2_NB		; std::_Num_int_base::is_modulo
PUBLIC	?is_specialized@_Num_int_base@std@@2_NB		; std::_Num_int_base::is_specialized
PUBLIC	?radix@_Num_int_base@std@@2HB			; std::_Num_int_base::radix
PUBLIC	?has_denorm@_Num_float_base@std@@2W4float_denorm_style@2@B ; std::_Num_float_base::has_denorm
PUBLIC	?has_denorm_loss@_Num_float_base@std@@2_NB	; std::_Num_float_base::has_denorm_loss
PUBLIC	?has_infinity@_Num_float_base@std@@2_NB		; std::_Num_float_base::has_infinity
PUBLIC	?has_quiet_NaN@_Num_float_base@std@@2_NB	; std::_Num_float_base::has_quiet_NaN
PUBLIC	?has_signaling_NaN@_Num_float_base@std@@2_NB	; std::_Num_float_base::has_signaling_NaN
PUBLIC	?is_bounded@_Num_float_base@std@@2_NB		; std::_Num_float_base::is_bounded
PUBLIC	?is_exact@_Num_float_base@std@@2_NB		; std::_Num_float_base::is_exact
PUBLIC	?is_iec559@_Num_float_base@std@@2_NB		; std::_Num_float_base::is_iec559
PUBLIC	?is_integer@_Num_float_base@std@@2_NB		; std::_Num_float_base::is_integer
PUBLIC	?is_modulo@_Num_float_base@std@@2_NB		; std::_Num_float_base::is_modulo
PUBLIC	?is_signed@_Num_float_base@std@@2_NB		; std::_Num_float_base::is_signed
PUBLIC	?is_specialized@_Num_float_base@std@@2_NB	; std::_Num_float_base::is_specialized
PUBLIC	?tinyness_before@_Num_float_base@std@@2_NB	; std::_Num_float_base::tinyness_before
PUBLIC	?traps@_Num_float_base@std@@2_NB		; std::_Num_float_base::traps
PUBLIC	?round_style@_Num_float_base@std@@2W4float_round_style@2@B ; std::_Num_float_base::round_style
PUBLIC	?radix@_Num_float_base@std@@2HB			; std::_Num_float_base::radix
PUBLIC	?is_signed@?$numeric_limits@D@std@@2_NB		; std::numeric_limits<char>::is_signed
PUBLIC	?digits@?$numeric_limits@D@std@@2HB		; std::numeric_limits<char>::digits
PUBLIC	?digits10@?$numeric_limits@D@std@@2HB		; std::numeric_limits<char>::digits10
;	COMDAT ?digits10@?$numeric_limits@D@std@@2HB
CONST	SEGMENT
?digits10@?$numeric_limits@D@std@@2HB DD 02H		; std::numeric_limits<char>::digits10
CONST	ENDS
;	COMDAT ?digits@?$numeric_limits@D@std@@2HB
CONST	SEGMENT
?digits@?$numeric_limits@D@std@@2HB DD 07H		; std::numeric_limits<char>::digits
CONST	ENDS
;	COMDAT ?is_signed@?$numeric_limits@D@std@@2_NB
CONST	SEGMENT
?is_signed@?$numeric_limits@D@std@@2_NB DB 01H		; std::numeric_limits<char>::is_signed
CONST	ENDS
;	COMDAT ?radix@_Num_float_base@std@@2HB
CONST	SEGMENT
?radix@_Num_float_base@std@@2HB DD 02H			; std::_Num_float_base::radix
CONST	ENDS
;	COMDAT ?round_style@_Num_float_base@std@@2W4float_round_style@2@B
CONST	SEGMENT
?round_style@_Num_float_base@std@@2W4float_round_style@2@B DD 01H ; std::_Num_float_base::round_style
CONST	ENDS
;	COMDAT ?traps@_Num_float_base@std@@2_NB
CONST	SEGMENT
?traps@_Num_float_base@std@@2_NB DB 00H			; std::_Num_float_base::traps
CONST	ENDS
;	COMDAT ?tinyness_before@_Num_float_base@std@@2_NB
CONST	SEGMENT
?tinyness_before@_Num_float_base@std@@2_NB DB 01H	; std::_Num_float_base::tinyness_before
CONST	ENDS
;	COMDAT ?is_specialized@_Num_float_base@std@@2_NB
CONST	SEGMENT
?is_specialized@_Num_float_base@std@@2_NB DB 01H	; std::_Num_float_base::is_specialized
CONST	ENDS
;	COMDAT ?is_signed@_Num_float_base@std@@2_NB
CONST	SEGMENT
?is_signed@_Num_float_base@std@@2_NB DB 01H		; std::_Num_float_base::is_signed
CONST	ENDS
;	COMDAT ?is_modulo@_Num_float_base@std@@2_NB
CONST	SEGMENT
?is_modulo@_Num_float_base@std@@2_NB DB 00H		; std::_Num_float_base::is_modulo
CONST	ENDS
;	COMDAT ?is_integer@_Num_float_base@std@@2_NB
CONST	SEGMENT
?is_integer@_Num_float_base@std@@2_NB DB 00H		; std::_Num_float_base::is_integer
CONST	ENDS
;	COMDAT ?is_iec559@_Num_float_base@std@@2_NB
CONST	SEGMENT
?is_iec559@_Num_float_base@std@@2_NB DB 01H		; std::_Num_float_base::is_iec559
CONST	ENDS
;	COMDAT ?is_exact@_Num_float_base@std@@2_NB
CONST	SEGMENT
?is_exact@_Num_float_base@std@@2_NB DB 00H		; std::_Num_float_base::is_exact
CONST	ENDS
;	COMDAT ?is_bounded@_Num_float_base@std@@2_NB
CONST	SEGMENT
?is_bounded@_Num_float_base@std@@2_NB DB 01H		; std::_Num_float_base::is_bounded
CONST	ENDS
;	COMDAT ?has_signaling_NaN@_Num_float_base@std@@2_NB
CONST	SEGMENT
?has_signaling_NaN@_Num_float_base@std@@2_NB DB 01H	; std::_Num_float_base::has_signaling_NaN
CONST	ENDS
;	COMDAT ?has_quiet_NaN@_Num_float_base@std@@2_NB
CONST	SEGMENT
?has_quiet_NaN@_Num_float_base@std@@2_NB DB 01H		; std::_Num_float_base::has_quiet_NaN
CONST	ENDS
;	COMDAT ?has_infinity@_Num_float_base@std@@2_NB
CONST	SEGMENT
?has_infinity@_Num_float_base@std@@2_NB DB 01H		; std::_Num_float_base::has_infinity
CONST	ENDS
;	COMDAT ?has_denorm_loss@_Num_float_base@std@@2_NB
CONST	SEGMENT
?has_denorm_loss@_Num_float_base@std@@2_NB DB 01H	; std::_Num_float_base::has_denorm_loss
CONST	ENDS
;	COMDAT ?has_denorm@_Num_float_base@std@@2W4float_denorm_style@2@B
CONST	SEGMENT
?has_denorm@_Num_float_base@std@@2W4float_denorm_style@2@B DD 01H ; std::_Num_float_base::has_denorm
CONST	ENDS
;	COMDAT ?radix@_Num_int_base@std@@2HB
CONST	SEGMENT
?radix@_Num_int_base@std@@2HB DD 02H			; std::_Num_int_base::radix
CONST	ENDS
;	COMDAT ?is_specialized@_Num_int_base@std@@2_NB
CONST	SEGMENT
?is_specialized@_Num_int_base@std@@2_NB DB 01H		; std::_Num_int_base::is_specialized
CONST	ENDS
;	COMDAT ?is_modulo@_Num_int_base@std@@2_NB
CONST	SEGMENT
?is_modulo@_Num_int_base@std@@2_NB DB 01H		; std::_Num_int_base::is_modulo
CONST	ENDS
;	COMDAT ?is_integer@_Num_int_base@std@@2_NB
CONST	SEGMENT
?is_integer@_Num_int_base@std@@2_NB DB 01H		; std::_Num_int_base::is_integer
CONST	ENDS
;	COMDAT ?is_exact@_Num_int_base@std@@2_NB
CONST	SEGMENT
?is_exact@_Num_int_base@std@@2_NB DB 01H		; std::_Num_int_base::is_exact
CONST	ENDS
;	COMDAT ?is_bounded@_Num_int_base@std@@2_NB
CONST	SEGMENT
?is_bounded@_Num_int_base@std@@2_NB DB 01H		; std::_Num_int_base::is_bounded
CONST	ENDS
;	COMDAT _AgentEventGuid
CONST	SEGMENT
_AgentEventGuid DD 0b9b5b78cH
	DW	0713H
	DW	04898H
	DB	0a2H
	DB	01aH
	DB	0c6H
	DB	079H
	DB	049H
	DB	0dcH
	DB	0edH
	DB	07H
CONST	ENDS
;	COMDAT _PPLParallelForeachEventGuid
CONST	SEGMENT
_PPLParallelForeachEventGuid DD 05cb7d785H
	DW	09d66H
	DW	0465dH
	DB	0baH
	DB	0e1H
	DB	046H
	DB	011H
	DB	06H
	DB	01bH
	DB	054H
	DB	034H
CONST	ENDS
;	COMDAT _PPLParallelForEventGuid
CONST	SEGMENT
_PPLParallelForEventGuid DD 031c8da6bH
	DW	06165H
	DW	04042H
	DB	08bH
	DB	092H
	DB	094H
	DB	09eH
	DB	031H
	DB	05fH
	DB	04dH
	DB	084H
CONST	ENDS
;	COMDAT _PPLParallelInvokeEventGuid
CONST	SEGMENT
_PPLParallelInvokeEventGuid DD 0d1b5b133H
	DW	0ec3dH
	DW	049f4H
	DB	098H
	DB	0a3H
	DB	046H
	DB	04dH
	DB	01aH
	DB	09eH
	DB	046H
	DB	082H
CONST	ENDS
;	COMDAT _ResourceManagerEventGuid
CONST	SEGMENT
_ResourceManagerEventGuid DD 02718d25bH
	DW	05bf5H
	DW	04479H
	DB	08eH
	DB	088H
	DB	0baH
	DB	0bcH
	DB	064H
	DB	0bdH
	DB	0bfH
	DB	0caH
CONST	ENDS
;	COMDAT _LockEventGuid
CONST	SEGMENT
_LockEventGuid DD 079a60dc6H
	DW	05fc8H
	DW	04952H
	DB	0a4H
	DB	01cH
	DB	011H
	DB	063H
	DB	0aeH
	DB	0ecH
	DB	05eH
	DB	0b8H
CONST	ENDS
;	COMDAT _VirtualProcessorEventGuid
CONST	SEGMENT
_VirtualProcessorEventGuid DD 02f27805fH
	DW	01676H
	DW	04eccH
	DB	096H
	DB	0faH
	DB	07eH
	DB	0b0H
	DB	09dH
	DB	044H
	DB	030H
	DB	02fH
CONST	ENDS
;	COMDAT _ChoreEventGuid
CONST	SEGMENT
_ChoreEventGuid DD 07e854ec7H
	DW	0cdc4H
	DW	0405aH
	DB	0b5H
	DB	0b2H
	DB	0aaH
	DB	0f7H
	DB	0c9H
	DB	0e7H
	DB	0d4H
	DB	0cH
CONST	ENDS
;	COMDAT _ContextEventGuid
CONST	SEGMENT
_ContextEventGuid DD 05727a00fH
	DW	050beH
	DW	04519H
	DB	082H
	DB	056H
	DB	0f7H
	DB	069H
	DB	098H
	DB	071H
	DB	0feH
	DB	0cbH
CONST	ENDS
;	COMDAT _ScheduleGroupEventGuid
CONST	SEGMENT
_ScheduleGroupEventGuid DD 0e8a3bf1fH
	DW	0a86bH
	DW	04390H
	DB	09cH
	DB	060H
	DB	053H
	DB	090H
	DB	0b9H
	DB	069H
	DB	0d2H
	DB	02cH
CONST	ENDS
;	COMDAT ?radix@_Num_base@std@@2HB
CONST	SEGMENT
?radix@_Num_base@std@@2HB DD 00H			; std::_Num_base::radix
CONST	ENDS
;	COMDAT _SchedulerEventGuid
CONST	SEGMENT
_SchedulerEventGuid DD 0e2091f8aH
	DW	01e0aH
	DW	04731H
	DB	084H
	DB	0a2H
	DB	0dH
	DB	0d5H
	DB	07cH
	DB	08aH
	DB	052H
	DB	061H
CONST	ENDS
;	COMDAT _ConcRTEventGuid
CONST	SEGMENT
_ConcRTEventGuid DD 072b14a7dH
	DW	0704cH
	DW	0423eH
	DB	092H
	DB	0f8H
	DB	07eH
	DB	06dH
	DB	064H
	DB	0bcH
	DB	0b9H
	DB	02aH
CONST	ENDS
;	COMDAT _ConcRT_ProviderGuid
CONST	SEGMENT
_ConcRT_ProviderGuid DD 0f7b697a3H
	DW	04db5H
	DW	04d3bH
	DB	0beH
	DB	071H
	DB	0c4H
	DB	0d2H
	DB	084H
	DB	0e6H
	DB	059H
	DB	02fH
CONST	ENDS
;	COMDAT ?min_exponent10@_Num_base@std@@2HB
CONST	SEGMENT
?min_exponent10@_Num_base@std@@2HB DD 00H		; std::_Num_base::min_exponent10
CONST	ENDS
;	COMDAT ?min_exponent@_Num_base@std@@2HB
CONST	SEGMENT
?min_exponent@_Num_base@std@@2HB DD 00H			; std::_Num_base::min_exponent
CONST	ENDS
;	COMDAT ?max_exponent10@_Num_base@std@@2HB
CONST	SEGMENT
?max_exponent10@_Num_base@std@@2HB DD 00H		; std::_Num_base::max_exponent10
CONST	ENDS
;	COMDAT ?max_exponent@_Num_base@std@@2HB
CONST	SEGMENT
?max_exponent@_Num_base@std@@2HB DD 00H			; std::_Num_base::max_exponent
CONST	ENDS
;	COMDAT ?max_digits10@_Num_base@std@@2HB
CONST	SEGMENT
?max_digits10@_Num_base@std@@2HB DD 00H			; std::_Num_base::max_digits10
CONST	ENDS
;	COMDAT ?digits10@_Num_base@std@@2HB
CONST	SEGMENT
?digits10@_Num_base@std@@2HB DD 00H			; std::_Num_base::digits10
CONST	ENDS
;	COMDAT ?digits@_Num_base@std@@2HB
CONST	SEGMENT
?digits@_Num_base@std@@2HB DD 00H			; std::_Num_base::digits
CONST	ENDS
;	COMDAT ?round_style@_Num_base@std@@2W4float_round_style@2@B
CONST	SEGMENT
?round_style@_Num_base@std@@2W4float_round_style@2@B DD 00H ; std::_Num_base::round_style
CONST	ENDS
;	COMDAT ?traps@_Num_base@std@@2_NB
CONST	SEGMENT
?traps@_Num_base@std@@2_NB DB 00H			; std::_Num_base::traps
CONST	ENDS
;	COMDAT ?tinyness_before@_Num_base@std@@2_NB
CONST	SEGMENT
?tinyness_before@_Num_base@std@@2_NB DB 00H		; std::_Num_base::tinyness_before
CONST	ENDS
;	COMDAT ?is_specialized@_Num_base@std@@2_NB
CONST	SEGMENT
?is_specialized@_Num_base@std@@2_NB DB 00H		; std::_Num_base::is_specialized
CONST	ENDS
;	COMDAT ?is_signed@_Num_base@std@@2_NB
CONST	SEGMENT
?is_signed@_Num_base@std@@2_NB DB 00H			; std::_Num_base::is_signed
CONST	ENDS
;	COMDAT ?is_modulo@_Num_base@std@@2_NB
CONST	SEGMENT
?is_modulo@_Num_base@std@@2_NB DB 00H			; std::_Num_base::is_modulo
CONST	ENDS
;	COMDAT ?is_integer@_Num_base@std@@2_NB
CONST	SEGMENT
?is_integer@_Num_base@std@@2_NB DB 00H			; std::_Num_base::is_integer
CONST	ENDS
;	COMDAT ?is_iec559@_Num_base@std@@2_NB
CONST	SEGMENT
?is_iec559@_Num_base@std@@2_NB DB 00H			; std::_Num_base::is_iec559
CONST	ENDS
;	COMDAT ?is_exact@_Num_base@std@@2_NB
CONST	SEGMENT
?is_exact@_Num_base@std@@2_NB DB 00H			; std::_Num_base::is_exact
CONST	ENDS
;	COMDAT ?is_bounded@_Num_base@std@@2_NB
CONST	SEGMENT
?is_bounded@_Num_base@std@@2_NB DB 00H			; std::_Num_base::is_bounded
CONST	ENDS
;	COMDAT ?has_signaling_NaN@_Num_base@std@@2_NB
CONST	SEGMENT
?has_signaling_NaN@_Num_base@std@@2_NB DB 00H		; std::_Num_base::has_signaling_NaN
CONST	ENDS
;	COMDAT ?is_steady@steady_clock@chrono@std@@2_NB
CONST	SEGMENT
?is_steady@steady_clock@chrono@std@@2_NB DB 01H		; std::chrono::steady_clock::is_steady
CONST	ENDS
;	COMDAT ?is_monotonic@steady_clock@chrono@std@@2_NB
CONST	SEGMENT
?is_monotonic@steady_clock@chrono@std@@2_NB DB 01H	; std::chrono::steady_clock::is_monotonic
CONST	ENDS
;	COMDAT ?has_quiet_NaN@_Num_base@std@@2_NB
CONST	SEGMENT
?has_quiet_NaN@_Num_base@std@@2_NB DB 00H		; std::_Num_base::has_quiet_NaN
CONST	ENDS
;	COMDAT ?has_infinity@_Num_base@std@@2_NB
CONST	SEGMENT
?has_infinity@_Num_base@std@@2_NB DB 00H		; std::_Num_base::has_infinity
CONST	ENDS
;	COMDAT ?has_denorm_loss@_Num_base@std@@2_NB
CONST	SEGMENT
?has_denorm_loss@_Num_base@std@@2_NB DB 00H		; std::_Num_base::has_denorm_loss
CONST	ENDS
;	COMDAT ?has_denorm@_Num_base@std@@2W4float_denorm_style@2@B
CONST	SEGMENT
?has_denorm@_Num_base@std@@2W4float_denorm_style@2@B DD 00H ; std::_Num_base::has_denorm
CONST	ENDS
;	COMDAT ?den@?$ratio@$00$00@std@@2_JB
CONST	SEGMENT
?den@?$ratio@$00$00@std@@2_JB DQ 0000000000000001H	; std::ratio<1,1>::den
CONST	ENDS
;	COMDAT ?num@?$ratio@$00$00@std@@2_JB
CONST	SEGMENT
?num@?$ratio@$00$00@std@@2_JB DQ 0000000000000001H	; std::ratio<1,1>::num
CONST	ENDS
;	COMDAT ?value@?$_Sizeof@U_Nil@std@@U12@U12@U12@U12@U12@U12@U12@@std@@2IB
CONST	SEGMENT
?value@?$_Sizeof@U_Nil@std@@U12@U12@U12@U12@U12@U12@U12@@std@@2IB DD 00H ; std::_Sizeof<std::_Nil,std::_Nil,std::_Nil,std::_Nil,std::_Nil,std::_Nil,std::_Nil,std::_Nil>::value
CONST	ENDS
;	COMDAT ?_G2@?$_Ratio_multiply2@U?$ratio@$00$0JIJGIA@@std@@U?$ratio@$0JIJGIA@$00@2@@std@@2_JB
CONST	SEGMENT
?_G2@?$_Ratio_multiply2@U?$ratio@$00$0JIJGIA@@std@@U?$ratio@$0JIJGIA@$00@2@@std@@2_JB DQ 0000000000989680H ; std::_Ratio_multiply2<std::ratio<1,10000000>,std::ratio<10000000,1> >::_G2
CONST	ENDS
;	COMDAT ?value@?$_Gcd@$0JIJGIA@$0JIJGIA@@std@@2_JB
CONST	SEGMENT
?value@?$_Gcd@$0JIJGIA@$0JIJGIA@@std@@2_JB DQ 0000000000989680H ; std::_Gcd<10000000,10000000>::value
CONST	ENDS
;	COMDAT ?value@?$_GcdX@$0JIJGIA@$0JIJGIA@@std@@2_JB
CONST	SEGMENT
?value@?$_GcdX@$0JIJGIA@$0JIJGIA@@std@@2_JB DQ 0000000000989680H ; std::_GcdX<10000000,10000000>::value
CONST	ENDS
;	COMDAT ?value@?$_GcdX@$0JIJGIA@$0A@@std@@2_JB
CONST	SEGMENT
?value@?$_GcdX@$0JIJGIA@$0A@@std@@2_JB DQ 0000000000989680H ; std::_GcdX<10000000,0>::value
CONST	ENDS
;	COMDAT ?value@?$_Abs@$0JIJGIA@@std@@2_JB
CONST	SEGMENT
?value@?$_Abs@$0JIJGIA@@std@@2_JB DQ 0000000000989680H	; std::_Abs<10000000>::value
CONST	ENDS
;	COMDAT ?_G1@?$_Ratio_multiply2@U?$ratio@$00$0JIJGIA@@std@@U?$ratio@$0JIJGIA@$00@2@@std@@2_JB
CONST	SEGMENT
?_G1@?$_Ratio_multiply2@U?$ratio@$00$0JIJGIA@@std@@U?$ratio@$0JIJGIA@$00@2@@std@@2_JB DQ 0000000000000001H ; std::_Ratio_multiply2<std::ratio<1,10000000>,std::ratio<10000000,1> >::_G1
CONST	ENDS
;	COMDAT ?min_exponent10@?$numeric_limits@O@std@@2HB
CONST	SEGMENT
?min_exponent10@?$numeric_limits@O@std@@2HB DD 0fffffecdH ; std::numeric_limits<long double>::min_exponent10
CONST	ENDS
;	COMDAT ?min_exponent@?$numeric_limits@O@std@@2HB
CONST	SEGMENT
?min_exponent@?$numeric_limits@O@std@@2HB DD 0fffffc03H	; std::numeric_limits<long double>::min_exponent
CONST	ENDS
;	COMDAT ?max_exponent10@?$numeric_limits@O@std@@2HB
CONST	SEGMENT
?max_exponent10@?$numeric_limits@O@std@@2HB DD 0134H	; std::numeric_limits<long double>::max_exponent10
CONST	ENDS
;	COMDAT ?max_exponent@?$numeric_limits@O@std@@2HB
CONST	SEGMENT
?max_exponent@?$numeric_limits@O@std@@2HB DD 0400H	; std::numeric_limits<long double>::max_exponent
CONST	ENDS
;	COMDAT ?max_digits10@?$numeric_limits@O@std@@2HB
CONST	SEGMENT
?max_digits10@?$numeric_limits@O@std@@2HB DD 011H	; std::numeric_limits<long double>::max_digits10
CONST	ENDS
;	COMDAT ?digits10@?$numeric_limits@O@std@@2HB
CONST	SEGMENT
?digits10@?$numeric_limits@O@std@@2HB DD 0fH		; std::numeric_limits<long double>::digits10
CONST	ENDS
;	COMDAT ?digits@?$numeric_limits@O@std@@2HB
CONST	SEGMENT
?digits@?$numeric_limits@O@std@@2HB DD 035H		; std::numeric_limits<long double>::digits
CONST	ENDS
;	COMDAT ?value@?$_Sizeof@HU_Nil@std@@U12@U12@U12@U12@U12@U12@@std@@2IB
CONST	SEGMENT
?value@?$_Sizeof@HU_Nil@std@@U12@U12@U12@U12@U12@U12@@std@@2IB DD 01H ; std::_Sizeof<int,std::_Nil,std::_Nil,std::_Nil,std::_Nil,std::_Nil,std::_Nil,std::_Nil>::value
CONST	ENDS
;	COMDAT ?min_exponent10@?$numeric_limits@N@std@@2HB
CONST	SEGMENT
?min_exponent10@?$numeric_limits@N@std@@2HB DD 0fffffecdH ; std::numeric_limits<double>::min_exponent10
CONST	ENDS
;	COMDAT ?min_exponent@?$numeric_limits@N@std@@2HB
CONST	SEGMENT
?min_exponent@?$numeric_limits@N@std@@2HB DD 0fffffc03H	; std::numeric_limits<double>::min_exponent
CONST	ENDS
;	COMDAT ?max_exponent10@?$numeric_limits@N@std@@2HB
CONST	SEGMENT
?max_exponent10@?$numeric_limits@N@std@@2HB DD 0134H	; std::numeric_limits<double>::max_exponent10
CONST	ENDS
;	COMDAT ?max_exponent@?$numeric_limits@N@std@@2HB
CONST	SEGMENT
?max_exponent@?$numeric_limits@N@std@@2HB DD 0400H	; std::numeric_limits<double>::max_exponent
CONST	ENDS
;	COMDAT ?max_digits10@?$numeric_limits@N@std@@2HB
CONST	SEGMENT
?max_digits10@?$numeric_limits@N@std@@2HB DD 011H	; std::numeric_limits<double>::max_digits10
CONST	ENDS
;	COMDAT ?digits10@?$numeric_limits@N@std@@2HB
CONST	SEGMENT
?digits10@?$numeric_limits@N@std@@2HB DD 0fH		; std::numeric_limits<double>::digits10
CONST	ENDS
;	COMDAT ?digits@?$numeric_limits@N@std@@2HB
CONST	SEGMENT
?digits@?$numeric_limits@N@std@@2HB DD 035H		; std::numeric_limits<double>::digits
CONST	ENDS
;	COMDAT ?_S_reserved@_TaskCollectionBase@details@Concurrency@@1HB
CONST	SEGMENT
?_S_reserved@_TaskCollectionBase@details@Concurrency@@1HB DD 0cH ; Concurrency::details::_TaskCollectionBase::_S_reserved
CONST	ENDS
;	COMDAT ?_S_localCancel@_TaskCollectionBase@details@Concurrency@@1HB
CONST	SEGMENT
?_S_localCancel@_TaskCollectionBase@details@Concurrency@@1HB DD 02H ; Concurrency::details::_TaskCollectionBase::_S_localCancel
CONST	ENDS
;	COMDAT ?_S_structured@_TaskCollectionBase@details@Concurrency@@1HB
CONST	SEGMENT
?_S_structured@_TaskCollectionBase@details@Concurrency@@1HB DD 01H ; Concurrency::details::_TaskCollectionBase::_S_structured
CONST	ENDS
;	COMDAT ?_S_notInlined@_TaskCollectionBase@details@Concurrency@@1HB
CONST	SEGMENT
?_S_notInlined@_TaskCollectionBase@details@Concurrency@@1HB DD 0ffffffffH ; Concurrency::details::_TaskCollectionBase::_S_notInlined
CONST	ENDS
;	COMDAT ?min_exponent10@?$numeric_limits@M@std@@2HB
CONST	SEGMENT
?min_exponent10@?$numeric_limits@M@std@@2HB DD 0ffffffdbH ; std::numeric_limits<float>::min_exponent10
CONST	ENDS
;	COMDAT ?_S_cancelException@_TaskCollectionBase@details@Concurrency@@1IB
CONST	SEGMENT
?_S_cancelException@_TaskCollectionBase@details@Concurrency@@1IB DD 0cH ; Concurrency::details::_TaskCollectionBase::_S_cancelException
CONST	ENDS
;	COMDAT ?_S_nonNull@_TaskCollectionBase@details@Concurrency@@1IB
CONST	SEGMENT
?_S_nonNull@_TaskCollectionBase@details@Concurrency@@1IB DD 08H ; Concurrency::details::_TaskCollectionBase::_S_nonNull
CONST	ENDS
;	COMDAT ?min_exponent@?$numeric_limits@M@std@@2HB
CONST	SEGMENT
?min_exponent@?$numeric_limits@M@std@@2HB DD 0ffffff83H	; std::numeric_limits<float>::min_exponent
CONST	ENDS
;	COMDAT ?_S_cancelShotdownOwner@_TaskCollectionBase@details@Concurrency@@1IB
CONST	SEGMENT
?_S_cancelShotdownOwner@_TaskCollectionBase@details@Concurrency@@1IB DD 03H ; Concurrency::details::_TaskCollectionBase::_S_cancelShotdownOwner
CONST	ENDS
;	COMDAT ?_S_cancelDeferredShootdownOwner@_TaskCollectionBase@details@Concurrency@@1IB
CONST	SEGMENT
?_S_cancelDeferredShootdownOwner@_TaskCollectionBase@details@Concurrency@@1IB DD 02H ; Concurrency::details::_TaskCollectionBase::_S_cancelDeferredShootdownOwner
CONST	ENDS
;	COMDAT ?max_exponent10@?$numeric_limits@M@std@@2HB
CONST	SEGMENT
?max_exponent10@?$numeric_limits@M@std@@2HB DD 026H	; std::numeric_limits<float>::max_exponent10
CONST	ENDS
;	COMDAT ?_S_cancelStarted@_TaskCollectionBase@details@Concurrency@@1IB
CONST	SEGMENT
?_S_cancelStarted@_TaskCollectionBase@details@Concurrency@@1IB DD 01H ; Concurrency::details::_TaskCollectionBase::_S_cancelStarted
CONST	ENDS
;	COMDAT ?_S_cancelNone@_TaskCollectionBase@details@Concurrency@@1IB
CONST	SEGMENT
?_S_cancelNone@_TaskCollectionBase@details@Concurrency@@1IB DD 00H ; Concurrency::details::_TaskCollectionBase::_S_cancelNone
CONST	ENDS
;	COMDAT ?max_exponent@?$numeric_limits@M@std@@2HB
CONST	SEGMENT
?max_exponent@?$numeric_limits@M@std@@2HB DD 080H	; std::numeric_limits<float>::max_exponent
CONST	ENDS
;	COMDAT ?_S_cancelBitsMask@_TaskCollectionBase@details@Concurrency@@1IB
CONST	SEGMENT
?_S_cancelBitsMask@_TaskCollectionBase@details@Concurrency@@1IB DD 03H ; Concurrency::details::_TaskCollectionBase::_S_cancelBitsMask
CONST	ENDS
;	COMDAT ?max_digits10@?$numeric_limits@M@std@@2HB
CONST	SEGMENT
?max_digits10@?$numeric_limits@M@std@@2HB DD 09H	; std::numeric_limits<float>::max_digits10
CONST	ENDS
;	COMDAT ?digits10@?$numeric_limits@M@std@@2HB
CONST	SEGMENT
?digits10@?$numeric_limits@M@std@@2HB DD 06H		; std::numeric_limits<float>::digits10
CONST	ENDS
;	COMDAT ?digits@?$numeric_limits@M@std@@2HB
CONST	SEGMENT
?digits@?$numeric_limits@M@std@@2HB DD 018H		; std::numeric_limits<float>::digits
CONST	ENDS
;	COMDAT ?digits10@?$numeric_limits@_K@std@@2HB
CONST	SEGMENT
?digits10@?$numeric_limits@_K@std@@2HB DD 013H		; std::numeric_limits<unsigned __int64>::digits10
CONST	ENDS
;	COMDAT ?digits@?$numeric_limits@_K@std@@2HB
CONST	SEGMENT
?digits@?$numeric_limits@_K@std@@2HB DD 040H		; std::numeric_limits<unsigned __int64>::digits
CONST	ENDS
;	COMDAT ?is_signed@?$numeric_limits@_K@std@@2_NB
CONST	SEGMENT
?is_signed@?$numeric_limits@_K@std@@2_NB DB 00H		; std::numeric_limits<unsigned __int64>::is_signed
CONST	ENDS
;	COMDAT ?value@?$integral_constant@H$0A@@std@@2HB
CONST	SEGMENT
?value@?$integral_constant@H$0A@@std@@2HB DD 00H	; std::integral_constant<int,0>::value
CONST	ENDS
;	COMDAT ?digits10@?$numeric_limits@_J@std@@2HB
CONST	SEGMENT
?digits10@?$numeric_limits@_J@std@@2HB DD 012H		; std::numeric_limits<__int64>::digits10
CONST	ENDS
;	COMDAT ?digits@?$numeric_limits@_J@std@@2HB
CONST	SEGMENT
?digits@?$numeric_limits@_J@std@@2HB DD 03fH		; std::numeric_limits<__int64>::digits
CONST	ENDS
;	COMDAT ?is_signed@?$numeric_limits@_J@std@@2_NB
CONST	SEGMENT
?is_signed@?$numeric_limits@_J@std@@2_NB DB 01H		; std::numeric_limits<__int64>::is_signed
CONST	ENDS
;	COMDAT ?digits10@?$numeric_limits@K@std@@2HB
CONST	SEGMENT
?digits10@?$numeric_limits@K@std@@2HB DD 09H		; std::numeric_limits<unsigned long>::digits10
CONST	ENDS
;	COMDAT ?digits@?$numeric_limits@K@std@@2HB
CONST	SEGMENT
?digits@?$numeric_limits@K@std@@2HB DD 020H		; std::numeric_limits<unsigned long>::digits
CONST	ENDS
;	COMDAT ?is_signed@?$numeric_limits@K@std@@2_NB
CONST	SEGMENT
?is_signed@?$numeric_limits@K@std@@2_NB DB 00H		; std::numeric_limits<unsigned long>::is_signed
CONST	ENDS
;	COMDAT ?den@?$ratio@$00$0JIJGIA@@std@@2_JB
CONST	SEGMENT
?den@?$ratio@$00$0JIJGIA@@std@@2_JB DQ 0000000000989680H ; std::ratio<1,10000000>::den
CONST	ENDS
;	COMDAT ?num@?$ratio@$00$0JIJGIA@@std@@2_JB
CONST	SEGMENT
?num@?$ratio@$00$0JIJGIA@@std@@2_JB DQ 0000000000000001H ; std::ratio<1,10000000>::num
CONST	ENDS
;	COMDAT ?value@?$_Gcd@$00$0JIJGIA@@std@@2_JB
CONST	SEGMENT
?value@?$_Gcd@$00$0JIJGIA@@std@@2_JB DQ 0000000000000001H ; std::_Gcd<1,10000000>::value
CONST	ENDS
;	COMDAT ?digits10@?$numeric_limits@J@std@@2HB
CONST	SEGMENT
?digits10@?$numeric_limits@J@std@@2HB DD 09H		; std::numeric_limits<long>::digits10
CONST	ENDS
;	COMDAT ?value@?$_GcdX@$00$0JIJGIA@@std@@2_JB
CONST	SEGMENT
?value@?$_GcdX@$00$0JIJGIA@@std@@2_JB DQ 0000000000000001H ; std::_GcdX<1,10000000>::value
CONST	ENDS
;	COMDAT ?digits@?$numeric_limits@J@std@@2HB
CONST	SEGMENT
?digits@?$numeric_limits@J@std@@2HB DD 01fH		; std::numeric_limits<long>::digits
CONST	ENDS
;	COMDAT ?is_signed@?$numeric_limits@J@std@@2_NB
CONST	SEGMENT
?is_signed@?$numeric_limits@J@std@@2_NB DB 01H		; std::numeric_limits<long>::is_signed
CONST	ENDS
;	COMDAT ?value@?$_GcdX@$0JIJGIA@$00@std@@2_JB
CONST	SEGMENT
?value@?$_GcdX@$0JIJGIA@$00@std@@2_JB DQ 0000000000000001H ; std::_GcdX<10000000,1>::value
CONST	ENDS
;	COMDAT ?is_steady@system_clock@chrono@std@@2_NB
CONST	SEGMENT
?is_steady@system_clock@chrono@std@@2_NB DB 00H		; std::chrono::system_clock::is_steady
CONST	ENDS
;	COMDAT ?value@?$_Is_ratio@U?$ratio@$00$0JIJGIA@@std@@@chrono@std@@2_NB
CONST	SEGMENT
?value@?$_Is_ratio@U?$ratio@$00$0JIJGIA@@std@@@chrono@std@@2_NB DB 01H ; std::chrono::_Is_ratio<std::ratio<1,10000000> >::value
CONST	ENDS
;	COMDAT ?is_monotonic@system_clock@chrono@std@@2_NB
CONST	SEGMENT
?is_monotonic@system_clock@chrono@std@@2_NB DB 00H	; std::chrono::system_clock::is_monotonic
CONST	ENDS
;	COMDAT ?digits10@?$numeric_limits@I@std@@2HB
CONST	SEGMENT
?digits10@?$numeric_limits@I@std@@2HB DD 09H		; std::numeric_limits<unsigned int>::digits10
CONST	ENDS
;	COMDAT ?digits@?$numeric_limits@I@std@@2HB
CONST	SEGMENT
?digits@?$numeric_limits@I@std@@2HB DD 020H		; std::numeric_limits<unsigned int>::digits
CONST	ENDS
;	COMDAT ?is_signed@?$numeric_limits@I@std@@2_NB
CONST	SEGMENT
?is_signed@?$numeric_limits@I@std@@2_NB DB 00H		; std::numeric_limits<unsigned int>::is_signed
CONST	ENDS
;	COMDAT ?_G2@?$_Ratio_multiply2@U?$ratio@$0GE@$00@std@@U?$ratio@$00$0DLJKMKAA@@2@@std@@2_JB
CONST	SEGMENT
?_G2@?$_Ratio_multiply2@U?$ratio@$0GE@$00@std@@U?$ratio@$00$0DLJKMKAA@@2@@std@@2_JB DQ 0000000000000001H ; std::_Ratio_multiply2<std::ratio<100,1>,std::ratio<1,1000000000> >::_G2
CONST	ENDS
;	COMDAT ?digits10@?$numeric_limits@H@std@@2HB
CONST	SEGMENT
?digits10@?$numeric_limits@H@std@@2HB DD 09H		; std::numeric_limits<int>::digits10
CONST	ENDS
;	COMDAT ?value@?$_Gcd@$00$00@std@@2_JB
CONST	SEGMENT
?value@?$_Gcd@$00$00@std@@2_JB DQ 0000000000000001H	; std::_Gcd<1,1>::value
CONST	ENDS
;	COMDAT ?digits@?$numeric_limits@H@std@@2HB
CONST	SEGMENT
?digits@?$numeric_limits@H@std@@2HB DD 01fH		; std::numeric_limits<int>::digits
CONST	ENDS
;	COMDAT ?is_signed@?$numeric_limits@H@std@@2_NB
CONST	SEGMENT
?is_signed@?$numeric_limits@H@std@@2_NB DB 01H		; std::numeric_limits<int>::is_signed
CONST	ENDS
;	COMDAT ?value@?$_GcdX@$00$00@std@@2_JB
CONST	SEGMENT
?value@?$_GcdX@$00$00@std@@2_JB DQ 0000000000000001H	; std::_GcdX<1,1>::value
CONST	ENDS
;	COMDAT ?value@?$_GcdX@$00$0A@@std@@2_JB
CONST	SEGMENT
?value@?$_GcdX@$00$0A@@std@@2_JB DQ 0000000000000001H	; std::_GcdX<1,0>::value
CONST	ENDS
;	COMDAT ?value@?$_Abs@$00@std@@2_JB
CONST	SEGMENT
?value@?$_Abs@$00@std@@2_JB DQ 0000000000000001H	; std::_Abs<1>::value
CONST	ENDS
;	COMDAT ?digits10@?$numeric_limits@G@std@@2HB
CONST	SEGMENT
?digits10@?$numeric_limits@G@std@@2HB DD 04H		; std::numeric_limits<unsigned short>::digits10
CONST	ENDS
;	COMDAT ?_G1@?$_Ratio_multiply2@U?$ratio@$0GE@$00@std@@U?$ratio@$00$0DLJKMKAA@@2@@std@@2_JB
CONST	SEGMENT
?_G1@?$_Ratio_multiply2@U?$ratio@$0GE@$00@std@@U?$ratio@$00$0DLJKMKAA@@2@@std@@2_JB DQ 0000000000000064H ; std::_Ratio_multiply2<std::ratio<100,1>,std::ratio<1,1000000000> >::_G1
CONST	ENDS
;	COMDAT ?digits@?$numeric_limits@G@std@@2HB
CONST	SEGMENT
?digits@?$numeric_limits@G@std@@2HB DD 010H		; std::numeric_limits<unsigned short>::digits
CONST	ENDS
;	COMDAT ?is_signed@?$numeric_limits@G@std@@2_NB
CONST	SEGMENT
?is_signed@?$numeric_limits@G@std@@2_NB DB 00H		; std::numeric_limits<unsigned short>::is_signed
CONST	ENDS
;	COMDAT ?value@?$_Gcd@$0GE@$0DLJKMKAA@@std@@2_JB
CONST	SEGMENT
?value@?$_Gcd@$0GE@$0DLJKMKAA@@std@@2_JB DQ 0000000000000064H ; std::_Gcd<100,1000000000>::value
CONST	ENDS
;	COMDAT ?_STATE_CALLED@_CancellationTokenRegistration@details@Concurrency@@0JB
CONST	SEGMENT
?_STATE_CALLED@_CancellationTokenRegistration@details@Concurrency@@0JB DD 03H ; Concurrency::details::_CancellationTokenRegistration::_STATE_CALLED
CONST	ENDS
;	COMDAT ?_STATE_SYNCHRONIZE@_CancellationTokenRegistration@details@Concurrency@@0JB
CONST	SEGMENT
?_STATE_SYNCHRONIZE@_CancellationTokenRegistration@details@Concurrency@@0JB DD 02H ; Concurrency::details::_CancellationTokenRegistration::_STATE_SYNCHRONIZE
CONST	ENDS
;	COMDAT ?value@?$_GcdX@$0GE@$0DLJKMKAA@@std@@2_JB
CONST	SEGMENT
?value@?$_GcdX@$0GE@$0DLJKMKAA@@std@@2_JB DQ 0000000000000064H ; std::_GcdX<100,1000000000>::value
CONST	ENDS
;	COMDAT ?_STATE_DEFER_DELETE@_CancellationTokenRegistration@details@Concurrency@@0JB
CONST	SEGMENT
?_STATE_DEFER_DELETE@_CancellationTokenRegistration@details@Concurrency@@0JB DD 01H ; Concurrency::details::_CancellationTokenRegistration::_STATE_DEFER_DELETE
CONST	ENDS
;	COMDAT ?_STATE_CLEAR@_CancellationTokenRegistration@details@Concurrency@@0JB
CONST	SEGMENT
?_STATE_CLEAR@_CancellationTokenRegistration@details@Concurrency@@0JB DD 00H ; Concurrency::details::_CancellationTokenRegistration::_STATE_CLEAR
CONST	ENDS
;	COMDAT ?value@?$_GcdX@$0DLJKMKAA@$0GE@@std@@2_JB
CONST	SEGMENT
?value@?$_GcdX@$0DLJKMKAA@$0GE@@std@@2_JB DQ 0000000000000064H ; std::_GcdX<1000000000,100>::value
CONST	ENDS
;	COMDAT ?value@?$integral_constant@_N$00@std@@2_NB
CONST	SEGMENT
?value@?$integral_constant@_N$00@std@@2_NB DB 01H	; std::integral_constant<bool,1>::value
CONST	ENDS
;	COMDAT ?value@?$_GcdX@$0GE@$0A@@std@@2_JB
CONST	SEGMENT
?value@?$_GcdX@$0GE@$0A@@std@@2_JB DQ 0000000000000064H	; std::_GcdX<100,0>::value
CONST	ENDS
;	COMDAT ?digits10@?$numeric_limits@F@std@@2HB
CONST	SEGMENT
?digits10@?$numeric_limits@F@std@@2HB DD 04H		; std::numeric_limits<short>::digits10
CONST	ENDS
;	COMDAT ?value@?$integral_constant@_N$0A@@std@@2_NB
CONST	SEGMENT
?value@?$integral_constant@_N$0A@@std@@2_NB DB 00H	; std::integral_constant<bool,0>::value
CONST	ENDS
;	COMDAT ?digits@?$numeric_limits@F@std@@2HB
CONST	SEGMENT
?digits@?$numeric_limits@F@std@@2HB DD 0fH		; std::numeric_limits<short>::digits
CONST	ENDS
;	COMDAT ?is_signed@?$numeric_limits@F@std@@2_NB
CONST	SEGMENT
?is_signed@?$numeric_limits@F@std@@2_NB DB 01H		; std::numeric_limits<short>::is_signed
CONST	ENDS
;	COMDAT ?value@?$_Abs@$0DLJKMKAA@@std@@2_JB
CONST	SEGMENT
?value@?$_Abs@$0DLJKMKAA@@std@@2_JB DQ 000000003b9aca00H ; std::_Abs<1000000000>::value
CONST	ENDS
;	COMDAT ?value@?$_Abs@$0GE@@std@@2_JB
CONST	SEGMENT
?value@?$_Abs@$0GE@@std@@2_JB DQ 0000000000000064H	; std::_Abs<100>::value
CONST	ENDS
;	COMDAT ?value@?$integral_constant@I$0A@@std@@2IB
CONST	SEGMENT
?value@?$integral_constant@I$0A@@std@@2IB DD 00H	; std::integral_constant<unsigned int,0>::value
CONST	ENDS
;	COMDAT ?digits10@?$numeric_limits@E@std@@2HB
CONST	SEGMENT
?digits10@?$numeric_limits@E@std@@2HB DD 02H		; std::numeric_limits<unsigned char>::digits10
CONST	ENDS
;	COMDAT ?digits@?$numeric_limits@E@std@@2HB
CONST	SEGMENT
?digits@?$numeric_limits@E@std@@2HB DD 08H		; std::numeric_limits<unsigned char>::digits
CONST	ENDS
;	COMDAT ?is_signed@?$numeric_limits@E@std@@2_NB
CONST	SEGMENT
?is_signed@?$numeric_limits@E@std@@2_NB DB 00H		; std::numeric_limits<unsigned char>::is_signed
CONST	ENDS
;	COMDAT ?digits10@?$numeric_limits@C@std@@2HB
CONST	SEGMENT
?digits10@?$numeric_limits@C@std@@2HB DD 02H		; std::numeric_limits<signed char>::digits10
CONST	ENDS
;	COMDAT ?digits@?$numeric_limits@C@std@@2HB
CONST	SEGMENT
?digits@?$numeric_limits@C@std@@2HB DD 07H		; std::numeric_limits<signed char>::digits
CONST	ENDS
;	COMDAT ?is_signed@?$numeric_limits@C@std@@2_NB
CONST	SEGMENT
?is_signed@?$numeric_limits@C@std@@2_NB DB 01H		; std::numeric_limits<signed char>::is_signed
CONST	ENDS
;	COMDAT ?digits10@?$numeric_limits@_N@std@@2HB
CONST	SEGMENT
?digits10@?$numeric_limits@_N@std@@2HB DD 00H		; std::numeric_limits<bool>::digits10
CONST	ENDS
;	COMDAT ?digits@?$numeric_limits@_N@std@@2HB
CONST	SEGMENT
?digits@?$numeric_limits@_N@std@@2HB DD 01H		; std::numeric_limits<bool>::digits
CONST	ENDS
;	COMDAT ?is_signed@?$numeric_limits@_N@std@@2_NB
CONST	SEGMENT
?is_signed@?$numeric_limits@_N@std@@2_NB DB 00H		; std::numeric_limits<bool>::is_signed
CONST	ENDS
;	COMDAT ?is_modulo@?$numeric_limits@_N@std@@2_NB
CONST	SEGMENT
?is_modulo@?$numeric_limits@_N@std@@2_NB DB 00H		; std::numeric_limits<bool>::is_modulo
CONST	ENDS
CONST	SEGMENT
_dmgrom	DB	031H
	DB	0feH
	DB	0ffH
	DB	0afH
	DB	021H
	DB	0ffH
	DB	09fH
	DB	032H
	DB	0cbH
	DB	07cH
	DB	020H
	DB	0fbH
	DB	021H
	DB	026H
	DB	0ffH
	DB	0eH
	DB	011H
	DB	03eH
	DB	080H
	DB	032H
	DB	0e2H
	DB	0cH
	DB	03eH
	DB	0f3H
	DB	0e2H
	DB	032H
	DB	03eH
	DB	077H
	DB	077H
	DB	03eH
	DB	0fcH
	DB	0e0H
	DB	047H
	DB	011H
	DB	04H
	DB	01H
	DB	021H
	DB	010H
	DB	080H
	DB	01aH
	DB	0cdH
	DB	095H
	DB	00H
	DB	0cdH
	DB	096H
	DB	00H
	DB	013H
	DB	07bH
	DB	0feH
	DB	034H
	DB	020H
	DB	0f3H
	DB	011H
	DB	0d8H
	DB	00H
	DB	06H
	DB	08H
	DB	01aH
	DB	013H
	DB	022H
	DB	023H
	DB	05H
	DB	020H
	DB	0f9H
	DB	03eH
	DB	019H
	DB	0eaH
	DB	010H
	DB	099H
	DB	021H
	DB	02fH
	DB	099H
	DB	0eH
	DB	0cH
	DB	03dH
	DB	028H
	DB	08H
	DB	032H
	DB	0dH
	DB	020H
	DB	0f9H
	DB	02eH
	DB	0fH
	DB	018H
	DB	0f3H
	DB	067H
	DB	03eH
	DB	064H
	DB	057H
	DB	0e0H
	DB	042H
	DB	03eH
	DB	091H
	DB	0e0H
	DB	040H
	DB	04H
	DB	01eH
	DB	02H
	DB	0eH
	DB	0cH
	DB	0f0H
	DB	044H
	DB	0feH
	DB	090H
	DB	020H
	DB	0faH
	DB	0dH
	DB	020H
	DB	0f7H
	DB	01dH
	DB	020H
	DB	0f2H
	DB	0eH
	DB	013H
	DB	024H
	DB	07cH
	DB	01eH
	DB	083H
	DB	0feH
	DB	062H
	DB	028H
	DB	06H
	DB	01eH
	DB	0c1H
	DB	0feH
	DB	064H
	DB	020H
	DB	06H
	DB	07bH
	DB	0e2H
	DB	0cH
	DB	03eH
	DB	087H
	DB	0e2H
	DB	0f0H
	DB	042H
	DB	090H
	DB	0e0H
	DB	042H
	DB	015H
	DB	020H
	DB	0d2H
	DB	05H
	DB	020H
	DB	04fH
	DB	016H
	DB	020H
	DB	018H
	DB	0cbH
	DB	04fH
	DB	06H
	DB	04H
	DB	0c5H
	DB	0cbH
	DB	011H
	DB	017H
	DB	0c1H
	DB	0cbH
	DB	011H
	DB	017H
	DB	05H
	DB	020H
	DB	0f5H
	DB	022H
	DB	023H
	DB	022H
	DB	023H
	DB	0c9H
	DB	0ceH
	DB	0edH
	DB	066H
	DB	066H
	DB	0ccH
	DB	0dH
	DB	00H
	DB	0bH
	DB	03H
	DB	073H
	DB	00H
	DB	083H
	DB	00H
	DB	0cH
	DB	00H
	DB	0dH
	DB	00H
	DB	08H
	DB	011H
	DB	01fH
	DB	088H
	DB	089H
	DB	00H
	DB	0eH
	DB	0dcH
	DB	0ccH
	DB	06eH
	DB	0e6H
	DB	0ddH
	DB	0ddH
	DB	0d9H
	DB	099H
	DB	0bbH
	DB	0bbH
	DB	067H
	DB	063H
	DB	06eH
	DB	0eH
	DB	0ecH
	DB	0ccH
	DB	0ddH
	DB	0dcH
	DB	099H
	DB	09fH
	DB	0bbH
	DB	0b9H
	DB	033H
	DB	03eH
	DB	03cH
	DB	042H
	DB	0b9H
	DB	0a5H
	DB	0b9H
	DB	0a5H
	DB	042H
	DB	03cH
	DB	021H
	DB	04H
	DB	01H
	DB	011H
	DB	0a8H
	DB	00H
	DB	01aH
	DB	013H
	DB	0beH
	DB	020H
	DB	0feH
	DB	023H
	DB	07dH
	DB	0feH
	DB	034H
	DB	020H
	DB	0f5H
	DB	06H
	DB	019H
	DB	078H
	DB	086H
	DB	023H
	DB	05H
	DB	020H
	DB	0fbH
	DB	086H
	DB	020H
	DB	0feH
	DB	03eH
	DB	01H
	DB	0e0H
	DB	050H
$SG130093 DB	'Code\emulation\gb\memory.cpp', 00H
	ORG $+3
$SG130096 DB	'Code\emulation\gb\memory.cpp', 00H
	ORG $+3
$SG130099 DB	'Code\emulation\gb\memory.cpp', 00H
	ORG $+3
$SG130178 DB	'%c', 00H
CONST	ENDS
;	COMDAT ?digits10@?$numeric_limits@_W@std@@2HB
CONST	SEGMENT
?digits10@?$numeric_limits@_W@std@@2HB DD 04H		; std::numeric_limits<wchar_t>::digits10
CONST	ENDS
;	COMDAT ?digits@?$numeric_limits@_W@std@@2HB
CONST	SEGMENT
?digits@?$numeric_limits@_W@std@@2HB DD 010H		; std::numeric_limits<wchar_t>::digits
CONST	ENDS
;	COMDAT ?is_signed@?$numeric_limits@_W@std@@2_NB
CONST	SEGMENT
?is_signed@?$numeric_limits@_W@std@@2_NB DB 00H		; std::numeric_limits<wchar_t>::is_signed
CONST	ENDS
PUBLIC	??0_Ignore@std@@QAE@XZ				; std::_Ignore::_Ignore
PUBLIC	?Initialize@Component@gb@emulation@@UAEXPAVEmu@23@@Z ; emulation::gb::Component::Initialize
PUBLIC	?rom@Cartridge@gb@emulation@@QAEPBEXZ		; emulation::gb::Cartridge::rom
PUBLIC	??$SafeDeleteArray@E@@YAXPAPAE@Z		; SafeDeleteArray<unsigned char>
PUBLIC	?Initialize@Memory@gb@emulation@@UAEXPAVEmu@23@@Z ; emulation::gb::Memory::Initialize
PUBLIC	?Deinitialize@Memory@gb@emulation@@UAEXXZ	; emulation::gb::Memory::Deinitialize
PUBLIC	?Read8@Memory@gb@emulation@@QAEEG@Z		; emulation::gb::Memory::Read8
PUBLIC	?Write8@Memory@gb@emulation@@QAEXGE@Z		; emulation::gb::Memory::Write8
PUBLIC	?interrupt_flag@Memory@gb@emulation@@QAEAAEXZ	; emulation::gb::Memory::interrupt_flag
PUBLIC	?Tick@Memory@gb@emulation@@QAEXXZ		; emulation::gb::Memory::Tick
PUBLIC	?lcdc@LCDDriver@gb@emulation@@QAEABTLCDControlRegister@23@XZ ; emulation::gb::LCDDriver::lcdc
PUBLIC	?stat@LCDDriver@gb@emulation@@QAEABTLCDStatusRegister@23@XZ ; emulation::gb::LCDDriver::stat
PUBLIC	?cartridge@Emu@gb@emulation@@QAEPAVCartridge@23@XZ ; emulation::gb::Emu::cartridge
PUBLIC	?cpu@Emu@gb@emulation@@QAEPAVCpu@23@XZ		; emulation::gb::Emu::cpu
PUBLIC	?lcd_driver@Emu@gb@emulation@@QAEPAVLCDDriver@23@XZ ; emulation::gb::Emu::lcd_driver
PUBLIC	?sc@Emu@gb@emulation@@QAEPAVSoundController@23@XZ ; emulation::gb::Emu::sc
PUBLIC	??$sprintf_s@$0PP@@@YAHAAY0PP@DPBDZZ		; sprintf_s<255>
EXTRN	_memset:PROC
EXTRN	__imp__OutputDebugStringA@4:PROC
EXTRN	??_V@YAXPAX@Z:PROC				; operator delete[]
EXTRN	__imp__vsprintf_s:PROC
EXTRN	??_U@YAPAXIHPBDH@Z:PROC				; operator new[]
EXTRN	?Read@Cartridge@gb@emulation@@QAEEG@Z:PROC	; emulation::gb::Cartridge::Read
EXTRN	?Write@Cartridge@gb@emulation@@QAEXGE@Z:PROC	; emulation::gb::Cartridge::Write
EXTRN	?Read@LCDDriver@gb@emulation@@QAEEG@Z:PROC	; emulation::gb::LCDDriver::Read
EXTRN	?Write@LCDDriver@gb@emulation@@QAEXGE@Z:PROC	; emulation::gb::LCDDriver::Write
EXTRN	?Read@SoundController@gb@emulation@@QAEEG@Z:PROC ; emulation::gb::SoundController::Read
EXTRN	?Tick@Cpu@gb@emulation@@QAEXXZ:PROC		; emulation::gb::Cpu::Tick
EXTRN	@_RTC_CheckStackVars@8:PROC
EXTRN	@__security_check_cookie@4:PROC
EXTRN	__RTC_CheckEsp:PROC
EXTRN	__RTC_InitBase:PROC
EXTRN	__RTC_Shutdown:PROC
EXTRN	___security_cookie:DWORD
_BSS	SEGMENT
_piecewise_construct DB 01H DUP (?)
_allocator_arg DB 01H DUP (?)
_ignore	DB	01H DUP (?)
__Tuple_alloc DB 01H DUP (?)
_BSS	ENDS
CRT$XCU	SEGMENT
_piecewise_construct$initializer$ DD FLAT:??__Epiecewise_construct@std@@YAXXZ
CRT$XCU	ENDS
;	COMDAT rtc$TMZ
rtc$TMZ	SEGMENT
__RTC_Shutdown.rtc$TMZ DD FLAT:__RTC_Shutdown
rtc$TMZ	ENDS
;	COMDAT rtc$IMZ
rtc$IMZ	SEGMENT
__RTC_InitBase.rtc$IMZ DD FLAT:__RTC_InitBase
rtc$IMZ	ENDS
CRT$XCU	SEGMENT
_allocator_arg$initializer$ DD FLAT:??__Eallocator_arg@std@@YAXXZ
CRT$XCU	ENDS
CRT$XCU	SEGMENT
_ignore$initializer$ DD FLAT:??__Eignore@std@@YAXXZ
CRT$XCU	ENDS
CRT$XCU	SEGMENT
__Tuple_alloc$initializer$ DD FLAT:??__E_Tuple_alloc@std@@YAXXZ
CRT$XCU	ENDS
; Function compile flags: /Odtp /RTCsu
; File c:\program files (x86)\microsoft visual studio 11.0\vc\include\stdio.h
;	COMDAT ??$sprintf_s@$0PP@@@YAHAAY0PP@DPBDZZ
_TEXT	SEGMENT
__ArgList$ = -4						; size = 4
__Dest$ = 8						; size = 4
__Format$ = 12						; size = 4
??$sprintf_s@$0PP@@@YAHAAY0PP@DPBDZZ PROC		; sprintf_s<255>, COMDAT

; 309  : __DEFINE_CPP_OVERLOAD_SECURE_FUNC_0_1_ARGLIST(int, sprintf_s, vsprintf_s, _Post_z_ char, _Dest, _In_z_ _Printf_format_string_ const char *, _Format)

	push	ebp
	mov	ebp, esp
	push	ecx
	push	esi
	mov	DWORD PTR [ebp-4], -858993460		; ccccccccH
	lea	eax, DWORD PTR __Format$[ebp+4]
	mov	DWORD PTR __ArgList$[ebp], eax
	mov	esi, esp
	mov	ecx, DWORD PTR __ArgList$[ebp]
	push	ecx
	mov	edx, DWORD PTR __Format$[ebp]
	push	edx
	push	255					; 000000ffH
	mov	eax, DWORD PTR __Dest$[ebp]
	push	eax
	call	DWORD PTR __imp__vsprintf_s
	add	esp, 16					; 00000010H
	cmp	esi, esp
	call	__RTC_CheckEsp
	pop	esi
	add	esp, 4
	cmp	ebp, esp
	call	__RTC_CheckEsp
	mov	esp, ebp
	pop	ebp
	ret	0
??$sprintf_s@$0PP@@@YAHAAY0PP@DPBDZZ ENDP		; sprintf_s<255>
_TEXT	ENDS
; Function compile flags: /Odtp /RTCsu
; File d:\personal\projects\gbemu\solution\code\emulation\gb\emu.h
;	COMDAT ?sc@Emu@gb@emulation@@QAEPAVSoundController@23@XZ
_TEXT	SEGMENT
_this$ = -4						; size = 4
?sc@Emu@gb@emulation@@QAEPAVSoundController@23@XZ PROC	; emulation::gb::Emu::sc, COMDAT
; _this$ = ecx

; 23   : 	SoundController* sc() { return &sc_; }

	push	ebp
	mov	ebp, esp
	push	ecx
	mov	DWORD PTR [ebp-4], -858993460		; ccccccccH
	mov	DWORD PTR _this$[ebp], ecx
	mov	eax, DWORD PTR _this$[ebp]
	add	eax, 1664				; 00000680H
	mov	esp, ebp
	pop	ebp
	ret	0
?sc@Emu@gb@emulation@@QAEPAVSoundController@23@XZ ENDP	; emulation::gb::Emu::sc
_TEXT	ENDS
; Function compile flags: /Odtp /RTCsu
; File d:\personal\projects\gbemu\solution\code\emulation\gb\emu.h
;	COMDAT ?lcd_driver@Emu@gb@emulation@@QAEPAVLCDDriver@23@XZ
_TEXT	SEGMENT
_this$ = -4						; size = 4
?lcd_driver@Emu@gb@emulation@@QAEPAVLCDDriver@23@XZ PROC ; emulation::gb::Emu::lcd_driver, COMDAT
; _this$ = ecx

; 22   :   LCDDriver* lcd_driver() { return &lcd_driver_; }

	push	ebp
	mov	ebp, esp
	push	ecx
	mov	DWORD PTR [ebp-4], -858993460		; ccccccccH
	mov	DWORD PTR _this$[ebp], ecx
	mov	eax, DWORD PTR _this$[ebp]
	add	eax, 1592				; 00000638H
	mov	esp, ebp
	pop	ebp
	ret	0
?lcd_driver@Emu@gb@emulation@@QAEPAVLCDDriver@23@XZ ENDP ; emulation::gb::Emu::lcd_driver
_TEXT	ENDS
; Function compile flags: /Odtp /RTCsu
; File d:\personal\projects\gbemu\solution\code\emulation\gb\emu.h
;	COMDAT ?cpu@Emu@gb@emulation@@QAEPAVCpu@23@XZ
_TEXT	SEGMENT
_this$ = -4						; size = 4
?cpu@Emu@gb@emulation@@QAEPAVCpu@23@XZ PROC		; emulation::gb::Emu::cpu, COMDAT
; _this$ = ecx

; 20   :   Cpu* cpu() { return &cpu_; }

	push	ebp
	mov	ebp, esp
	push	ecx
	mov	DWORD PTR [ebp-4], -858993460		; ccccccccH
	mov	DWORD PTR _this$[ebp], ecx
	mov	eax, DWORD PTR _this$[ebp]
	add	eax, 72					; 00000048H
	mov	esp, ebp
	pop	ebp
	ret	0
?cpu@Emu@gb@emulation@@QAEPAVCpu@23@XZ ENDP		; emulation::gb::Emu::cpu
_TEXT	ENDS
; Function compile flags: /Odtp /RTCsu
; File d:\personal\projects\gbemu\solution\code\emulation\gb\emu.h
;	COMDAT ?cartridge@Emu@gb@emulation@@QAEPAVCartridge@23@XZ
_TEXT	SEGMENT
_this$ = -4						; size = 4
?cartridge@Emu@gb@emulation@@QAEPAVCartridge@23@XZ PROC	; emulation::gb::Emu::cartridge, COMDAT
; _this$ = ecx

; 19   :   Cartridge* cartridge() { return &cartridge_; }

	push	ebp
	mov	ebp, esp
	push	ecx
	mov	DWORD PTR [ebp-4], -858993460		; ccccccccH
	mov	DWORD PTR _this$[ebp], ecx
	mov	eax, DWORD PTR _this$[ebp]
	add	eax, 48					; 00000030H
	mov	esp, ebp
	pop	ebp
	ret	0
?cartridge@Emu@gb@emulation@@QAEPAVCartridge@23@XZ ENDP	; emulation::gb::Emu::cartridge
_TEXT	ENDS
; Function compile flags: /Odtp /RTCsu
; File d:\personal\projects\gbemu\solution\code\emulation\gb\lcd_driver.h
;	COMDAT ?stat@LCDDriver@gb@emulation@@QAEABTLCDStatusRegister@23@XZ
_TEXT	SEGMENT
_this$ = -4						; size = 4
?stat@LCDDriver@gb@emulation@@QAEABTLCDStatusRegister@23@XZ PROC ; emulation::gb::LCDDriver::stat, COMDAT
; _this$ = ecx

; 52   : 	const LCDStatusRegister& stat() { return stat_; }

	push	ebp
	mov	ebp, esp
	push	ecx
	mov	DWORD PTR [ebp-4], -858993460		; ccccccccH
	mov	DWORD PTR _this$[ebp], ecx
	mov	eax, DWORD PTR _this$[ebp]
	add	eax, 13					; 0000000dH
	mov	esp, ebp
	pop	ebp
	ret	0
?stat@LCDDriver@gb@emulation@@QAEABTLCDStatusRegister@23@XZ ENDP ; emulation::gb::LCDDriver::stat
_TEXT	ENDS
; Function compile flags: /Odtp /RTCsu
; File d:\personal\projects\gbemu\solution\code\emulation\gb\lcd_driver.h
;	COMDAT ?lcdc@LCDDriver@gb@emulation@@QAEABTLCDControlRegister@23@XZ
_TEXT	SEGMENT
_this$ = -4						; size = 4
?lcdc@LCDDriver@gb@emulation@@QAEABTLCDControlRegister@23@XZ PROC ; emulation::gb::LCDDriver::lcdc, COMDAT
; _this$ = ecx

; 51   : 	const LCDControlRegister& lcdc() { return lcdc_; }

	push	ebp
	mov	ebp, esp
	push	ecx
	mov	DWORD PTR [ebp-4], -858993460		; ccccccccH
	mov	DWORD PTR _this$[ebp], ecx
	mov	eax, DWORD PTR _this$[ebp]
	add	eax, 12					; 0000000cH
	mov	esp, ebp
	pop	ebp
	ret	0
?lcdc@LCDDriver@gb@emulation@@QAEABTLCDControlRegister@23@XZ ENDP ; emulation::gb::LCDDriver::lcdc
_TEXT	ENDS
; Function compile flags: /Odtp /RTCsu
; File d:\personal\projects\gbemu\solution\code\emulation\gb\memory.cpp
_TEXT	SEGMENT
tv177 = -16						; size = 4
_i$1 = -12						; size = 4
_i$2 = -8						; size = 4
_this$ = -4						; size = 4
?Tick@Memory@gb@emulation@@QAEXXZ PROC			; emulation::gb::Memory::Tick
; _this$ = ecx

; 163  : void Memory::Tick() {

	push	ebp
	mov	ebp, esp
	sub	esp, 16					; 00000010H
	mov	eax, -858993460				; ccccccccH
	mov	DWORD PTR [ebp-16], eax
	mov	DWORD PTR [ebp-12], eax
	mov	DWORD PTR [ebp-8], eax
	mov	DWORD PTR [ebp-4], eax
	mov	DWORD PTR _this$[ebp], ecx

; 164  : 
; 165  : 	if ((ioports_[0] & 0x30)==0x10) {

	mov	eax, 1
	imul	eax, 0
	mov	ecx, DWORD PTR _this$[ebp]
	movzx	edx, BYTE PTR [ecx+eax+184]
	and	edx, 48					; 00000030H
	cmp	edx, 16					; 00000010H
	jne	SHORT $LN14@Tick

; 166  : 		for (int i=0;i<4;++i) {

	mov	DWORD PTR _i$2[ebp], 0
	jmp	SHORT $LN13@Tick
$LN12@Tick:
	mov	eax, DWORD PTR _i$2[ebp]
	add	eax, 1
	mov	DWORD PTR _i$2[ebp], eax
$LN13@Tick:
	cmp	DWORD PTR _i$2[ebp], 4
	jge	SHORT $LN11@Tick

; 167  : 			if (joypadflags[i]==true)//pressed

	mov	ecx, DWORD PTR _this$[ebp]
	add	ecx, DWORD PTR _i$2[ebp]
	movzx	edx, BYTE PTR [ecx+440]
	cmp	edx, 1
	jne	SHORT $LN10@Tick

; 168  : 				ioports_[i] &= ~(1<<i);

	mov	eax, 1
	mov	ecx, DWORD PTR _i$2[ebp]
	shl	eax, cl
	not	eax
	mov	ecx, DWORD PTR _this$[ebp]
	add	ecx, DWORD PTR _i$2[ebp]
	movzx	edx, BYTE PTR [ecx+184]
	and	edx, eax
	mov	eax, DWORD PTR _this$[ebp]
	add	eax, DWORD PTR _i$2[ebp]
	mov	BYTE PTR [eax+184], dl

; 169  : 			else

	jmp	SHORT $LN9@Tick
$LN10@Tick:

; 170  : 				ioports_[i] |= (1<<i);

	mov	edx, 1
	mov	ecx, DWORD PTR _i$2[ebp]
	shl	edx, cl
	mov	eax, DWORD PTR _this$[ebp]
	add	eax, DWORD PTR _i$2[ebp]
	movzx	ecx, BYTE PTR [eax+184]
	or	ecx, edx
	mov	edx, DWORD PTR _this$[ebp]
	add	edx, DWORD PTR _i$2[ebp]
	mov	BYTE PTR [edx+184], cl
$LN9@Tick:

; 171  : 		}

	jmp	SHORT $LN12@Tick
$LN11@Tick:
	jmp	$LN8@Tick
$LN14@Tick:

; 172  : 	} else if ((ioports_[0] & 0x30)==0x20) {

	mov	eax, 1
	imul	eax, 0
	mov	ecx, DWORD PTR _this$[ebp]
	movzx	edx, BYTE PTR [ecx+eax+184]
	and	edx, 48					; 00000030H
	cmp	edx, 32					; 00000020H
	jne	SHORT $LN8@Tick

; 173  : 		for (int i=0;i<4;++i) {

	mov	DWORD PTR _i$1[ebp], 0
	jmp	SHORT $LN6@Tick
$LN5@Tick:
	mov	eax, DWORD PTR _i$1[ebp]
	add	eax, 1
	mov	DWORD PTR _i$1[ebp], eax
$LN6@Tick:
	cmp	DWORD PTR _i$1[ebp], 4
	jge	SHORT $LN8@Tick

; 174  : 			if (joypadflags[i+4]==true)//pressed

	mov	ecx, DWORD PTR _this$[ebp]
	add	ecx, DWORD PTR _i$1[ebp]
	movzx	edx, BYTE PTR [ecx+444]
	cmp	edx, 1
	jne	SHORT $LN3@Tick

; 175  : 				ioports_[i+4] &= ~(1<<i);

	mov	eax, 1
	mov	ecx, DWORD PTR _i$1[ebp]
	shl	eax, cl
	not	eax
	mov	ecx, DWORD PTR _this$[ebp]
	add	ecx, DWORD PTR _i$1[ebp]
	movzx	edx, BYTE PTR [ecx+188]
	and	edx, eax
	mov	eax, DWORD PTR _this$[ebp]
	add	eax, DWORD PTR _i$1[ebp]
	mov	BYTE PTR [eax+188], dl

; 176  : 			else

	jmp	SHORT $LN2@Tick
$LN3@Tick:

; 177  : 				ioports_[i+4] |= (1<<i);

	mov	edx, 1
	mov	ecx, DWORD PTR _i$1[ebp]
	shl	edx, cl
	mov	eax, DWORD PTR _this$[ebp]
	add	eax, DWORD PTR _i$1[ebp]
	movzx	ecx, BYTE PTR [eax+188]
	or	ecx, edx
	mov	edx, DWORD PTR _this$[ebp]
	add	edx, DWORD PTR _i$1[ebp]
	mov	BYTE PTR [edx+188], cl
$LN2@Tick:

; 178  : 		}

	jmp	SHORT $LN5@Tick
$LN8@Tick:

; 179  : 	} 
; 180  : 
; 181  : 	if ((ioports_[0]&0xF) != 0xF) 

	mov	eax, 1
	imul	eax, 0
	mov	ecx, DWORD PTR _this$[ebp]
	movzx	edx, BYTE PTR [ecx+eax+184]
	and	edx, 15					; 0000000fH
	cmp	edx, 15					; 0000000fH
	je	SHORT $LN15@Tick

; 182  : 		interrupt_flag() |= 16;

	mov	ecx, DWORD PTR _this$[ebp]
	call	?interrupt_flag@Memory@gb@emulation@@QAEAAEXZ ; emulation::gb::Memory::interrupt_flag
	mov	DWORD PTR tv177[ebp], eax
	mov	eax, DWORD PTR tv177[ebp]
	movzx	ecx, BYTE PTR [eax]
	or	ecx, 16					; 00000010H
	mov	edx, DWORD PTR tv177[ebp]
	mov	BYTE PTR [edx], cl
$LN15@Tick:

; 183  : 
; 184  : }

	add	esp, 16					; 00000010H
	cmp	ebp, esp
	call	__RTC_CheckEsp
	mov	esp, ebp
	pop	ebp
	ret	0
?Tick@Memory@gb@emulation@@QAEXXZ ENDP			; emulation::gb::Memory::Tick
_TEXT	ENDS
; Function compile flags: /Odtp /RTCsu
; File d:\personal\projects\gbemu\solution\code\emulation\gb\memory.h
;	COMDAT ?interrupt_flag@Memory@gb@emulation@@QAEAAEXZ
_TEXT	SEGMENT
_this$ = -4						; size = 4
?interrupt_flag@Memory@gb@emulation@@QAEAAEXZ PROC	; emulation::gb::Memory::interrupt_flag, COMDAT
; _this$ = ecx

; 20   :   uint8_t& interrupt_flag() {  return ioports_[0x0F]; }

	push	ebp
	mov	ebp, esp
	push	ecx
	mov	DWORD PTR [ebp-4], -858993460		; ccccccccH
	mov	DWORD PTR _this$[ebp], ecx
	mov	eax, 1
	imul	eax, 15					; 0000000fH
	mov	ecx, DWORD PTR _this$[ebp]
	lea	eax, DWORD PTR [ecx+eax+184]
	mov	esp, ebp
	pop	ebp
	ret	0
?interrupt_flag@Memory@gb@emulation@@QAEAAEXZ ENDP	; emulation::gb::Memory::interrupt_flag
_TEXT	ENDS
; Function compile flags: /Odtp /RTCsu
; File d:\personal\projects\gbemu\solution\code\emulation\gb\memory.cpp
_TEXT	SEGMENT
tv310 = -280						; size = 4
_str$1 = -272						; size = 255
_a$2 = -12						; size = 4
_this$ = -8						; size = 4
__$ArrayPad$ = -4					; size = 4
_address$ = 8						; size = 2
_data$ = 12						; size = 1
?Write8@Memory@gb@emulation@@QAEXGE@Z PROC		; emulation::gb::Memory::Write8
; _this$ = ecx

; 101  : void Memory::Write8(uint16_t address, uint8_t data) {

	push	ebp
	mov	ebp, esp
	sub	esp, 280				; 00000118H
	push	esi
	push	edi
	push	ecx
	lea	edi, DWORD PTR [ebp-280]
	mov	ecx, 70					; 00000046H
	mov	eax, -858993460				; ccccccccH
	rep stosd
	pop	ecx
	mov	eax, DWORD PTR ___security_cookie
	xor	eax, ebp
	mov	DWORD PTR __$ArrayPad$[ebp], eax
	mov	DWORD PTR _this$[ebp], ecx

; 102  :   emu_->cpu()->Tick();emu_->cpu()->Tick();emu_->cpu()->Tick();emu_->cpu()->Tick();

	mov	eax, DWORD PTR _this$[ebp]
	mov	ecx, DWORD PTR [eax+4]
	call	?cpu@Emu@gb@emulation@@QAEPAVCpu@23@XZ	; emulation::gb::Emu::cpu
	mov	ecx, eax
	call	?Tick@Cpu@gb@emulation@@QAEXXZ		; emulation::gb::Cpu::Tick
	mov	ecx, DWORD PTR _this$[ebp]
	mov	ecx, DWORD PTR [ecx+4]
	call	?cpu@Emu@gb@emulation@@QAEPAVCpu@23@XZ	; emulation::gb::Emu::cpu
	mov	ecx, eax
	call	?Tick@Cpu@gb@emulation@@QAEXXZ		; emulation::gb::Cpu::Tick
	mov	edx, DWORD PTR _this$[ebp]
	mov	ecx, DWORD PTR [edx+4]
	call	?cpu@Emu@gb@emulation@@QAEPAVCpu@23@XZ	; emulation::gb::Emu::cpu
	mov	ecx, eax
	call	?Tick@Cpu@gb@emulation@@QAEXXZ		; emulation::gb::Cpu::Tick
	mov	eax, DWORD PTR _this$[ebp]
	mov	ecx, DWORD PTR [eax+4]
	call	?cpu@Emu@gb@emulation@@QAEPAVCpu@23@XZ	; emulation::gb::Emu::cpu
	mov	ecx, eax
	call	?Tick@Cpu@gb@emulation@@QAEXXZ		; emulation::gb::Cpu::Tick

; 103  : 	if (address >= 0x0000 && address <= 0x3FFF) {

	movzx	ecx, WORD PTR _address$[ebp]
	test	ecx, ecx
	jl	SHORT $LN35@Write8
	movzx	edx, WORD PTR _address$[ebp]
	cmp	edx, 16383				; 00003fffH
	jg	SHORT $LN35@Write8

; 104  :     emu_->cartridge()->Write(address,data);

	movzx	eax, BYTE PTR _data$[ebp]
	push	eax
	movzx	ecx, WORD PTR _address$[ebp]
	push	ecx
	mov	edx, DWORD PTR _this$[ebp]
	mov	ecx, DWORD PTR [edx+4]
	call	?cartridge@Emu@gb@emulation@@QAEPAVCartridge@23@XZ ; emulation::gb::Emu::cartridge
	mov	ecx, eax
	call	?Write@Cartridge@gb@emulation@@QAEXGE@Z	; emulation::gb::Cartridge::Write
	jmp	$LN36@Write8
$LN35@Write8:

; 105  : 	} else if (address >= 0x4000 && address <= 0x7FFF) {

	movzx	eax, WORD PTR _address$[ebp]
	cmp	eax, 16384				; 00004000H
	jl	SHORT $LN33@Write8
	movzx	ecx, WORD PTR _address$[ebp]
	cmp	ecx, 32767				; 00007fffH
	jg	SHORT $LN33@Write8

; 106  : 		emu_->cartridge()->Write(address,data);

	movzx	edx, BYTE PTR _data$[ebp]
	push	edx
	movzx	eax, WORD PTR _address$[ebp]
	push	eax
	mov	ecx, DWORD PTR _this$[ebp]
	mov	ecx, DWORD PTR [ecx+4]
	call	?cartridge@Emu@gb@emulation@@QAEPAVCartridge@23@XZ ; emulation::gb::Emu::cartridge
	mov	ecx, eax
	call	?Write@Cartridge@gb@emulation@@QAEXGE@Z	; emulation::gb::Cartridge::Write
	jmp	$LN36@Write8
$LN33@Write8:

; 107  : 	} else if (address >= 0x8000 && address <= 0x9FFF) {

	movzx	edx, WORD PTR _address$[ebp]
	cmp	edx, 32768				; 00008000H
	jl	SHORT $LN31@Write8
	movzx	eax, WORD PTR _address$[ebp]
	cmp	eax, 40959				; 00009fffH
	jg	SHORT $LN31@Write8

; 108  : 
; 109  : 		if ((emu_->lcd_driver()->stat().mode == 3)&&(emu_->lcd_driver()->lcdc().lcd_enable==1))

	mov	ecx, DWORD PTR _this$[ebp]
	mov	ecx, DWORD PTR [ecx+4]
	call	?lcd_driver@Emu@gb@emulation@@QAEPAVLCDDriver@23@XZ ; emulation::gb::Emu::lcd_driver
	mov	ecx, eax
	call	?stat@LCDDriver@gb@emulation@@QAEABTLCDStatusRegister@23@XZ ; emulation::gb::LCDDriver::stat
	mov	dl, BYTE PTR [eax]
	and	dl, 3
	movzx	eax, dl
	cmp	eax, 3
	jne	SHORT $LN30@Write8
	mov	ecx, DWORD PTR _this$[ebp]
	mov	ecx, DWORD PTR [ecx+4]
	call	?lcd_driver@Emu@gb@emulation@@QAEPAVLCDDriver@23@XZ ; emulation::gb::Emu::lcd_driver
	mov	ecx, eax
	call	?lcdc@LCDDriver@gb@emulation@@QAEABTLCDControlRegister@23@XZ ; emulation::gb::LCDDriver::lcdc
	mov	dl, BYTE PTR [eax]
	shr	dl, 7
	and	dl, 1
	movzx	eax, dl
	cmp	eax, 1
	jne	SHORT $LN30@Write8

; 110  : 			return;

	jmp	$LN36@Write8
$LN30@Write8:

; 111  : 
; 112  : 		 vram_[address&0x1FFF] = data;

	movzx	ecx, WORD PTR _address$[ebp]
	and	ecx, 8191				; 00001fffH
	mov	edx, DWORD PTR _this$[ebp]
	mov	eax, DWORD PTR [edx+12]
	mov	dl, BYTE PTR _data$[ebp]
	mov	BYTE PTR [eax+ecx], dl
	jmp	$LN36@Write8
$LN31@Write8:

; 113  : 
; 114  : 	} else if (address >= 0xA000 && address <= 0xBFFF) {

	movzx	eax, WORD PTR _address$[ebp]
	cmp	eax, 40960				; 0000a000H
	jl	SHORT $LN28@Write8
	movzx	ecx, WORD PTR _address$[ebp]
	cmp	ecx, 49151				; 0000bfffH
	jg	SHORT $LN28@Write8

; 115  : 		emu_->cartridge()->Write(address,data);

	movzx	edx, BYTE PTR _data$[ebp]
	push	edx
	movzx	eax, WORD PTR _address$[ebp]
	push	eax
	mov	ecx, DWORD PTR _this$[ebp]
	mov	ecx, DWORD PTR [ecx+4]
	call	?cartridge@Emu@gb@emulation@@QAEPAVCartridge@23@XZ ; emulation::gb::Emu::cartridge
	mov	ecx, eax
	call	?Write@Cartridge@gb@emulation@@QAEXGE@Z	; emulation::gb::Cartridge::Write
	jmp	$LN36@Write8
$LN28@Write8:

; 116  : 	} else if (address >= 0xC000 && address <= 0xCFFF) {

	movzx	edx, WORD PTR _address$[ebp]
	cmp	edx, 49152				; 0000c000H
	jl	SHORT $LN26@Write8
	movzx	eax, WORD PTR _address$[ebp]
	cmp	eax, 53247				; 0000cfffH
	jg	SHORT $LN26@Write8

; 117  : 		wram1_[address&0x0FFF] = data;

	movzx	ecx, WORD PTR _address$[ebp]
	and	ecx, 4095				; 00000fffH
	mov	edx, DWORD PTR _this$[ebp]
	mov	eax, DWORD PTR [edx+16]
	mov	dl, BYTE PTR _data$[ebp]
	mov	BYTE PTR [eax+ecx], dl
	jmp	$LN36@Write8
$LN26@Write8:

; 118  : 	} else if (address >= 0xD000 && address <= 0xDFFF) {

	movzx	eax, WORD PTR _address$[ebp]
	cmp	eax, 53248				; 0000d000H
	jl	SHORT $LN24@Write8
	movzx	ecx, WORD PTR _address$[ebp]
	cmp	ecx, 57343				; 0000dfffH
	jg	SHORT $LN24@Write8

; 119  : 		wram2_[address&0x0FFF] = data;

	movzx	edx, WORD PTR _address$[ebp]
	and	edx, 4095				; 00000fffH
	mov	eax, DWORD PTR _this$[ebp]
	mov	ecx, DWORD PTR [eax+20]
	mov	al, BYTE PTR _data$[ebp]
	mov	BYTE PTR [ecx+edx], al
	jmp	$LN36@Write8
$LN24@Write8:

; 120  : 	} else if (address >= 0xE000 && address <= 0xFDFF) {

	movzx	ecx, WORD PTR _address$[ebp]
	cmp	ecx, 57344				; 0000e000H
	jl	SHORT $LN22@Write8
	movzx	edx, WORD PTR _address$[ebp]
	cmp	edx, 65023				; 0000fdffH
	jg	SHORT $LN22@Write8

; 121  : 		if ((address&0xF000)==0xE000)

	movzx	eax, WORD PTR _address$[ebp]
	and	eax, 61440				; 0000f000H
	cmp	eax, 57344				; 0000e000H
	jne	SHORT $LN21@Write8

; 122  : 		 wram1_[address&0xFFF] = data;

	movzx	ecx, WORD PTR _address$[ebp]
	and	ecx, 4095				; 00000fffH
	mov	edx, DWORD PTR _this$[ebp]
	mov	eax, DWORD PTR [edx+16]
	mov	dl, BYTE PTR _data$[ebp]
	mov	BYTE PTR [eax+ecx], dl
$LN21@Write8:

; 123  : 		if ((address&0xF000)==0xF000)

	movzx	eax, WORD PTR _address$[ebp]
	and	eax, 61440				; 0000f000H
	cmp	eax, 61440				; 0000f000H
	jne	SHORT $LN20@Write8

; 124  : 		 wram2_[address&0xFFF] = data;

	movzx	ecx, WORD PTR _address$[ebp]
	and	ecx, 4095				; 00000fffH
	mov	edx, DWORD PTR _this$[ebp]
	mov	eax, DWORD PTR [edx+20]
	mov	dl, BYTE PTR _data$[ebp]
	mov	BYTE PTR [eax+ecx], dl
$LN20@Write8:

; 125  : 	} else if (address >= 0xFE00 && address <= 0xFE9F) {

	jmp	$LN36@Write8
$LN22@Write8:
	movzx	eax, WORD PTR _address$[ebp]
	cmp	eax, 65024				; 0000fe00H
	jl	SHORT $LN18@Write8
	movzx	ecx, WORD PTR _address$[ebp]
	cmp	ecx, 65183				; 0000fe9fH
	jg	SHORT $LN18@Write8

; 126  : 		if ((emu_->lcd_driver()->stat().mode&0x2)&&(emu_->lcd_driver()->lcdc().lcd_enable==1))

	mov	edx, DWORD PTR _this$[ebp]
	mov	ecx, DWORD PTR [edx+4]
	call	?lcd_driver@Emu@gb@emulation@@QAEPAVLCDDriver@23@XZ ; emulation::gb::Emu::lcd_driver
	mov	ecx, eax
	call	?stat@LCDDriver@gb@emulation@@QAEABTLCDStatusRegister@23@XZ ; emulation::gb::LCDDriver::stat
	mov	al, BYTE PTR [eax]
	and	al, 3
	movzx	ecx, al
	and	ecx, 2
	je	SHORT $LN17@Write8
	mov	edx, DWORD PTR _this$[ebp]
	mov	ecx, DWORD PTR [edx+4]
	call	?lcd_driver@Emu@gb@emulation@@QAEPAVLCDDriver@23@XZ ; emulation::gb::Emu::lcd_driver
	mov	ecx, eax
	call	?lcdc@LCDDriver@gb@emulation@@QAEABTLCDControlRegister@23@XZ ; emulation::gb::LCDDriver::lcdc
	mov	al, BYTE PTR [eax]
	shr	al, 7
	and	al, 1
	movzx	ecx, al
	cmp	ecx, 1
	jne	SHORT $LN17@Write8

; 127  : 			return;

	jmp	$LN36@Write8
$LN17@Write8:

; 128  : 		 oam_[address-0xFE00] = data;

	movzx	edx, WORD PTR _address$[ebp]
	mov	eax, DWORD PTR _this$[ebp]
	mov	cl, BYTE PTR _data$[ebp]
	mov	BYTE PTR [eax+edx-65000], cl
	jmp	$LN36@Write8
$LN18@Write8:

; 129  : 
; 130  : 	} else if (address >= 0xFEA0 && address <= 0xFEFF) {

	movzx	edx, WORD PTR _address$[ebp]
	cmp	edx, 65184				; 0000fea0H
	jl	SHORT $LN15@Write8
	movzx	eax, WORD PTR _address$[ebp]
	cmp	eax, 65279				; 0000feffH
	jg	SHORT $LN15@Write8

; 131  : 		//int a = 1;
; 132  :      int a = 1;

	mov	DWORD PTR _a$2[ebp], 1
	jmp	$LN36@Write8
$LN15@Write8:

; 133  : 	} else if (address >= 0xFF00 && address <= 0xFF7F) {

	movzx	ecx, WORD PTR _address$[ebp]
	cmp	ecx, 65280				; 0000ff00H
	jl	$LN13@Write8
	movzx	edx, WORD PTR _address$[ebp]
	cmp	edx, 65407				; 0000ff7fH
	jg	$LN13@Write8

; 134  : 
; 135  : 		if (address == 0xFF00) {

	movzx	eax, WORD PTR _address$[ebp]
	cmp	eax, 65280				; 0000ff00H
	jne	SHORT $LN12@Write8

; 136  : 			ioports_[0]=data & ~0x0F;

	movzx	ecx, BYTE PTR _data$[ebp]
	and	ecx, -16				; fffffff0H
	mov	edx, 1
	imul	edx, 0
	mov	eax, DWORD PTR _this$[ebp]
	mov	BYTE PTR [eax+edx+184], cl

; 137  : 			return;

	jmp	$LN36@Write8
	jmp	SHORT $LN11@Write8
$LN12@Write8:

; 138  : 		} else if (address == 0xFF01) {

	movzx	ecx, WORD PTR _address$[ebp]
	cmp	ecx, 65281				; 0000ff01H
	jne	SHORT $LN11@Write8

; 139  : 			char str[255];
; 140  : 			sprintf_s(str,"%c",data);

	movzx	edx, BYTE PTR _data$[ebp]
	push	edx
	push	OFFSET $SG130178
	lea	eax, DWORD PTR _str$1[ebp]
	push	eax
	call	??$sprintf_s@$0PP@@@YAHAAY0PP@DPBDZZ	; sprintf_s<255>
	add	esp, 12					; 0000000cH

; 141  : 			OutputDebugString(str);

	mov	esi, esp
	lea	ecx, DWORD PTR _str$1[ebp]
	push	ecx
	call	DWORD PTR __imp__OutputDebugStringA@4
	cmp	esi, esp
	call	__RTC_CheckEsp
$LN11@Write8:

; 142  : 		}
; 143  : 
; 144  : 		ioports_[address&0xFF]=data;

	movzx	edx, WORD PTR _address$[ebp]
	and	edx, 255				; 000000ffH
	mov	eax, DWORD PTR _this$[ebp]
	mov	cl, BYTE PTR _data$[ebp]
	mov	BYTE PTR [eax+edx+184], cl

; 145  : 
; 146  :     switch (address) {

	movzx	edx, WORD PTR _address$[ebp]
	mov	DWORD PTR tv310[ebp], edx

; 147  :       case 0xFF26: //sound enable/disable
; 148  :         break;
; 149  :     }
; 150  :     if (address >= 0xFF10 && address <= 0xFF26)

	movzx	eax, WORD PTR _address$[ebp]
	cmp	eax, 65296				; 0000ff10H
	jl	SHORT $LN6@Write8
	movzx	ecx, WORD PTR _address$[ebp]
	cmp	ecx, 65318				; 0000ff26H
	jg	SHORT $LN6@Write8

; 151  :       emu_->lcd_driver()->Write(address,data);

	movzx	edx, BYTE PTR _data$[ebp]
	push	edx
	movzx	eax, WORD PTR _address$[ebp]
	push	eax
	mov	ecx, DWORD PTR _this$[ebp]
	mov	ecx, DWORD PTR [ecx+4]
	call	?lcd_driver@Emu@gb@emulation@@QAEPAVLCDDriver@23@XZ ; emulation::gb::Emu::lcd_driver
	mov	ecx, eax
	call	?Write@LCDDriver@gb@emulation@@QAEXGE@Z	; emulation::gb::LCDDriver::Write
$LN6@Write8:

; 152  : 
; 153  :     if (address >= 0xFF40 && address <= 0xFF4B)

	movzx	edx, WORD PTR _address$[ebp]
	cmp	edx, 65344				; 0000ff40H
	jl	SHORT $LN5@Write8
	movzx	eax, WORD PTR _address$[ebp]
	cmp	eax, 65355				; 0000ff4bH
	jg	SHORT $LN5@Write8

; 154  :       emu_->lcd_driver()->Write(address,data);

	movzx	ecx, BYTE PTR _data$[ebp]
	push	ecx
	movzx	edx, WORD PTR _address$[ebp]
	push	edx
	mov	eax, DWORD PTR _this$[ebp]
	mov	ecx, DWORD PTR [eax+4]
	call	?lcd_driver@Emu@gb@emulation@@QAEPAVLCDDriver@23@XZ ; emulation::gb::Emu::lcd_driver
	mov	ecx, eax
	call	?Write@LCDDriver@gb@emulation@@QAEXGE@Z	; emulation::gb::LCDDriver::Write
$LN5@Write8:

; 155  : 
; 156  : 	} else if (address >= 0xFF80 && address <= 0xFFFE) {

	jmp	SHORT $LN36@Write8
$LN13@Write8:
	movzx	ecx, WORD PTR _address$[ebp]
	cmp	ecx, 65408				; 0000ff80H
	jl	SHORT $LN3@Write8
	movzx	edx, WORD PTR _address$[ebp]
	cmp	edx, 65534				; 0000fffeH
	jg	SHORT $LN3@Write8

; 157  : 		hram_[address-0xFF80] = data;

	movzx	eax, WORD PTR _address$[ebp]
	mov	ecx, DWORD PTR _this$[ebp]
	mov	dl, BYTE PTR _data$[ebp]
	mov	BYTE PTR [ecx+eax-65096], dl
	jmp	SHORT $LN36@Write8
$LN3@Write8:

; 158  : 	} else if (address == 0xFFFF) {

	movzx	eax, WORD PTR _address$[ebp]
	cmp	eax, 65535				; 0000ffffH
	jne	SHORT $LN36@Write8

; 159  : 		interrupt_enable_register_ = data;

	mov	ecx, DWORD PTR _this$[ebp]
	mov	dl, BYTE PTR _data$[ebp]
	mov	BYTE PTR [ecx+439], dl
$LN36@Write8:

; 160  : 	}
; 161  : }

	push	edx
	mov	ecx, ebp
	push	eax
	lea	edx, DWORD PTR $LN40@Write8
	call	@_RTC_CheckStackVars@8
	pop	eax
	pop	edx
	pop	edi
	pop	esi
	mov	ecx, DWORD PTR __$ArrayPad$[ebp]
	xor	ecx, ebp
	call	@__security_check_cookie@4
	add	esp, 280				; 00000118H
	cmp	ebp, esp
	call	__RTC_CheckEsp
	mov	esp, ebp
	pop	ebp
	ret	8
	npad	1
$LN40@Write8:
	DD	1
	DD	$LN39@Write8
$LN39@Write8:
	DD	-272					; fffffef0H
	DD	255					; 000000ffH
	DD	$LN38@Write8
$LN38@Write8:
	DB	115					; 00000073H
	DB	116					; 00000074H
	DB	114					; 00000072H
	DB	0
?Write8@Memory@gb@emulation@@QAEXGE@Z ENDP		; emulation::gb::Memory::Write8
_TEXT	ENDS
; Function compile flags: /Odtp /RTCsu
; File d:\personal\projects\gbemu\solution\code\emulation\gb\memory.cpp
_TEXT	SEGMENT
_a$1 = -8						; size = 4
_this$ = -4						; size = 4
_address$ = 8						; size = 2
?Read8@Memory@gb@emulation@@QAEEG@Z PROC		; emulation::gb::Memory::Read8
; _this$ = ecx

; 50   : uint8_t Memory::Read8(uint16_t address) {

	push	ebp
	mov	ebp, esp
	sub	esp, 8
	mov	DWORD PTR [ebp-8], -858993460		; ccccccccH
	mov	DWORD PTR [ebp-4], -858993460		; ccccccccH
	mov	DWORD PTR _this$[ebp], ecx

; 51   :   emu_->cpu()->Tick();emu_->cpu()->Tick();emu_->cpu()->Tick();emu_->cpu()->Tick();

	mov	eax, DWORD PTR _this$[ebp]
	mov	ecx, DWORD PTR [eax+4]
	call	?cpu@Emu@gb@emulation@@QAEPAVCpu@23@XZ	; emulation::gb::Emu::cpu
	mov	ecx, eax
	call	?Tick@Cpu@gb@emulation@@QAEXXZ		; emulation::gb::Cpu::Tick
	mov	ecx, DWORD PTR _this$[ebp]
	mov	ecx, DWORD PTR [ecx+4]
	call	?cpu@Emu@gb@emulation@@QAEPAVCpu@23@XZ	; emulation::gb::Emu::cpu
	mov	ecx, eax
	call	?Tick@Cpu@gb@emulation@@QAEXXZ		; emulation::gb::Cpu::Tick
	mov	edx, DWORD PTR _this$[ebp]
	mov	ecx, DWORD PTR [edx+4]
	call	?cpu@Emu@gb@emulation@@QAEPAVCpu@23@XZ	; emulation::gb::Emu::cpu
	mov	ecx, eax
	call	?Tick@Cpu@gb@emulation@@QAEXXZ		; emulation::gb::Cpu::Tick
	mov	eax, DWORD PTR _this$[ebp]
	mov	ecx, DWORD PTR [eax+4]
	call	?cpu@Emu@gb@emulation@@QAEPAVCpu@23@XZ	; emulation::gb::Emu::cpu
	mov	ecx, eax
	call	?Tick@Cpu@gb@emulation@@QAEXXZ		; emulation::gb::Cpu::Tick

; 52   : 	if (address >= 0x0000 && address <= 0x3FFF) {

	movzx	ecx, WORD PTR _address$[ebp]
	test	ecx, ecx
	jl	SHORT $LN32@Read8
	movzx	edx, WORD PTR _address$[ebp]
	cmp	edx, 16383				; 00003fffH
	jg	SHORT $LN32@Read8

; 53   : 		if (ioports_[0x50] == 0) {

	mov	eax, 1
	imul	eax, 80					; 00000050H
	mov	ecx, DWORD PTR _this$[ebp]
	movzx	edx, BYTE PTR [ecx+eax+184]
	test	edx, edx
	jne	SHORT $LN31@Read8

; 54   :       if (address < 0x100)

	movzx	eax, WORD PTR _address$[ebp]
	cmp	eax, 256				; 00000100H
	jge	SHORT $LN31@Read8

; 55   : 			  return dmgrom[address&0xFF];

	movzx	ecx, WORD PTR _address$[ebp]
	and	ecx, 255				; 000000ffH
	mov	al, BYTE PTR _dmgrom[ecx]
	jmp	$LN33@Read8
$LN31@Read8:

; 56   :     }
; 57   : 	  return emu_->cartridge()->Read(address);

	movzx	edx, WORD PTR _address$[ebp]
	push	edx
	mov	eax, DWORD PTR _this$[ebp]
	mov	ecx, DWORD PTR [eax+4]
	call	?cartridge@Emu@gb@emulation@@QAEPAVCartridge@23@XZ ; emulation::gb::Emu::cartridge
	mov	ecx, eax
	call	?Read@Cartridge@gb@emulation@@QAEEG@Z	; emulation::gb::Cartridge::Read
	jmp	$LN33@Read8
	jmp	$LN29@Read8
$LN32@Read8:

; 58   : 	} else if (address >= 0x4000 && address <= 0x7FFF) {

	movzx	ecx, WORD PTR _address$[ebp]
	cmp	ecx, 16384				; 00004000H
	jl	SHORT $LN28@Read8
	movzx	edx, WORD PTR _address$[ebp]
	cmp	edx, 32767				; 00007fffH
	jg	SHORT $LN28@Read8

; 59   : 		return emu_->cartridge()->Read(address);

	movzx	eax, WORD PTR _address$[ebp]
	push	eax
	mov	ecx, DWORD PTR _this$[ebp]
	mov	ecx, DWORD PTR [ecx+4]
	call	?cartridge@Emu@gb@emulation@@QAEPAVCartridge@23@XZ ; emulation::gb::Emu::cartridge
	mov	ecx, eax
	call	?Read@Cartridge@gb@emulation@@QAEEG@Z	; emulation::gb::Cartridge::Read
	jmp	$LN33@Read8
	jmp	$LN29@Read8
$LN28@Read8:

; 60   : 	} else if (address >= 0x8000 && address <= 0x9FFF) {

	movzx	edx, WORD PTR _address$[ebp]
	cmp	edx, 32768				; 00008000H
	jl	SHORT $LN26@Read8
	movzx	eax, WORD PTR _address$[ebp]
	cmp	eax, 40959				; 00009fffH
	jg	SHORT $LN26@Read8

; 61   : 
; 62   : 		if ((emu_->lcd_driver()->stat().mode == 3)&&(emu_->lcd_driver()->lcdc().lcd_enable==1))

	mov	ecx, DWORD PTR _this$[ebp]
	mov	ecx, DWORD PTR [ecx+4]
	call	?lcd_driver@Emu@gb@emulation@@QAEPAVLCDDriver@23@XZ ; emulation::gb::Emu::lcd_driver
	mov	ecx, eax
	call	?stat@LCDDriver@gb@emulation@@QAEABTLCDStatusRegister@23@XZ ; emulation::gb::LCDDriver::stat
	mov	dl, BYTE PTR [eax]
	and	dl, 3
	movzx	eax, dl
	cmp	eax, 3
	jne	SHORT $LN25@Read8
	mov	ecx, DWORD PTR _this$[ebp]
	mov	ecx, DWORD PTR [ecx+4]
	call	?lcd_driver@Emu@gb@emulation@@QAEPAVLCDDriver@23@XZ ; emulation::gb::Emu::lcd_driver
	mov	ecx, eax
	call	?lcdc@LCDDriver@gb@emulation@@QAEABTLCDControlRegister@23@XZ ; emulation::gb::LCDDriver::lcdc
	mov	dl, BYTE PTR [eax]
	shr	dl, 7
	and	dl, 1
	movzx	eax, dl
	cmp	eax, 1
	jne	SHORT $LN25@Read8

; 63   : 			return 0xFF;

	or	al, 255					; 000000ffH
	jmp	$LN33@Read8
$LN25@Read8:

; 64   : 
; 65   : 		return vram_[address&0x1FFF];

	movzx	ecx, WORD PTR _address$[ebp]
	and	ecx, 8191				; 00001fffH
	mov	edx, DWORD PTR _this$[ebp]
	mov	eax, DWORD PTR [edx+12]
	mov	al, BYTE PTR [eax+ecx]
	jmp	$LN33@Read8
	jmp	$LN29@Read8
$LN26@Read8:

; 66   : 	} else if (address >= 0xA000 && address <= 0xBFFF) {

	movzx	ecx, WORD PTR _address$[ebp]
	cmp	ecx, 40960				; 0000a000H
	jl	SHORT $LN23@Read8
	movzx	edx, WORD PTR _address$[ebp]
	cmp	edx, 49151				; 0000bfffH
	jg	SHORT $LN23@Read8

; 67   :     return emu_->cartridge()->Read(address);//emu_->cartridge()->eram()[address&0x1FFF];

	movzx	eax, WORD PTR _address$[ebp]
	push	eax
	mov	ecx, DWORD PTR _this$[ebp]
	mov	ecx, DWORD PTR [ecx+4]
	call	?cartridge@Emu@gb@emulation@@QAEPAVCartridge@23@XZ ; emulation::gb::Emu::cartridge
	mov	ecx, eax
	call	?Read@Cartridge@gb@emulation@@QAEEG@Z	; emulation::gb::Cartridge::Read
	jmp	$LN33@Read8
	jmp	$LN29@Read8
$LN23@Read8:

; 68   : 	} else if (address >= 0xC000 && address <= 0xCFFF) {

	movzx	edx, WORD PTR _address$[ebp]
	cmp	edx, 49152				; 0000c000H
	jl	SHORT $LN21@Read8
	movzx	eax, WORD PTR _address$[ebp]
	cmp	eax, 53247				; 0000cfffH
	jg	SHORT $LN21@Read8

; 69   : 		return wram1_[address&0x0FFF];

	movzx	ecx, WORD PTR _address$[ebp]
	and	ecx, 4095				; 00000fffH
	mov	edx, DWORD PTR _this$[ebp]
	mov	eax, DWORD PTR [edx+16]
	mov	al, BYTE PTR [eax+ecx]
	jmp	$LN33@Read8
	jmp	$LN29@Read8
$LN21@Read8:

; 70   : 	} else if (address >= 0xD000 && address <= 0xDFFF) {

	movzx	ecx, WORD PTR _address$[ebp]
	cmp	ecx, 53248				; 0000d000H
	jl	SHORT $LN19@Read8
	movzx	edx, WORD PTR _address$[ebp]
	cmp	edx, 57343				; 0000dfffH
	jg	SHORT $LN19@Read8

; 71   : 		return wram2_[address&0x0FFF];

	movzx	eax, WORD PTR _address$[ebp]
	and	eax, 4095				; 00000fffH
	mov	ecx, DWORD PTR _this$[ebp]
	mov	edx, DWORD PTR [ecx+20]
	mov	al, BYTE PTR [edx+eax]
	jmp	$LN33@Read8
	jmp	$LN29@Read8
$LN19@Read8:

; 72   : 	} else if (address >= 0xE000 && address <= 0xFDFF) {

	movzx	eax, WORD PTR _address$[ebp]
	cmp	eax, 57344				; 0000e000H
	jl	SHORT $LN17@Read8
	movzx	ecx, WORD PTR _address$[ebp]
	cmp	ecx, 65023				; 0000fdffH
	jg	SHORT $LN17@Read8

; 73   : 	  if ((address&0xF000)==0xE000)

	movzx	edx, WORD PTR _address$[ebp]
	and	edx, 61440				; 0000f000H
	cmp	edx, 57344				; 0000e000H
	jne	SHORT $LN16@Read8

; 74   : 		 return wram1_[address&0xFFF];

	movzx	eax, WORD PTR _address$[ebp]
	and	eax, 4095				; 00000fffH
	mov	ecx, DWORD PTR _this$[ebp]
	mov	edx, DWORD PTR [ecx+16]
	mov	al, BYTE PTR [edx+eax]
	jmp	$LN33@Read8
$LN16@Read8:

; 75   : 		if ((address&0xF000)==0xF000)

	movzx	eax, WORD PTR _address$[ebp]
	and	eax, 61440				; 0000f000H
	cmp	eax, 61440				; 0000f000H
	jne	SHORT $LN15@Read8

; 76   : 		 return wram2_[address&0xFFF];

	movzx	ecx, WORD PTR _address$[ebp]
	and	ecx, 4095				; 00000fffH
	mov	edx, DWORD PTR _this$[ebp]
	mov	eax, DWORD PTR [edx+20]
	mov	al, BYTE PTR [eax+ecx]
	jmp	$LN33@Read8
$LN15@Read8:

; 77   : 	} else if (address >= 0xFE00 && address <= 0xFE9F) {

	jmp	$LN29@Read8
$LN17@Read8:
	movzx	ecx, WORD PTR _address$[ebp]
	cmp	ecx, 65024				; 0000fe00H
	jl	SHORT $LN13@Read8
	movzx	edx, WORD PTR _address$[ebp]
	cmp	edx, 65183				; 0000fe9fH
	jg	SHORT $LN13@Read8

; 78   : 
; 79   : 		if ((emu_->lcd_driver()->stat().mode&0x2)&&(emu_->lcd_driver()->lcdc().lcd_enable==1))

	mov	eax, DWORD PTR _this$[ebp]
	mov	ecx, DWORD PTR [eax+4]
	call	?lcd_driver@Emu@gb@emulation@@QAEPAVLCDDriver@23@XZ ; emulation::gb::Emu::lcd_driver
	mov	ecx, eax
	call	?stat@LCDDriver@gb@emulation@@QAEABTLCDStatusRegister@23@XZ ; emulation::gb::LCDDriver::stat
	mov	cl, BYTE PTR [eax]
	and	cl, 3
	movzx	edx, cl
	and	edx, 2
	je	SHORT $LN12@Read8
	mov	eax, DWORD PTR _this$[ebp]
	mov	ecx, DWORD PTR [eax+4]
	call	?lcd_driver@Emu@gb@emulation@@QAEPAVLCDDriver@23@XZ ; emulation::gb::Emu::lcd_driver
	mov	ecx, eax
	call	?lcdc@LCDDriver@gb@emulation@@QAEABTLCDControlRegister@23@XZ ; emulation::gb::LCDDriver::lcdc
	mov	cl, BYTE PTR [eax]
	shr	cl, 7
	and	cl, 1
	movzx	edx, cl
	cmp	edx, 1
	jne	SHORT $LN12@Read8

; 80   : 			return 0xFF;

	or	al, 255					; 000000ffH
	jmp	$LN33@Read8
$LN12@Read8:

; 81   : 
; 82   : 		return oam_[address-0xFE00];

	movzx	eax, WORD PTR _address$[ebp]
	mov	ecx, DWORD PTR _this$[ebp]
	mov	al, BYTE PTR [ecx+eax-65000]
	jmp	$LN33@Read8
	jmp	$LN29@Read8
$LN13@Read8:

; 83   : 	} else if (address >= 0xFEA0 && address <= 0xFEFF) {

	movzx	edx, WORD PTR _address$[ebp]
	cmp	edx, 65184				; 0000fea0H
	jl	SHORT $LN10@Read8
	movzx	eax, WORD PTR _address$[ebp]
	cmp	eax, 65279				; 0000feffH
	jg	SHORT $LN10@Read8

; 84   : 		int a = 1;

	mov	DWORD PTR _a$1[ebp], 1
	jmp	$LN29@Read8
$LN10@Read8:

; 85   : 	} else if (address >= 0xFF00 && address <= 0xFF7F) {

	movzx	ecx, WORD PTR _address$[ebp]
	cmp	ecx, 65280				; 0000ff00H
	jl	$LN8@Read8
	movzx	edx, WORD PTR _address$[ebp]
	cmp	edx, 65407				; 0000ff7fH
	jg	$LN8@Read8

; 86   : 		if (address >= 0xFF10 && address <= 0xFF26) {

	movzx	eax, WORD PTR _address$[ebp]
	cmp	eax, 65296				; 0000ff10H
	jl	SHORT $LN7@Read8
	movzx	ecx, WORD PTR _address$[ebp]
	cmp	ecx, 65318				; 0000ff26H
	jg	SHORT $LN7@Read8

; 87   :       ioports_[address&0xFF] = emu_->sc()->Read(address);

	movzx	edx, WORD PTR _address$[ebp]
	push	edx
	mov	eax, DWORD PTR _this$[ebp]
	mov	ecx, DWORD PTR [eax+4]
	call	?sc@Emu@gb@emulation@@QAEPAVSoundController@23@XZ ; emulation::gb::Emu::sc
	mov	ecx, eax
	call	?Read@SoundController@gb@emulation@@QAEEG@Z ; emulation::gb::SoundController::Read
	movzx	ecx, WORD PTR _address$[ebp]
	and	ecx, 255				; 000000ffH
	mov	edx, DWORD PTR _this$[ebp]
	mov	BYTE PTR [edx+ecx+184], al
	jmp	SHORT $LN6@Read8
$LN7@Read8:

; 88   : 		} else if (address >= 0xFF40 && address <= 0xFF4B) {

	movzx	eax, WORD PTR _address$[ebp]
	cmp	eax, 65344				; 0000ff40H
	jl	SHORT $LN6@Read8
	movzx	ecx, WORD PTR _address$[ebp]
	cmp	ecx, 65355				; 0000ff4bH
	jg	SHORT $LN6@Read8

; 89   : 			ioports_[address&0xFF] = emu_->lcd_driver()->Read(address);

	movzx	edx, WORD PTR _address$[ebp]
	push	edx
	mov	eax, DWORD PTR _this$[ebp]
	mov	ecx, DWORD PTR [eax+4]
	call	?lcd_driver@Emu@gb@emulation@@QAEPAVLCDDriver@23@XZ ; emulation::gb::Emu::lcd_driver
	mov	ecx, eax
	call	?Read@LCDDriver@gb@emulation@@QAEEG@Z	; emulation::gb::LCDDriver::Read
	movzx	ecx, WORD PTR _address$[ebp]
	and	ecx, 255				; 000000ffH
	mov	edx, DWORD PTR _this$[ebp]
	mov	BYTE PTR [edx+ecx+184], al
$LN6@Read8:

; 90   : 		}
; 91   : 		return ioports_[address&0xFF];

	movzx	eax, WORD PTR _address$[ebp]
	and	eax, 255				; 000000ffH
	mov	ecx, DWORD PTR _this$[ebp]
	mov	al, BYTE PTR [ecx+eax+184]
	jmp	SHORT $LN33@Read8
	jmp	SHORT $LN29@Read8
$LN8@Read8:

; 92   : 	} else if (address >= 0xFF80 && address <= 0xFFFE) {

	movzx	edx, WORD PTR _address$[ebp]
	cmp	edx, 65408				; 0000ff80H
	jl	SHORT $LN3@Read8
	movzx	eax, WORD PTR _address$[ebp]
	cmp	eax, 65534				; 0000fffeH
	jg	SHORT $LN3@Read8

; 93   : 		return hram_[address-0xFF80];

	movzx	ecx, WORD PTR _address$[ebp]
	mov	edx, DWORD PTR _this$[ebp]
	mov	al, BYTE PTR [edx+ecx-65096]
	jmp	SHORT $LN33@Read8
	jmp	SHORT $LN29@Read8
$LN3@Read8:

; 94   : 	} else if (address == 0xFFFF) {

	movzx	eax, WORD PTR _address$[ebp]
	cmp	eax, 65535				; 0000ffffH
	jne	SHORT $LN29@Read8

; 95   : 		return interrupt_enable_register_;

	mov	ecx, DWORD PTR _this$[ebp]
	mov	al, BYTE PTR [ecx+439]
	jmp	SHORT $LN33@Read8
$LN29@Read8:

; 96   : 	}
; 97   : 
; 98   : 	return 0;

	xor	al, al
$LN33@Read8:

; 99   : }

	add	esp, 8
	cmp	ebp, esp
	call	__RTC_CheckEsp
	mov	esp, ebp
	pop	ebp
	ret	4
?Read8@Memory@gb@emulation@@QAEEG@Z ENDP		; emulation::gb::Memory::Read8
_TEXT	ENDS
; Function compile flags: /Odtp /RTCsu
; File d:\personal\projects\gbemu\solution\code\emulation\gb\memory.cpp
_TEXT	SEGMENT
_this$ = -4						; size = 4
?Deinitialize@Memory@gb@emulation@@UAEXXZ PROC		; emulation::gb::Memory::Deinitialize
; _this$ = ecx

; 43   : void Memory::Deinitialize() {

	push	ebp
	mov	ebp, esp
	push	ecx
	mov	DWORD PTR [ebp-4], -858993460		; ccccccccH
	mov	DWORD PTR _this$[ebp], ecx

; 44   : 	SafeDeleteArray(&wram2_);

	mov	eax, DWORD PTR _this$[ebp]
	add	eax, 20					; 00000014H
	push	eax
	call	??$SafeDeleteArray@E@@YAXPAPAE@Z	; SafeDeleteArray<unsigned char>
	add	esp, 4

; 45   : 	SafeDeleteArray(&wram1_);

	mov	ecx, DWORD PTR _this$[ebp]
	add	ecx, 16					; 00000010H
	push	ecx
	call	??$SafeDeleteArray@E@@YAXPAPAE@Z	; SafeDeleteArray<unsigned char>
	add	esp, 4

; 46   : 	SafeDeleteArray(&vram_);

	mov	edx, DWORD PTR _this$[ebp]
	add	edx, 12					; 0000000cH
	push	edx
	call	??$SafeDeleteArray@E@@YAXPAPAE@Z	; SafeDeleteArray<unsigned char>
	add	esp, 4

; 47   : }

	add	esp, 4
	cmp	ebp, esp
	call	__RTC_CheckEsp
	mov	esp, ebp
	pop	ebp
	ret	0
?Deinitialize@Memory@gb@emulation@@UAEXXZ ENDP		; emulation::gb::Memory::Deinitialize
_TEXT	ENDS
; Function compile flags: /Odtp /RTCsu
; File d:\personal\projects\gbemu\solution\code\emulation\gb\memory.cpp
_TEXT	SEGMENT
$T1 = -16						; size = 4
$T2 = -12						; size = 4
$T3 = -8						; size = 4
_this$ = -4						; size = 4
_emu$ = 8						; size = 4
?Initialize@Memory@gb@emulation@@UAEXPAVEmu@23@@Z PROC	; emulation::gb::Memory::Initialize
; _this$ = ecx

; 32   : void Memory::Initialize(Emu* emu) {

	push	ebp
	mov	ebp, esp
	sub	esp, 16					; 00000010H
	mov	eax, -858993460				; ccccccccH
	mov	DWORD PTR [ebp-16], eax
	mov	DWORD PTR [ebp-12], eax
	mov	DWORD PTR [ebp-8], eax
	mov	DWORD PTR [ebp-4], eax
	mov	DWORD PTR _this$[ebp], ecx

; 33   :   Component::Initialize(emu);

	mov	eax, DWORD PTR _emu$[ebp]
	push	eax
	mov	ecx, DWORD PTR _this$[ebp]
	call	?Initialize@Component@gb@emulation@@UAEXPAVEmu@23@@Z ; emulation::gb::Component::Initialize

; 34   :   rom_ = emu_->cartridge()->rom();

	mov	ecx, DWORD PTR _this$[ebp]
	mov	ecx, DWORD PTR [ecx+4]
	call	?cartridge@Emu@gb@emulation@@QAEPAVCartridge@23@XZ ; emulation::gb::Emu::cartridge
	mov	ecx, eax
	call	?rom@Cartridge@gb@emulation@@QAEPBEXZ	; emulation::gb::Cartridge::rom
	mov	edx, DWORD PTR _this$[ebp]
	mov	DWORD PTR [edx+8], eax

; 35   :   vram_ = new uint8_t[0x2000];

	push	35					; 00000023H
	push	OFFSET $SG130093
	push	1
	push	8192					; 00002000H
	call	??_U@YAPAXIHPBDH@Z			; operator new[]
	add	esp, 16					; 00000010H
	mov	DWORD PTR $T3[ebp], eax
	mov	eax, DWORD PTR _this$[ebp]
	mov	ecx, DWORD PTR $T3[ebp]
	mov	DWORD PTR [eax+12], ecx

; 36   : 	wram1_ = new uint8_t[0x1000];

	push	36					; 00000024H
	push	OFFSET $SG130096
	push	1
	push	4096					; 00001000H
	call	??_U@YAPAXIHPBDH@Z			; operator new[]
	add	esp, 16					; 00000010H
	mov	DWORD PTR $T2[ebp], eax
	mov	edx, DWORD PTR _this$[ebp]
	mov	eax, DWORD PTR $T2[ebp]
	mov	DWORD PTR [edx+16], eax

; 37   : 	wram2_ = new uint8_t[0x1000];

	push	37					; 00000025H
	push	OFFSET $SG130099
	push	1
	push	4096					; 00001000H
	call	??_U@YAPAXIHPBDH@Z			; operator new[]
	add	esp, 16					; 00000010H
	mov	DWORD PTR $T1[ebp], eax
	mov	ecx, DWORD PTR _this$[ebp]
	mov	edx, DWORD PTR $T1[ebp]
	mov	DWORD PTR [ecx+20], edx

; 38   : 	ZeroMemory(ioports_,sizeof(ioports_));

	push	128					; 00000080H
	push	0
	mov	eax, DWORD PTR _this$[ebp]
	add	eax, 184				; 000000b8H
	push	eax
	call	_memset
	add	esp, 12					; 0000000cH

; 39   : 	memset(joypadflags,0,sizeof(joypadflags));

	push	8
	push	0
	mov	ecx, DWORD PTR _this$[ebp]
	add	ecx, 440				; 000001b8H
	push	ecx
	call	_memset
	add	esp, 12					; 0000000cH

; 40   : 	ioports_[0] = 0x0F;

	mov	edx, 1
	imul	edx, 0
	mov	eax, DWORD PTR _this$[ebp]
	mov	BYTE PTR [eax+edx+184], 15		; 0000000fH

; 41   : }

	add	esp, 16					; 00000010H
	cmp	ebp, esp
	call	__RTC_CheckEsp
	mov	esp, ebp
	pop	ebp
	ret	4
?Initialize@Memory@gb@emulation@@UAEXPAVEmu@23@@Z ENDP	; emulation::gb::Memory::Initialize
_TEXT	ENDS
; Function compile flags: /Odtp /RTCsu
; File d:\personal\projects\wincore\types.h
;	COMDAT ??$SafeDeleteArray@E@@YAXPAPAE@Z
_TEXT	SEGMENT
$T1 = -4						; size = 4
_ppInterfaceToDelete$ = 8				; size = 4
??$SafeDeleteArray@E@@YAXPAPAE@Z PROC			; SafeDeleteArray<unsigned char>, COMDAT

; 45   : inline void SafeDeleteArray(Interface **ppInterfaceToDelete) {

	push	ebp
	mov	ebp, esp
	push	ecx
	mov	DWORD PTR [ebp-4], -858993460		; ccccccccH

; 46   :     if (*ppInterfaceToDelete != NULL) {

	mov	eax, DWORD PTR _ppInterfaceToDelete$[ebp]
	cmp	DWORD PTR [eax], 0
	je	SHORT $LN2@SafeDelete

; 47   :         delete [] (*ppInterfaceToDelete);

	mov	ecx, DWORD PTR _ppInterfaceToDelete$[ebp]
	mov	edx, DWORD PTR [ecx]
	mov	DWORD PTR $T1[ebp], edx
	mov	eax, DWORD PTR $T1[ebp]
	push	eax
	call	??_V@YAXPAX@Z				; operator delete[]
	add	esp, 4

; 48   :         (*ppInterfaceToDelete) = NULL;

	mov	ecx, DWORD PTR _ppInterfaceToDelete$[ebp]
	mov	DWORD PTR [ecx], 0
$LN2@SafeDelete:

; 49   :     }
; 50   : }

	add	esp, 4
	cmp	ebp, esp
	call	__RTC_CheckEsp
	mov	esp, ebp
	pop	ebp
	ret	0
??$SafeDeleteArray@E@@YAXPAPAE@Z ENDP			; SafeDeleteArray<unsigned char>
_TEXT	ENDS
; Function compile flags: /Odtp /RTCsu
; File d:\personal\projects\gbemu\solution\code\emulation\gb\cartridge.h
;	COMDAT ?rom@Cartridge@gb@emulation@@QAEPBEXZ
_TEXT	SEGMENT
_this$ = -4						; size = 4
?rom@Cartridge@gb@emulation@@QAEPBEXZ PROC		; emulation::gb::Cartridge::rom, COMDAT
; _this$ = ecx

; 83   :   const uint8_t* rom() { return rom_; }

	push	ebp
	mov	ebp, esp
	push	ecx
	mov	DWORD PTR [ebp-4], -858993460		; ccccccccH
	mov	DWORD PTR _this$[ebp], ecx
	mov	eax, DWORD PTR _this$[ebp]
	mov	eax, DWORD PTR [eax+16]
	mov	esp, ebp
	pop	ebp
	ret	0
?rom@Cartridge@gb@emulation@@QAEPBEXZ ENDP		; emulation::gb::Cartridge::rom
_TEXT	ENDS
; Function compile flags: /Odtp /RTCsu
; File d:\personal\projects\gbemu\solution\code\emulation\gb\gb.h
;	COMDAT ?Initialize@Component@gb@emulation@@UAEXPAVEmu@23@@Z
_TEXT	SEGMENT
_this$ = -4						; size = 4
_emu$ = 8						; size = 4
?Initialize@Component@gb@emulation@@UAEXPAVEmu@23@@Z PROC ; emulation::gb::Component::Initialize, COMDAT
; _this$ = ecx

; 28   :   virtual void Initialize(Emu* emu) {

	push	ebp
	mov	ebp, esp
	push	ecx
	mov	DWORD PTR [ebp-4], -858993460		; ccccccccH
	mov	DWORD PTR _this$[ebp], ecx

; 29   :     emu_ = emu;

	mov	eax, DWORD PTR _this$[ebp]
	mov	ecx, DWORD PTR _emu$[ebp]
	mov	DWORD PTR [eax+4], ecx

; 30   :   }

	mov	esp, ebp
	pop	ebp
	ret	4
?Initialize@Component@gb@emulation@@UAEXPAVEmu@23@@Z ENDP ; emulation::gb::Component::Initialize
_TEXT	ENDS
; Function compile flags: /Odtp /RTCsu
; File c:\program files (x86)\microsoft visual studio 11.0\vc\include\tuple
;	COMDAT ??__E_Tuple_alloc@std@@YAXXZ
text$yc	SEGMENT
$T1 = -1						; size = 1
??__E_Tuple_alloc@std@@YAXXZ PROC			; std::`dynamic initializer for '_Tuple_alloc'', COMDAT

; 137  : const _Tuple_alloc_t _Tuple_alloc = _Tuple_alloc_t();

	push	ebp
	mov	ebp, esp
	push	ecx
	mov	DWORD PTR [ebp-4], -858993460		; ccccccccH
	xor	eax, eax
	mov	BYTE PTR $T1[ebp], al
	mov	esp, ebp
	pop	ebp
	ret	0
??__E_Tuple_alloc@std@@YAXXZ ENDP			; std::`dynamic initializer for '_Tuple_alloc''
text$yc	ENDS
; Function compile flags: /Odtp /RTCsu
; File c:\program files (x86)\microsoft visual studio 11.0\vc\include\tuple
;	COMDAT ??__Eignore@std@@YAXXZ
text$yc	SEGMENT
??__Eignore@std@@YAXXZ PROC				; std::`dynamic initializer for 'ignore'', COMDAT

; 130  : const _Ignore ignore;

	push	ebp
	mov	ebp, esp
	mov	ecx, OFFSET _ignore
	call	??0_Ignore@std@@QAE@XZ			; std::_Ignore::_Ignore
	cmp	ebp, esp
	call	__RTC_CheckEsp
	pop	ebp
	ret	0
??__Eignore@std@@YAXXZ ENDP				; std::`dynamic initializer for 'ignore''
text$yc	ENDS
; Function compile flags: /Odtp /RTCsu
; File c:\program files (x86)\microsoft visual studio 11.0\vc\include\tuple
;	COMDAT ??0_Ignore@std@@QAE@XZ
_TEXT	SEGMENT
_this$ = -4						; size = 4
??0_Ignore@std@@QAE@XZ PROC				; std::_Ignore::_Ignore, COMDAT
; _this$ = ecx

; 120  : 	_Ignore()

	push	ebp
	mov	ebp, esp
	push	ecx
	mov	DWORD PTR [ebp-4], -858993460		; ccccccccH
	mov	DWORD PTR _this$[ebp], ecx

; 121  : 		{	// construct
; 122  : 		}

	mov	eax, DWORD PTR _this$[ebp]
	mov	esp, ebp
	pop	ebp
	ret	0
??0_Ignore@std@@QAE@XZ ENDP				; std::_Ignore::_Ignore
_TEXT	ENDS
; Function compile flags: /Odtp /RTCsu
; File c:\program files (x86)\microsoft visual studio 11.0\vc\include\xutility
;	COMDAT ??__Eallocator_arg@std@@YAXXZ
text$yc	SEGMENT
$T1 = -1						; size = 1
??__Eallocator_arg@std@@YAXXZ PROC			; std::`dynamic initializer for 'allocator_arg'', COMDAT

; 3644 : const allocator_arg_t allocator_arg = allocator_arg_t();

	push	ebp
	mov	ebp, esp
	push	ecx
	mov	DWORD PTR [ebp-4], -858993460		; ccccccccH
	xor	eax, eax
	mov	BYTE PTR $T1[ebp], al
	mov	esp, ebp
	pop	ebp
	ret	0
??__Eallocator_arg@std@@YAXXZ ENDP			; std::`dynamic initializer for 'allocator_arg''
text$yc	ENDS
; Function compile flags: /Odtp /RTCsu
; File c:\program files (x86)\microsoft visual studio 11.0\vc\include\utility
;	COMDAT ??__Epiecewise_construct@std@@YAXXZ
text$yc	SEGMENT
$T1 = -1						; size = 1
??__Epiecewise_construct@std@@YAXXZ PROC		; std::`dynamic initializer for 'piecewise_construct'', COMDAT

; 65   : 	piecewise_construct_t();

	push	ebp
	mov	ebp, esp
	push	ecx
	mov	DWORD PTR [ebp-4], -858993460		; ccccccccH
	xor	eax, eax
	mov	BYTE PTR $T1[ebp], al
	mov	esp, ebp
	pop	ebp
	ret	0
??__Epiecewise_construct@std@@YAXXZ ENDP		; std::`dynamic initializer for 'piecewise_construct''
text$yc	ENDS
END
